ARM GAS  /tmp/ccPC0MJk.s 			page 1


   1              		.cpu cortex-m4
   2              		.eabi_attribute 27, 1	@ Tag_ABI_HardFP_use
   3              		.eabi_attribute 20, 1	@ Tag_ABI_FP_denormal
   4              		.eabi_attribute 21, 1	@ Tag_ABI_FP_exceptions
   5              		.eabi_attribute 23, 3	@ Tag_ABI_FP_number_model
   6              		.eabi_attribute 24, 1	@ Tag_ABI_align8_needed
   7              		.eabi_attribute 25, 1	@ Tag_ABI_align8_preserved
   8              		.eabi_attribute 26, 1	@ Tag_ABI_enum_size
   9              		.eabi_attribute 30, 2	@ Tag_ABI_optimization_goals
  10              		.eabi_attribute 34, 1	@ Tag_CPU_unaligned_access
  11              		.eabi_attribute 18, 4	@ Tag_ABI_PCS_wchar_t
  12              		.file	"apiVQ.c"
  13              	@ GNU C89 (GNU Tools for Arm Embedded Processors 8-2018-q4-major) version 8.2.1 20181213 (release) 
  14              	@	compiled by GNU C version 4.8.4, GMP version 6.1.0, MPFR version 3.1.4, MPC version 1.0.3, isl ve
  15              	
  16              	@ GGC heuristics: --param ggc-min-expand=96 --param ggc-min-heapsize=125422
  17              	@ options passed:  -isystem =/include/newlib-nano -I . -I .
  18              	@ -I ../../kernel/FreeRTOS/Source/include
  19              	@ -I ../../kernel/FreeRTOS/Source/portable/GCC/ARM_CM4F
  20              	@ -I ../../kernel/FreeRTOS/Demo/Common/include
  21              	@ -I ../../kernel/FreeRTOS-Plus/Source/FreeRTOS-Plus-CLI
  22              	@ -I ../../peripheral_library/inc -I ../../peripheral_library/hal/m7221/inc
  23              	@ -I ../../CMSIS -I ../../main_full -I ../../3rd/rokid/./ -I /.
  24              	@ -I /../../kernel/FreeRTOS/Source/include
  25              	@ -I /../../kernel/FreeRTOS/Source/portable/GCC/ARM_CM4F
  26              	@ -I /../../kernel/FreeRTOS/Demo/Common/include
  27              	@ -I /../../kernel/FreeRTOS-Plus/Source/FreeRTOS-Plus-CLI
  28              	@ -I /../../peripheral_library/inc
  29              	@ -I /../../peripheral_library/hal/m7221/inc -I /../../CMSIS
  30              	@ -I /../../main_full -I /../../3rd/rokid/./
  31              	@ -imultilib thumb/v7e-m+fp/softfp
  32              	@ -iprefix /home/gu/code/freeRTOS10/vendor/mstar/CM4/tools/gcc-arm-none-eabi-8-2018-q4-major/bin/..
  33              	@ -isysroot /home/gu/code/freeRTOS10/vendor/mstar/CM4/tools/gcc-arm-none-eabi-8-2018-q4-major/bin/.
  34              	@ -MD out/apiVQ.d -MF out/apiVQ.d -MP -MQ out/apiVQ.o -D__USES_INITFINI__
  35              	@ -D CONFIG_BENCH=0 -D CONFIG_SYS_DBG_LEVEL=0xFFFFFFFF -D CONFIG_VOC_MIC=6
  36              	@ -D CONFIG_AUD_I2S -D CONFIG_AUD_AEC -D CONFIG_VOC_MIC_MAPPING
  37              	@ -D CONFIG_VOC_SWHPF -D CONFIG_VOC_SW_SRC48K -D ARM_MATH_CM4
  38              	@ -D BOOTROM_VERSION_ASIC ../../peripheral_library/api/apiVQ.c
  39              	@ -mcpu=cortex-m4 -mthumb -mthumb-interwork -mfloat-abi=softfp
  40              	@ -mfpu=fpv4-sp-d16 -march=armv7e-m+fp -auxbase-strip out/apiVQ.o -g -ggdb3
  41              	@ -O3 -Wall -Wstrict-prototypes -Wextra -std=gnu90 -ffunction-sections
  42              	@ -fdata-sections -fno-builtin-printf -fverbose-asm
  43              	@ options enabled:  -faggressive-loop-optimizations -falign-jumps
  44              	@ -falign-labels -falign-loops -fauto-inc-dec -fbranch-count-reg
  45              	@ -fcaller-saves -fchkp-check-incomplete-type -fchkp-check-read
  46              	@ -fchkp-check-write -fchkp-instrument-calls -fchkp-narrow-bounds
  47              	@ -fchkp-optimize -fchkp-store-bounds -fchkp-use-static-bounds
  48              	@ -fchkp-use-static-const-bounds -fchkp-use-wrappers -fcode-hoisting
  49              	@ -fcombine-stack-adjustments -fcommon -fcompare-elim -fcprop-registers
  50              	@ -fcrossjumping -fcse-follow-jumps -fdata-sections -fdefer-pop
  51              	@ -fdelete-null-pointer-checks -fdevirtualize -fdevirtualize-speculatively
  52              	@ -fdwarf2-cfi-asm -fearly-inlining -feliminate-unused-debug-types
  53              	@ -fexpensive-optimizations -fforward-propagate -ffp-int-builtin-inexact
  54              	@ -ffunction-cse -ffunction-sections -fgcse -fgcse-after-reload -fgcse-lm
  55              	@ -fgnu-runtime -fgnu-unique -fguess-branch-probability
  56              	@ -fhoist-adjacent-loads -fident -fif-conversion -fif-conversion2
  57              	@ -findirect-inlining -finline -finline-atomics -finline-functions
ARM GAS  /tmp/ccPC0MJk.s 			page 2


  58              	@ -finline-functions-called-once -finline-small-functions -fipa-bit-cp
  59              	@ -fipa-cp -fipa-cp-clone -fipa-icf -fipa-icf-functions -fipa-icf-variables
  60              	@ -fipa-profile -fipa-pure-const -fipa-ra -fipa-reference -fipa-sra
  61              	@ -fipa-vrp -fira-hoist-pressure -fira-share-save-slots
  62              	@ -fira-share-spill-slots -fisolate-erroneous-paths-dereference -fivopts
  63              	@ -fkeep-static-consts -fleading-underscore -flifetime-dse
  64              	@ -floop-interchange -floop-unroll-and-jam -flra-remat
  65              	@ -flto-odr-type-merging -fmath-errno -fmerge-constants
  66              	@ -fmerge-debug-strings -fmove-loop-invariants -fomit-frame-pointer
  67              	@ -foptimize-sibling-calls -foptimize-strlen -fpartial-inlining
  68              	@ -fpeel-loops -fpeephole -fpeephole2 -fplt -fpredictive-commoning
  69              	@ -fprefetch-loop-arrays -freg-struct-return -freorder-blocks
  70              	@ -freorder-functions -frerun-cse-after-loop
  71              	@ -fsched-critical-path-heuristic -fsched-dep-count-heuristic
  72              	@ -fsched-group-heuristic -fsched-interblock -fsched-last-insn-heuristic
  73              	@ -fsched-pressure -fsched-rank-heuristic -fsched-spec
  74              	@ -fsched-spec-insn-heuristic -fsched-stalled-insns-dep -fschedule-insns
  75              	@ -fschedule-insns2 -fsection-anchors -fsemantic-interposition
  76              	@ -fshow-column -fshrink-wrap -fshrink-wrap-separate -fsigned-zeros
  77              	@ -fsplit-ivs-in-unroller -fsplit-loops -fsplit-paths -fsplit-wide-types
  78              	@ -fssa-backprop -fssa-phiopt -fstdarg-opt -fstore-merging
  79              	@ -fstrict-aliasing -fstrict-volatile-bitfields -fsync-libcalls
  80              	@ -fthread-jumps -ftoplevel-reorder -ftrapping-math -ftree-bit-ccp
  81              	@ -ftree-builtin-call-dce -ftree-ccp -ftree-ch -ftree-coalesce-vars
  82              	@ -ftree-copy-prop -ftree-cselim -ftree-dce -ftree-dominator-opts
  83              	@ -ftree-dse -ftree-forwprop -ftree-fre -ftree-loop-distribute-patterns
  84              	@ -ftree-loop-distribution -ftree-loop-if-convert -ftree-loop-im
  85              	@ -ftree-loop-ivcanon -ftree-loop-optimize -ftree-loop-vectorize
  86              	@ -ftree-parallelize-loops= -ftree-partial-pre -ftree-phiprop -ftree-pre
  87              	@ -ftree-pta -ftree-reassoc -ftree-scev-cprop -ftree-sink
  88              	@ -ftree-slp-vectorize -ftree-slsr -ftree-sra -ftree-switch-conversion
  89              	@ -ftree-tail-merge -ftree-ter -ftree-vrp -funit-at-a-time -funswitch-loops
  90              	@ -fvar-tracking -fvar-tracking-assignments -fverbose-asm
  91              	@ -fzero-initialized-in-bss -masm-syntax-unified -mbe32 -mlittle-endian
  92              	@ -mpic-data-is-text-relative -msched-prolog -mthumb -munaligned-access
  93              	@ -mvectorize-with-neon-quad
  94              	
  95              		.text
  96              	.Ltext0:
  97              		.cfi_sections	.debug_frame
  98              		.section	.text.MApi_VOC_VQPort,"ax",%progbits
  99              		.align	1
 100              		.p2align 2,,3
 101              		.weak	MApi_VOC_VQPort
 102              		.arch armv7e-m
 103              		.syntax unified
 104              		.thumb
 105              		.thumb_func
 106              		.fpu fpv4-sp-d16
 107              		.type	MApi_VOC_VQPort, %function
 108              	MApi_VOC_VQPort:
 109              	.LVL0:
 110              	.LFB138:
 111              		.file 1 "../../peripheral_library/api/apiVQ.c"
   1:../../peripheral_library/api/apiVQ.c **** /* Standard includes. */
   2:../../peripheral_library/api/apiVQ.c **** #include <string.h>
   3:../../peripheral_library/api/apiVQ.c **** #include <stdio.h>
ARM GAS  /tmp/ccPC0MJk.s 			page 3


   4:../../peripheral_library/api/apiVQ.c **** 
   5:../../peripheral_library/api/apiVQ.c **** /* Kernel includes. */
   6:../../peripheral_library/api/apiVQ.c **** #include "mosWrapper.h"
   7:../../peripheral_library/api/apiVQ.c **** 
   8:../../peripheral_library/api/apiVQ.c **** /* driver includes. */
   9:../../peripheral_library/api/apiVQ.c **** #include "drvAudio.h"
  10:../../peripheral_library/api/apiVQ.c **** #include "drvBDMA.h"
  11:../../peripheral_library/api/apiVQ.c **** #include "drvMBX.h"
  12:../../peripheral_library/api/apiVQ.c **** #include "drvPM.h"
  13:../../peripheral_library/api/apiVQ.c **** #include "drvCPU.h"
  14:../../peripheral_library/api/apiVQ.c **** 
  15:../../peripheral_library/api/apiVQ.c **** #include "voc_task.h"
  16:../../peripheral_library/api/apiVQ.c **** #include "apiVOC.h"
  17:../../peripheral_library/api/apiVQ.c **** 
  18:../../peripheral_library/api/apiVQ.c **** #define VQ_MSG(fmt, args...) MOS_DBG_PRINT(MOS_DBG_LEVEL_VQ, "[VQ] " fmt, ##args)
  19:../../peripheral_library/api/apiVQ.c **** #define VQ_ERROR(fmt, args...) MOS_DBG_ERROR("[VQ ERR] " fmt, ##args);
  20:../../peripheral_library/api/apiVQ.c **** 
  21:../../peripheral_library/api/apiVQ.c **** #if defined(CONFIG_VOC_SW_VAD)
  22:../../peripheral_library/api/apiVQ.c **** #define VOC_VAD_TIMER_PERIOD	( ( ( TickType_t ) 5000 ) / portTICK_PERIOD_MS )
  23:../../peripheral_library/api/apiVQ.c **** static TimerHandle_t _tVocVadTimer = NULL;
  24:../../peripheral_library/api/apiVQ.c **** static Bool _bVadTimeOut = FALSE;
  25:../../peripheral_library/api/apiVQ.c **** static SemaphoreHandle_t _tVadMutex = NULL;
  26:../../peripheral_library/api/apiVQ.c **** 
  27:../../peripheral_library/api/apiVQ.c **** #ifdef __SW_VAD_TEST__
  28:../../peripheral_library/api/apiVQ.c **** static U32 _u32VadRtcStartTime = 0;
  29:../../peripheral_library/api/apiVQ.c **** static U32 _u32VadRtcTotalTime = 0;
  30:../../peripheral_library/api/apiVQ.c **** #endif
  31:../../peripheral_library/api/apiVQ.c **** 
  32:../../peripheral_library/api/apiVQ.c **** static void MApi_VOC_VADTimerCb(TimerHandle_t xTimer)
  33:../../peripheral_library/api/apiVQ.c **** {
  34:../../peripheral_library/api/apiVQ.c **** #ifdef __SW_VAD_TEST__
  35:../../peripheral_library/api/apiVQ.c ****   U32 u32VadRtcTime = 0;
  36:../../peripheral_library/api/apiVQ.c ****   U16 u16VadRtcSubTime = 0;
  37:../../peripheral_library/api/apiVQ.c **** #endif
  38:../../peripheral_library/api/apiVQ.c **** 
  39:../../peripheral_library/api/apiVQ.c ****   configASSERT(xTimer);
  40:../../peripheral_library/api/apiVQ.c **** 
  41:../../peripheral_library/api/apiVQ.c ****   if( xSemaphoreTake( _tVadMutex, portMAX_DELAY ) == pdPASS )
  42:../../peripheral_library/api/apiVQ.c ****   {
  43:../../peripheral_library/api/apiVQ.c ****     _bVadTimeOut = TRUE;
  44:../../peripheral_library/api/apiVQ.c **** 
  45:../../peripheral_library/api/apiVQ.c **** #ifdef __SW_VAD_TEST__
  46:../../peripheral_library/api/apiVQ.c ****     MHal_RTC_GetTime(&u32VadRtcTime, &u16VadRtcSubTime);
  47:../../peripheral_library/api/apiVQ.c ****     _u32VadRtcStartTime = u32VadRtcTime*1000 + (U32)u16VadRtcSubTime*1000/0x8000;
  48:../../peripheral_library/api/apiVQ.c **** #endif
  49:../../peripheral_library/api/apiVQ.c **** 
  50:../../peripheral_library/api/apiVQ.c ****     //TODO: enter low power status
  51:../../peripheral_library/api/apiVQ.c ****     MDrv_PM_LowPower();
  52:../../peripheral_library/api/apiVQ.c ****     VQ_MSG("MApi_VOC_VADTimerCb: low power status\r\n");
  53:../../peripheral_library/api/apiVQ.c **** 
  54:../../peripheral_library/api/apiVQ.c ****     xSemaphoreGive(_tVadMutex);
  55:../../peripheral_library/api/apiVQ.c ****   }
  56:../../peripheral_library/api/apiVQ.c **** }
  57:../../peripheral_library/api/apiVQ.c **** 
  58:../../peripheral_library/api/apiVQ.c **** void MApi_VOC_VADResetTimer(void)
  59:../../peripheral_library/api/apiVQ.c **** {
  60:../../peripheral_library/api/apiVQ.c **** #ifdef __SW_VAD_TEST__
ARM GAS  /tmp/ccPC0MJk.s 			page 4


  61:../../peripheral_library/api/apiVQ.c ****   U32 u32VadRtcTime = 0;
  62:../../peripheral_library/api/apiVQ.c ****   U16 u16VadRtcSubTime = 0;
  63:../../peripheral_library/api/apiVQ.c ****   U32 u32VadRtcStartTime = 0;
  64:../../peripheral_library/api/apiVQ.c **** #endif
  65:../../peripheral_library/api/apiVQ.c **** 
  66:../../peripheral_library/api/apiVQ.c ****   if( xSemaphoreTake( _tVadMutex, portMAX_DELAY ) == pdPASS )
  67:../../peripheral_library/api/apiVQ.c ****   {
  68:../../peripheral_library/api/apiVQ.c ****   	if(_tVocVadTimer)
  69:../../peripheral_library/api/apiVQ.c ****   	{
  70:../../peripheral_library/api/apiVQ.c ****       xTimerReset(_tVocVadTimer, (TickType_t)0);
  71:../../peripheral_library/api/apiVQ.c **** 
  72:../../peripheral_library/api/apiVQ.c ****       if (_bVadTimeOut)
  73:../../peripheral_library/api/apiVQ.c ****       {
  74:../../peripheral_library/api/apiVQ.c ****         _bVadTimeOut = FALSE;
  75:../../peripheral_library/api/apiVQ.c **** 
  76:../../peripheral_library/api/apiVQ.c ****         //TODO: enter full power status
  77:../../peripheral_library/api/apiVQ.c ****         MDrv_PM_HighPower();
  78:../../peripheral_library/api/apiVQ.c **** 
  79:../../peripheral_library/api/apiVQ.c **** #ifdef __SW_VAD_TEST__
  80:../../peripheral_library/api/apiVQ.c ****         MHal_RTC_GetTime(&u32VadRtcTime, &u16VadRtcSubTime);
  81:../../peripheral_library/api/apiVQ.c ****         u32VadRtcStartTime = u32VadRtcTime*1000 + (U32)u16VadRtcSubTime*1000/0x8000;
  82:../../peripheral_library/api/apiVQ.c ****         _u32VadRtcTotalTime += u32VadRtcStartTime - _u32VadRtcStartTime;
  83:../../peripheral_library/api/apiVQ.c ****         VQ_MSG("MApi_VOC_VADResetTimer: full power status T = %d\r\n", (U32)_u32VadRtcTotalTime);
  84:../../peripheral_library/api/apiVQ.c **** #endif
  85:../../peripheral_library/api/apiVQ.c **** 
  86:../../peripheral_library/api/apiVQ.c ****       }
  87:../../peripheral_library/api/apiVQ.c ****   	}
  88:../../peripheral_library/api/apiVQ.c ****     xSemaphoreGive(_tVadMutex);
  89:../../peripheral_library/api/apiVQ.c **** 	}
  90:../../peripheral_library/api/apiVQ.c **** }
  91:../../peripheral_library/api/apiVQ.c **** 
  92:../../peripheral_library/api/apiVQ.c **** void MApi_VOC_VADStartTimer(void)
  93:../../peripheral_library/api/apiVQ.c **** {
  94:../../peripheral_library/api/apiVQ.c ****   if (!_tVocVadTimer)
  95:../../peripheral_library/api/apiVQ.c ****   {
  96:../../peripheral_library/api/apiVQ.c **** 	  _tVocVadTimer = xTimerCreate("Vad", /* A text name, purely to help debugging. */
  97:../../peripheral_library/api/apiVQ.c **** 							VOC_VAD_TIMER_PERIOD,     /* The timer period, which is a multiple of ledFLASH_RATE_BASE. */
  98:../../peripheral_library/api/apiVQ.c **** 							pdFALSE,									/* This is an auto-reload timer, so xAutoReload is set to pdTRUE. */
  99:../../peripheral_library/api/apiVQ.c **** 							(void *)0,					      /* The ID is used to identify the timer within the timer callback funct
 100:../../peripheral_library/api/apiVQ.c **** 							MApi_VOC_VADTimerCb			  /* Each timer uses the same callback. */
 101:../../peripheral_library/api/apiVQ.c **** 						  );
 102:../../peripheral_library/api/apiVQ.c **** 
 103:../../peripheral_library/api/apiVQ.c ****     if(_tVocVadTimer)
 104:../../peripheral_library/api/apiVQ.c ****   	{
 105:../../peripheral_library/api/apiVQ.c ****       _tVadMutex = xSemaphoreCreateMutex();
 106:../../peripheral_library/api/apiVQ.c ****       configASSERT( _tVadMutex );
 107:../../peripheral_library/api/apiVQ.c **** 
 108:../../peripheral_library/api/apiVQ.c ****       xTimerStart(_tVocVadTimer, (TickType_t)0);
 109:../../peripheral_library/api/apiVQ.c ****       VQ_MSG("MApi_VOC_VADStartTime\r\n");
 110:../../peripheral_library/api/apiVQ.c ****   	}
 111:../../peripheral_library/api/apiVQ.c ****     else
 112:../../peripheral_library/api/apiVQ.c ****       VQ_ERROR("MApi_VOC_VADStartTime: failed\r\n");
 113:../../peripheral_library/api/apiVQ.c **** 
 114:../../peripheral_library/api/apiVQ.c ****   }
 115:../../peripheral_library/api/apiVQ.c **** }
 116:../../peripheral_library/api/apiVQ.c **** 
 117:../../peripheral_library/api/apiVQ.c **** void MApi_VOC_VADStopTimer(void)
ARM GAS  /tmp/ccPC0MJk.s 			page 5


 118:../../peripheral_library/api/apiVQ.c **** {
 119:../../peripheral_library/api/apiVQ.c ****   //1. VAD->VQ->STOP
 120:../../peripheral_library/api/apiVQ.c ****   //2. VAD->STOP
 121:../../peripheral_library/api/apiVQ.c ****   //3. VAD->ISR->STOP(X)
 122:../../peripheral_library/api/apiVQ.c **** 
 123:../../peripheral_library/api/apiVQ.c ****   if(_tVocVadTimer)
 124:../../peripheral_library/api/apiVQ.c ****   {
 125:../../peripheral_library/api/apiVQ.c ****     xTimerStop(_tVocVadTimer, (TickType_t)0);
 126:../../peripheral_library/api/apiVQ.c ****     xTimerDelete(_tVocVadTimer, (TickType_t)0);
 127:../../peripheral_library/api/apiVQ.c ****     vSemaphoreDelete(_tVadMutex);
 128:../../peripheral_library/api/apiVQ.c ****     _tVocVadTimer = NULL;
 129:../../peripheral_library/api/apiVQ.c ****     _bVadTimeOut = FALSE;
 130:../../peripheral_library/api/apiVQ.c ****     MDrv_PM_HighPower();
 131:../../peripheral_library/api/apiVQ.c ****     _tVadMutex = NULL;
 132:../../peripheral_library/api/apiVQ.c ****     VQ_MSG("MApi_VOC_VADStopTimer\r\n");
 133:../../peripheral_library/api/apiVQ.c ****   }
 134:../../peripheral_library/api/apiVQ.c **** }
 135:../../peripheral_library/api/apiVQ.c **** 
 136:../../peripheral_library/api/apiVQ.c **** BOOL MApi_VOC_VADIsEnable(void)
 137:../../peripheral_library/api/apiVQ.c **** {
 138:../../peripheral_library/api/apiVQ.c ****   return _tVocVadTimer?TRUE:FALSE;
 139:../../peripheral_library/api/apiVQ.c **** }
 140:../../peripheral_library/api/apiVQ.c **** 
 141:../../peripheral_library/api/apiVQ.c **** BOOL MApi_VOC_VADIsTimeout(void)
 142:../../peripheral_library/api/apiVQ.c **** {
 143:../../peripheral_library/api/apiVQ.c ****   return _bVadTimeOut;
 144:../../peripheral_library/api/apiVQ.c **** }
 145:../../peripheral_library/api/apiVQ.c **** 
 146:../../peripheral_library/api/apiVQ.c **** __attribute__((weak)) BOOL MApi_VOC_VADPort(S16 *ps16Buffer, U32 u32Count, U32 *pu32Result)
 147:../../peripheral_library/api/apiVQ.c **** {
 148:../../peripheral_library/api/apiVQ.c ****   (void) ps16Buffer;
 149:../../peripheral_library/api/apiVQ.c ****   (void) u32Count;
 150:../../peripheral_library/api/apiVQ.c **** 
 151:../../peripheral_library/api/apiVQ.c ****   *pu32Result = 1;
 152:../../peripheral_library/api/apiVQ.c ****   return TRUE;
 153:../../peripheral_library/api/apiVQ.c **** }
 154:../../peripheral_library/api/apiVQ.c **** 
 155:../../peripheral_library/api/apiVQ.c **** #endif
 156:../../peripheral_library/api/apiVQ.c **** 
 157:../../peripheral_library/api/apiVQ.c **** __attribute__((weak)) BOOL MApi_VOC_VQPort(S16 *ps16Buffer, U32 u32Count)
 158:../../peripheral_library/api/apiVQ.c **** {
 112              		.loc 1 158 1 view -0
 113              		.cfi_startproc
 114              		@ args = 0, pretend = 0, frame = 16
 115              		@ frame_needed = 0, uses_anonymous_args = 0
 159:../../peripheral_library/api/apiVQ.c ****   return MApi_VOC_VQPort_RKImpl(ps16Buffer, u32Count);
 116              		.loc 1 159 3 view .LVU1
 117              	@ ../../peripheral_library/api/apiVQ.c:158: {
 158:../../peripheral_library/api/apiVQ.c ****   return MApi_VOC_VQPort_RKImpl(ps16Buffer, u32Count);
 118              		.loc 1 158 1 is_stmt 0 view .LVU2
 119 0000 F0B5     		push	{r4, r5, r6, r7, lr}	@
 120              		.cfi_def_cfa_offset 20
 121              		.cfi_offset 4, -20
 122              		.cfi_offset 5, -16
 123              		.cfi_offset 6, -12
 124              		.cfi_offset 7, -8
 125              		.cfi_offset 14, -4
ARM GAS  /tmp/ccPC0MJk.s 			page 6


 126              	.LBB5:
 127              	.LBB6:
 128              	@ ../../3rd/rokid/./kwsVQ.h:19:   if (initedFlag == 0) {
 129              		.file 2 "../../3rd/rokid/./kwsVQ.h"
   1:../../3rd/rokid/./kwsVQ.h **** #ifndef __RKIMPL_KWSVQ_H__
   2:../../3rd/rokid/./kwsVQ.h **** #define __RKIMPL_KWSVQ_H__
   3:../../3rd/rokid/./kwsVQ.h **** #include "mosWrapper.h"
   4:../../3rd/rokid/./kwsVQ.h **** #include "kws.h"
   5:../../3rd/rokid/./kwsVQ.h **** //#include "circular_buffer.h"
   6:../../3rd/rokid/./kwsVQ.h **** 
   7:../../3rd/rokid/./kwsVQ.h **** #define VQ_RKIMPL_PCM_BUF_MS (240) //240msec
   8:../../3rd/rokid/./kwsVQ.h **** #define VQ_RKIMPL_SAMPLE_RATE (16000)
   9:../../3rd/rokid/./kwsVQ.h **** #define VQ_RKIMPL_PCM_BUF_COUNT (VQ_RKIMPL_SAMPLE_RATE * VQ_RKIMPL_PCM_BUF_MS)/1000
  10:../../3rd/rokid/./kwsVQ.h **** #define VQ_RKIMPL_PCM_MULTI   20
  11:../../3rd/rokid/./kwsVQ.h **** static inline BOOL MApi_VOC_VQPort_RKImpl(S16 *ps16Buffer, U32 u32Count) {
  12:../../3rd/rokid/./kwsVQ.h ****   static U32 initedFlag = 0;
  13:../../3rd/rokid/./kwsVQ.h ****   static void* handle = NULL;
  14:../../3rd/rokid/./kwsVQ.h ****   static float raw_buffer[VQ_RKIMPL_PCM_BUF_COUNT];
  15:../../3rd/rokid/./kwsVQ.h ****   static float * in_ptr[8];
  16:../../3rd/rokid/./kwsVQ.h ****   int status;
  17:../../3rd/rokid/./kwsVQ.h ****   int i;
  18:../../3rd/rokid/./kwsVQ.h **** 
  19:../../3rd/rokid/./kwsVQ.h ****   if (initedFlag == 0) {
 130              		.loc 2 19 18 view .LVU3
 131 0002 1E4E     		ldr	r6, .L11	@ tmp130,
 132              	@ ../../3rd/rokid/./kwsVQ.h:19:   if (initedFlag == 0) {
 133              		.loc 2 19 6 view .LVU4
 134 0004 3368     		ldr	r3, [r6]	@ initedFlag, initedFlag
 135              	.LBE6:
 136              	.LBE5:
 137              	@ ../../peripheral_library/api/apiVQ.c:158: {
 158:../../peripheral_library/api/apiVQ.c ****   return MApi_VOC_VQPort_RKImpl(ps16Buffer, u32Count);
 138              		.loc 1 158 1 view .LVU5
 139 0006 85B0     		sub	sp, sp, #20	@,,
 140              		.cfi_def_cfa_offset 40
 141              	@ ../../peripheral_library/api/apiVQ.c:158: {
 158:../../peripheral_library/api/apiVQ.c ****   return MApi_VOC_VQPort_RKImpl(ps16Buffer, u32Count);
 142              		.loc 1 158 1 view .LVU6
 143 0008 0446     		mov	r4, r0	@ ps16Buffer, ps16Buffer
 144              	.LVL1:
 158:../../peripheral_library/api/apiVQ.c ****   return MApi_VOC_VQPort_RKImpl(ps16Buffer, u32Count);
 145              		.loc 1 158 1 view .LVU7
 146 000a 0D46     		mov	r5, r1	@ u32Count, u32Count
 147              	.LVL2:
 148              	.LBB10:
 149              	.LBI5:
  11:../../3rd/rokid/./kwsVQ.h ****   static U32 initedFlag = 0;
 150              		.loc 2 11 20 is_stmt 1 view .LVU8
 151              	.LBB8:
  12:../../3rd/rokid/./kwsVQ.h ****   static void* handle = NULL;
 152              		.loc 2 12 3 view .LVU9
  13:../../3rd/rokid/./kwsVQ.h ****   static float raw_buffer[VQ_RKIMPL_PCM_BUF_COUNT];
 153              		.loc 2 13 3 view .LVU10
  14:../../3rd/rokid/./kwsVQ.h ****   static float * in_ptr[8];
 154              		.loc 2 14 3 view .LVU11
  15:../../3rd/rokid/./kwsVQ.h ****   int status;
 155              		.loc 2 15 3 view .LVU12
ARM GAS  /tmp/ccPC0MJk.s 			page 7


  16:../../3rd/rokid/./kwsVQ.h ****   int i;
 156              		.loc 2 16 3 view .LVU13
  17:../../3rd/rokid/./kwsVQ.h **** 
 157              		.loc 2 17 3 view .LVU14
 158              		.loc 2 19 3 view .LVU15
 159              	@ ../../3rd/rokid/./kwsVQ.h:19:   if (initedFlag == 0) {
 160              		.loc 2 19 6 is_stmt 0 view .LVU16
 161 000c 13B3     		cbz	r3, .L2	@ initedFlag,
 162 000e 1C4B     		ldr	r3, .L11+4	@ tmp132,
 163 0010 1868     		ldr	r0, [r3]	@ pretmp_47, handle
 164              	.LVL3:
 165              	.L3:
  20:../../3rd/rokid/./kwsVQ.h ****     float thresholdSetting[3] = { 0.92f, 1.0f, 1.0f };
  21:../../3rd/rokid/./kwsVQ.h **** 	unsigned char channel_num = 1;
  22:../../3rd/rokid/./kwsVQ.h ****     int min_gap = 7;
  23:../../3rd/rokid/./kwsVQ.h ****     initedFlag = 1;
  24:../../3rd/rokid/./kwsVQ.h ****     handle = kws_create("123", channel_num, thresholdSetting, min_gap);
  25:../../3rd/rokid/./kwsVQ.h ****   }
  26:../../3rd/rokid/./kwsVQ.h ****    in_ptr[0] = raw_buffer;
 166              		.loc 2 26 4 is_stmt 1 view .LVU17
 167              	@ ../../3rd/rokid/./kwsVQ.h:26:    in_ptr[0] = raw_buffer;
 168              		.loc 2 26 14 is_stmt 0 view .LVU18
 169 0012 1C4B     		ldr	r3, .L11+8	@ tmp141,
 170 0014 1C49     		ldr	r1, .L11+12	@ ivtmp.11,
 171 0016 1960     		str	r1, [r3]	@ ivtmp.11, in_ptr
  27:../../3rd/rokid/./kwsVQ.h **** 
  28:../../3rd/rokid/./kwsVQ.h ****   for (i = 0; i < u32Count; ++i) {
 172              		.loc 2 28 3 is_stmt 1 view .LVU19
 173              	.LVL4:
 174              		.loc 2 28 3 is_stmt 0 view .LVU20
 175 0018 85B1     		cbz	r5, .L6	@ u32Count,
 176 001a 04EB4506 		add	r6, r4, r5, lsl #1	@ tmp148, ps16Buffer, u32Count,
 177 001e 023E     		subs	r6, r6, #2	@ _40, tmp148,
 178 0020 A21E     		subs	r2, r4, #2	@ ivtmp.8, ps16Buffer,
 179              	.LVL5:
 180              	.L5:
  29:../../3rd/rokid/./kwsVQ.h ****     raw_buffer[i] = ps16Buffer[i]*VQ_RKIMPL_PCM_MULTI;
 181              		.loc 2 29 5 is_stmt 1 view .LVU21
 182              	@ ../../3rd/rokid/./kwsVQ.h:29:     raw_buffer[i] = ps16Buffer[i]*VQ_RKIMPL_PCM_MULTI;
 183              		.loc 2 29 34 is_stmt 0 view .LVU22
 184 0022 32F9023F 		ldrsh	r3, [r2, #2]!	@ MEM[base: _45, offset: 0B], MEM[base: _45, offset: 0B]
 185 0026 03EB8303 		add	r3, r3, r3, lsl #2	@ tmp152, MEM[base: _45, offset: 0B], MEM[base: _45, offset: 0B],
 186 002a 9B00     		lsls	r3, r3, #2	@ tmp153, tmp152,
 187              	@ ../../3rd/rokid/./kwsVQ.h:29:     raw_buffer[i] = ps16Buffer[i]*VQ_RKIMPL_PCM_MULTI;
 188              		.loc 2 29 19 view .LVU23
 189 002c 07EE903A 		vmov	s15, r3	@ int	@ tmp153, tmp153
 190 0030 F8EEE77A 		vcvt.f32.s32	s15, s15	@ tmp154, tmp153
 191              	@ ../../3rd/rokid/./kwsVQ.h:28:   for (i = 0; i < u32Count; ++i) {
  28:../../3rd/rokid/./kwsVQ.h ****     raw_buffer[i] = ps16Buffer[i]*VQ_RKIMPL_PCM_MULTI;
 192              		.loc 2 28 3 view .LVU24
 193 0034 9642     		cmp	r6, r2	@ _40, ivtmp.8
 194              	@ ../../3rd/rokid/./kwsVQ.h:29:     raw_buffer[i] = ps16Buffer[i]*VQ_RKIMPL_PCM_MULTI;
 195              		.loc 2 29 19 view .LVU25
 196 0036 E1EC017A 		vstmia.32	r1!, {s15}	@ ivtmp.11, tmp154
 197              	@ ../../3rd/rokid/./kwsVQ.h:28:   for (i = 0; i < u32Count; ++i) {
  28:../../3rd/rokid/./kwsVQ.h ****     raw_buffer[i] = ps16Buffer[i]*VQ_RKIMPL_PCM_MULTI;
 198              		.loc 2 28 3 view .LVU26
ARM GAS  /tmp/ccPC0MJk.s 			page 8


 199 003a F2D1     		bne	.L5		@,
 200              	.L6:
  30:../../3rd/rokid/./kwsVQ.h ****   }
  31:../../3rd/rokid/./kwsVQ.h **** 
  32:../../3rd/rokid/./kwsVQ.h ****   status = kws_status(handle, (const float** )in_ptr, u32Count,NULL); 
 201              		.loc 2 32 3 is_stmt 1 view .LVU27
 202              	@ ../../3rd/rokid/./kwsVQ.h:32:   status = kws_status(handle, (const float** )in_ptr, u32Count,NULL
 203              		.loc 2 32 12 is_stmt 0 view .LVU28
 204 003c 2A46     		mov	r2, r5	@, u32Count
 205 003e 0023     		movs	r3, #0	@,
 206 0040 1049     		ldr	r1, .L11+8	@,
 207 0042 FFF7FEFF 		bl	kws_status		@
 208              	.LVL6:
  33:../../3rd/rokid/./kwsVQ.h ****   if (status == 1)
 209              		.loc 2 33 3 is_stmt 1 view .LVU29
 210              		.loc 2 33 3 is_stmt 0 view .LVU30
 211              	.LBE8:
 212              	.LBE10:
 213              	@ ../../peripheral_library/api/apiVQ.c:159:   return MApi_VOC_VQPort_RKImpl(ps16Buffer, u32Count);
 214              		.loc 1 159 10 view .LVU31
 215 0046 A0F10100 		sub	r0, #1	@ tmp146,
 216 004a B0FA80F0 		clz	r0, r0	@ tmp146, tmp146
 217 004e 4009     		lsrs	r0, r0, #5	@ tmp146, tmp146,
 218              	@ ../../peripheral_library/api/apiVQ.c:160: }
 160:../../peripheral_library/api/apiVQ.c **** }
 219              		.loc 1 160 1 view .LVU32
 220 0050 05B0     		add	sp, sp, #20	@,,
 221              		.cfi_remember_state
 222              		.cfi_def_cfa_offset 20
 223              		@ sp needed	@
 224 0052 F0BD     		pop	{r4, r5, r6, r7, pc}	@
 225              	.LVL7:
 226              	.L2:
 227              		.cfi_restore_state
 228              	.LBB11:
 229              	.LBB9:
 230              	.LBB7:
  20:../../3rd/rokid/./kwsVQ.h **** 	unsigned char channel_num = 1;
 231              		.loc 2 20 5 is_stmt 1 view .LVU33
 232              	@ ../../3rd/rokid/./kwsVQ.h:20:     float thresholdSetting[3] = { 0.92f, 1.0f, 1.0f };
  20:../../3rd/rokid/./kwsVQ.h **** 	unsigned char channel_num = 1;
 233              		.loc 2 20 11 is_stmt 0 view .LVU34
 234 0054 0D4B     		ldr	r3, .L11+16	@ tmp133,
 235 0056 93E80700 		ldm	r3, {r0, r1, r2}	@ tmp133,,,
 236              	.LVL8:
 237              	@ ../../3rd/rokid/./kwsVQ.h:23:     initedFlag = 1;
  23:../../3rd/rokid/./kwsVQ.h ****     handle = kws_create("123", channel_num, thresholdSetting, min_gap);
 238              		.loc 2 23 16 view .LVU35
 239 005a 4FF0010C 		mov	ip, #1	@ tmp137,
 240              	@ ../../3rd/rokid/./kwsVQ.h:20:     float thresholdSetting[3] = { 0.92f, 1.0f, 1.0f };
  20:../../3rd/rokid/./kwsVQ.h **** 	unsigned char channel_num = 1;
 241              		.loc 2 20 11 view .LVU36
 242 005e 01AF     		add	r7, sp, #4	@ tmp134,,
 243 0060 87E80700 		stm	r7, {r0, r1, r2}	@ tmp134,,,
  21:../../3rd/rokid/./kwsVQ.h ****     int min_gap = 7;
 244              		.loc 2 21 2 is_stmt 1 view .LVU37
 245              	.LVL9:
ARM GAS  /tmp/ccPC0MJk.s 			page 9


  22:../../3rd/rokid/./kwsVQ.h ****     initedFlag = 1;
 246              		.loc 2 22 5 view .LVU38
  23:../../3rd/rokid/./kwsVQ.h ****     handle = kws_create("123", channel_num, thresholdSetting, min_gap);
 247              		.loc 2 23 5 view .LVU39
 248              	@ ../../3rd/rokid/./kwsVQ.h:24:     handle = kws_create("123", channel_num, thresholdSetting, min_g
  24:../../3rd/rokid/./kwsVQ.h ****   }
 249              		.loc 2 24 14 is_stmt 0 view .LVU40
 250 0064 0723     		movs	r3, #7	@,
 251 0066 3A46     		mov	r2, r7	@, tmp134
 252 0068 6146     		mov	r1, ip	@, tmp137
 253 006a 0948     		ldr	r0, .L11+20	@,
 254              	@ ../../3rd/rokid/./kwsVQ.h:23:     initedFlag = 1;
  23:../../3rd/rokid/./kwsVQ.h ****     handle = kws_create("123", channel_num, thresholdSetting, min_gap);
 255              		.loc 2 23 16 view .LVU41
 256 006c C6F800C0 		str	ip, [r6]	@ tmp137, initedFlag
  24:../../3rd/rokid/./kwsVQ.h ****   }
 257              		.loc 2 24 5 is_stmt 1 view .LVU42
 258              	@ ../../3rd/rokid/./kwsVQ.h:24:     handle = kws_create("123", channel_num, thresholdSetting, min_g
  24:../../3rd/rokid/./kwsVQ.h ****   }
 259              		.loc 2 24 14 is_stmt 0 view .LVU43
 260 0070 FFF7FEFF 		bl	kws_create		@
 261              	.LVL10:
 262              	@ ../../3rd/rokid/./kwsVQ.h:24:     handle = kws_create("123", channel_num, thresholdSetting, min_g
  24:../../3rd/rokid/./kwsVQ.h ****   }
 263              		.loc 2 24 12 view .LVU44
 264 0074 024B     		ldr	r3, .L11+4	@ tmp140,
 265 0076 1860     		str	r0, [r3]	@ pretmp_47, handle
 266 0078 CBE7     		b	.L3		@
 267              	.L12:
 268 007a 00BF     		.align	2
 269              	.L11:
 270 007c 00000000 		.word	.LANCHOR0
 271 0080 00000000 		.word	.LANCHOR1
 272 0084 00000000 		.word	.LANCHOR3
 273 0088 00000000 		.word	raw_buffer.9570
 274 008c 00000000 		.word	.LANCHOR2
 275 0090 00000000 		.word	.LC1
 276              	.LBE7:
 277              	.LBE9:
 278              	.LBE11:
 279              		.cfi_endproc
 280              	.LFE138:
 281              		.size	MApi_VOC_VQPort, .-MApi_VOC_VQPort
 282              		.section	.rodata
 283              		.align	2
 284              		.set	.LANCHOR2,. + 0
 285              	.LC0:
 286 0000 1F856B3F 		.word	1064011039
 287 0004 0000803F 		.word	1065353216
 288 0008 0000803F 		.word	1065353216
 289              		.section	.bss.handle.9569,"aw",%nobits
 290              		.align	2
 291              		.set	.LANCHOR1,. + 0
 292              		.type	handle.9569, %object
 293              		.size	handle.9569, 4
 294              	handle.9569:
 295 0000 00000000 		.space	4
ARM GAS  /tmp/ccPC0MJk.s 			page 10


 296              		.section	.bss.in_ptr.9571,"aw",%nobits
 297              		.align	2
 298              		.set	.LANCHOR3,. + 0
 299              		.type	in_ptr.9571, %object
 300              		.size	in_ptr.9571, 32
 301              	in_ptr.9571:
 302 0000 00000000 		.space	32
 302      00000000 
 302      00000000 
 302      00000000 
 302      00000000 
 303              		.section	.bss.initedFlag.9568,"aw",%nobits
 304              		.align	2
 305              		.set	.LANCHOR0,. + 0
 306              		.type	initedFlag.9568, %object
 307              		.size	initedFlag.9568, 4
 308              	initedFlag.9568:
 309 0000 00000000 		.space	4
 310              		.section	.bss.raw_buffer.9570,"aw",%nobits
 311              		.align	2
 312              		.type	raw_buffer.9570, %object
 313              		.size	raw_buffer.9570, 15360
 314              	raw_buffer.9570:
 315 0000 00000000 		.space	15360
 315      00000000 
 315      00000000 
 315      00000000 
 315      00000000 
 316              		.section	.rodata.MApi_VOC_VQPort.str1.4,"aMS",%progbits,1
 317              		.align	2
 318              	.LC1:
 319 0000 31323300 		.ascii	"123\000"
 320              		.text
 321              	.Letext0:
 322              		.file 3 "/home/gu/code/freeRTOS10/vendor/mstar/CM4/tools/gcc-arm-none-eabi-8-2018-q4-major/arm-non
 323              		.file 4 "/home/gu/code/freeRTOS10/vendor/mstar/CM4/tools/gcc-arm-none-eabi-8-2018-q4-major/arm-non
 324              		.file 5 "/home/gu/code/freeRTOS10/vendor/mstar/CM4/tools/gcc-arm-none-eabi-8-2018-q4-major/arm-non
 325              		.file 6 "/home/gu/code/freeRTOS10/vendor/mstar/CM4/tools/gcc-arm-none-eabi-8-2018-q4-major/lib/gcc
 326              		.file 7 "/home/gu/code/freeRTOS10/vendor/mstar/CM4/tools/gcc-arm-none-eabi-8-2018-q4-major/arm-non
 327              		.file 8 "/home/gu/code/freeRTOS10/vendor/mstar/CM4/tools/gcc-arm-none-eabi-8-2018-q4-major/arm-non
 328              		.file 9 "/home/gu/code/freeRTOS10/vendor/mstar/CM4/tools/gcc-arm-none-eabi-8-2018-q4-major/arm-non
 329              		.file 10 "/home/gu/code/freeRTOS10/vendor/mstar/CM4/tools/gcc-arm-none-eabi-8-2018-q4-major/arm-no
 330              		.file 11 "../../CMSIS/core_cm4.h"
 331              		.file 12 "../../peripheral_library/inc/mosWrapper.h"
 332              		.file 13 "../../3rd/rokid/./kws.h"