ARM GAS  /tmp/cc3Huoko.s 			page 1


   1              		.cpu cortex-m4
   2              		.eabi_attribute 27, 1	@ Tag_ABI_HardFP_use
   3              		.eabi_attribute 20, 1	@ Tag_ABI_FP_denormal
   4              		.eabi_attribute 21, 1	@ Tag_ABI_FP_exceptions
   5              		.eabi_attribute 23, 3	@ Tag_ABI_FP_number_model
   6              		.eabi_attribute 24, 1	@ Tag_ABI_align8_needed
   7              		.eabi_attribute 25, 1	@ Tag_ABI_align8_preserved
   8              		.eabi_attribute 26, 1	@ Tag_ABI_enum_size
   9              		.eabi_attribute 30, 2	@ Tag_ABI_optimization_goals
  10              		.eabi_attribute 34, 1	@ Tag_CPU_unaligned_access
  11              		.eabi_attribute 18, 4	@ Tag_ABI_PCS_wchar_t
  12              		.file	"apiVP.c"
  13              	@ GNU C89 (GNU Tools for Arm Embedded Processors 8-2018-q4-major) version 8.2.1 20181213 (release) 
  14              	@	compiled by GNU C version 4.8.4, GMP version 6.1.0, MPFR version 3.1.4, MPC version 1.0.3, isl ve
  15              	
  16              	@ GGC heuristics: --param ggc-min-expand=96 --param ggc-min-heapsize=125422
  17              	@ options passed:  -isystem =/include/newlib-nano -I . -I .
  18              	@ -I ../../kernel/FreeRTOS/Source/include
  19              	@ -I ../../kernel/FreeRTOS/Source/portable/GCC/ARM_CM4F
  20              	@ -I ../../kernel/FreeRTOS/Demo/Common/include
  21              	@ -I ../../kernel/FreeRTOS-Plus/Source/FreeRTOS-Plus-CLI
  22              	@ -I ../../peripheral_library/inc -I ../../peripheral_library/hal/m7221/inc
  23              	@ -I ../../CMSIS -I ../../main_full -I ../../3rd/rokid/./ -I /.
  24              	@ -I /../../kernel/FreeRTOS/Source/include
  25              	@ -I /../../kernel/FreeRTOS/Source/portable/GCC/ARM_CM4F
  26              	@ -I /../../kernel/FreeRTOS/Demo/Common/include
  27              	@ -I /../../kernel/FreeRTOS-Plus/Source/FreeRTOS-Plus-CLI
  28              	@ -I /../../peripheral_library/inc
  29              	@ -I /../../peripheral_library/hal/m7221/inc -I /../../CMSIS
  30              	@ -I /../../main_full -I /../../3rd/rokid/./
  31              	@ -imultilib thumb/v7e-m+fp/softfp
  32              	@ -iprefix /home/gu/code/freeRTOS10/vendor/mstar/CM4/tools/gcc-arm-none-eabi-8-2018-q4-major/bin/..
  33              	@ -isysroot /home/gu/code/freeRTOS10/vendor/mstar/CM4/tools/gcc-arm-none-eabi-8-2018-q4-major/bin/.
  34              	@ -MD out/apiVP.d -MF out/apiVP.d -MP -MQ out/apiVP.o -D__USES_INITFINI__
  35              	@ -D CONFIG_BENCH=0 -D CONFIG_SYS_DBG_LEVEL=0xFFFFFFFF -D CONFIG_VOC_MIC=6
  36              	@ -D CONFIG_AUD_I2S -D CONFIG_AUD_AEC -D CONFIG_VOC_MIC_MAPPING
  37              	@ -D CONFIG_VOC_SWHPF -D CONFIG_VOC_SW_SRC48K -D ARM_MATH_CM4
  38              	@ -D BOOTROM_VERSION_ASIC ../../peripheral_library/api/apiVP.c
  39              	@ -mcpu=cortex-m4 -mthumb -mthumb-interwork -mfloat-abi=softfp
  40              	@ -mfpu=fpv4-sp-d16 -march=armv7e-m+fp -auxbase-strip out/apiVP.o -g -ggdb3
  41              	@ -O3 -Wall -Wstrict-prototypes -Wextra -std=gnu90 -ffunction-sections
  42              	@ -fdata-sections -fno-builtin-printf -fverbose-asm
  43              	@ options enabled:  -faggressive-loop-optimizations -falign-jumps
  44              	@ -falign-labels -falign-loops -fauto-inc-dec -fbranch-count-reg
  45              	@ -fcaller-saves -fchkp-check-incomplete-type -fchkp-check-read
  46              	@ -fchkp-check-write -fchkp-instrument-calls -fchkp-narrow-bounds
  47              	@ -fchkp-optimize -fchkp-store-bounds -fchkp-use-static-bounds
  48              	@ -fchkp-use-static-const-bounds -fchkp-use-wrappers -fcode-hoisting
  49              	@ -fcombine-stack-adjustments -fcommon -fcompare-elim -fcprop-registers
  50              	@ -fcrossjumping -fcse-follow-jumps -fdata-sections -fdefer-pop
  51              	@ -fdelete-null-pointer-checks -fdevirtualize -fdevirtualize-speculatively
  52              	@ -fdwarf2-cfi-asm -fearly-inlining -feliminate-unused-debug-types
  53              	@ -fexpensive-optimizations -fforward-propagate -ffp-int-builtin-inexact
  54              	@ -ffunction-cse -ffunction-sections -fgcse -fgcse-after-reload -fgcse-lm
  55              	@ -fgnu-runtime -fgnu-unique -fguess-branch-probability
  56              	@ -fhoist-adjacent-loads -fident -fif-conversion -fif-conversion2
  57              	@ -findirect-inlining -finline -finline-atomics -finline-functions
ARM GAS  /tmp/cc3Huoko.s 			page 2


  58              	@ -finline-functions-called-once -finline-small-functions -fipa-bit-cp
  59              	@ -fipa-cp -fipa-cp-clone -fipa-icf -fipa-icf-functions -fipa-icf-variables
  60              	@ -fipa-profile -fipa-pure-const -fipa-ra -fipa-reference -fipa-sra
  61              	@ -fipa-vrp -fira-hoist-pressure -fira-share-save-slots
  62              	@ -fira-share-spill-slots -fisolate-erroneous-paths-dereference -fivopts
  63              	@ -fkeep-static-consts -fleading-underscore -flifetime-dse
  64              	@ -floop-interchange -floop-unroll-and-jam -flra-remat
  65              	@ -flto-odr-type-merging -fmath-errno -fmerge-constants
  66              	@ -fmerge-debug-strings -fmove-loop-invariants -fomit-frame-pointer
  67              	@ -foptimize-sibling-calls -foptimize-strlen -fpartial-inlining
  68              	@ -fpeel-loops -fpeephole -fpeephole2 -fplt -fpredictive-commoning
  69              	@ -fprefetch-loop-arrays -freg-struct-return -freorder-blocks
  70              	@ -freorder-functions -frerun-cse-after-loop
  71              	@ -fsched-critical-path-heuristic -fsched-dep-count-heuristic
  72              	@ -fsched-group-heuristic -fsched-interblock -fsched-last-insn-heuristic
  73              	@ -fsched-pressure -fsched-rank-heuristic -fsched-spec
  74              	@ -fsched-spec-insn-heuristic -fsched-stalled-insns-dep -fschedule-insns
  75              	@ -fschedule-insns2 -fsection-anchors -fsemantic-interposition
  76              	@ -fshow-column -fshrink-wrap -fshrink-wrap-separate -fsigned-zeros
  77              	@ -fsplit-ivs-in-unroller -fsplit-loops -fsplit-paths -fsplit-wide-types
  78              	@ -fssa-backprop -fssa-phiopt -fstdarg-opt -fstore-merging
  79              	@ -fstrict-aliasing -fstrict-volatile-bitfields -fsync-libcalls
  80              	@ -fthread-jumps -ftoplevel-reorder -ftrapping-math -ftree-bit-ccp
  81              	@ -ftree-builtin-call-dce -ftree-ccp -ftree-ch -ftree-coalesce-vars
  82              	@ -ftree-copy-prop -ftree-cselim -ftree-dce -ftree-dominator-opts
  83              	@ -ftree-dse -ftree-forwprop -ftree-fre -ftree-loop-distribute-patterns
  84              	@ -ftree-loop-distribution -ftree-loop-if-convert -ftree-loop-im
  85              	@ -ftree-loop-ivcanon -ftree-loop-optimize -ftree-loop-vectorize
  86              	@ -ftree-parallelize-loops= -ftree-partial-pre -ftree-phiprop -ftree-pre
  87              	@ -ftree-pta -ftree-reassoc -ftree-scev-cprop -ftree-sink
  88              	@ -ftree-slp-vectorize -ftree-slsr -ftree-sra -ftree-switch-conversion
  89              	@ -ftree-tail-merge -ftree-ter -ftree-vrp -funit-at-a-time -funswitch-loops
  90              	@ -fvar-tracking -fvar-tracking-assignments -fverbose-asm
  91              	@ -fzero-initialized-in-bss -masm-syntax-unified -mbe32 -mlittle-endian
  92              	@ -mpic-data-is-text-relative -msched-prolog -mthumb -munaligned-access
  93              	@ -mvectorize-with-neon-quad
  94              	
  95              		.text
  96              	.Ltext0:
  97              		.cfi_sections	.debug_frame
  98              		.section	.text.MApi_VOC_VPGetAnglePort,"ax",%progbits
  99              		.align	1
 100              		.p2align 2,,3
 101              		.weak	MApi_VOC_VPGetAnglePort
 102              		.arch armv7e-m
 103              		.syntax unified
 104              		.thumb
 105              		.thumb_func
 106              		.fpu fpv4-sp-d16
 107              		.type	MApi_VOC_VPGetAnglePort, %function
 108              	MApi_VOC_VPGetAnglePort:
 109              	.LFB138:
 110              		.file 1 "../../peripheral_library/api/apiVP.c"
   1:../../peripheral_library/api/apiVP.c **** /* Standard includes. */
   2:../../peripheral_library/api/apiVP.c **** #include <string.h>
   3:../../peripheral_library/api/apiVP.c **** #include <stdio.h>
   4:../../peripheral_library/api/apiVP.c **** 
ARM GAS  /tmp/cc3Huoko.s 			page 3


   5:../../peripheral_library/api/apiVP.c **** /* Kernel includes. */
   6:../../peripheral_library/api/apiVP.c **** #include "mosWrapper.h"
   7:../../peripheral_library/api/apiVP.c **** 
   8:../../peripheral_library/api/apiVP.c **** /* driver includes. */
   9:../../peripheral_library/api/apiVP.c **** #include "drvAudio.h"
  10:../../peripheral_library/api/apiVP.c **** #include "drvBDMA.h"
  11:../../peripheral_library/api/apiVP.c **** #include "drvMBX.h"
  12:../../peripheral_library/api/apiVP.c **** #include "drvPM.h"
  13:../../peripheral_library/api/apiVP.c **** #include "drvCPU.h"
  14:../../peripheral_library/api/apiVP.c **** 
  15:../../peripheral_library/api/apiVP.c **** #include "voc_task.h"
  16:../../peripheral_library/api/apiVP.c **** #include "apiVOC.h"
  17:../../peripheral_library/api/apiVP.c **** 
  18:../../peripheral_library/api/apiVP.c **** #define VP_MSG(fmt, args...) MOS_DBG_PRINT(MOS_DBG_LEVEL_VP, "[VP] " fmt, ##args)
  19:../../peripheral_library/api/apiVP.c **** #define VP_ERROR(fmt, args...) MOS_DBG_ERROR("[VP ERR] " fmt, ##args);
  20:../../peripheral_library/api/apiVP.c **** 
  21:../../peripheral_library/api/apiVP.c **** static U8 _u8VPScale = 1;
  22:../../peripheral_library/api/apiVP.c **** static U8 _u8MicMap[8] = {0, 1, 2, 3, 4, 5, 6, 7};
  23:../../peripheral_library/api/apiVP.c **** static S16 _s16MicData[8] = {0};
  24:../../peripheral_library/api/apiVP.c **** 
  25:../../peripheral_library/api/apiVP.c **** static U8 _u8AudMicSwGain = 0;
  26:../../peripheral_library/api/apiVP.c **** static U8 _u8AudSwGain = 0;
  27:../../peripheral_library/api/apiVP.c **** //2.14
  28:../../peripheral_library/api/apiVP.c **** static const S16 _s16GainTable[6]={
  29:../../peripheral_library/api/apiVP.c ****      16384,
  30:../../peripheral_library/api/apiVP.c ****      18383,
  31:../../peripheral_library/api/apiVP.c ****      20626,
  32:../../peripheral_library/api/apiVP.c ****      23143,
  33:../../peripheral_library/api/apiVP.c ****      25966,
  34:../../peripheral_library/api/apiVP.c ****      29135
  35:../../peripheral_library/api/apiVP.c **** };
  36:../../peripheral_library/api/apiVP.c **** 
  37:../../peripheral_library/api/apiVP.c **** static U16 _u16GainBitwidth;
  38:../../peripheral_library/api/apiVP.c **** static U16 _u16GainMicChn;
  39:../../peripheral_library/api/apiVP.c **** static U16 _u16GainProcChn;
  40:../../peripheral_library/api/apiVP.c **** 
  41:../../peripheral_library/api/apiVP.c **** __attribute__((weak)) int MApi_VOC_VPGetAnglePort(void)
  42:../../peripheral_library/api/apiVP.c **** {
 111              		.loc 1 42 1 view -0
 112              		.cfi_startproc
 113              		@ args = 0, pretend = 0, frame = 0
 114              		@ frame_needed = 0, uses_anonymous_args = 0
 115              		@ link register save eliminated.
  43:../../peripheral_library/api/apiVP.c ****   return 0;
 116              		.loc 1 43 3 view .LVU1
 117              	@ ../../peripheral_library/api/apiVP.c:44: }
  44:../../peripheral_library/api/apiVP.c **** }
 118              		.loc 1 44 1 is_stmt 0 view .LVU2
 119 0000 0020     		movs	r0, #0	@,
 120 0002 7047     		bx	lr	@
 121              		.cfi_endproc
 122              	.LFE138:
 123              		.size	MApi_VOC_VPGetAnglePort, .-MApi_VOC_VPGetAnglePort
 124              		.section	.text.MApi_VOC_VPTunePort,"ax",%progbits
 125              		.align	1
 126              		.p2align 2,,3
 127              		.weak	MApi_VOC_VPTunePort
ARM GAS  /tmp/cc3Huoko.s 			page 4


 128              		.syntax unified
 129              		.thumb
 130              		.thumb_func
 131              		.fpu fpv4-sp-d16
 132              		.type	MApi_VOC_VPTunePort, %function
 133              	MApi_VOC_VPTunePort:
 134              	.LVL0:
 135              	.LFB139:
  45:../../peripheral_library/api/apiVP.c **** 
  46:../../peripheral_library/api/apiVP.c **** __attribute__((weak)) BOOL MApi_VOC_VPTunePort(U8 *pu8Buffer, U32 u32Len)
  47:../../peripheral_library/api/apiVP.c **** {
 136              		.loc 1 47 1 is_stmt 1 view -0
 137              		.cfi_startproc
 138              		@ args = 0, pretend = 0, frame = 0
 139              		@ frame_needed = 0, uses_anonymous_args = 0
 140              		@ link register save eliminated.
  48:../../peripheral_library/api/apiVP.c ****   (void)u32Len;
 141              		.loc 1 48 3 view .LVU4
  49:../../peripheral_library/api/apiVP.c **** 
  50:../../peripheral_library/api/apiVP.c ****   _u8VPScale = *pu8Buffer;
 142              		.loc 1 50 3 view .LVU5
 143              	@ ../../peripheral_library/api/apiVP.c:50:   _u8VPScale = *pu8Buffer;
 144              		.loc 1 50 14 is_stmt 0 view .LVU6
 145 0000 024B     		ldr	r3, .L4	@ tmp114,
 146 0002 0278     		ldrb	r2, [r0]	@ zero_extendqisi2	@ *pu8Buffer_3(D), *pu8Buffer_3(D)
 147 0004 1A70     		strb	r2, [r3]	@ *pu8Buffer_3(D), _u8VPScale
  51:../../peripheral_library/api/apiVP.c **** 
  52:../../peripheral_library/api/apiVP.c ****   return TRUE;
 148              		.loc 1 52 3 is_stmt 1 view .LVU7
 149              	@ ../../peripheral_library/api/apiVP.c:53: }
  53:../../peripheral_library/api/apiVP.c **** }
 150              		.loc 1 53 1 is_stmt 0 view .LVU8
 151 0006 0120     		movs	r0, #1	@,
 152              	.LVL1:
 153              		.loc 1 53 1 view .LVU9
 154 0008 7047     		bx	lr	@
 155              	.L5:
 156 000a 00BF     		.align	2
 157              	.L4:
 158 000c 00000000 		.word	.LANCHOR0
 159              		.cfi_endproc
 160              	.LFE139:
 161              		.size	MApi_VOC_VPTunePort, .-MApi_VOC_VPTunePort
 162              		.section	.text.MApi_VOC_VPPort,"ax",%progbits
 163              		.align	1
 164              		.p2align 2,,3
 165              		.weak	MApi_VOC_VPPort
 166              		.syntax unified
 167              		.thumb
 168              		.thumb_func
 169              		.fpu fpv4-sp-d16
 170              		.type	MApi_VOC_VPPort, %function
 171              	MApi_VOC_VPPort:
 172              	.LVL2:
 173              	.LFB140:
  54:../../peripheral_library/api/apiVP.c **** 
  55:../../peripheral_library/api/apiVP.c **** __attribute__((weak)) BOOL MApi_VOC_VPPort(S16 *ps16Buffer, U32 *pu32Count)
ARM GAS  /tmp/cc3Huoko.s 			page 5


  56:../../peripheral_library/api/apiVP.c **** {
 174              		.loc 1 56 1 is_stmt 1 view -0
 175              		.cfi_startproc
 176              		@ args = 0, pretend = 0, frame = 0
 177              		@ frame_needed = 0, uses_anonymous_args = 0
  57:../../peripheral_library/api/apiVP.c ****   U32 i;
 178              		.loc 1 57 3 view .LVU11
  58:../../peripheral_library/api/apiVP.c ****   U8 u8MicNo = MDrv_AUD_GetMicNo();
 179              		.loc 1 58 3 view .LVU12
 180              	@ ../../peripheral_library/api/apiVP.c:56: {
  56:../../peripheral_library/api/apiVP.c ****   U32 i;
 181              		.loc 1 56 1 is_stmt 0 view .LVU13
 182 0000 F8B5     		push	{r3, r4, r5, r6, r7, lr}	@
 183              		.cfi_def_cfa_offset 24
 184              		.cfi_offset 3, -24
 185              		.cfi_offset 4, -20
 186              		.cfi_offset 5, -16
 187              		.cfi_offset 6, -12
 188              		.cfi_offset 7, -8
 189              		.cfi_offset 14, -4
 190              	@ ../../peripheral_library/api/apiVP.c:56: {
  56:../../peripheral_library/api/apiVP.c ****   U32 i;
 191              		.loc 1 56 1 view .LVU14
 192 0002 0F46     		mov	r7, r1	@ pu32Count, pu32Count
 193 0004 0446     		mov	r4, r0	@ ps16Buffer, ps16Buffer
 194              	@ ../../peripheral_library/api/apiVP.c:58:   U8 u8MicNo = MDrv_AUD_GetMicNo();
 195              		.loc 1 58 16 view .LVU15
 196 0006 FFF7FEFF 		bl	MDrv_AUD_GetMicNo		@
 197              	.LVL3:
  59:../../peripheral_library/api/apiVP.c ****   for(i = 0; i < *pu32Count / u8MicNo; i++) //sterero to mono
 198              		.loc 1 59 3 is_stmt 1 view .LVU16
 199              	@ ../../peripheral_library/api/apiVP.c:59:   for(i = 0; i < *pu32Count / u8MicNo; i++) //sterero to
 200              		.loc 1 59 18 is_stmt 0 view .LVU17
 201 000a 3B68     		ldr	r3, [r7]	@ _28, *pu32Count_21(D)
 202              	@ ../../peripheral_library/api/apiVP.c:59:   for(i = 0; i < *pu32Count / u8MicNo; i++) //sterero to
 203              		.loc 1 59 29 view .LVU18
 204 000c B3FBF0F6 		udiv	r6, r3, r0	@ _29, _28, tmp132
 205              	@ ../../peripheral_library/api/apiVP.c:59:   for(i = 0; i < *pu32Count / u8MicNo; i++) //sterero to
 206              		.loc 1 59 3 view .LVU19
 207 0010 9842     		cmp	r0, r3	@ tmp132, _28
 208 0012 12D8     		bhi	.L9		@,
 209              	@ ../../peripheral_library/api/apiVP.c:61:     ps16Buffer[i] = ps16Buffer[i * u8MicNo ] * _u8VPScal
  60:../../peripheral_library/api/apiVP.c ****   {
  61:../../peripheral_library/api/apiVP.c ****     ps16Buffer[i] = ps16Buffer[i * u8MicNo ] * _u8VPScale;
 210              		.loc 1 61 19 view .LVU20
 211 0014 0B4B     		ldr	r3, .L12	@ tmp133,
 212 0016 05B2     		sxth	r5, r0	@ u8MicNo, tmp132
 213 0018 1978     		ldrb	r1, [r3]	@ zero_extendqisi2	@ _7, _u8VPScale
 214 001a 2046     		mov	r0, r4	@ ivtmp.71, ps16Buffer
 215              	.LVL4:
 216              		.loc 1 61 19 view .LVU21
 217 001c 6D00     		lsls	r5, r5, #1	@ _37, u8MicNo,
 218 001e 023C     		subs	r4, r4, #2	@ ivtmp.73, ivtmp.71,
 219              	.LVL5:
 220              	@ ../../peripheral_library/api/apiVP.c:59:   for(i = 0; i < *pu32Count / u8MicNo; i++) //sterero to
  59:../../peripheral_library/api/apiVP.c ****   for(i = 0; i < *pu32Count / u8MicNo; i++) //sterero to mono
 221              		.loc 1 59 9 view .LVU22
ARM GAS  /tmp/cc3Huoko.s 			page 6


 222 0020 0022     		movs	r2, #0	@ i,
 223              	.LVL6:
 224              	.L8:
 225              		.loc 1 61 5 is_stmt 1 discriminator 3 view .LVU23
 226              	@ ../../peripheral_library/api/apiVP.c:61:     ps16Buffer[i] = ps16Buffer[i * u8MicNo ] * _u8VPScal
 227              		.loc 1 61 19 is_stmt 0 discriminator 3 view .LVU24
 228 0022 0388     		ldrh	r3, [r0]	@, MEM[base: _15, offset: 0B]
 229              	@ ../../peripheral_library/api/apiVP.c:59:   for(i = 0; i < *pu32Count / u8MicNo; i++) //sterero to
  59:../../peripheral_library/api/apiVP.c ****   for(i = 0; i < *pu32Count / u8MicNo; i++) //sterero to mono
 230              		.loc 1 59 41 discriminator 3 view .LVU25
 231 0024 0132     		adds	r2, r2, #1	@ i, i,
 232              	.LVL7:
 233              	@ ../../peripheral_library/api/apiVP.c:61:     ps16Buffer[i] = ps16Buffer[i * u8MicNo ] * _u8VPScal
 234              		.loc 1 61 19 discriminator 3 view .LVU26
 235 0026 13FB01F3 		smulbb	r3, r3, r1	@ tmp139, MEM[base: _15, offset: 0B], _7
 236              	@ ../../peripheral_library/api/apiVP.c:59:   for(i = 0; i < *pu32Count / u8MicNo; i++) //sterero to
  59:../../peripheral_library/api/apiVP.c ****   for(i = 0; i < *pu32Count / u8MicNo; i++) //sterero to mono
 237              		.loc 1 59 3 discriminator 3 view .LVU27
 238 002a B242     		cmp	r2, r6	@ i, _29
 239              	@ ../../peripheral_library/api/apiVP.c:61:     ps16Buffer[i] = ps16Buffer[i * u8MicNo ] * _u8VPScal
 240              		.loc 1 61 19 discriminator 3 view .LVU28
 241 002c 24F8023F 		strh	r3, [r4, #2]!	@ movhi	@ tmp139, MEM[base: _14, offset: 0B]
 242 0030 2844     		add	r0, r0, r5	@ ivtmp.71, _37
 243              	@ ../../peripheral_library/api/apiVP.c:59:   for(i = 0; i < *pu32Count / u8MicNo; i++) //sterero to
  59:../../peripheral_library/api/apiVP.c ****   for(i = 0; i < *pu32Count / u8MicNo; i++) //sterero to mono
 244              		.loc 1 59 3 discriminator 3 view .LVU29
 245 0032 F6D3     		bcc	.L8		@,
  62:../../peripheral_library/api/apiVP.c ****   }
  63:../../peripheral_library/api/apiVP.c **** 
  64:../../peripheral_library/api/apiVP.c ****   *pu32Count = *pu32Count / u8MicNo;
 246              		.loc 1 64 3 is_stmt 1 view .LVU30
 247              	@ ../../peripheral_library/api/apiVP.c:64:   *pu32Count = *pu32Count / u8MicNo;
 248              		.loc 1 64 14 is_stmt 0 view .LVU31
 249 0034 3E60     		str	r6, [r7]	@ _29, *pu32Count_21(D)
  65:../../peripheral_library/api/apiVP.c **** 
  66:../../peripheral_library/api/apiVP.c ****   return TRUE;
 250              		.loc 1 66 3 is_stmt 1 view .LVU32
 251              	@ ../../peripheral_library/api/apiVP.c:67: }
  67:../../peripheral_library/api/apiVP.c **** }
 252              		.loc 1 67 1 is_stmt 0 view .LVU33
 253 0036 0120     		movs	r0, #1	@,
 254 0038 F8BD     		pop	{r3, r4, r5, r6, r7, pc}	@
 255              	.LVL8:
 256              	.L9:
 257              	@ ../../peripheral_library/api/apiVP.c:59:   for(i = 0; i < *pu32Count / u8MicNo; i++) //sterero to
  59:../../peripheral_library/api/apiVP.c ****   {
 258              		.loc 1 59 29 view .LVU34
 259 003a 0026     		movs	r6, #0	@ _29,
  64:../../peripheral_library/api/apiVP.c **** 
 260              		.loc 1 64 3 is_stmt 1 view .LVU35
 261              	@ ../../peripheral_library/api/apiVP.c:64:   *pu32Count = *pu32Count / u8MicNo;
  64:../../peripheral_library/api/apiVP.c **** 
 262              		.loc 1 64 14 is_stmt 0 view .LVU36
 263 003c 3E60     		str	r6, [r7]	@ _29, *pu32Count_21(D)
  66:../../peripheral_library/api/apiVP.c **** }
 264              		.loc 1 66 3 is_stmt 1 view .LVU37
 265              	@ ../../peripheral_library/api/apiVP.c:67: }
ARM GAS  /tmp/cc3Huoko.s 			page 7


 266              		.loc 1 67 1 is_stmt 0 view .LVU38
 267 003e 0120     		movs	r0, #1	@,
 268              	.LVL9:
 269              		.loc 1 67 1 view .LVU39
 270 0040 F8BD     		pop	{r3, r4, r5, r6, r7, pc}	@
 271              	.LVL10:
 272              	.L13:
 273              		.loc 1 67 1 view .LVU40
 274 0042 00BF     		.align	2
 275              	.L12:
 276 0044 00000000 		.word	.LANCHOR0
 277              		.cfi_endproc
 278              	.LFE140:
 279              		.size	MApi_VOC_VPPort, .-MApi_VOC_VPPort
 280              		.section	.text.MApi_VOC_VPNto1,"ax",%progbits
 281              		.align	1
 282              		.p2align 2,,3
 283              		.global	MApi_VOC_VPNto1
 284              		.syntax unified
 285              		.thumb
 286              		.thumb_func
 287              		.fpu fpv4-sp-d16
 288              		.type	MApi_VOC_VPNto1, %function
 289              	MApi_VOC_VPNto1:
 290              	.LVL11:
 291              	.LFB141:
  68:../../peripheral_library/api/apiVP.c **** 
  69:../../peripheral_library/api/apiVP.c **** BOOL MApi_VOC_VPNto1(S16 *ps16Buffer, U32 *pu32Count)
  70:../../peripheral_library/api/apiVP.c **** {
 292              		.loc 1 70 1 is_stmt 1 view -0
 293              		.cfi_startproc
 294              		@ args = 0, pretend = 0, frame = 0
 295              		@ frame_needed = 0, uses_anonymous_args = 0
  71:../../peripheral_library/api/apiVP.c ****   U32 i;
 296              		.loc 1 71 3 view .LVU42
  72:../../peripheral_library/api/apiVP.c ****   U8 u8MicNo = MDrv_AUD_GetMicNo();
 297              		.loc 1 72 3 view .LVU43
 298              	@ ../../peripheral_library/api/apiVP.c:70: {
  70:../../peripheral_library/api/apiVP.c ****   U32 i;
 299              		.loc 1 70 1 is_stmt 0 view .LVU44
 300 0000 F8B5     		push	{r3, r4, r5, r6, r7, lr}	@
 301              		.cfi_def_cfa_offset 24
 302              		.cfi_offset 3, -24
 303              		.cfi_offset 4, -20
 304              		.cfi_offset 5, -16
 305              		.cfi_offset 6, -12
 306              		.cfi_offset 7, -8
 307              		.cfi_offset 14, -4
 308              	@ ../../peripheral_library/api/apiVP.c:70: {
  70:../../peripheral_library/api/apiVP.c ****   U32 i;
 309              		.loc 1 70 1 view .LVU45
 310 0002 0F46     		mov	r7, r1	@ pu32Count, pu32Count
 311 0004 0446     		mov	r4, r0	@ ps16Buffer, ps16Buffer
 312              	@ ../../peripheral_library/api/apiVP.c:72:   U8 u8MicNo = MDrv_AUD_GetMicNo();
 313              		.loc 1 72 16 view .LVU46
 314 0006 FFF7FEFF 		bl	MDrv_AUD_GetMicNo		@
 315              	.LVL12:
ARM GAS  /tmp/cc3Huoko.s 			page 8


  73:../../peripheral_library/api/apiVP.c ****   for(i = 0; i < *pu32Count / u8MicNo; i++) //sterero to mono
 316              		.loc 1 73 3 is_stmt 1 view .LVU47
 317              	@ ../../peripheral_library/api/apiVP.c:73:   for(i = 0; i < *pu32Count / u8MicNo; i++) //sterero to
 318              		.loc 1 73 18 is_stmt 0 view .LVU48
 319 000a 3B68     		ldr	r3, [r7]	@ _29, *pu32Count_22(D)
 320              	@ ../../peripheral_library/api/apiVP.c:73:   for(i = 0; i < *pu32Count / u8MicNo; i++) //sterero to
 321              		.loc 1 73 29 view .LVU49
 322 000c B3FBF0F6 		udiv	r6, r3, r0	@ _30, _29, tmp132
 323              	@ ../../peripheral_library/api/apiVP.c:73:   for(i = 0; i < *pu32Count / u8MicNo; i++) //sterero to
 324              		.loc 1 73 3 view .LVU50
 325 0010 9842     		cmp	r0, r3	@ tmp132, _29
 326 0012 12D8     		bhi	.L17		@,
 327              	@ ../../peripheral_library/api/apiVP.c:75:     ps16Buffer[i] = ps16Buffer[i * u8MicNo + 1] * _u8VPS
  74:../../peripheral_library/api/apiVP.c ****   {
  75:../../peripheral_library/api/apiVP.c ****     ps16Buffer[i] = ps16Buffer[i * u8MicNo + 1] * _u8VPScale;
 328              		.loc 1 75 19 view .LVU51
 329 0014 0B4B     		ldr	r3, .L20	@ tmp133,
 330 0016 05B2     		sxth	r5, r0	@ u8MicNo, tmp132
 331 0018 1978     		ldrb	r1, [r3]	@ zero_extendqisi2	@ _8, _u8VPScale
 332 001a 2046     		mov	r0, r4	@ ivtmp.79, ps16Buffer
 333              	.LVL13:
 334              		.loc 1 75 19 view .LVU52
 335 001c 6D00     		lsls	r5, r5, #1	@ _39, u8MicNo,
 336 001e 023C     		subs	r4, r4, #2	@ ivtmp.81, ivtmp.79,
 337              	.LVL14:
 338              	@ ../../peripheral_library/api/apiVP.c:73:   for(i = 0; i < *pu32Count / u8MicNo; i++) //sterero to
  73:../../peripheral_library/api/apiVP.c ****   for(i = 0; i < *pu32Count / u8MicNo; i++) //sterero to mono
 339              		.loc 1 73 9 view .LVU53
 340 0020 0022     		movs	r2, #0	@ i,
 341              	.LVL15:
 342              	.L16:
 343              		.loc 1 75 5 is_stmt 1 discriminator 3 view .LVU54
 344              	@ ../../peripheral_library/api/apiVP.c:75:     ps16Buffer[i] = ps16Buffer[i * u8MicNo + 1] * _u8VPS
 345              		.loc 1 75 19 is_stmt 0 discriminator 3 view .LVU55
 346 0022 4388     		ldrh	r3, [r0, #2]	@, MEM[base: _18, offset: 2B]
 347              	@ ../../peripheral_library/api/apiVP.c:73:   for(i = 0; i < *pu32Count / u8MicNo; i++) //sterero to
  73:../../peripheral_library/api/apiVP.c ****   for(i = 0; i < *pu32Count / u8MicNo; i++) //sterero to mono
 348              		.loc 1 73 41 discriminator 3 view .LVU56
 349 0024 0132     		adds	r2, r2, #1	@ i, i,
 350              	.LVL16:
 351              	@ ../../peripheral_library/api/apiVP.c:75:     ps16Buffer[i] = ps16Buffer[i * u8MicNo + 1] * _u8VPS
 352              		.loc 1 75 19 discriminator 3 view .LVU57
 353 0026 13FB01F3 		smulbb	r3, r3, r1	@ tmp139, MEM[base: _18, offset: 2B], _8
 354              	@ ../../peripheral_library/api/apiVP.c:73:   for(i = 0; i < *pu32Count / u8MicNo; i++) //sterero to
  73:../../peripheral_library/api/apiVP.c ****   for(i = 0; i < *pu32Count / u8MicNo; i++) //sterero to mono
 355              		.loc 1 73 3 discriminator 3 view .LVU58
 356 002a B242     		cmp	r2, r6	@ i, _30
 357              	@ ../../peripheral_library/api/apiVP.c:75:     ps16Buffer[i] = ps16Buffer[i * u8MicNo + 1] * _u8VPS
 358              		.loc 1 75 19 discriminator 3 view .LVU59
 359 002c 24F8023F 		strh	r3, [r4, #2]!	@ movhi	@ tmp139, MEM[base: _17, offset: 0B]
 360 0030 2844     		add	r0, r0, r5	@ ivtmp.79, _39
 361              	@ ../../peripheral_library/api/apiVP.c:73:   for(i = 0; i < *pu32Count / u8MicNo; i++) //sterero to
  73:../../peripheral_library/api/apiVP.c ****   for(i = 0; i < *pu32Count / u8MicNo; i++) //sterero to mono
 362              		.loc 1 73 3 discriminator 3 view .LVU60
 363 0032 F6D3     		bcc	.L16		@,
  76:../../peripheral_library/api/apiVP.c ****   }
  77:../../peripheral_library/api/apiVP.c **** 
ARM GAS  /tmp/cc3Huoko.s 			page 9


  78:../../peripheral_library/api/apiVP.c ****   *pu32Count = *pu32Count / u8MicNo;
 364              		.loc 1 78 3 is_stmt 1 view .LVU61
 365              	@ ../../peripheral_library/api/apiVP.c:78:   *pu32Count = *pu32Count / u8MicNo;
 366              		.loc 1 78 14 is_stmt 0 view .LVU62
 367 0034 3E60     		str	r6, [r7]	@ _30, *pu32Count_22(D)
  79:../../peripheral_library/api/apiVP.c **** 
  80:../../peripheral_library/api/apiVP.c ****   return TRUE;
 368              		.loc 1 80 3 is_stmt 1 view .LVU63
 369              	@ ../../peripheral_library/api/apiVP.c:81: }
  81:../../peripheral_library/api/apiVP.c **** }
 370              		.loc 1 81 1 is_stmt 0 view .LVU64
 371 0036 0120     		movs	r0, #1	@,
 372 0038 F8BD     		pop	{r3, r4, r5, r6, r7, pc}	@
 373              	.LVL17:
 374              	.L17:
 375              	@ ../../peripheral_library/api/apiVP.c:73:   for(i = 0; i < *pu32Count / u8MicNo; i++) //sterero to
  73:../../peripheral_library/api/apiVP.c ****   {
 376              		.loc 1 73 29 view .LVU65
 377 003a 0026     		movs	r6, #0	@ _30,
  78:../../peripheral_library/api/apiVP.c **** 
 378              		.loc 1 78 3 is_stmt 1 view .LVU66
 379              	@ ../../peripheral_library/api/apiVP.c:78:   *pu32Count = *pu32Count / u8MicNo;
  78:../../peripheral_library/api/apiVP.c **** 
 380              		.loc 1 78 14 is_stmt 0 view .LVU67
 381 003c 3E60     		str	r6, [r7]	@ _30, *pu32Count_22(D)
  80:../../peripheral_library/api/apiVP.c **** }
 382              		.loc 1 80 3 is_stmt 1 view .LVU68
 383              	@ ../../peripheral_library/api/apiVP.c:81: }
 384              		.loc 1 81 1 is_stmt 0 view .LVU69
 385 003e 0120     		movs	r0, #1	@,
 386              	.LVL18:
 387              		.loc 1 81 1 view .LVU70
 388 0040 F8BD     		pop	{r3, r4, r5, r6, r7, pc}	@
 389              	.LVL19:
 390              	.L21:
 391              		.loc 1 81 1 view .LVU71
 392 0042 00BF     		.align	2
 393              	.L20:
 394 0044 00000000 		.word	.LANCHOR0
 395              		.cfi_endproc
 396              	.LFE141:
 397              		.size	MApi_VOC_VPNto1, .-MApi_VOC_VPNto1
 398              		.section	.text.MApi_VOC_VP2to4,"ax",%progbits
 399              		.align	1
 400              		.p2align 2,,3
 401              		.global	MApi_VOC_VP2to4
 402              		.syntax unified
 403              		.thumb
 404              		.thumb_func
 405              		.fpu fpv4-sp-d16
 406              		.type	MApi_VOC_VP2to4, %function
 407              	MApi_VOC_VP2to4:
 408              	.LVL20:
 409              	.LFB142:
  82:../../peripheral_library/api/apiVP.c **** 
  83:../../peripheral_library/api/apiVP.c **** 
  84:../../peripheral_library/api/apiVP.c **** BOOL MApi_VOC_VP2to4(S16 *ps16Buffer, U32 *pu32Count)
ARM GAS  /tmp/cc3Huoko.s 			page 10


  85:../../peripheral_library/api/apiVP.c **** {
 410              		.loc 1 85 1 is_stmt 1 view -0
 411              		.cfi_startproc
 412              		@ args = 0, pretend = 0, frame = 0
 413              		@ frame_needed = 0, uses_anonymous_args = 0
  86:../../peripheral_library/api/apiVP.c ****   unsigned int i = 0;
 414              		.loc 1 86 3 view .LVU73
  87:../../peripheral_library/api/apiVP.c **** 
  88:../../peripheral_library/api/apiVP.c ****   U8 u8MicNo = MDrv_AUD_GetMicNo();
 415              		.loc 1 88 3 view .LVU74
 416              	@ ../../peripheral_library/api/apiVP.c:85: {
  85:../../peripheral_library/api/apiVP.c ****   unsigned int i = 0;
 417              		.loc 1 85 1 is_stmt 0 view .LVU75
 418 0000 F8B5     		push	{r3, r4, r5, r6, r7, lr}	@
 419              		.cfi_def_cfa_offset 24
 420              		.cfi_offset 3, -24
 421              		.cfi_offset 4, -20
 422              		.cfi_offset 5, -16
 423              		.cfi_offset 6, -12
 424              		.cfi_offset 7, -8
 425              		.cfi_offset 14, -4
 426              	@ ../../peripheral_library/api/apiVP.c:85: {
  85:../../peripheral_library/api/apiVP.c ****   unsigned int i = 0;
 427              		.loc 1 85 1 view .LVU76
 428 0002 0D46     		mov	r5, r1	@ pu32Count, pu32Count
 429 0004 0446     		mov	r4, r0	@ ps16Buffer, ps16Buffer
 430              	@ ../../peripheral_library/api/apiVP.c:88:   U8 u8MicNo = MDrv_AUD_GetMicNo();
 431              		.loc 1 88 16 view .LVU77
 432 0006 FFF7FEFF 		bl	MDrv_AUD_GetMicNo		@
 433              	.LVL21:
  89:../../peripheral_library/api/apiVP.c **** 
  90:../../peripheral_library/api/apiVP.c ****   for(i = 0; i < *pu32Count / u8MicNo; i++) //sterero to mono
 434              		.loc 1 90 3 is_stmt 1 view .LVU78
 435              	@ ../../peripheral_library/api/apiVP.c:90:   for(i = 0; i < *pu32Count / u8MicNo; i++) //sterero to
 436              		.loc 1 90 18 is_stmt 0 view .LVU79
 437 000a 2B68     		ldr	r3, [r5]	@ _38, *pu32Count_31(D)
 438              	@ ../../peripheral_library/api/apiVP.c:90:   for(i = 0; i < *pu32Count / u8MicNo; i++) //sterero to
 439              		.loc 1 90 29 view .LVU80
 440 000c B3FBF0F7 		udiv	r7, r3, r0	@ _40, _38, tmp133
 441              	@ ../../peripheral_library/api/apiVP.c:90:   for(i = 0; i < *pu32Count / u8MicNo; i++) //sterero to
 442              		.loc 1 90 3 view .LVU81
 443 0010 8342     		cmp	r3, r0	@ _38, tmp133
 444 0012 11D3     		bcc	.L23		@,
 445              	@ ../../peripheral_library/api/apiVP.c:92:     ps16Buffer[i * u8MicNo + 2] = ps16Buffer[i * u8MicNo
  91:../../peripheral_library/api/apiVP.c ****   {
  92:../../peripheral_library/api/apiVP.c ****     ps16Buffer[i * u8MicNo + 2] = ps16Buffer[i * u8MicNo] * _u8VPScale;
 446              		.loc 1 92 33 view .LVU82
 447 0014 094B     		ldr	r3, .L27	@ tmp134,
 448 0016 00B2     		sxth	r0, r0	@ u8MicNo, tmp133
 449              	.LVL22:
 450              		.loc 1 92 33 view .LVU83
 451 0018 1D78     		ldrb	r5, [r3]	@ zero_extendqisi2	@ _7, _u8VPScale
 452              	.LVL23:
 453              		.loc 1 92 33 view .LVU84
 454 001a 4600     		lsls	r6, r0, #1	@ _67, u8MicNo,
 455              	@ ../../peripheral_library/api/apiVP.c:90:   for(i = 0; i < *pu32Count / u8MicNo; i++) //sterero to
  90:../../peripheral_library/api/apiVP.c ****   {
ARM GAS  /tmp/cc3Huoko.s 			page 11


 456              		.loc 1 90 9 view .LVU85
 457 001c 0021     		movs	r1, #0	@ i,
 458 001e 2046     		mov	r0, r4	@ ivtmp.86, ps16Buffer
 459              	.LVL24:
 460              	.L24:
 461              		.loc 1 92 5 is_stmt 1 discriminator 3 view .LVU86
 462              	@ ../../peripheral_library/api/apiVP.c:92:     ps16Buffer[i * u8MicNo + 2] = ps16Buffer[i * u8MicNo
 463              		.loc 1 92 33 is_stmt 0 discriminator 3 view .LVU87
 464 0020 0288     		ldrh	r2, [r0]	@, MEM[base: _65, offset: 0B]
 465              	@ ../../peripheral_library/api/apiVP.c:93:     ps16Buffer[i * u8MicNo + 3] = ps16Buffer[i * u8MicNo
  93:../../peripheral_library/api/apiVP.c ****     ps16Buffer[i * u8MicNo + 3] = ps16Buffer[i * u8MicNo + 1] * _u8VPScale;
 466              		.loc 1 93 33 discriminator 3 view .LVU88
 467 0022 4388     		ldrh	r3, [r0, #2]	@, MEM[base: _65, offset: 2B]
 468              	@ ../../peripheral_library/api/apiVP.c:90:   for(i = 0; i < *pu32Count / u8MicNo; i++) //sterero to
  90:../../peripheral_library/api/apiVP.c ****   {
 469              		.loc 1 90 41 discriminator 3 view .LVU89
 470 0024 0131     		adds	r1, r1, #1	@ i, i,
 471              	.LVL25:
 472              	@ ../../peripheral_library/api/apiVP.c:92:     ps16Buffer[i * u8MicNo + 2] = ps16Buffer[i * u8MicNo
  92:../../peripheral_library/api/apiVP.c ****     ps16Buffer[i * u8MicNo + 3] = ps16Buffer[i * u8MicNo + 1] * _u8VPScale;
 473              		.loc 1 92 33 discriminator 3 view .LVU90
 474 0026 12FB05F2 		smulbb	r2, r2, r5	@ tmp140, MEM[base: _65, offset: 0B], _7
 475              	@ ../../peripheral_library/api/apiVP.c:93:     ps16Buffer[i * u8MicNo + 3] = ps16Buffer[i * u8MicNo
 476              		.loc 1 93 33 discriminator 3 view .LVU91
 477 002a 13FB05F3 		smulbb	r3, r3, r5	@ tmp143, MEM[base: _65, offset: 2B], _7
 478              	@ ../../peripheral_library/api/apiVP.c:90:   for(i = 0; i < *pu32Count / u8MicNo; i++) //sterero to
  90:../../peripheral_library/api/apiVP.c ****   {
 479              		.loc 1 90 3 discriminator 3 view .LVU92
 480 002e B942     		cmp	r1, r7	@ i, _40
 481              	@ ../../peripheral_library/api/apiVP.c:92:     ps16Buffer[i * u8MicNo + 2] = ps16Buffer[i * u8MicNo
  92:../../peripheral_library/api/apiVP.c ****     ps16Buffer[i * u8MicNo + 3] = ps16Buffer[i * u8MicNo + 1] * _u8VPScale;
 482              		.loc 1 92 33 discriminator 3 view .LVU93
 483 0030 8280     		strh	r2, [r0, #4]	@ movhi	@ tmp140, MEM[base: _65, offset: 4B]
 484              		.loc 1 93 5 is_stmt 1 discriminator 3 view .LVU94
 485              	.LVL26:
 486              	@ ../../peripheral_library/api/apiVP.c:93:     ps16Buffer[i * u8MicNo + 3] = ps16Buffer[i * u8MicNo
 487              		.loc 1 93 33 is_stmt 0 discriminator 3 view .LVU95
 488 0032 C380     		strh	r3, [r0, #6]	@ movhi	@ tmp143, MEM[base: _65, offset: 6B]
 489 0034 3044     		add	r0, r0, r6	@ ivtmp.86, _67
 490              	@ ../../peripheral_library/api/apiVP.c:90:   for(i = 0; i < *pu32Count / u8MicNo; i++) //sterero to
  90:../../peripheral_library/api/apiVP.c ****   {
 491              		.loc 1 90 3 discriminator 3 view .LVU96
 492 0036 F3D3     		bcc	.L24		@,
 493              	.LVL27:
 494              	.L23:
  94:../../peripheral_library/api/apiVP.c ****   }
  95:../../peripheral_library/api/apiVP.c **** 
  96:../../peripheral_library/api/apiVP.c ****   return TRUE;
 495              		.loc 1 96 3 is_stmt 1 view .LVU97
 496              	@ ../../peripheral_library/api/apiVP.c:97: }
  97:../../peripheral_library/api/apiVP.c **** }
 497              		.loc 1 97 1 is_stmt 0 view .LVU98
 498 0038 0120     		movs	r0, #1	@,
 499 003a F8BD     		pop	{r3, r4, r5, r6, r7, pc}	@
 500              	.LVL28:
 501              	.L28:
 502              		.loc 1 97 1 view .LVU99
ARM GAS  /tmp/cc3Huoko.s 			page 12


 503              		.align	2
 504              	.L27:
 505 003c 00000000 		.word	.LANCHOR0
 506              		.cfi_endproc
 507              	.LFE142:
 508              		.size	MApi_VOC_VP2to4, .-MApi_VOC_VP2to4
 509              		.section	.text.Mapi_VOC_VPConfig,"ax",%progbits
 510              		.align	1
 511              		.p2align 2,,3
 512              		.global	Mapi_VOC_VPConfig
 513              		.syntax unified
 514              		.thumb
 515              		.thumb_func
 516              		.fpu fpv4-sp-d16
 517              		.type	Mapi_VOC_VPConfig, %function
 518              	Mapi_VOC_VPConfig:
 519              	.LVL29:
 520              	.LFB143:
  98:../../peripheral_library/api/apiVP.c **** 
  99:../../peripheral_library/api/apiVP.c **** void Mapi_VOC_VPConfig(U8 u8Scale)
 100:../../peripheral_library/api/apiVP.c **** {
 521              		.loc 1 100 1 is_stmt 1 view -0
 522              		.cfi_startproc
 523              		@ args = 0, pretend = 0, frame = 0
 524              		@ frame_needed = 0, uses_anonymous_args = 0
 525              		@ link register save eliminated.
 101:../../peripheral_library/api/apiVP.c ****   _u8VPScale = u8Scale;
 526              		.loc 1 101 3 view .LVU101
 527              	@ ../../peripheral_library/api/apiVP.c:101:   _u8VPScale = u8Scale;
 528              		.loc 1 101 14 is_stmt 0 view .LVU102
 529 0000 014B     		ldr	r3, .L30	@ tmp111,
 530 0002 1870     		strb	r0, [r3]	@ u8Scale, _u8VPScale
 102:../../peripheral_library/api/apiVP.c ****   return;
 531              		.loc 1 102 3 is_stmt 1 view .LVU103
 532              	@ ../../peripheral_library/api/apiVP.c:103: }
 103:../../peripheral_library/api/apiVP.c **** }
 533              		.loc 1 103 1 is_stmt 0 view .LVU104
 534 0004 7047     		bx	lr	@
 535              	.L31:
 536 0006 00BF     		.align	2
 537              	.L30:
 538 0008 00000000 		.word	.LANCHOR0
 539              		.cfi_endproc
 540              	.LFE143:
 541              		.size	Mapi_VOC_VPConfig, .-Mapi_VOC_VPConfig
 542              		.section	.text.MApi_VOC_CUSPort0,"ax",%progbits
 543              		.align	1
 544              		.p2align 2,,3
 545              		.weak	MApi_VOC_CUSPort0
 546              		.syntax unified
 547              		.thumb
 548              		.thumb_func
 549              		.fpu fpv4-sp-d16
 550              		.type	MApi_VOC_CUSPort0, %function
 551              	MApi_VOC_CUSPort0:
 552              	.LVL30:
 553              	.LFB144:
ARM GAS  /tmp/cc3Huoko.s 			page 13


 104:../../peripheral_library/api/apiVP.c **** 
 105:../../peripheral_library/api/apiVP.c **** __attribute__((weak)) BOOL MApi_VOC_CUSPort0(S16 *ps16Buffer, U32 *pu32Count)
 106:../../peripheral_library/api/apiVP.c **** {
 554              		.loc 1 106 1 is_stmt 1 view -0
 555              		.cfi_startproc
 556              		@ args = 0, pretend = 0, frame = 8
 557              		@ frame_needed = 0, uses_anonymous_args = 0
 107:../../peripheral_library/api/apiVP.c ****   U32 i;
 558              		.loc 1 107 3 view .LVU106
 108:../../peripheral_library/api/apiVP.c **** //  U8 u8MicNum = MDrv_AUD_GetChn();
 109:../../peripheral_library/api/apiVP.c **** //  U16* u16MicIndex[8] = {0x0100,0x0200,0x0300,0x0400,0x0500,0x0600,0x0700,0x0800};
 110:../../peripheral_library/api/apiVP.c **** //  S16 u16MicIndex[u8MicNum] ;
 111:../../peripheral_library/api/apiVP.c **** //  S16 u16MicIndex[4] = {0x0006, 0x0002, 0x0005, 0x0001};
 112:../../peripheral_library/api/apiVP.c ****   U16 u16MicIndex[4] = {0x0600,0x0200,0x0500,0x0100};
 559              		.loc 1 112 3 view .LVU107
 560              	@ ../../peripheral_library/api/apiVP.c:106: {
 106:../../peripheral_library/api/apiVP.c ****   U32 i;
 561              		.loc 1 106 1 is_stmt 0 view .LVU108
 562 0000 30B5     		push	{r4, r5, lr}	@
 563              		.cfi_def_cfa_offset 12
 564              		.cfi_offset 4, -12
 565              		.cfi_offset 5, -8
 566              		.cfi_offset 14, -4
 567 0002 83B0     		sub	sp, sp, #12	@,,
 568              		.cfi_def_cfa_offset 24
 569              	@ ../../peripheral_library/api/apiVP.c:112:   U16 u16MicIndex[4] = {0x0600,0x0200,0x0500,0x0100};
 570              		.loc 1 112 7 view .LVU109
 571 0004 1D4A     		ldr	r2, .L46	@ tmp133,
 572 0006 1E4B     		ldr	r3, .L46+4	@ tmp134,
 573 0008 0092     		str	r2, [sp]	@ tmp133, MEM[(short unsigned int[4] *)&u16MicIndex]
 574              	@ ../../peripheral_library/api/apiVP.c:106: {
 106:../../peripheral_library/api/apiVP.c ****   U32 i;
 575              		.loc 1 106 1 view .LVU110
 576 000a 0446     		mov	r4, r0	@ ps16Buffer, ps16Buffer
 577 000c 0D46     		mov	r5, r1	@ pu32Count, pu32Count
 578              	@ ../../peripheral_library/api/apiVP.c:112:   U16 u16MicIndex[4] = {0x0600,0x0200,0x0500,0x0100};
 579              		.loc 1 112 7 view .LVU111
 580 000e 0193     		str	r3, [sp, #4]	@ tmp134, MEM[(short unsigned int[4] *)&u16MicIndex + 4B]
 113:../../peripheral_library/api/apiVP.c ****   S16 ps16DataBuffer ;
 581              		.loc 1 113 3 is_stmt 1 view .LVU112
 114:../../peripheral_library/api/apiVP.c ****   U8 u8MicNo;
 582              		.loc 1 114 3 view .LVU113
 115:../../peripheral_library/api/apiVP.c ****   U8 u8MicNum = 4;
 583              		.loc 1 115 3 view .LVU114
 584              	.LVL31:
 116:../../peripheral_library/api/apiVP.c **** //  S16 t;
 117:../../peripheral_library/api/apiVP.c **** 
 118:../../peripheral_library/api/apiVP.c **** if (MDrv_AUD_GetMicNo() != 4)
 585              		.loc 1 118 1 view .LVU115
 586              	@ ../../peripheral_library/api/apiVP.c:118: if (MDrv_AUD_GetMicNo() != 4)
 587              		.loc 1 118 5 is_stmt 0 view .LVU116
 588 0010 FFF7FEFF 		bl	MDrv_AUD_GetMicNo		@
 589              	.LVL32:
 590              	@ ../../peripheral_library/api/apiVP.c:118: if (MDrv_AUD_GetMicNo() != 4)
 591              		.loc 1 118 4 view .LVU117
 592 0014 0428     		cmp	r0, #4	@,
 593 0016 02D0     		beq	.L45		@,
ARM GAS  /tmp/cc3Huoko.s 			page 14


 594              	.L33:
 595              	@ ../../peripheral_library/api/apiVP.c:119: 	return FALSE;
 119:../../peripheral_library/api/apiVP.c **** 	return FALSE;
 596              		.loc 1 119 9 view .LVU118
 597 0018 0020     		movs	r0, #0	@ <retval>,
 598              	@ ../../peripheral_library/api/apiVP.c:164: }
 120:../../peripheral_library/api/apiVP.c **** 
 121:../../peripheral_library/api/apiVP.c **** if (MDrv_AUD_GetBitWidth() != 32)
 122:../../peripheral_library/api/apiVP.c **** 	return FALSE;
 123:../../peripheral_library/api/apiVP.c **** 
 124:../../peripheral_library/api/apiVP.c **** 
 125:../../peripheral_library/api/apiVP.c **** //  for (t = 0 ; t < u8MicNum ; t++)
 126:../../peripheral_library/api/apiVP.c **** //   u16MicIndex[t] = (t+1) * 0x100 ;
 127:../../peripheral_library/api/apiVP.c **** //  VOC_MSG("MApi_VOC_DA : start \n";
 128:../../peripheral_library/api/apiVP.c **** //  for(i = 0; i < *pu32Count / u8MicNum; i++)
 129:../../peripheral_library/api/apiVP.c **** //  for(i = 0; i < *pu32Count / 1 ; i+=4)
 130:../../peripheral_library/api/apiVP.c **** //  {
 131:../../peripheral_library/api/apiVP.c **** //    ps16Buffer[i] = u16MicIndex [0];
 132:../../peripheral_library/api/apiVP.c **** //  }
 133:../../peripheral_library/api/apiVP.c **** 
 134:../../peripheral_library/api/apiVP.c **** for (u8MicNo = 0; u8MicNo < u8MicNum ; u8MicNo++ )// write ID
 135:../../peripheral_library/api/apiVP.c **** {
 136:../../peripheral_library/api/apiVP.c ****   for(i = u8MicNo*2; i < *pu32Count / 1 ; i+=(u8MicNum*2))
 137:../../peripheral_library/api/apiVP.c ****   {
 138:../../peripheral_library/api/apiVP.c ****     ps16Buffer[i] = u16MicIndex [u8MicNo];
 139:../../peripheral_library/api/apiVP.c ****   }
 140:../../peripheral_library/api/apiVP.c **** }
 141:../../peripheral_library/api/apiVP.c **** 
 142:../../peripheral_library/api/apiVP.c **** //for (u8MicNo = 0; u8MicNo < u8MicNum ; u8MicNo++ )// write ID
 143:../../peripheral_library/api/apiVP.c **** //{
 144:../../peripheral_library/api/apiVP.c **** //  for(i = u8MicNo*2; i < *pu32Count / 1 ; i+=u8MicNum*2)
 145:../../peripheral_library/api/apiVP.c **** //  {
 146:../../peripheral_library/api/apiVP.c **** //    ps16DataBuffer = ps16Buffer[i+1];
 147:../../peripheral_library/api/apiVP.c **** //    ps16Buffer[i] = (ps16DataBuffer >>8) & 0x00ff ;
 148:../../peripheral_library/api/apiVP.c **** //    ps16Buffer[i+1] = (ps16DataBuffer<<8) |u16MicIndex [u8MicNo] ;
 149:../../peripheral_library/api/apiVP.c **** //  }
 150:../../peripheral_library/api/apiVP.c **** //}
 151:../../peripheral_library/api/apiVP.c **** 
 152:../../peripheral_library/api/apiVP.c ****   for(i = 0; i < *pu32Count / 1 ; i+=u8MicNum*2) // arrange data
 153:../../peripheral_library/api/apiVP.c ****   {
 154:../../peripheral_library/api/apiVP.c ****     ps16DataBuffer = ps16Buffer[i]; // 0~1:MIC1 2~3:MIC2 4~5:MIC3 6~7:MIC4
 155:../../peripheral_library/api/apiVP.c ****     ps16Buffer[i] = ps16Buffer[i+6];
 156:../../peripheral_library/api/apiVP.c ****     ps16Buffer[i+6] = ps16DataBuffer;
 157:../../peripheral_library/api/apiVP.c **** 
 158:../../peripheral_library/api/apiVP.c ****     ps16DataBuffer = ps16Buffer[i+1];
 159:../../peripheral_library/api/apiVP.c ****     ps16Buffer[i+1] = ps16Buffer[i+7];
 160:../../peripheral_library/api/apiVP.c ****     ps16Buffer[i+7] = ps16DataBuffer;
 161:../../peripheral_library/api/apiVP.c ****   }
 162:../../peripheral_library/api/apiVP.c **** 
 163:../../peripheral_library/api/apiVP.c ****   return TRUE;
 164:../../peripheral_library/api/apiVP.c **** }
 599              		.loc 1 164 1 view .LVU119
 600 001a 03B0     		add	sp, sp, #12	@,,
 601              		.cfi_remember_state
 602              		.cfi_def_cfa_offset 12
 603              		@ sp needed	@
 604 001c 30BD     		pop	{r4, r5, pc}	@
ARM GAS  /tmp/cc3Huoko.s 			page 15


 605              	.LVL33:
 606              	.L45:
 607              		.cfi_restore_state
 121:../../peripheral_library/api/apiVP.c **** 	return FALSE;
 608              		.loc 1 121 1 is_stmt 1 view .LVU120
 609              	@ ../../peripheral_library/api/apiVP.c:121: if (MDrv_AUD_GetBitWidth() != 32)
 121:../../peripheral_library/api/apiVP.c **** 	return FALSE;
 610              		.loc 1 121 5 is_stmt 0 view .LVU121
 611 001e FFF7FEFF 		bl	MDrv_AUD_GetBitWidth		@
 612              	.LVL34:
 613              	@ ../../peripheral_library/api/apiVP.c:121: if (MDrv_AUD_GetBitWidth() != 32)
 121:../../peripheral_library/api/apiVP.c **** 	return FALSE;
 614              		.loc 1 121 4 view .LVU122
 615 0022 2028     		cmp	r0, #32	@,
 616 0024 F8D1     		bne	.L33		@,
 617              	@ ../../peripheral_library/api/apiVP.c:136:   for(i = u8MicNo*2; i < *pu32Count / 1 ; i+=(u8MicNum*
 136:../../peripheral_library/api/apiVP.c ****   {
 618              		.loc 1 136 37 view .LVU123
 619 0026 2A68     		ldr	r2, [r5]	@ _55, *pu32Count_40(D)
 620 0028 0020     		movs	r0, #0	@ ivtmp.104,
 621 002a 6D46     		mov	r5, sp	@ ivtmp.105,
 622              	.LVL35:
 623              	.L36:
 136:../../peripheral_library/api/apiVP.c ****   {
 624              		.loc 1 136 3 is_stmt 1 view .LVU124
 136:../../peripheral_library/api/apiVP.c ****   {
 625              		.loc 1 136 3 is_stmt 0 view .LVU125
 626 002c 9042     		cmp	r0, r2	@ ivtmp.104, _55
 627 002e 07D2     		bcs	.L34		@,
 628              	@ ../../peripheral_library/api/apiVP.c:138:     ps16Buffer[i] = u16MicIndex [u8MicNo];
 138:../../peripheral_library/api/apiVP.c ****   }
 629              		.loc 1 138 33 view .LVU126
 630 0030 B5F90010 		ldrsh	r1, [r5]	@ _8, MEM[base: _79, offset: 0B]
 631 0034 0346     		mov	r3, r0	@ i, ivtmp.104
 632              	.LVL36:
 633              	.L35:
 138:../../peripheral_library/api/apiVP.c ****   }
 634              		.loc 1 138 5 is_stmt 1 discriminator 3 view .LVU127
 635              	@ ../../peripheral_library/api/apiVP.c:138:     ps16Buffer[i] = u16MicIndex [u8MicNo];
 138:../../peripheral_library/api/apiVP.c ****   }
 636              		.loc 1 138 19 is_stmt 0 discriminator 3 view .LVU128
 637 0036 24F81310 		strh	r1, [r4, r3, lsl #1]	@ movhi	@ _8, MEM[base: ps16Buffer_41(D), index: i_54, step: 2, offset: 
 638              	@ ../../peripheral_library/api/apiVP.c:136:   for(i = u8MicNo*2; i < *pu32Count / 1 ; i+=(u8MicNum*
 136:../../peripheral_library/api/apiVP.c ****   {
 639              		.loc 1 136 44 discriminator 3 view .LVU129
 640 003a 0833     		adds	r3, r3, #8	@ i, i,
 641              	.LVL37:
 642              	@ ../../peripheral_library/api/apiVP.c:136:   for(i = u8MicNo*2; i < *pu32Count / 1 ; i+=(u8MicNum*
 136:../../peripheral_library/api/apiVP.c ****   {
 643              		.loc 1 136 3 discriminator 3 view .LVU130
 644 003c 9342     		cmp	r3, r2	@ i, _55
 645 003e FAD3     		bcc	.L35		@,
 646              	.LVL38:
 647              	.L34:
 136:../../peripheral_library/api/apiVP.c ****   {
 648              		.loc 1 136 3 discriminator 3 view .LVU131
 649 0040 0230     		adds	r0, r0, #2	@ ivtmp.104, ivtmp.104,
ARM GAS  /tmp/cc3Huoko.s 			page 16


 650              	@ ../../peripheral_library/api/apiVP.c:134: for (u8MicNo = 0; u8MicNo < u8MicNum ; u8MicNo++ )// wr
 134:../../peripheral_library/api/apiVP.c **** {
 651              		.loc 1 134 1 view .LVU132
 652 0042 0828     		cmp	r0, #8	@ ivtmp.104,
 653 0044 05F10205 		add	r5, r5, #2	@ ivtmp.105, ivtmp.105,
 654 0048 F0D1     		bne	.L36		@,
 655              	.LVL39:
 656              	@ ../../peripheral_library/api/apiVP.c:152:   for(i = 0; i < *pu32Count / 1 ; i+=u8MicNum*2) // arr
 152:../../peripheral_library/api/apiVP.c ****   {
 657              		.loc 1 152 3 view .LVU133
 658 004a 9AB1     		cbz	r2, .L40	@ _55,
 659 004c 013A     		subs	r2, r2, #1	@ tmp138, _55,
 660 004e D208     		lsrs	r2, r2, #3	@ tmp139, tmp138,
 661 0050 04F11003 		add	r3, r4, #16	@ tmp141, ivtmp.92,
 662 0054 2046     		mov	r0, r4	@ ivtmp.92, ps16Buffer
 663 0056 03EB0212 		add	r2, r3, r2, lsl #4	@ _28, tmp141, tmp139,
 664              	.LVL40:
 665              	.L39:
 154:../../peripheral_library/api/apiVP.c ****     ps16Buffer[i] = ps16Buffer[i+6];
 666              		.loc 1 154 5 is_stmt 1 discriminator 3 view .LVU134
 667              	@ ../../peripheral_library/api/apiVP.c:154:     ps16DataBuffer = ps16Buffer[i]; // 0~1:MIC1 2~3:MIC
 154:../../peripheral_library/api/apiVP.c ****     ps16Buffer[i] = ps16Buffer[i+6];
 668              		.loc 1 154 20 is_stmt 0 discriminator 3 view .LVU135
 669 005a B0F90050 		ldrsh	r5, [r0]	@ ps16DataBuffer, MEM[base: _71, offset: 0B]
 670              	.LVL41:
 155:../../peripheral_library/api/apiVP.c ****     ps16Buffer[i+6] = ps16DataBuffer;
 671              		.loc 1 155 5 is_stmt 1 discriminator 3 view .LVU136
 672              	@ ../../peripheral_library/api/apiVP.c:155:     ps16Buffer[i] = ps16Buffer[i+6];
 155:../../peripheral_library/api/apiVP.c ****     ps16Buffer[i+6] = ps16DataBuffer;
 673              		.loc 1 155 19 is_stmt 0 discriminator 3 view .LVU137
 674 005e 8489     		ldrh	r4, [r0, #12]	@, MEM[base: _71, offset: 12B]
 675              	@ ../../peripheral_library/api/apiVP.c:158:     ps16DataBuffer = ps16Buffer[i+1];
 158:../../peripheral_library/api/apiVP.c ****     ps16Buffer[i+1] = ps16Buffer[i+7];
 676              		.loc 1 158 20 discriminator 3 view .LVU138
 677 0060 B0F90210 		ldrsh	r1, [r0, #2]	@ ps16DataBuffer, MEM[base: _71, offset: 2B]
 678              	@ ../../peripheral_library/api/apiVP.c:159:     ps16Buffer[i+1] = ps16Buffer[i+7];
 159:../../peripheral_library/api/apiVP.c ****     ps16Buffer[i+7] = ps16DataBuffer;
 679              		.loc 1 159 21 discriminator 3 view .LVU139
 680 0064 C389     		ldrh	r3, [r0, #14]	@, MEM[base: _71, offset: 14B]
 681              	@ ../../peripheral_library/api/apiVP.c:156:     ps16Buffer[i+6] = ps16DataBuffer;
 156:../../peripheral_library/api/apiVP.c **** 
 682              		.loc 1 156 21 discriminator 3 view .LVU140
 683 0066 8581     		strh	r5, [r0, #12]	@ movhi	@ ps16DataBuffer, MEM[base: _71, offset: 12B]
 684              	@ ../../peripheral_library/api/apiVP.c:155:     ps16Buffer[i] = ps16Buffer[i+6];
 155:../../peripheral_library/api/apiVP.c ****     ps16Buffer[i+6] = ps16DataBuffer;
 685              		.loc 1 155 19 discriminator 3 view .LVU141
 686 0068 0480     		strh	r4, [r0]	@ movhi	@ MEM[base: _71, offset: 12B], MEM[base: _71, offset: 0B]
 156:../../peripheral_library/api/apiVP.c **** 
 687              		.loc 1 156 5 is_stmt 1 discriminator 3 view .LVU142
 158:../../peripheral_library/api/apiVP.c ****     ps16Buffer[i+1] = ps16Buffer[i+7];
 688              		.loc 1 158 5 discriminator 3 view .LVU143
 689              	.LVL42:
 159:../../peripheral_library/api/apiVP.c ****     ps16Buffer[i+7] = ps16DataBuffer;
 690              		.loc 1 159 5 discriminator 3 view .LVU144
 691              	@ ../../peripheral_library/api/apiVP.c:160:     ps16Buffer[i+7] = ps16DataBuffer;
 160:../../peripheral_library/api/apiVP.c ****   }
 692              		.loc 1 160 21 is_stmt 0 discriminator 3 view .LVU145
ARM GAS  /tmp/cc3Huoko.s 			page 17


 693 006a C181     		strh	r1, [r0, #14]	@ movhi	@ ps16DataBuffer, MEM[base: _71, offset: 14B]
 694              	@ ../../peripheral_library/api/apiVP.c:159:     ps16Buffer[i+1] = ps16Buffer[i+7];
 159:../../peripheral_library/api/apiVP.c ****     ps16Buffer[i+7] = ps16DataBuffer;
 695              		.loc 1 159 21 discriminator 3 view .LVU146
 696 006c 4380     		strh	r3, [r0, #2]	@ movhi	@ MEM[base: _71, offset: 14B], MEM[base: _71, offset: 2B]
 160:../../peripheral_library/api/apiVP.c ****   }
 697              		.loc 1 160 5 is_stmt 1 discriminator 3 view .LVU147
 160:../../peripheral_library/api/apiVP.c ****   }
 698              		.loc 1 160 5 is_stmt 0 discriminator 3 view .LVU148
 699 006e 1030     		adds	r0, r0, #16	@ ivtmp.92, ivtmp.92,
 700              	@ ../../peripheral_library/api/apiVP.c:152:   for(i = 0; i < *pu32Count / 1 ; i+=u8MicNum*2) // arr
 152:../../peripheral_library/api/apiVP.c ****   {
 701              		.loc 1 152 3 discriminator 3 view .LVU149
 702 0070 8242     		cmp	r2, r0	@ _28, ivtmp.92
 703 0072 F2D1     		bne	.L39		@,
 704              	.LVL43:
 705              	.L40:
 706              	@ ../../peripheral_library/api/apiVP.c:163:   return TRUE;
 163:../../peripheral_library/api/apiVP.c **** }
 707              		.loc 1 163 10 view .LVU150
 708 0074 0120     		movs	r0, #1	@ <retval>,
 709              	@ ../../peripheral_library/api/apiVP.c:164: }
 710              		.loc 1 164 1 view .LVU151
 711 0076 03B0     		add	sp, sp, #12	@,,
 712              		.cfi_def_cfa_offset 12
 713              		@ sp needed	@
 714 0078 30BD     		pop	{r4, r5, pc}	@
 715              	.L47:
 716 007a 00BF     		.align	2
 717              	.L46:
 718 007c 00060002 		.word	33555968
 719 0080 00050001 		.word	16778496
 720              		.cfi_endproc
 721              	.LFE144:
 722              		.size	MApi_VOC_CUSPort0, .-MApi_VOC_CUSPort0
 723              		.section	.text.MApi_VOC_MicMapConfig,"ax",%progbits
 724              		.align	1
 725              		.p2align 2,,3
 726              		.global	MApi_VOC_MicMapConfig
 727              		.syntax unified
 728              		.thumb
 729              		.thumb_func
 730              		.fpu fpv4-sp-d16
 731              		.type	MApi_VOC_MicMapConfig, %function
 732              	MApi_VOC_MicMapConfig:
 733              	.LVL44:
 734              	.LFB145:
 165:../../peripheral_library/api/apiVP.c **** 
 166:../../peripheral_library/api/apiVP.c **** BOOL MApi_VOC_MicMapConfig(U8 u8DestMicNo, U8 u8SrcMicNo)
 167:../../peripheral_library/api/apiVP.c **** {
 735              		.loc 1 167 1 is_stmt 1 view -0
 736              		.cfi_startproc
 737              		@ args = 0, pretend = 0, frame = 0
 738              		@ frame_needed = 0, uses_anonymous_args = 0
 168:../../peripheral_library/api/apiVP.c ****   if (u8DestMicNo < 8 && u8SrcMicNo < 8)
 739              		.loc 1 168 3 view .LVU153
 740              	@ ../../peripheral_library/api/apiVP.c:168:   if (u8DestMicNo < 8 && u8SrcMicNo < 8)
ARM GAS  /tmp/cc3Huoko.s 			page 18


 741              		.loc 1 168 6 is_stmt 0 view .LVU154
 742 0000 0728     		cmp	r0, #7	@ u8DestMicNo,
 743 0002 0AD8     		bhi	.L51		@,
 744              	@ ../../peripheral_library/api/apiVP.c:168:   if (u8DestMicNo < 8 && u8SrcMicNo < 8)
 745              		.loc 1 168 23 discriminator 1 view .LVU155
 746 0004 0729     		cmp	r1, #7	@ u8SrcMicNo,
 747 0006 08D8     		bhi	.L51		@,
 169:../../peripheral_library/api/apiVP.c ****     _u8MicMap[u8DestMicNo] = u8SrcMicNo;
 748              		.loc 1 169 5 is_stmt 1 view .LVU156
 749              	@ ../../peripheral_library/api/apiVP.c:173:   VP_MSG("MApi_VOC_MicMapConfig: map %d to %d\n", u8Src
 170:../../peripheral_library/api/apiVP.c ****   else
 171:../../peripheral_library/api/apiVP.c ****     return FALSE;
 172:../../peripheral_library/api/apiVP.c **** 
 173:../../peripheral_library/api/apiVP.c ****   VP_MSG("MApi_VOC_MicMapConfig: map %d to %d\n", u8SrcMicNo, u8DestMicNo);
 750              		.loc 1 173 3 is_stmt 0 view .LVU157
 751 0008 084A     		ldr	r2, .L58	@ tmp119,
 752 000a 1268     		ldr	r2, [r2]	@ gu32MosDbgLevel, gu32MosDbgLevel
 753              	@ ../../peripheral_library/api/apiVP.c:167: {
 167:../../peripheral_library/api/apiVP.c ****   if (u8DestMicNo < 8 && u8SrcMicNo < 8)
 754              		.loc 1 167 1 view .LVU158
 755 000c 10B5     		push	{r4, lr}	@
 756              		.cfi_def_cfa_offset 8
 757              		.cfi_offset 4, -8
 758              		.cfi_offset 14, -4
 759              	@ ../../peripheral_library/api/apiVP.c:169:     _u8MicMap[u8DestMicNo] = u8SrcMicNo;
 169:../../peripheral_library/api/apiVP.c ****     _u8MicMap[u8DestMicNo] = u8SrcMicNo;
 760              		.loc 1 169 28 view .LVU159
 761 000e 084C     		ldr	r4, .L58+4	@ tmp117,
 762              	@ ../../peripheral_library/api/apiVP.c:173:   VP_MSG("MApi_VOC_MicMapConfig: map %d to %d\n", u8Src
 763              		.loc 1 173 3 view .LVU160
 764 0010 D305     		lsls	r3, r2, #23	@, gu32MosDbgLevel,
 765              	@ ../../peripheral_library/api/apiVP.c:169:     _u8MicMap[u8DestMicNo] = u8SrcMicNo;
 169:../../peripheral_library/api/apiVP.c ****     _u8MicMap[u8DestMicNo] = u8SrcMicNo;
 766              		.loc 1 169 28 view .LVU161
 767 0012 2154     		strb	r1, [r4, r0]	@ u8SrcMicNo, _u8MicMap
 768              		.loc 1 173 3 is_stmt 1 view .LVU162
 769 0014 03D4     		bmi	.L57		@,
 770              	@ ../../peripheral_library/api/apiVP.c:174:   return TRUE;
 174:../../peripheral_library/api/apiVP.c ****   return TRUE;
 771              		.loc 1 174 10 is_stmt 0 view .LVU163
 772 0016 0120     		movs	r0, #1	@ <retval>,
 773              	.LVL45:
 774              	@ ../../peripheral_library/api/apiVP.c:175: }
 175:../../peripheral_library/api/apiVP.c **** }
 775              		.loc 1 175 1 view .LVU164
 776 0018 10BD     		pop	{r4, pc}	@
 777              	.LVL46:
 778              	.L51:
 779              		.cfi_def_cfa_offset 0
 780              		.cfi_restore 4
 781              		.cfi_restore 14
 782              	@ ../../peripheral_library/api/apiVP.c:171:     return FALSE;
 171:../../peripheral_library/api/apiVP.c **** 
 783              		.loc 1 171 12 view .LVU165
 784 001a 0020     		movs	r0, #0	@ <retval>,
 785              	.LVL47:
 786              	@ ../../peripheral_library/api/apiVP.c:175: }
ARM GAS  /tmp/cc3Huoko.s 			page 19


 787              		.loc 1 175 1 view .LVU166
 788 001c 7047     		bx	lr	@
 789              	.LVL48:
 790              	.L57:
 791              		.cfi_def_cfa_offset 8
 792              		.cfi_offset 4, -8
 793              		.cfi_offset 14, -4
 794              		.loc 1 175 1 view .LVU167
 795 001e 0246     		mov	r2, r0	@ u8DestMicNo, u8DestMicNo
 173:../../peripheral_library/api/apiVP.c ****   return TRUE;
 796              		.loc 1 173 3 is_stmt 1 discriminator 1 view .LVU168
 797 0020 0448     		ldr	r0, .L58+8	@,
 798              	.LVL49:
 173:../../peripheral_library/api/apiVP.c ****   return TRUE;
 799              		.loc 1 173 3 is_stmt 0 discriminator 1 view .LVU169
 800 0022 FFF7FEFF 		bl	UartSendTrace		@
 801              	.LVL50:
 802              	@ ../../peripheral_library/api/apiVP.c:174:   return TRUE;
 174:../../peripheral_library/api/apiVP.c **** }
 803              		.loc 1 174 10 discriminator 1 view .LVU170
 804 0026 0120     		movs	r0, #1	@ <retval>,
 805              	@ ../../peripheral_library/api/apiVP.c:175: }
 806              		.loc 1 175 1 discriminator 1 view .LVU171
 807 0028 10BD     		pop	{r4, pc}	@
 808              	.L59:
 809 002a 00BF     		.align	2
 810              	.L58:
 811 002c 00000000 		.word	gu32MosDbgLevel
 812 0030 00000000 		.word	.LANCHOR1
 813 0034 00000000 		.word	.LC1
 814              		.cfi_endproc
 815              	.LFE145:
 816              		.size	MApi_VOC_MicMapConfig, .-MApi_VOC_MicMapConfig
 817              		.section	.text.MApi_VOC_MicMap,"ax",%progbits
 818              		.align	1
 819              		.p2align 2,,3
 820              		.global	MApi_VOC_MicMap
 821              		.syntax unified
 822              		.thumb
 823              		.thumb_func
 824              		.fpu fpv4-sp-d16
 825              		.type	MApi_VOC_MicMap, %function
 826              	MApi_VOC_MicMap:
 827              	.LVL51:
 828              	.LFB146:
 176:../../peripheral_library/api/apiVP.c **** 
 177:../../peripheral_library/api/apiVP.c **** BOOL MApi_VOC_MicMap(S16 *ps16Buffer, U32 *pu32Count)
 178:../../peripheral_library/api/apiVP.c **** {
 829              		.loc 1 178 1 is_stmt 1 view -0
 830              		.cfi_startproc
 831              		@ args = 0, pretend = 0, frame = 0
 832              		@ frame_needed = 0, uses_anonymous_args = 0
 179:../../peripheral_library/api/apiVP.c ****   unsigned int c1, c2, c3;
 833              		.loc 1 179 3 view .LVU173
 180:../../peripheral_library/api/apiVP.c **** 
 181:../../peripheral_library/api/apiVP.c ****   U8 u8MicNo = MDrv_AUD_GetMicNo();
 834              		.loc 1 181 3 view .LVU174
ARM GAS  /tmp/cc3Huoko.s 			page 20


 835              	@ ../../peripheral_library/api/apiVP.c:178: {
 178:../../peripheral_library/api/apiVP.c ****   unsigned int c1, c2, c3;
 836              		.loc 1 178 1 is_stmt 0 view .LVU175
 837 0000 2DE9F84F 		push	{r3, r4, r5, r6, r7, r8, r9, r10, fp, lr}	@
 838              		.cfi_def_cfa_offset 40
 839              		.cfi_offset 3, -40
 840              		.cfi_offset 4, -36
 841              		.cfi_offset 5, -32
 842              		.cfi_offset 6, -28
 843              		.cfi_offset 7, -24
 844              		.cfi_offset 8, -20
 845              		.cfi_offset 9, -16
 846              		.cfi_offset 10, -12
 847              		.cfi_offset 11, -8
 848              		.cfi_offset 14, -4
 849              	@ ../../peripheral_library/api/apiVP.c:178: {
 178:../../peripheral_library/api/apiVP.c ****   unsigned int c1, c2, c3;
 850              		.loc 1 178 1 view .LVU176
 851 0004 0C46     		mov	r4, r1	@ pu32Count, pu32Count
 852 0006 0646     		mov	r6, r0	@ ps16Buffer, ps16Buffer
 853              	@ ../../peripheral_library/api/apiVP.c:181:   U8 u8MicNo = MDrv_AUD_GetMicNo();
 854              		.loc 1 181 16 view .LVU177
 855 0008 FFF7FEFF 		bl	MDrv_AUD_GetMicNo		@
 856              	.LVL52:
 182:../../peripheral_library/api/apiVP.c **** //  U8 u8BitWidth = MDrv_AUD_GetBitWidth();
 183:../../peripheral_library/api/apiVP.c **** 
 184:../../peripheral_library/api/apiVP.c ****   c3 = 0;
 857              		.loc 1 184 3 is_stmt 1 view .LVU178
 185:../../peripheral_library/api/apiVP.c ****   for( c2 = 0; c2 < *pu32Count/u8MicNo; c2++ )
 858              		.loc 1 185 3 view .LVU179
 859              	@ ../../peripheral_library/api/apiVP.c:185:   for( c2 = 0; c2 < *pu32Count/u8MicNo; c2++ )
 860              		.loc 1 185 21 is_stmt 0 view .LVU180
 861 000c 2368     		ldr	r3, [r4]	@ _33, *pu32Count_25(D)
 862              	@ ../../peripheral_library/api/apiVP.c:185:   for( c2 = 0; c2 < *pu32Count/u8MicNo; c2++ )
 863              		.loc 1 185 31 view .LVU181
 864 000e B3FBF0FB 		udiv	fp, r3, r0	@ _37, _33, tmp168
 865              	@ ../../peripheral_library/api/apiVP.c:185:   for( c2 = 0; c2 < *pu32Count/u8MicNo; c2++ )
 866              		.loc 1 185 3 view .LVU182
 867 0012 8342     		cmp	r3, r0	@ _33, tmp168
 868 0014 5AD3     		bcc	.L61		@,
 869              	@ ../../peripheral_library/api/apiVP.c:189:           _s16MicData[ c1 ] = ps16Buffer[ c3 + c1 ];
 186:../../peripheral_library/api/apiVP.c ****   {
 187:../../peripheral_library/api/apiVP.c ****       for( c1 = 0; c1 < u8MicNo; c1++ )
 188:../../peripheral_library/api/apiVP.c ****       {
 189:../../peripheral_library/api/apiVP.c ****           _s16MicData[ c1 ] = ps16Buffer[ c3 + c1 ];
 870              		.loc 1 189 29 view .LVU183
 871 0016 0FFA80FA 		sxth	r10, r0	@ u8MicNo, tmp168
 872              	@ ../../peripheral_library/api/apiVP.c:184:   c3 = 0;
 184:../../peripheral_library/api/apiVP.c ****   for( c2 = 0; c2 < *pu32Count/u8MicNo; c2++ )
 873              		.loc 1 184 6 view .LVU184
 874 001a 0024     		movs	r4, #0	@ c3,
 875              	.LVL53:
 184:../../peripheral_library/api/apiVP.c ****   for( c2 = 0; c2 < *pu32Count/u8MicNo; c2++ )
 876              		.loc 1 184 6 view .LVU185
 877 001c DFF8B880 		ldr	r8, .L88+4	@ tmp210,
 878              	@ ../../peripheral_library/api/apiVP.c:194:           ps16Buffer[ c3 ] = _s16MicData[ _u8MicMap[c1]
 190:../../peripheral_library/api/apiVP.c ****       }
ARM GAS  /tmp/cc3Huoko.s 			page 21


 191:../../peripheral_library/api/apiVP.c **** 
 192:../../peripheral_library/api/apiVP.c ****       for( c1 = 0; c1 < u8MicNo; c1++ )
 193:../../peripheral_library/api/apiVP.c ****       {
 194:../../peripheral_library/api/apiVP.c ****           ps16Buffer[ c3 ] = _s16MicData[ _u8MicMap[c1] ];
 879              		.loc 1 194 52 view .LVU186
 880 0020 2C4F     		ldr	r7, .L88	@ tmp211,
 881 0022 0546     		mov	r5, r0	@ tmp168,
 882              	@ ../../peripheral_library/api/apiVP.c:189:           _s16MicData[ c1 ] = ps16Buffer[ c3 + c1 ];
 189:../../peripheral_library/api/apiVP.c ****       }
 883              		.loc 1 189 29 view .LVU187
 884 0024 4FEA4A0A 		lsl	r10, r10, #1	@ _51, u8MicNo,
 885              	@ ../../peripheral_library/api/apiVP.c:185:   for( c2 = 0; c2 < *pu32Count/u8MicNo; c2++ )
 185:../../peripheral_library/api/apiVP.c ****   {
 886              		.loc 1 185 11 view .LVU188
 887 0028 A146     		mov	r9, r4	@ c2, c3
 888              	.LVL54:
 889              	.L62:
 890              	@ ../../peripheral_library/api/apiVP.c:187:       for( c1 = 0; c1 < u8MicNo; c1++ )
 187:../../peripheral_library/api/apiVP.c ****       {
 891              		.loc 1 187 7 view .LVU189
 892 002a 002D     		cmp	r5, #0	@ tmp168
 893 002c 4AD0     		beq	.L65	@
 894 002e 5246     		mov	r2, r10	@, _51
 895 0030 06EB4401 		add	r1, r6, r4, lsl #1	@, ps16Buffer, c3,
 896 0034 2848     		ldr	r0, .L88+4	@,
 897 0036 FFF7FEFF 		bl	memcpy		@
 898              	.LVL55:
 899              		.loc 1 194 11 is_stmt 1 view .LVU190
 900              	@ ../../peripheral_library/api/apiVP.c:194:           ps16Buffer[ c3 ] = _s16MicData[ _u8MicMap[c1]
 901              		.loc 1 194 52 is_stmt 0 view .LVU191
 902 003a 3B78     		ldrb	r3, [r7]	@ zero_extendqisi2	@ _u8MicMap, _u8MicMap
 903              	@ ../../peripheral_library/api/apiVP.c:192:       for( c1 = 0; c1 < u8MicNo; c1++ )
 192:../../peripheral_library/api/apiVP.c ****       {
 904              		.loc 1 192 7 view .LVU192
 905 003c 012D     		cmp	r5, #1	@ tmp168,
 906              	@ ../../peripheral_library/api/apiVP.c:194:           ps16Buffer[ c3 ] = _s16MicData[ _u8MicMap[c1]
 907              		.loc 1 194 41 view .LVU193
 908 003e 38F91330 		ldrsh	r3, [r8, r3, lsl #1]	@ _28, _s16MicData
 909              	@ ../../peripheral_library/api/apiVP.c:194:           ps16Buffer[ c3 ] = _s16MicData[ _u8MicMap[c1]
 910              		.loc 1 194 28 view .LVU194
 911 0042 26F81430 		strh	r3, [r6, r4, lsl #1]	@ movhi	@ _28, *_40
 195:../../peripheral_library/api/apiVP.c ****           c3++;
 912              		.loc 1 195 11 is_stmt 1 view .LVU195
 913              	@ ../../peripheral_library/api/apiVP.c:195:           c3++;
 914              		.loc 1 195 13 is_stmt 0 view .LVU196
 915 0046 04F10103 		add	r3, r4, #1	@ c3, c3,
 916              	.LVL56:
 917              	@ ../../peripheral_library/api/apiVP.c:192:       for( c1 = 0; c1 < u8MicNo; c1++ )
 192:../../peripheral_library/api/apiVP.c ****       {
 918              		.loc 1 192 7 view .LVU197
 919 004a 3AD0     		beq	.L63		@,
 194:../../peripheral_library/api/apiVP.c ****           c3++;
 920              		.loc 1 194 11 is_stmt 1 view .LVU198
 921              	@ ../../peripheral_library/api/apiVP.c:194:           ps16Buffer[ c3 ] = _s16MicData[ _u8MicMap[c1]
 194:../../peripheral_library/api/apiVP.c ****           c3++;
 922              		.loc 1 194 52 is_stmt 0 view .LVU199
 923 004c 7A78     		ldrb	r2, [r7, #1]	@ zero_extendqisi2	@ _u8MicMap, _u8MicMap
ARM GAS  /tmp/cc3Huoko.s 			page 22


 924              	@ ../../peripheral_library/api/apiVP.c:192:       for( c1 = 0; c1 < u8MicNo; c1++ )
 192:../../peripheral_library/api/apiVP.c ****       {
 925              		.loc 1 192 7 view .LVU200
 926 004e 022D     		cmp	r5, #2	@ tmp168,
 927              	@ ../../peripheral_library/api/apiVP.c:194:           ps16Buffer[ c3 ] = _s16MicData[ _u8MicMap[c1]
 194:../../peripheral_library/api/apiVP.c ****           c3++;
 928              		.loc 1 194 41 view .LVU201
 929 0050 38F91220 		ldrsh	r2, [r8, r2, lsl #1]	@ _21, _s16MicData
 930              	@ ../../peripheral_library/api/apiVP.c:194:           ps16Buffer[ c3 ] = _s16MicData[ _u8MicMap[c1]
 194:../../peripheral_library/api/apiVP.c ****           c3++;
 931              		.loc 1 194 28 view .LVU202
 932 0054 26F81320 		strh	r2, [r6, r3, lsl #1]	@ movhi	@ _21, *_11
 933              		.loc 1 195 11 is_stmt 1 view .LVU203
 934              	@ ../../peripheral_library/api/apiVP.c:195:           c3++;
 935              		.loc 1 195 13 is_stmt 0 view .LVU204
 936 0058 04F10203 		add	r3, r4, #2	@ c3, c3,
 937              	.LVL57:
 938              	@ ../../peripheral_library/api/apiVP.c:192:       for( c1 = 0; c1 < u8MicNo; c1++ )
 192:../../peripheral_library/api/apiVP.c ****       {
 939              		.loc 1 192 7 view .LVU205
 940 005c 31D0     		beq	.L63		@,
 194:../../peripheral_library/api/apiVP.c ****           c3++;
 941              		.loc 1 194 11 is_stmt 1 view .LVU206
 942              	@ ../../peripheral_library/api/apiVP.c:194:           ps16Buffer[ c3 ] = _s16MicData[ _u8MicMap[c1]
 194:../../peripheral_library/api/apiVP.c ****           c3++;
 943              		.loc 1 194 52 is_stmt 0 view .LVU207
 944 005e BA78     		ldrb	r2, [r7, #2]	@ zero_extendqisi2	@ _u8MicMap, _u8MicMap
 945              	@ ../../peripheral_library/api/apiVP.c:192:       for( c1 = 0; c1 < u8MicNo; c1++ )
 192:../../peripheral_library/api/apiVP.c ****       {
 946              		.loc 1 192 7 view .LVU208
 947 0060 032D     		cmp	r5, #3	@ tmp168,
 948              	@ ../../peripheral_library/api/apiVP.c:194:           ps16Buffer[ c3 ] = _s16MicData[ _u8MicMap[c1]
 194:../../peripheral_library/api/apiVP.c ****           c3++;
 949              		.loc 1 194 41 view .LVU209
 950 0062 38F91220 		ldrsh	r2, [r8, r2, lsl #1]	@ _63, _s16MicData
 951              	@ ../../peripheral_library/api/apiVP.c:194:           ps16Buffer[ c3 ] = _s16MicData[ _u8MicMap[c1]
 194:../../peripheral_library/api/apiVP.c ****           c3++;
 952              		.loc 1 194 28 view .LVU210
 953 0066 26F81320 		strh	r2, [r6, r3, lsl #1]	@ movhi	@ _63, *_62
 954              		.loc 1 195 11 is_stmt 1 view .LVU211
 955              	@ ../../peripheral_library/api/apiVP.c:195:           c3++;
 956              		.loc 1 195 13 is_stmt 0 view .LVU212
 957 006a 04F10303 		add	r3, r4, #3	@ c3, c3,
 958              	.LVL58:
 959              	@ ../../peripheral_library/api/apiVP.c:192:       for( c1 = 0; c1 < u8MicNo; c1++ )
 192:../../peripheral_library/api/apiVP.c ****       {
 960              		.loc 1 192 7 view .LVU213
 961 006e 28D0     		beq	.L63		@,
 194:../../peripheral_library/api/apiVP.c ****           c3++;
 962              		.loc 1 194 11 is_stmt 1 view .LVU214
 963              	@ ../../peripheral_library/api/apiVP.c:194:           ps16Buffer[ c3 ] = _s16MicData[ _u8MicMap[c1]
 194:../../peripheral_library/api/apiVP.c ****           c3++;
 964              		.loc 1 194 52 is_stmt 0 view .LVU215
 965 0070 FA78     		ldrb	r2, [r7, #3]	@ zero_extendqisi2	@ _u8MicMap, _u8MicMap
 966              	@ ../../peripheral_library/api/apiVP.c:192:       for( c1 = 0; c1 < u8MicNo; c1++ )
 192:../../peripheral_library/api/apiVP.c ****       {
 967              		.loc 1 192 7 view .LVU216
ARM GAS  /tmp/cc3Huoko.s 			page 23


 968 0072 042D     		cmp	r5, #4	@ tmp168,
 969              	@ ../../peripheral_library/api/apiVP.c:194:           ps16Buffer[ c3 ] = _s16MicData[ _u8MicMap[c1]
 194:../../peripheral_library/api/apiVP.c ****           c3++;
 970              		.loc 1 194 41 view .LVU217
 971 0074 38F91220 		ldrsh	r2, [r8, r2, lsl #1]	@ _74, _s16MicData
 972              	@ ../../peripheral_library/api/apiVP.c:194:           ps16Buffer[ c3 ] = _s16MicData[ _u8MicMap[c1]
 194:../../peripheral_library/api/apiVP.c ****           c3++;
 973              		.loc 1 194 28 view .LVU218
 974 0078 26F81320 		strh	r2, [r6, r3, lsl #1]	@ movhi	@ _74, *_73
 975              		.loc 1 195 11 is_stmt 1 view .LVU219
 976              	@ ../../peripheral_library/api/apiVP.c:195:           c3++;
 977              		.loc 1 195 13 is_stmt 0 view .LVU220
 978 007c 04F10403 		add	r3, r4, #4	@ c3, c3,
 979              	.LVL59:
 980              	@ ../../peripheral_library/api/apiVP.c:192:       for( c1 = 0; c1 < u8MicNo; c1++ )
 192:../../peripheral_library/api/apiVP.c ****       {
 981              		.loc 1 192 7 view .LVU221
 982 0080 1FD0     		beq	.L63		@,
 194:../../peripheral_library/api/apiVP.c ****           c3++;
 983              		.loc 1 194 11 is_stmt 1 view .LVU222
 984              	@ ../../peripheral_library/api/apiVP.c:194:           ps16Buffer[ c3 ] = _s16MicData[ _u8MicMap[c1]
 194:../../peripheral_library/api/apiVP.c ****           c3++;
 985              		.loc 1 194 52 is_stmt 0 view .LVU223
 986 0082 3A79     		ldrb	r2, [r7, #4]	@ zero_extendqisi2	@ _u8MicMap, _u8MicMap
 987              	@ ../../peripheral_library/api/apiVP.c:192:       for( c1 = 0; c1 < u8MicNo; c1++ )
 192:../../peripheral_library/api/apiVP.c ****       {
 988              		.loc 1 192 7 view .LVU224
 989 0084 052D     		cmp	r5, #5	@ tmp168,
 990              	@ ../../peripheral_library/api/apiVP.c:194:           ps16Buffer[ c3 ] = _s16MicData[ _u8MicMap[c1]
 194:../../peripheral_library/api/apiVP.c ****           c3++;
 991              		.loc 1 194 41 view .LVU225
 992 0086 38F91220 		ldrsh	r2, [r8, r2, lsl #1]	@ _85, _s16MicData
 993              	@ ../../peripheral_library/api/apiVP.c:194:           ps16Buffer[ c3 ] = _s16MicData[ _u8MicMap[c1]
 194:../../peripheral_library/api/apiVP.c ****           c3++;
 994              		.loc 1 194 28 view .LVU226
 995 008a 26F81320 		strh	r2, [r6, r3, lsl #1]	@ movhi	@ _85, *_84
 996              		.loc 1 195 11 is_stmt 1 view .LVU227
 997              	@ ../../peripheral_library/api/apiVP.c:195:           c3++;
 998              		.loc 1 195 13 is_stmt 0 view .LVU228
 999 008e 04F10503 		add	r3, r4, #5	@ c3, c3,
 1000              	.LVL60:
 1001              	@ ../../peripheral_library/api/apiVP.c:192:       for( c1 = 0; c1 < u8MicNo; c1++ )
 192:../../peripheral_library/api/apiVP.c ****       {
 1002              		.loc 1 192 7 view .LVU229
 1003 0092 16D0     		beq	.L63		@,
 194:../../peripheral_library/api/apiVP.c ****           c3++;
 1004              		.loc 1 194 11 is_stmt 1 view .LVU230
 1005              	@ ../../peripheral_library/api/apiVP.c:194:           ps16Buffer[ c3 ] = _s16MicData[ _u8MicMap[c1]
 194:../../peripheral_library/api/apiVP.c ****           c3++;
 1006              		.loc 1 194 52 is_stmt 0 view .LVU231
 1007 0094 7A79     		ldrb	r2, [r7, #5]	@ zero_extendqisi2	@ _u8MicMap, _u8MicMap
 1008              	@ ../../peripheral_library/api/apiVP.c:192:       for( c1 = 0; c1 < u8MicNo; c1++ )
 192:../../peripheral_library/api/apiVP.c ****       {
 1009              		.loc 1 192 7 view .LVU232
 1010 0096 062D     		cmp	r5, #6	@ tmp168,
 1011              	@ ../../peripheral_library/api/apiVP.c:194:           ps16Buffer[ c3 ] = _s16MicData[ _u8MicMap[c1]
 194:../../peripheral_library/api/apiVP.c ****           c3++;
ARM GAS  /tmp/cc3Huoko.s 			page 24


 1012              		.loc 1 194 41 view .LVU233
 1013 0098 38F91220 		ldrsh	r2, [r8, r2, lsl #1]	@ _96, _s16MicData
 1014              	@ ../../peripheral_library/api/apiVP.c:194:           ps16Buffer[ c3 ] = _s16MicData[ _u8MicMap[c1]
 194:../../peripheral_library/api/apiVP.c ****           c3++;
 1015              		.loc 1 194 28 view .LVU234
 1016 009c 26F81320 		strh	r2, [r6, r3, lsl #1]	@ movhi	@ _96, *_95
 1017              		.loc 1 195 11 is_stmt 1 view .LVU235
 1018              	@ ../../peripheral_library/api/apiVP.c:195:           c3++;
 1019              		.loc 1 195 13 is_stmt 0 view .LVU236
 1020 00a0 04F10603 		add	r3, r4, #6	@ c3, c3,
 1021              	.LVL61:
 1022              	@ ../../peripheral_library/api/apiVP.c:192:       for( c1 = 0; c1 < u8MicNo; c1++ )
 192:../../peripheral_library/api/apiVP.c ****       {
 1023              		.loc 1 192 7 view .LVU237
 1024 00a4 0DD0     		beq	.L63		@,
 194:../../peripheral_library/api/apiVP.c ****           c3++;
 1025              		.loc 1 194 11 is_stmt 1 view .LVU238
 1026              	@ ../../peripheral_library/api/apiVP.c:194:           ps16Buffer[ c3 ] = _s16MicData[ _u8MicMap[c1]
 194:../../peripheral_library/api/apiVP.c ****           c3++;
 1027              		.loc 1 194 52 is_stmt 0 view .LVU239
 1028 00a6 BA79     		ldrb	r2, [r7, #6]	@ zero_extendqisi2	@ _u8MicMap, _u8MicMap
 1029              	@ ../../peripheral_library/api/apiVP.c:192:       for( c1 = 0; c1 < u8MicNo; c1++ )
 192:../../peripheral_library/api/apiVP.c ****       {
 1030              		.loc 1 192 7 view .LVU240
 1031 00a8 072D     		cmp	r5, #7	@ tmp168,
 1032              	@ ../../peripheral_library/api/apiVP.c:194:           ps16Buffer[ c3 ] = _s16MicData[ _u8MicMap[c1]
 194:../../peripheral_library/api/apiVP.c ****           c3++;
 1033              		.loc 1 194 41 view .LVU241
 1034 00aa 38F91220 		ldrsh	r2, [r8, r2, lsl #1]	@ _107, _s16MicData
 1035              	@ ../../peripheral_library/api/apiVP.c:194:           ps16Buffer[ c3 ] = _s16MicData[ _u8MicMap[c1]
 194:../../peripheral_library/api/apiVP.c ****           c3++;
 1036              		.loc 1 194 28 view .LVU242
 1037 00ae 26F81320 		strh	r2, [r6, r3, lsl #1]	@ movhi	@ _107, *_106
 1038              		.loc 1 195 11 is_stmt 1 view .LVU243
 1039              	.LVL62:
 1040              	@ ../../peripheral_library/api/apiVP.c:194:           ps16Buffer[ c3 ] = _s16MicData[ _u8MicMap[c1]
 194:../../peripheral_library/api/apiVP.c ****           c3++;
 1041              		.loc 1 194 21 is_stmt 0 view .LVU244
 1042 00b2 4FEA4303 		lsl	r3, r3, #1	@ _105, c3,
 1043              	.LVL63:
 1044              	@ ../../peripheral_library/api/apiVP.c:192:       for( c1 = 0; c1 < u8MicNo; c1++ )
 192:../../peripheral_library/api/apiVP.c ****       {
 1045              		.loc 1 192 7 view .LVU245
 1046 00b6 04D0     		beq	.L63		@,
 194:../../peripheral_library/api/apiVP.c ****           c3++;
 1047              		.loc 1 194 11 is_stmt 1 view .LVU246
 1048              	@ ../../peripheral_library/api/apiVP.c:194:           ps16Buffer[ c3 ] = _s16MicData[ _u8MicMap[c1]
 194:../../peripheral_library/api/apiVP.c ****           c3++;
 1049              		.loc 1 194 52 is_stmt 0 view .LVU247
 1050 00b8 FA79     		ldrb	r2, [r7, #7]	@ zero_extendqisi2	@ _u8MicMap, _u8MicMap
 1051              	@ ../../peripheral_library/api/apiVP.c:194:           ps16Buffer[ c3 ] = _s16MicData[ _u8MicMap[c1]
 194:../../peripheral_library/api/apiVP.c ****           c3++;
 1052              		.loc 1 194 28 view .LVU248
 1053 00ba 3344     		add	r3, r3, r6	@ tmp207, ps16Buffer
 1054              	@ ../../peripheral_library/api/apiVP.c:194:           ps16Buffer[ c3 ] = _s16MicData[ _u8MicMap[c1]
 194:../../peripheral_library/api/apiVP.c ****           c3++;
 1055              		.loc 1 194 41 view .LVU249
ARM GAS  /tmp/cc3Huoko.s 			page 25


 1056 00bc 38F91220 		ldrsh	r2, [r8, r2, lsl #1]	@ _10, _s16MicData
 1057              	@ ../../peripheral_library/api/apiVP.c:194:           ps16Buffer[ c3 ] = _s16MicData[ _u8MicMap[c1]
 194:../../peripheral_library/api/apiVP.c ****           c3++;
 1058              		.loc 1 194 28 view .LVU250
 1059 00c0 5A80     		strh	r2, [r3, #2]	@ movhi	@ _10, *_9
 1060              		.loc 1 195 11 is_stmt 1 view .LVU251
 1061              	.LVL64:
 1062              	.L63:
 1063              		.loc 1 195 11 is_stmt 0 view .LVU252
 1064 00c2 2C44     		add	r4, r4, r5	@ c3, tmp168
 1065              	.L65:
 1066              	@ ../../peripheral_library/api/apiVP.c:185:   for( c2 = 0; c2 < *pu32Count/u8MicNo; c2++ )
 185:../../peripheral_library/api/apiVP.c ****   {
 1067              		.loc 1 185 43 discriminator 2 view .LVU253
 1068 00c4 09F10109 		add	r9, r9, #1	@ c2, c2,
 1069              	.LVL65:
 1070              	@ ../../peripheral_library/api/apiVP.c:185:   for( c2 = 0; c2 < *pu32Count/u8MicNo; c2++ )
 185:../../peripheral_library/api/apiVP.c ****   {
 1071              		.loc 1 185 3 discriminator 2 view .LVU254
 1072 00c8 D945     		cmp	r9, fp	@ c2, _37
 1073 00ca AED3     		bcc	.L62		@,
 1074              	.LVL66:
 1075              	.L61:
 196:../../peripheral_library/api/apiVP.c ****       }
 197:../../peripheral_library/api/apiVP.c ****   }
 198:../../peripheral_library/api/apiVP.c **** 
 199:../../peripheral_library/api/apiVP.c ****   return TRUE;
 1076              		.loc 1 199 3 is_stmt 1 view .LVU255
 1077              	@ ../../peripheral_library/api/apiVP.c:200: }
 200:../../peripheral_library/api/apiVP.c **** }
 1078              		.loc 1 200 1 is_stmt 0 view .LVU256
 1079 00cc 0120     		movs	r0, #1	@,
 1080 00ce BDE8F88F 		pop	{r3, r4, r5, r6, r7, r8, r9, r10, fp, pc}	@
 1081              	.LVL67:
 1082              	.L89:
 1083              		.loc 1 200 1 view .LVU257
 1084 00d2 00BF     		.align	2
 1085              	.L88:
 1086 00d4 00000000 		.word	.LANCHOR1
 1087 00d8 00000000 		.word	.LANCHOR2
 1088              		.cfi_endproc
 1089              	.LFE146:
 1090              		.size	MApi_VOC_MicMap, .-MApi_VOC_MicMap
 1091              		.section	.text.HPF_16,"ax",%progbits
 1092              		.align	1
 1093              		.p2align 2,,3
 1094              		.global	HPF_16
 1095              		.syntax unified
 1096              		.thumb
 1097              		.thumb_func
 1098              		.fpu fpv4-sp-d16
 1099              		.type	HPF_16, %function
 1100              	HPF_16:
 1101              	.LVL68:
 1102              	.LFB147:
 201:../../peripheral_library/api/apiVP.c **** 
 202:../../peripheral_library/api/apiVP.c **** #define MAX_S16 32767//0x7FFF
ARM GAS  /tmp/cc3Huoko.s 			page 26


 203:../../peripheral_library/api/apiVP.c **** #define MIN_S16 -32768//0x8000
 204:../../peripheral_library/api/apiVP.c **** 
 205:../../peripheral_library/api/apiVP.c **** //#define MAX_S24 8388607L
 206:../../peripheral_library/api/apiVP.c **** //#define MIN_S24 -8388608L
 207:../../peripheral_library/api/apiVP.c **** 
 208:../../peripheral_library/api/apiVP.c **** #define MAX_S32 2147483392LL//2147483647LL , MAX_S24<<8
 209:../../peripheral_library/api/apiVP.c **** #define MIN_S32 -2147483648LL
 210:../../peripheral_library/api/apiVP.c **** 
 211:../../peripheral_library/api/apiVP.c **** #if defined(CONFIG_VOC_SWHPF)
 212:../../peripheral_library/api/apiVP.c **** 
 213:../../peripheral_library/api/apiVP.c **** static S32 _s32PreXX[8][2]={0};
 214:../../peripheral_library/api/apiVP.c **** static S32 _s32PreYY[8][2]={0};
 215:../../peripheral_library/api/apiVP.c **** static S64 _s64PreXX[8][2]={0};
 216:../../peripheral_library/api/apiVP.c **** static S64 _s64PreYY[8][2]={0};
 217:../../peripheral_library/api/apiVP.c **** 
 218:../../peripheral_library/api/apiVP.c **** static S16 _s16Coef=5;
 219:../../peripheral_library/api/apiVP.c **** static U16 _u16Stage=2;
 220:../../peripheral_library/api/apiVP.c **** 
 221:../../peripheral_library/api/apiVP.c **** static U16 _u16ProcChn;
 222:../../peripheral_library/api/apiVP.c **** static U16 _u16Channel;
 223:../../peripheral_library/api/apiVP.c **** static U16 _u16Bitwidth;
 224:../../peripheral_library/api/apiVP.c **** 
 225:../../peripheral_library/api/apiVP.c **** S16 HPF_16(S8* ps8Buffer, U16 u16Size)
 226:../../peripheral_library/api/apiVP.c **** {
 1103              		.loc 1 226 1 is_stmt 1 view -0
 1104              		.cfi_startproc
 1105              		@ args = 0, pretend = 0, frame = 264
 1106              		@ frame_needed = 0, uses_anonymous_args = 0
 227:../../peripheral_library/api/apiVP.c ****   S32 s32CurYY;
 1107              		.loc 1 227 3 view .LVU259
 228:../../peripheral_library/api/apiVP.c ****   S32 s32CurXX;
 1108              		.loc 1 228 3 view .LVU260
 229:../../peripheral_library/api/apiVP.c ****   S16 s16CurX;
 1109              		.loc 1 229 3 view .LVU261
 230:../../peripheral_library/api/apiVP.c ****   S16 s16CurY;
 1110              		.loc 1 230 3 view .LVU262
 231:../../peripheral_library/api/apiVP.c ****   U16 u16Frame;
 1111              		.loc 1 231 3 view .LVU263
 232:../../peripheral_library/api/apiVP.c ****   U16 u16Chn=0;
 1112              		.loc 1 232 3 view .LVU264
 233:../../peripheral_library/api/apiVP.c ****   U16 u16Num=0;
 1113              		.loc 1 233 3 view .LVU265
 234:../../peripheral_library/api/apiVP.c ****   U16 u16Bytes=2;
 1114              		.loc 1 234 3 view .LVU266
 235:../../peripheral_library/api/apiVP.c ****   U16 u16Iter=0;
 1115              		.loc 1 235 3 view .LVU267
 236:../../peripheral_library/api/apiVP.c **** 
 237:../../peripheral_library/api/apiVP.c ****   if(u16Size == 0){
 1116              		.loc 1 237 3 view .LVU268
 1117              	@ ../../peripheral_library/api/apiVP.c:226: {
 226:../../peripheral_library/api/apiVP.c ****   S32 s32CurYY;
 1118              		.loc 1 226 1 is_stmt 0 view .LVU269
 1119 0000 2DE9F04F 		push	{r4, r5, r6, r7, r8, r9, r10, fp, lr}	@
 1120              		.cfi_def_cfa_offset 36
 1121              		.cfi_offset 4, -36
 1122              		.cfi_offset 5, -32
 1123              		.cfi_offset 6, -28
ARM GAS  /tmp/cc3Huoko.s 			page 27


 1124              		.cfi_offset 7, -24
 1125              		.cfi_offset 8, -20
 1126              		.cfi_offset 9, -16
 1127              		.cfi_offset 10, -12
 1128              		.cfi_offset 11, -8
 1129              		.cfi_offset 14, -4
 1130 0004 C3B0     		sub	sp, sp, #268	@,,
 1131              		.cfi_def_cfa_offset 304
 1132              	@ ../../peripheral_library/api/apiVP.c:237:   if(u16Size == 0){
 1133              		.loc 1 237 5 view .LVU270
 1134 0006 0029     		cmp	r1, #0	@ u16Size
 1135 0008 00F08683 		beq	.L312	@
 238:../../peripheral_library/api/apiVP.c ****     VP_ERROR("[ERROR] Size 0\n");
 239:../../peripheral_library/api/apiVP.c ****     return -1;
 240:../../peripheral_library/api/apiVP.c ****   }
 241:../../peripheral_library/api/apiVP.c **** 
 242:../../peripheral_library/api/apiVP.c ****   if(!ps8Buffer){
 1136              		.loc 1 242 3 is_stmt 1 view .LVU271
 1137              	@ ../../peripheral_library/api/apiVP.c:242:   if(!ps8Buffer){
 1138              		.loc 1 242 5 is_stmt 0 view .LVU272
 1139 000c 0028     		cmp	r0, #0	@ ps8Buffer
 1140 000e 00F07983 		beq	.L313	@
 243:../../peripheral_library/api/apiVP.c ****     VP_ERROR("[ERROR] NULL Buffer\n");
 244:../../peripheral_library/api/apiVP.c ****     return -1;
 245:../../peripheral_library/api/apiVP.c ****   }
 246:../../peripheral_library/api/apiVP.c **** 
 247:../../peripheral_library/api/apiVP.c ****   if(_u16Channel>8 || _s16Coef>9 || _s16Coef<=-3 || _u16Stage>2){
 1141              		.loc 1 247 3 is_stmt 1 view .LVU273
 1142              	@ ../../peripheral_library/api/apiVP.c:247:   if(_u16Channel>8 || _s16Coef>9 || _s16Coef<=-3 || _u1
 1143              		.loc 1 247 17 is_stmt 0 view .LVU274
 1144 0012 4B4B     		ldr	r3, .L331	@ tmp321,
 1145 0014 1A88     		ldrh	r2, [r3]	@ _u16Channel.8_5, _u16Channel
 1146              	@ ../../peripheral_library/api/apiVP.c:247:   if(_u16Channel>8 || _s16Coef>9 || _s16Coef<=-3 || _u1
 1147              		.loc 1 247 5 view .LVU275
 1148 0016 082A     		cmp	r2, #8	@ _u16Channel.8_5,
 1149 0018 00F26083 		bhi	.L94		@,
 1150              	@ ../../peripheral_library/api/apiVP.c:247:   if(_u16Channel>8 || _s16Coef>9 || _s16Coef<=-3 || _u1
 1151              		.loc 1 247 31 discriminator 1 view .LVU276
 1152 001c 494B     		ldr	r3, .L331+4	@ tmp322,
 1153 001e B3F90060 		ldrsh	r6, [r3]	@ _s16Coef.9_6, _s16Coef
 1154              	@ ../../peripheral_library/api/apiVP.c:247:   if(_u16Channel>8 || _s16Coef>9 || _s16Coef<=-3 || _u1
 1155              		.loc 1 247 20 discriminator 1 view .LVU277
 1156 0022 B31C     		adds	r3, r6, #2	@ tmp324, _s16Coef.9_6,
 1157 0024 9BB2     		uxth	r3, r3	@ tmp325, tmp324
 1158 0026 0B2B     		cmp	r3, #11	@ tmp325,
 1159 0028 00F25883 		bhi	.L94		@,
 1160              	@ ../../peripheral_library/api/apiVP.c:247:   if(_u16Channel>8 || _s16Coef>9 || _s16Coef<=-3 || _u1
 1161              		.loc 1 247 62 discriminator 3 view .LVU278
 1162 002c 464B     		ldr	r3, .L331+8	@ tmp326,
 1163 002e 1B88     		ldrh	r3, [r3]	@ _u16Stage.11_8, _u16Stage
 1164              	@ ../../peripheral_library/api/apiVP.c:247:   if(_u16Channel>8 || _s16Coef>9 || _s16Coef<=-3 || _u1
 1165              		.loc 1 247 50 discriminator 3 view .LVU279
 1166 0030 022B     		cmp	r3, #2	@ _u16Stage.11_8,
 1167 0032 00F25383 		bhi	.L94		@,
 248:../../peripheral_library/api/apiVP.c ****     VP_ERROR("[ERROR] param not support\n");
 249:../../peripheral_library/api/apiVP.c ****     return -1;
 250:../../peripheral_library/api/apiVP.c ****   }
ARM GAS  /tmp/cc3Huoko.s 			page 28


 251:../../peripheral_library/api/apiVP.c **** 
 252:../../peripheral_library/api/apiVP.c ****  // VOC_ERROR("[HPF_16] size %u, coef %u, chn %u\n",u16Size,u16Coef,u16Channel);
 253:../../peripheral_library/api/apiVP.c **** 
 254:../../peripheral_library/api/apiVP.c ****   u16Frame = u16Size/(_u16Channel*u16Bytes);
 1168              		.loc 1 254 3 is_stmt 1 view .LVU280
 1169              	@ ../../peripheral_library/api/apiVP.c:254:   u16Frame = u16Size/(_u16Channel*u16Bytes);
 1170              		.loc 1 254 34 is_stmt 0 view .LVU281
 1171 0036 4FEA4209 		lsl	r9, r2, #1	@ tmp331, _u16Channel.8_5,
 1172              	@ ../../peripheral_library/api/apiVP.c:254:   u16Frame = u16Size/(_u16Channel*u16Bytes);
 1173              		.loc 1 254 21 view .LVU282
 1174 003a B1FBF9F1 		udiv	r1, r1, r9	@ _14, u16Size, tmp331
 1175              	.LVL69:
 1176              	@ ../../peripheral_library/api/apiVP.c:254:   u16Frame = u16Size/(_u16Channel*u16Bytes);
 1177              		.loc 1 254 12 view .LVU283
 1178 003e 8CB2     		uxth	r4, r1	@ u16Frame, _14
 1179 0040 2746     		mov	r7, r4	@ u16Frame, u16Frame
 1180              	.LVL70:
 255:../../peripheral_library/api/apiVP.c **** 
 256:../../peripheral_library/api/apiVP.c ****   while(u16Num<u16Frame){
 1181              		.loc 1 256 3 is_stmt 1 view .LVU284
 1182              	@ ../../peripheral_library/api/apiVP.c:256:   while(u16Num<u16Frame){
 1183              		.loc 1 256 8 is_stmt 0 view .LVU285
 1184 0042 0029     		cmp	r1, #0	@ _14
 1185 0044 00F0D682 		beq	.L162	@
 1186              	@ ../../peripheral_library/api/apiVP.c:259:       if(u16Chn >= _u16ProcChn)
 257:../../peripheral_library/api/apiVP.c ****     for(u16Chn=0;u16Chn<_u16Channel;u16Chn++){
 258:../../peripheral_library/api/apiVP.c **** 
 259:../../peripheral_library/api/apiVP.c ****       if(u16Chn >= _u16ProcChn)
 1187              		.loc 1 259 17 view .LVU286
 1188 0048 4049     		ldr	r1, .L331+12	@ tmp332,
 1189 004a 0988     		ldrh	r1, [r1]	@ _u16ProcChn.14_15, _u16ProcChn
 1190 004c 0291     		str	r1, [sp, #8]	@ _u16ProcChn.14_15, %sfp
 1191 004e 002A     		cmp	r2, #0	@ _u16Channel.8_5
 1192 0050 00F0D082 		beq	.L162	@
 1193 0054 3E4D     		ldr	r5, .L331+16	@ tmp991,
 1194 0056 DFF8FCC0 		ldr	ip, .L331+20	@ tmp458,
 1195 005a 2C68     		ldr	r4, [r5]	@ _s32PreXX_I_I_lsm.120, _s32PreXX
 1196 005c 0794     		str	r4, [sp, #28]	@ _s32PreXX_I_I_lsm.120, %sfp
 1197 005e 6C68     		ldr	r4, [r5, #4]	@ _s32PreXX_I_I_lsm.124, _s32PreXX
 1198 0060 0D94     		str	r4, [sp, #52]	@ _s32PreXX_I_I_lsm.124, %sfp
 1199 0062 AC68     		ldr	r4, [r5, #8]	@ _s32PreXX_I_I_lsm.128, _s32PreXX
 1200 0064 0994     		str	r4, [sp, #36]	@ _s32PreXX_I_I_lsm.128, %sfp
 1201 0066 EC68     		ldr	r4, [r5, #12]	@ _s32PreXX_I_I_lsm.132, _s32PreXX
 1202 0068 1494     		str	r4, [sp, #80]	@ _s32PreXX_I_I_lsm.132, %sfp
 1203 006a 2C69     		ldr	r4, [r5, #16]	@ _s32PreXX_I_I_lsm.136, _s32PreXX
 1204 006c 0B94     		str	r4, [sp, #44]	@ _s32PreXX_I_I_lsm.136, %sfp
 1205 006e 6C69     		ldr	r4, [r5, #20]	@ _s32PreXX_I_I_lsm.140, _s32PreXX
 1206 0070 1A94     		str	r4, [sp, #104]	@ _s32PreXX_I_I_lsm.140, %sfp
 1207 0072 AC69     		ldr	r4, [r5, #24]	@ _s32PreXX_I_I_lsm.144, _s32PreXX
 1208 0074 0C94     		str	r4, [sp, #48]	@ _s32PreXX_I_I_lsm.144, %sfp
 1209 0076 EC69     		ldr	r4, [r5, #28]	@ _s32PreXX_I_I_lsm.148, _s32PreXX
 1210 0078 1E94     		str	r4, [sp, #120]	@ _s32PreXX_I_I_lsm.148, %sfp
 1211 007a 2C6A     		ldr	r4, [r5, #32]	@ _s32PreXX_I_I_lsm.152, _s32PreXX
 1212 007c 0F94     		str	r4, [sp, #60]	@ _s32PreXX_I_I_lsm.152, %sfp
 1213 007e 6C6A     		ldr	r4, [r5, #36]	@ _s32PreXX_I_I_lsm.156, _s32PreXX
 1214 0080 2194     		str	r4, [sp, #132]	@ _s32PreXX_I_I_lsm.156, %sfp
 1215 0082 AC6A     		ldr	r4, [r5, #40]	@ _s32PreXX_I_I_lsm.160, _s32PreXX
ARM GAS  /tmp/cc3Huoko.s 			page 29


 1216 0084 1094     		str	r4, [sp, #64]	@ _s32PreXX_I_I_lsm.160, %sfp
 1217 0086 EC6A     		ldr	r4, [r5, #44]	@ _s32PreXX_I_I_lsm.164, _s32PreXX
 1218 0088 2694     		str	r4, [sp, #152]	@ _s32PreXX_I_I_lsm.164, %sfp
 1219 008a 2C6B     		ldr	r4, [r5, #48]	@ _s32PreXX_I_I_lsm.168, _s32PreXX
 1220 008c 1794     		str	r4, [sp, #92]	@ _s32PreXX_I_I_lsm.168, %sfp
 1221 008e 6C6B     		ldr	r4, [r5, #52]	@ _s32PreXX_I_I_lsm.172, _s32PreXX
 1222 0090 2E94     		str	r4, [sp, #184]	@ _s32PreXX_I_I_lsm.172, %sfp
 1223 0092 AC6B     		ldr	r4, [r5, #56]	@ _s32PreXX_I_I_lsm.112, _s32PreXX
 1224 0094 1194     		str	r4, [sp, #68]	@ _s32PreXX_I_I_lsm.112, %sfp
 1225 0096 EC6B     		ldr	r4, [r5, #60]	@ _s32PreXX_I_I_lsm.116, _s32PreXX
 1226 0098 3194     		str	r4, [sp, #196]	@ _s32PreXX_I_I_lsm.116, %sfp
 1227 009a DCE900E4 		ldrd	lr, r4, [ip]	@ _s32PreYY_I_I_lsm.122, _s32PreYY_I_I_lsm.126, tmp458
 1228 009e 0E94     		str	r4, [sp, #56]	@ _s32PreYY_I_I_lsm.126, %sfp
 1229 00a0 DCE90284 		ldrd	r8, r4, [ip, #8]	@ _s32PreYY_I_I_lsm.130, _s32PreYY_I_I_lsm.134, tmp458,
 1230 00a4 1594     		str	r4, [sp, #84]	@ _s32PreYY_I_I_lsm.134, %sfp
 1231 00a6 DCF81040 		ldr	r4, [ip, #16]	@ _s32PreYY_I_I_lsm.138, _s32PreYY
 1232 00aa 0494     		str	r4, [sp, #16]	@ _s32PreYY_I_I_lsm.138, %sfp
 1233 00ac DCF81440 		ldr	r4, [ip, #20]	@ _s32PreYY_I_I_lsm.142, _s32PreYY
 1234 00b0 1B94     		str	r4, [sp, #108]	@ _s32PreYY_I_I_lsm.142, %sfp
 1235 00b2 DCF81840 		ldr	r4, [ip, #24]	@ _s32PreYY_I_I_lsm.146, _s32PreYY
 1236 00b6 0594     		str	r4, [sp, #20]	@ _s32PreYY_I_I_lsm.146, %sfp
 1237 00b8 DCF81C40 		ldr	r4, [ip, #28]	@ _s32PreYY_I_I_lsm.150, _s32PreYY
 1238 00bc 1F94     		str	r4, [sp, #124]	@ _s32PreYY_I_I_lsm.150, %sfp
 1239 00be DCF82040 		ldr	r4, [ip, #32]	@ _s32PreYY_I_I_lsm.154, _s32PreYY
 1240 00c2 0694     		str	r4, [sp, #24]	@ _s32PreYY_I_I_lsm.154, %sfp
 1241 00c4 DCF82440 		ldr	r4, [ip, #36]	@ _s32PreYY_I_I_lsm.158, _s32PreYY
 1242 00c8 2294     		str	r4, [sp, #136]	@ _s32PreYY_I_I_lsm.158, %sfp
 1243 00ca DCF82840 		ldr	r4, [ip, #40]	@ _s32PreYY_I_I_lsm.162, _s32PreYY
 1244 00ce 0894     		str	r4, [sp, #32]	@ _s32PreYY_I_I_lsm.162, %sfp
 1245 00d0 DCF82C40 		ldr	r4, [ip, #44]	@ _s32PreYY_I_I_lsm.166, _s32PreYY
 1246 00d4 2794     		str	r4, [sp, #156]	@ _s32PreYY_I_I_lsm.166, %sfp
 1247 00d6 DCF83040 		ldr	r4, [ip, #48]	@ _s32PreYY_I_I_lsm.170, _s32PreYY
 1248 00da 0A94     		str	r4, [sp, #40]	@ _s32PreYY_I_I_lsm.170, %sfp
 1249 00dc DCF83440 		ldr	r4, [ip, #52]	@ _s32PreYY_I_I_lsm.174, _s32PreYY
 1250 00e0 2F94     		str	r4, [sp, #188]	@ _s32PreYY_I_I_lsm.174, %sfp
 1251 00e2 DCF83840 		ldr	r4, [ip, #56]	@ _s32PreYY_I_I_lsm.114, _s32PreYY
 1252 00e6 1694     		str	r4, [sp, #88]	@ _s32PreYY_I_I_lsm.114, %sfp
 1253 00e8 DCF83C40 		ldr	r4, [ip, #60]	@ _s32PreYY_I_I_lsm.118, _s32PreYY
 1254 00ec 3294     		str	r4, [sp, #200]	@ _s32PreYY_I_I_lsm.118, %sfp
 1255 00ee 8A42     		cmp	r2, r1	@ _u16Channel.8_5, _u16ProcChn.14_15
 1256 00f0 4FF00004 		mov	r4, #0	@ _s32PreYY_I_I_lsm.175,
 1257 00f4 4194     		str	r4, [sp, #260]	@ _s32PreYY_I_I_lsm.175, %sfp
 1258 00f6 28BF     		it	cs
 1259 00f8 0A46     		movcs	r2, r1	@ _113, _u16ProcChn.14_15
 1260 00fa CDE93544 		strd	r4, r4, [sp, #212]	@ _s32PreYY_I_I_lsm.175, _s32PreYY_I_I_lsm.175,,
 1261 00fe 0336     		adds	r6, r6, #3	@ _105, _s16Coef.9_6,
 1262 0100 CDE93E44 		strd	r4, r4, [sp, #248]	@ _s32PreYY_I_I_lsm.175, _s32PreYY_I_I_lsm.175,,
 1263 0104 CDE92C44 		strd	r4, r4, [sp, #176]	@ _s32PreYY_I_I_lsm.175, _s32PreYY_I_I_lsm.175,,
 1264 0108 CDE93C44 		strd	r4, r4, [sp, #240]	@ _s32PreYY_I_I_lsm.175, _s32PreYY_I_I_lsm.175,,
 1265 010c CDE92844 		strd	r4, r4, [sp, #160]	@ _s32PreYY_I_I_lsm.175, _s32PreYY_I_I_lsm.175,,
 1266 0110 CDE93944 		strd	r4, r4, [sp, #228]	@ _s32PreYY_I_I_lsm.175, _s32PreYY_I_I_lsm.175,,
 1267 0114 CDE92344 		strd	r4, r4, [sp, #140]	@ _s32PreYY_I_I_lsm.175, _s32PreYY_I_I_lsm.175,,
 1268 0118 CDE93744 		strd	r4, r4, [sp, #220]	@ _s32PreYY_I_I_lsm.175, _s32PreYY_I_I_lsm.175,,
 1269 011c CDE91C44 		strd	r4, r4, [sp, #112]	@ _s32PreYY_I_I_lsm.175, _s32PreYY_I_I_lsm.175,,
 1270 0120 CDE93344 		strd	r4, r4, [sp, #204]	@ _s32PreYY_I_I_lsm.175, _s32PreYY_I_I_lsm.175,,
 1271 0124 CDE91844 		strd	r4, r4, [sp, #96]	@ _s32PreYY_I_I_lsm.175, _s32PreYY_I_I_lsm.175,,
 1272 0128 CDE92A44 		strd	r4, r4, [sp, #168]	@ _s32PreYY_I_I_lsm.175, _s32PreYY_I_I_lsm.175,,
ARM GAS  /tmp/cc3Huoko.s 			page 30


 1273 012c CDE91244 		strd	r4, r4, [sp, #72]	@ _s32PreYY_I_I_lsm.175, _s32PreYY_I_I_lsm.175,,
 1274 0130 4094     		str	r4, [sp, #256]	@ _s32PreYY_I_I_lsm.175, %sfp
 1275 0132 3B94     		str	r4, [sp, #236]	@ _s32PreYY_I_I_lsm.175, %sfp
 1276 0134 2594     		str	r4, [sp, #148]	@ _s32PreYY_I_I_lsm.175, %sfp
 1277 0136 2094     		str	r4, [sp, #128]	@ _s32PreYY_I_I_lsm.175, %sfp
 1278 0138 2546     		mov	r5, r4	@ ivtmp.108, _s32PreYY_I_I_lsm.175
 1279 013a 3094     		str	r4, [sp, #192]	@ _s32PreYY_I_I_lsm.175, %sfp
 1280 013c 0397     		str	r7, [sp, #12]	@ u16Frame, %sfp
 1281 013e 12E0     		b	.L98		@
 1282              	.L332:
 1283              		.align	2
 1284              	.L331:
 1285 0140 00000000 		.word	.LANCHOR3
 1286 0144 00000000 		.word	.LANCHOR4
 1287 0148 00000000 		.word	.LANCHOR5
 1288 014c 00000000 		.word	.LANCHOR6
 1289 0150 00000000 		.word	.LANCHOR7
 1290 0154 00000000 		.word	.LANCHOR8
 1291              	.LVL71:
 1292              	.L103:
 260:../../peripheral_library/api/apiVP.c ****         continue;
 261:../../peripheral_library/api/apiVP.c **** 
 262:../../peripheral_library/api/apiVP.c ****       s16CurX =*(S16*)(ps8Buffer+(u16Num*_u16Channel+u16Chn)*u16Bytes);
 263:../../peripheral_library/api/apiVP.c ****       s32CurYY = (S32)s16CurX<<14; //Q3.29
 264:../../peripheral_library/api/apiVP.c ****       for(u16Iter=0;u16Iter<_u16Stage;u16Iter++){
 265:../../peripheral_library/api/apiVP.c ****         s32CurXX = s32CurYY;
 266:../../peripheral_library/api/apiVP.c ****         s32CurYY = s32CurXX - _s32PreXX[u16Chn][u16Iter] + _s32PreYY[u16Chn][u16Iter] - (_s32PreYY[
 267:../../peripheral_library/api/apiVP.c **** 
 268:../../peripheral_library/api/apiVP.c ****         _s32PreXX[u16Chn][u16Iter] = s32CurXX;
 269:../../peripheral_library/api/apiVP.c ****         _s32PreYY[u16Chn][u16Iter] = s32CurYY;
 270:../../peripheral_library/api/apiVP.c ****       }
 271:../../peripheral_library/api/apiVP.c **** 
 272:../../peripheral_library/api/apiVP.c ****       s32CurYY = s32CurYY>>14;
 273:../../peripheral_library/api/apiVP.c **** 
 274:../../peripheral_library/api/apiVP.c ****       if(s32CurYY>MAX_S16)
 275:../../peripheral_library/api/apiVP.c ****         s16CurY = MAX_S16;
 276:../../peripheral_library/api/apiVP.c ****       else if(s32CurYY<MIN_S16)
 277:../../peripheral_library/api/apiVP.c ****         s16CurY = MIN_S16;
 278:../../peripheral_library/api/apiVP.c ****       else
 279:../../peripheral_library/api/apiVP.c ****         s16CurY = (S16)s32CurYY;
 280:../../peripheral_library/api/apiVP.c **** 
 281:../../peripheral_library/api/apiVP.c ****       *(S16*)(ps8Buffer+(u16Num*_u16Channel+u16Chn)*u16Bytes) = s16CurY;
 282:../../peripheral_library/api/apiVP.c **** 
 283:../../peripheral_library/api/apiVP.c ****     }
 284:../../peripheral_library/api/apiVP.c ****     u16Num++;
 1293              		.loc 1 284 5 is_stmt 1 view .LVU287
 1294              		.loc 1 284 5 is_stmt 0 view .LVU288
 1295 0158 0135     		adds	r5, r5, #1	@ ivtmp.108, ivtmp.108,
 1296              	.LVL72:
 1297              	@ ../../peripheral_library/api/apiVP.c:256:   while(u16Num<u16Frame){
 256:../../peripheral_library/api/apiVP.c ****     for(u16Chn=0;u16Chn<_u16Channel;u16Chn++){
 1298              		.loc 1 256 8 view .LVU289
 1299 015a 039C     		ldr	r4, [sp, #12]	@ u16Frame, %sfp
 1300 015c A9B2     		uxth	r1, r5	@ ivtmp.108, ivtmp.108
 1301 015e 8C42     		cmp	r4, r1	@ u16Frame, ivtmp.108
 1302 0160 4844     		add	r0, r0, r9	@ ivtmp.111, tmp331
 1303 0162 40F2A981 		bls	.L314		@,
ARM GAS  /tmp/cc3Huoko.s 			page 31


 1304              	.L98:
 1305              	.LVL73:
 256:../../peripheral_library/api/apiVP.c ****     for(u16Chn=0;u16Chn<_u16Channel;u16Chn++){
 1306              		.loc 1 256 8 view .LVU290
 1307 0166 0299     		ldr	r1, [sp, #8]	@ _u16ProcChn.14_15, %sfp
 1308 0168 0029     		cmp	r1, #0	@ _u16ProcChn.14_15
 1309 016a F5D0     		beq	.L103	@
 259:../../peripheral_library/api/apiVP.c ****         continue;
 1310              		.loc 1 259 7 is_stmt 1 view .LVU291
 262:../../peripheral_library/api/apiVP.c ****       s32CurYY = (S32)s16CurX<<14; //Q3.29
 1311              		.loc 1 262 7 view .LVU292
 1312              	.LVL74:
 263:../../peripheral_library/api/apiVP.c ****       for(u16Iter=0;u16Iter<_u16Stage;u16Iter++){
 1313              		.loc 1 263 7 view .LVU293
 1314              	@ ../../peripheral_library/api/apiVP.c:263:       s32CurYY = (S32)s16CurX<<14; //Q3.29
 263:../../peripheral_library/api/apiVP.c ****       for(u16Iter=0;u16Iter<_u16Stage;u16Iter++){
 1315              		.loc 1 263 18 is_stmt 0 view .LVU294
 1316 016c B0F90010 		ldrsh	r1, [r0]	@ MEM[base: _291, offset: 0B], MEM[base: _291, offset: 0B]
 1317              	@ ../../peripheral_library/api/apiVP.c:263:       s32CurYY = (S32)s16CurX<<14; //Q3.29
 263:../../peripheral_library/api/apiVP.c ****       for(u16Iter=0;u16Iter<_u16Stage;u16Iter++){
 1318              		.loc 1 263 16 view .LVU295
 1319 0170 8F03     		lsls	r7, r1, #14	@ s32CurYY, MEM[base: _291, offset: 0B],
 1320              	.LVL75:
 264:../../peripheral_library/api/apiVP.c ****         s32CurXX = s32CurYY;
 1321              		.loc 1 264 7 is_stmt 1 view .LVU296
 264:../../peripheral_library/api/apiVP.c ****         s32CurXX = s32CurYY;
 1322              		.loc 1 264 7 is_stmt 0 view .LVU297
 1323 0172 002B     		cmp	r3, #0	@ _u16Stage.11_8
 1324 0174 00F04C82 		beq	.L315	@
 265:../../peripheral_library/api/apiVP.c ****         s32CurYY = s32CurXX - _s32PreXX[u16Chn][u16Iter] + _s32PreYY[u16Chn][u16Iter] - (_s32PreYY[
 1325              		.loc 1 265 9 is_stmt 1 view .LVU298
 1326              	.LVL76:
 266:../../peripheral_library/api/apiVP.c **** 
 1327              		.loc 1 266 9 view .LVU299
 1328              	@ ../../peripheral_library/api/apiVP.c:266:         s32CurYY = s32CurXX - _s32PreXX[u16Chn][u16Iter
 266:../../peripheral_library/api/apiVP.c **** 
 1329              		.loc 1 266 29 is_stmt 0 view .LVU300
 1330 0178 079C     		ldr	r4, [sp, #28]	@ _s32PreXX_I_I_lsm.120, %sfp
 1331 017a A7EB040A 		sub	r10, r7, r4	@ tmp368, s32CurYY, _s32PreXX_I_I_lsm.120
 1332              	@ ../../peripheral_library/api/apiVP.c:266:         s32CurYY = s32CurXX - _s32PreXX[u16Chn][u16Iter
 266:../../peripheral_library/api/apiVP.c **** 
 1333              		.loc 1 266 58 view .LVU301
 1334 017e F244     		add	r10, r10, lr	@ _65, _s32PreYY_I_I_lsm.122
 1335              	@ ../../peripheral_library/api/apiVP.c:264:       for(u16Iter=0;u16Iter<_u16Stage;u16Iter++){
 264:../../peripheral_library/api/apiVP.c ****         s32CurXX = s32CurYY;
 1336              		.loc 1 264 7 view .LVU302
 1337 0180 022B     		cmp	r3, #2	@ _u16Stage.11_8,
 1338              	@ ../../peripheral_library/api/apiVP.c:266:         s32CurYY = s32CurXX - _s32PreXX[u16Chn][u16Iter
 266:../../peripheral_library/api/apiVP.c **** 
 1339              		.loc 1 266 116 view .LVU303
 1340 0182 4EFA06FE 		asr	lr, lr, r6	@ tmp369, _s32PreYY_I_I_lsm.122, _105
 1341              	@ ../../peripheral_library/api/apiVP.c:266:         s32CurYY = s32CurXX - _s32PreXX[u16Chn][u16Iter
 266:../../peripheral_library/api/apiVP.c **** 
 1342              		.loc 1 266 18 view .LVU304
 1343 0186 AAEB0E0E 		sub	lr, r10, lr	@ _s32PreYY_I_I_lsm.122, _65, tmp369
 1344              	.LVL77:
 268:../../peripheral_library/api/apiVP.c ****         _s32PreYY[u16Chn][u16Iter] = s32CurYY;
ARM GAS  /tmp/cc3Huoko.s 			page 32


 1345              		.loc 1 268 9 is_stmt 1 view .LVU305
 269:../../peripheral_library/api/apiVP.c ****       }
 1346              		.loc 1 269 9 view .LVU306
 1347              	@ ../../peripheral_library/api/apiVP.c:264:       for(u16Iter=0;u16Iter<_u16Stage;u16Iter++){
 264:../../peripheral_library/api/apiVP.c ****         s32CurXX = s32CurYY;
 1348              		.loc 1 264 7 is_stmt 0 view .LVU307
 1349 018a 40F05582 		bne	.L168		@,
 265:../../peripheral_library/api/apiVP.c ****         s32CurYY = s32CurXX - _s32PreXX[u16Chn][u16Iter] + _s32PreYY[u16Chn][u16Iter] - (_s32PreYY[
 1350              		.loc 1 265 9 is_stmt 1 view .LVU308
 1351              	.LVL78:
 266:../../peripheral_library/api/apiVP.c **** 
 1352              		.loc 1 266 9 view .LVU309
 1353              	@ ../../peripheral_library/api/apiVP.c:266:         s32CurYY = s32CurXX - _s32PreXX[u16Chn][u16Iter
 266:../../peripheral_library/api/apiVP.c **** 
 1354              		.loc 1 266 29 is_stmt 0 view .LVU310
 1355 018e 0D99     		ldr	r1, [sp, #52]	@ _s32PreXX_I_I_lsm.124, %sfp
 1356              	@ ../../peripheral_library/api/apiVP.c:266:         s32CurYY = s32CurXX - _s32PreXX[u16Chn][u16Iter
 266:../../peripheral_library/api/apiVP.c **** 
 1357              		.loc 1 266 58 view .LVU311
 1358 0190 0E9C     		ldr	r4, [sp, #56]	@ _s32PreYY_I_I_lsm.126, %sfp
 1359              	@ ../../peripheral_library/api/apiVP.c:268:         _s32PreXX[u16Chn][u16Iter] = s32CurXX;
 268:../../peripheral_library/api/apiVP.c ****         _s32PreYY[u16Chn][u16Iter] = s32CurYY;
 1360              		.loc 1 268 36 view .LVU312
 1361 0192 CDF834E0 		str	lr, [sp, #52]	@ _s32PreYY_I_I_lsm.122, %sfp
 1362              	@ ../../peripheral_library/api/apiVP.c:266:         s32CurYY = s32CurXX - _s32PreXX[u16Chn][u16Iter
 266:../../peripheral_library/api/apiVP.c **** 
 1363              		.loc 1 266 29 view .LVU313
 1364 0196 AEEB010A 		sub	r10, lr, r1	@ tmp370, _s32PreYY_I_I_lsm.122, _s32PreXX_I_I_lsm.124
 1365              	@ ../../peripheral_library/api/apiVP.c:266:         s32CurYY = s32CurXX - _s32PreXX[u16Chn][u16Iter
 266:../../peripheral_library/api/apiVP.c **** 
 1366              		.loc 1 266 58 view .LVU314
 1367 019a A244     		add	r10, r10, r4	@ _115, _s32PreYY_I_I_lsm.126
 1368              	@ ../../peripheral_library/api/apiVP.c:266:         s32CurYY = s32CurXX - _s32PreXX[u16Chn][u16Iter
 266:../../peripheral_library/api/apiVP.c **** 
 1369              		.loc 1 266 116 view .LVU315
 1370 019c 44FA06FB 		asr	fp, r4, r6	@ tmp371, _s32PreYY_I_I_lsm.126, _105
 1371              	@ ../../peripheral_library/api/apiVP.c:266:         s32CurYY = s32CurXX - _s32PreXX[u16Chn][u16Iter
 266:../../peripheral_library/api/apiVP.c **** 
 1372              		.loc 1 266 18 view .LVU316
 1373 01a0 AAEB0B01 		sub	r1, r10, fp	@ _s32PreYY_I_I_lsm.126, _115, tmp371
 1374 01a4 0124     		movs	r4, #1	@ _s32PreYY_I_I_lsm.127,
 1375 01a6 0E91     		str	r1, [sp, #56]	@ _s32PreYY_I_I_lsm.126, %sfp
 1376              	.LVL79:
 268:../../peripheral_library/api/apiVP.c ****         _s32PreYY[u16Chn][u16Iter] = s32CurYY;
 1377              		.loc 1 268 9 is_stmt 1 view .LVU317
 269:../../peripheral_library/api/apiVP.c ****       }
 1378              		.loc 1 269 9 view .LVU318
 1379              	@ ../../peripheral_library/api/apiVP.c:266:         s32CurYY = s32CurXX - _s32PreXX[u16Chn][u16Iter
 266:../../peripheral_library/api/apiVP.c **** 
 1380              		.loc 1 266 18 is_stmt 0 view .LVU319
 1381 01a8 2B94     		str	r4, [sp, #172]	@ _s32PreYY_I_I_lsm.127, %sfp
 1382              	@ ../../peripheral_library/api/apiVP.c:269:         _s32PreYY[u16Chn][u16Iter] = s32CurYY;
 269:../../peripheral_library/api/apiVP.c ****       }
 1383              		.loc 1 269 36 view .LVU320
 1384 01aa 8A46     		mov	r10, r1	@ s32CurYY, _s32PreYY_I_I_lsm.126
 1385              	@ ../../peripheral_library/api/apiVP.c:266:         s32CurYY = s32CurXX - _s32PreXX[u16Chn][u16Iter
 266:../../peripheral_library/api/apiVP.c **** 
ARM GAS  /tmp/cc3Huoko.s 			page 33


 1386              		.loc 1 266 18 view .LVU321
 1387 01ac 2A94     		str	r4, [sp, #168]	@ _s32PreYY_I_I_lsm.127, %sfp
 1388              	.LVL80:
 1389              	.L101:
 272:../../peripheral_library/api/apiVP.c **** 
 1390              		.loc 1 272 7 is_stmt 1 view .LVU322
 1391              	@ ../../peripheral_library/api/apiVP.c:272:       s32CurYY = s32CurYY>>14;
 272:../../peripheral_library/api/apiVP.c **** 
 1392              		.loc 1 272 16 is_stmt 0 view .LVU323
 1393 01ae 4FEAAA3A 		asr	r10, r10, #14	@ s32CurYY, s32CurYY,
 1394              	.LVL81:
 274:../../peripheral_library/api/apiVP.c ****         s16CurY = MAX_S16;
 1395              		.loc 1 274 7 is_stmt 1 view .LVU324
 1396              	@ ../../peripheral_library/api/apiVP.c:274:       if(s32CurYY>MAX_S16)
 274:../../peripheral_library/api/apiVP.c ****         s16CurY = MAX_S16;
 1397              		.loc 1 274 9 is_stmt 0 view .LVU325
 1398 01b2 BAF5004F 		cmp	r10, #32768	@ s32CurYY,
 1399 01b6 C0F22182 		blt	.L316		@,
 1400 01ba 0124     		movs	r4, #1	@ _s32PreYY_I_I_lsm.123,
 1401 01bc 1394     		str	r4, [sp, #76]	@ _s32PreYY_I_I_lsm.123, %sfp
 1402              	@ ../../peripheral_library/api/apiVP.c:268:         _s32PreXX[u16Chn][u16Iter] = s32CurXX;
 268:../../peripheral_library/api/apiVP.c ****         _s32PreYY[u16Chn][u16Iter] = s32CurYY;
 1403              		.loc 1 268 36 view .LVU326
 1404 01be 0797     		str	r7, [sp, #28]	@ s32CurYY, %sfp
 1405              	@ ../../peripheral_library/api/apiVP.c:274:       if(s32CurYY>MAX_S16)
 274:../../peripheral_library/api/apiVP.c ****         s16CurY = MAX_S16;
 1406              		.loc 1 274 9 view .LVU327
 1407 01c0 1294     		str	r4, [sp, #72]	@ _s32PreYY_I_I_lsm.123, %sfp
 1408              	@ ../../peripheral_library/api/apiVP.c:275:         s16CurY = MAX_S16;
 275:../../peripheral_library/api/apiVP.c ****       else if(s32CurYY<MIN_S16)
 1409              		.loc 1 275 17 view .LVU328
 1410 01c2 47F6FF7A 		movw	r10, #32767	@ s16CurY,
 1411              	.LVL82:
 1412              	.L100:
 281:../../peripheral_library/api/apiVP.c **** 
 1413              		.loc 1 281 7 is_stmt 1 view .LVU329
 1414              	@ ../../peripheral_library/api/apiVP.c:257:     for(u16Chn=0;u16Chn<_u16Channel;u16Chn++){
 257:../../peripheral_library/api/apiVP.c **** 
 1415              		.loc 1 257 5 is_stmt 0 view .LVU330
 1416 01c6 012A     		cmp	r2, #1	@ _113,
 1417              	@ ../../peripheral_library/api/apiVP.c:281:       *(S16*)(ps8Buffer+(u16Num*_u16Channel+u16Chn)*u16
 281:../../peripheral_library/api/apiVP.c **** 
 1418              		.loc 1 281 63 view .LVU331
 1419 01c8 A0F800A0 		strh	r10, [r0]	@ movhi	@ s16CurY, MEM[base: _291, offset: 0B]
 1420              	.LVL83:
 1421              	@ ../../peripheral_library/api/apiVP.c:257:     for(u16Chn=0;u16Chn<_u16Channel;u16Chn++){
 257:../../peripheral_library/api/apiVP.c **** 
 1422              		.loc 1 257 5 view .LVU332
 1423 01cc C4D9     		bls	.L103		@,
 259:../../peripheral_library/api/apiVP.c ****         continue;
 1424              		.loc 1 259 7 is_stmt 1 view .LVU333
 262:../../peripheral_library/api/apiVP.c ****       s32CurYY = (S32)s16CurX<<14; //Q3.29
 1425              		.loc 1 262 7 view .LVU334
 1426              	.LVL84:
 263:../../peripheral_library/api/apiVP.c ****       for(u16Iter=0;u16Iter<_u16Stage;u16Iter++){
 1427              		.loc 1 263 7 view .LVU335
 1428              	@ ../../peripheral_library/api/apiVP.c:263:       s32CurYY = (S32)s16CurX<<14; //Q3.29
ARM GAS  /tmp/cc3Huoko.s 			page 34


 263:../../peripheral_library/api/apiVP.c ****       for(u16Iter=0;u16Iter<_u16Stage;u16Iter++){
 1429              		.loc 1 263 18 is_stmt 0 view .LVU336
 1430 01ce B0F90210 		ldrsh	r1, [r0, #2]	@ MEM[base: _291, offset: 2B], MEM[base: _291, offset: 2B]
 1431              	@ ../../peripheral_library/api/apiVP.c:263:       s32CurYY = (S32)s16CurX<<14; //Q3.29
 263:../../peripheral_library/api/apiVP.c ****       for(u16Iter=0;u16Iter<_u16Stage;u16Iter++){
 1432              		.loc 1 263 16 view .LVU337
 1433 01d2 8F03     		lsls	r7, r1, #14	@ s32CurYY, MEM[base: _291, offset: 2B],
 1434              	.LVL85:
 264:../../peripheral_library/api/apiVP.c ****         s32CurXX = s32CurYY;
 1435              		.loc 1 264 7 is_stmt 1 view .LVU338
 264:../../peripheral_library/api/apiVP.c ****         s32CurXX = s32CurYY;
 1436              		.loc 1 264 7 is_stmt 0 view .LVU339
 1437 01d4 002B     		cmp	r3, #0	@ _u16Stage.11_8
 1438 01d6 00F02082 		beq	.L317	@
 265:../../peripheral_library/api/apiVP.c ****         s32CurYY = s32CurXX - _s32PreXX[u16Chn][u16Iter] + _s32PreYY[u16Chn][u16Iter] - (_s32PreYY[
 1439              		.loc 1 265 9 is_stmt 1 view .LVU340
 1440              	.LVL86:
 266:../../peripheral_library/api/apiVP.c **** 
 1441              		.loc 1 266 9 view .LVU341
 1442              	@ ../../peripheral_library/api/apiVP.c:266:         s32CurYY = s32CurXX - _s32PreXX[u16Chn][u16Iter
 266:../../peripheral_library/api/apiVP.c **** 
 1443              		.loc 1 266 29 is_stmt 0 view .LVU342
 1444 01da 099C     		ldr	r4, [sp, #36]	@ _s32PreXX_I_I_lsm.128, %sfp
 1445 01dc A7EB040A 		sub	r10, r7, r4	@ tmp375, s32CurYY, _s32PreXX_I_I_lsm.128
 1446              	.LVL87:
 1447              	@ ../../peripheral_library/api/apiVP.c:266:         s32CurYY = s32CurXX - _s32PreXX[u16Chn][u16Iter
 266:../../peripheral_library/api/apiVP.c **** 
 1448              		.loc 1 266 58 view .LVU343
 1449 01e0 C244     		add	r10, r10, r8	@ _146, _s32PreYY_I_I_lsm.130
 1450              	@ ../../peripheral_library/api/apiVP.c:264:       for(u16Iter=0;u16Iter<_u16Stage;u16Iter++){
 264:../../peripheral_library/api/apiVP.c ****         s32CurXX = s32CurYY;
 1451              		.loc 1 264 7 view .LVU344
 1452 01e2 022B     		cmp	r3, #2	@ _u16Stage.11_8,
 1453              	@ ../../peripheral_library/api/apiVP.c:266:         s32CurYY = s32CurXX - _s32PreXX[u16Chn][u16Iter
 266:../../peripheral_library/api/apiVP.c **** 
 1454              		.loc 1 266 116 view .LVU345
 1455 01e4 48FA06F8 		asr	r8, r8, r6	@ tmp376, _s32PreYY_I_I_lsm.130, _105
 1456              	@ ../../peripheral_library/api/apiVP.c:266:         s32CurYY = s32CurXX - _s32PreXX[u16Chn][u16Iter
 266:../../peripheral_library/api/apiVP.c **** 
 1457              		.loc 1 266 18 view .LVU346
 1458 01e8 AAEB0808 		sub	r8, r10, r8	@ _s32PreYY_I_I_lsm.130, _146, tmp376
 1459              	.LVL88:
 268:../../peripheral_library/api/apiVP.c ****         _s32PreYY[u16Chn][u16Iter] = s32CurYY;
 1460              		.loc 1 268 9 is_stmt 1 view .LVU347
 269:../../peripheral_library/api/apiVP.c ****       }
 1461              		.loc 1 269 9 view .LVU348
 1462              	@ ../../peripheral_library/api/apiVP.c:264:       for(u16Iter=0;u16Iter<_u16Stage;u16Iter++){
 264:../../peripheral_library/api/apiVP.c ****         s32CurXX = s32CurYY;
 1463              		.loc 1 264 7 is_stmt 0 view .LVU349
 1464 01ec 40F02B82 		bne	.L171		@,
 265:../../peripheral_library/api/apiVP.c ****         s32CurYY = s32CurXX - _s32PreXX[u16Chn][u16Iter] + _s32PreYY[u16Chn][u16Iter] - (_s32PreYY[
 1465              		.loc 1 265 9 is_stmt 1 view .LVU350
 1466              	.LVL89:
 266:../../peripheral_library/api/apiVP.c **** 
 1467              		.loc 1 266 9 view .LVU351
 1468              	@ ../../peripheral_library/api/apiVP.c:266:         s32CurYY = s32CurXX - _s32PreXX[u16Chn][u16Iter
 266:../../peripheral_library/api/apiVP.c **** 
ARM GAS  /tmp/cc3Huoko.s 			page 35


 1469              		.loc 1 266 29 is_stmt 0 view .LVU352
 1470 01f0 1499     		ldr	r1, [sp, #80]	@ _s32PreXX_I_I_lsm.132, %sfp
 1471              	@ ../../peripheral_library/api/apiVP.c:266:         s32CurYY = s32CurXX - _s32PreXX[u16Chn][u16Iter
 266:../../peripheral_library/api/apiVP.c **** 
 1472              		.loc 1 266 58 view .LVU353
 1473 01f2 159C     		ldr	r4, [sp, #84]	@ _s32PreYY_I_I_lsm.134, %sfp
 1474              	@ ../../peripheral_library/api/apiVP.c:268:         _s32PreXX[u16Chn][u16Iter] = s32CurXX;
 268:../../peripheral_library/api/apiVP.c ****         _s32PreYY[u16Chn][u16Iter] = s32CurYY;
 1475              		.loc 1 268 36 view .LVU354
 1476 01f4 CDF85080 		str	r8, [sp, #80]	@ _s32PreYY_I_I_lsm.130, %sfp
 1477              	@ ../../peripheral_library/api/apiVP.c:266:         s32CurYY = s32CurXX - _s32PreXX[u16Chn][u16Iter
 266:../../peripheral_library/api/apiVP.c **** 
 1478              		.loc 1 266 29 view .LVU355
 1479 01f8 A8EB010A 		sub	r10, r8, r1	@ tmp377, _s32PreYY_I_I_lsm.130, _s32PreXX_I_I_lsm.132
 1480              	@ ../../peripheral_library/api/apiVP.c:266:         s32CurYY = s32CurXX - _s32PreXX[u16Chn][u16Iter
 266:../../peripheral_library/api/apiVP.c **** 
 1481              		.loc 1 266 58 view .LVU356
 1482 01fc A244     		add	r10, r10, r4	@ _156, _s32PreYY_I_I_lsm.134
 1483              	@ ../../peripheral_library/api/apiVP.c:266:         s32CurYY = s32CurXX - _s32PreXX[u16Chn][u16Iter
 266:../../peripheral_library/api/apiVP.c **** 
 1484              		.loc 1 266 116 view .LVU357
 1485 01fe 44FA06FB 		asr	fp, r4, r6	@ tmp378, _s32PreYY_I_I_lsm.134, _105
 1486              	@ ../../peripheral_library/api/apiVP.c:266:         s32CurYY = s32CurXX - _s32PreXX[u16Chn][u16Iter
 266:../../peripheral_library/api/apiVP.c **** 
 1487              		.loc 1 266 18 view .LVU358
 1488 0202 AAEB0B01 		sub	r1, r10, fp	@ _s32PreYY_I_I_lsm.134, _156, tmp378
 1489 0206 0124     		movs	r4, #1	@ _s32PreYY_I_I_lsm.135,
 1490 0208 1591     		str	r1, [sp, #84]	@ _s32PreYY_I_I_lsm.134, %sfp
 1491              	.LVL90:
 268:../../peripheral_library/api/apiVP.c ****         _s32PreYY[u16Chn][u16Iter] = s32CurYY;
 1492              		.loc 1 268 9 is_stmt 1 view .LVU359
 269:../../peripheral_library/api/apiVP.c ****       }
 1493              		.loc 1 269 9 view .LVU360
 1494              	@ ../../peripheral_library/api/apiVP.c:266:         s32CurYY = s32CurXX - _s32PreXX[u16Chn][u16Iter
 266:../../peripheral_library/api/apiVP.c **** 
 1495              		.loc 1 266 18 is_stmt 0 view .LVU361
 1496 020a 3494     		str	r4, [sp, #208]	@ _s32PreYY_I_I_lsm.135, %sfp
 1497              	@ ../../peripheral_library/api/apiVP.c:269:         _s32PreYY[u16Chn][u16Iter] = s32CurYY;
 269:../../peripheral_library/api/apiVP.c ****       }
 1498              		.loc 1 269 36 view .LVU362
 1499 020c 8A46     		mov	r10, r1	@ s32CurYY, _s32PreYY_I_I_lsm.134
 1500              	@ ../../peripheral_library/api/apiVP.c:266:         s32CurYY = s32CurXX - _s32PreXX[u16Chn][u16Iter
 266:../../peripheral_library/api/apiVP.c **** 
 1501              		.loc 1 266 18 view .LVU363
 1502 020e 3394     		str	r4, [sp, #204]	@ _s32PreYY_I_I_lsm.135, %sfp
 1503              	.LVL91:
 1504              	.L106:
 272:../../peripheral_library/api/apiVP.c **** 
 1505              		.loc 1 272 7 is_stmt 1 view .LVU364
 1506              	@ ../../peripheral_library/api/apiVP.c:272:       s32CurYY = s32CurYY>>14;
 272:../../peripheral_library/api/apiVP.c **** 
 1507              		.loc 1 272 16 is_stmt 0 view .LVU365
 1508 0210 4FEAAA3A 		asr	r10, r10, #14	@ s32CurYY, s32CurYY,
 1509              	.LVL92:
 274:../../peripheral_library/api/apiVP.c ****         s16CurY = MAX_S16;
 1510              		.loc 1 274 7 is_stmt 1 view .LVU366
 1511              	@ ../../peripheral_library/api/apiVP.c:274:       if(s32CurYY>MAX_S16)
ARM GAS  /tmp/cc3Huoko.s 			page 36


 274:../../peripheral_library/api/apiVP.c ****         s16CurY = MAX_S16;
 1512              		.loc 1 274 9 is_stmt 0 view .LVU367
 1513 0214 BAF5004F 		cmp	r10, #32768	@ s32CurYY,
 1514 0218 C0F20482 		blt	.L318		@,
 1515 021c 0124     		movs	r4, #1	@ _s32PreYY_I_I_lsm.131,
 1516 021e 1994     		str	r4, [sp, #100]	@ _s32PreYY_I_I_lsm.131, %sfp
 1517              	@ ../../peripheral_library/api/apiVP.c:268:         _s32PreXX[u16Chn][u16Iter] = s32CurXX;
 268:../../peripheral_library/api/apiVP.c ****         _s32PreYY[u16Chn][u16Iter] = s32CurYY;
 1518              		.loc 1 268 36 view .LVU368
 1519 0220 0997     		str	r7, [sp, #36]	@ s32CurYY, %sfp
 1520              	@ ../../peripheral_library/api/apiVP.c:274:       if(s32CurYY>MAX_S16)
 274:../../peripheral_library/api/apiVP.c ****         s16CurY = MAX_S16;
 1521              		.loc 1 274 9 view .LVU369
 1522 0222 1894     		str	r4, [sp, #96]	@ _s32PreYY_I_I_lsm.131, %sfp
 1523              	@ ../../peripheral_library/api/apiVP.c:275:         s16CurY = MAX_S16;
 275:../../peripheral_library/api/apiVP.c ****       else if(s32CurYY<MIN_S16)
 1524              		.loc 1 275 17 view .LVU370
 1525 0224 47F6FF7A 		movw	r10, #32767	@ s16CurY,
 1526              	.LVL93:
 1527              	.L105:
 281:../../peripheral_library/api/apiVP.c **** 
 1528              		.loc 1 281 7 is_stmt 1 view .LVU371
 1529              	@ ../../peripheral_library/api/apiVP.c:257:     for(u16Chn=0;u16Chn<_u16Channel;u16Chn++){
 257:../../peripheral_library/api/apiVP.c **** 
 1530              		.loc 1 257 5 is_stmt 0 view .LVU372
 1531 0228 022A     		cmp	r2, #2	@ _113,
 1532              	@ ../../peripheral_library/api/apiVP.c:281:       *(S16*)(ps8Buffer+(u16Num*_u16Channel+u16Chn)*u16
 281:../../peripheral_library/api/apiVP.c **** 
 1533              		.loc 1 281 63 view .LVU373
 1534 022a A0F802A0 		strh	r10, [r0, #2]	@ movhi	@ s16CurY, MEM[base: _291, offset: 2B]
 1535              	.LVL94:
 1536              	@ ../../peripheral_library/api/apiVP.c:257:     for(u16Chn=0;u16Chn<_u16Channel;u16Chn++){
 257:../../peripheral_library/api/apiVP.c **** 
 1537              		.loc 1 257 5 view .LVU374
 1538 022e 93D0     		beq	.L103		@,
 259:../../peripheral_library/api/apiVP.c ****         continue;
 1539              		.loc 1 259 7 is_stmt 1 view .LVU375
 262:../../peripheral_library/api/apiVP.c ****       s32CurYY = (S32)s16CurX<<14; //Q3.29
 1540              		.loc 1 262 7 view .LVU376
 1541              	.LVL95:
 263:../../peripheral_library/api/apiVP.c ****       for(u16Iter=0;u16Iter<_u16Stage;u16Iter++){
 1542              		.loc 1 263 7 view .LVU377
 1543              	@ ../../peripheral_library/api/apiVP.c:263:       s32CurYY = (S32)s16CurX<<14; //Q3.29
 263:../../peripheral_library/api/apiVP.c ****       for(u16Iter=0;u16Iter<_u16Stage;u16Iter++){
 1544              		.loc 1 263 18 is_stmt 0 view .LVU378
 1545 0230 B0F90410 		ldrsh	r1, [r0, #4]	@ MEM[base: _291, offset: 4B], MEM[base: _291, offset: 4B]
 1546              	@ ../../peripheral_library/api/apiVP.c:263:       s32CurYY = (S32)s16CurX<<14; //Q3.29
 263:../../peripheral_library/api/apiVP.c ****       for(u16Iter=0;u16Iter<_u16Stage;u16Iter++){
 1547              		.loc 1 263 16 view .LVU379
 1548 0234 8903     		lsls	r1, r1, #14	@ s32CurYY, MEM[base: _291, offset: 4B],
 1549 0236 0191     		str	r1, [sp, #4]	@ s32CurYY, %sfp
 1550              	.LVL96:
 264:../../peripheral_library/api/apiVP.c ****         s32CurXX = s32CurYY;
 1551              		.loc 1 264 7 is_stmt 1 view .LVU380
 264:../../peripheral_library/api/apiVP.c ****         s32CurXX = s32CurYY;
 1552              		.loc 1 264 7 is_stmt 0 view .LVU381
 1553 0238 002B     		cmp	r3, #0	@ _u16Stage.11_8
ARM GAS  /tmp/cc3Huoko.s 			page 37


 1554 023a 00F0FF81 		beq	.L319	@
 1555 023e 0C46     		mov	r4, r1	@ s32CurYY, s32CurYY
 265:../../peripheral_library/api/apiVP.c ****         s32CurYY = s32CurXX - _s32PreXX[u16Chn][u16Iter] + _s32PreYY[u16Chn][u16Iter] - (_s32PreYY[
 1556              		.loc 1 265 9 is_stmt 1 view .LVU382
 1557              	.LVL97:
 266:../../peripheral_library/api/apiVP.c **** 
 1558              		.loc 1 266 9 view .LVU383
 1559              	@ ../../peripheral_library/api/apiVP.c:266:         s32CurYY = s32CurXX - _s32PreXX[u16Chn][u16Iter
 266:../../peripheral_library/api/apiVP.c **** 
 1560              		.loc 1 266 29 is_stmt 0 view .LVU384
 1561 0240 0B99     		ldr	r1, [sp, #44]	@ _s32PreXX_I_I_lsm.136, %sfp
 1562              	.LVL98:
 266:../../peripheral_library/api/apiVP.c **** 
 1563              		.loc 1 266 29 view .LVU385
 1564 0242 A4EB010A 		sub	r10, r4, r1	@ tmp382, s32CurYY, _s32PreXX_I_I_lsm.136
 1565              	.LVL99:
 1566              	@ ../../peripheral_library/api/apiVP.c:266:         s32CurYY = s32CurXX - _s32PreXX[u16Chn][u16Iter
 266:../../peripheral_library/api/apiVP.c **** 
 1567              		.loc 1 266 58 view .LVU386
 1568 0246 049C     		ldr	r4, [sp, #16]	@ _s32PreYY_I_I_lsm.138, %sfp
 1569              	.LVL100:
 266:../../peripheral_library/api/apiVP.c **** 
 1570              		.loc 1 266 58 view .LVU387
 1571 0248 A244     		add	r10, r10, r4	@ _187, _s32PreYY_I_I_lsm.138
 1572              	@ ../../peripheral_library/api/apiVP.c:266:         s32CurYY = s32CurXX - _s32PreXX[u16Chn][u16Iter
 266:../../peripheral_library/api/apiVP.c **** 
 1573              		.loc 1 266 116 view .LVU388
 1574 024a 44FA06FB 		asr	fp, r4, r6	@ tmp383, _s32PreYY_I_I_lsm.138, _105
 1575              	@ ../../peripheral_library/api/apiVP.c:266:         s32CurYY = s32CurXX - _s32PreXX[u16Chn][u16Iter
 266:../../peripheral_library/api/apiVP.c **** 
 1576              		.loc 1 266 18 view .LVU389
 1577 024e AAEB0B04 		sub	r4, r10, fp	@ _s32PreYY_I_I_lsm.138, _187, tmp383
 1578              	@ ../../peripheral_library/api/apiVP.c:264:       for(u16Iter=0;u16Iter<_u16Stage;u16Iter++){
 264:../../peripheral_library/api/apiVP.c ****         s32CurXX = s32CurYY;
 1579              		.loc 1 264 7 view .LVU390
 1580 0252 022B     		cmp	r3, #2	@ _u16Stage.11_8,
 1581              	@ ../../peripheral_library/api/apiVP.c:266:         s32CurYY = s32CurXX - _s32PreXX[u16Chn][u16Iter
 266:../../peripheral_library/api/apiVP.c **** 
 1582              		.loc 1 266 18 view .LVU391
 1583 0254 0494     		str	r4, [sp, #16]	@ _s32PreYY_I_I_lsm.138, %sfp
 1584              	.LVL101:
 268:../../peripheral_library/api/apiVP.c ****         _s32PreYY[u16Chn][u16Iter] = s32CurYY;
 1585              		.loc 1 268 9 is_stmt 1 view .LVU392
 269:../../peripheral_library/api/apiVP.c ****       }
 1586              		.loc 1 269 9 view .LVU393
 1587              	@ ../../peripheral_library/api/apiVP.c:264:       for(u16Iter=0;u16Iter<_u16Stage;u16Iter++){
 264:../../peripheral_library/api/apiVP.c ****         s32CurXX = s32CurYY;
 1588              		.loc 1 264 7 is_stmt 0 view .LVU394
 1589 0256 40F00382 		bne	.L174		@,
 265:../../peripheral_library/api/apiVP.c ****         s32CurYY = s32CurXX - _s32PreXX[u16Chn][u16Iter] + _s32PreYY[u16Chn][u16Iter] - (_s32PreYY[
 1590              		.loc 1 265 9 is_stmt 1 view .LVU395
 1591              	.LVL102:
 266:../../peripheral_library/api/apiVP.c **** 
 1592              		.loc 1 266 9 view .LVU396
 1593              	@ ../../peripheral_library/api/apiVP.c:266:         s32CurYY = s32CurXX - _s32PreXX[u16Chn][u16Iter
 266:../../peripheral_library/api/apiVP.c **** 
 1594              		.loc 1 266 29 is_stmt 0 view .LVU397
ARM GAS  /tmp/cc3Huoko.s 			page 38


 1595 025a 1A99     		ldr	r1, [sp, #104]	@ _s32PreXX_I_I_lsm.140, %sfp
 1596 025c A4EB010A 		sub	r10, r4, r1	@ tmp384, _s32PreYY_I_I_lsm.138, _s32PreXX_I_I_lsm.140
 1597              	@ ../../peripheral_library/api/apiVP.c:266:         s32CurYY = s32CurXX - _s32PreXX[u16Chn][u16Iter
 266:../../peripheral_library/api/apiVP.c **** 
 1598              		.loc 1 266 58 view .LVU398
 1599 0260 1B99     		ldr	r1, [sp, #108]	@ _s32PreYY_I_I_lsm.142, %sfp
 1600              	@ ../../peripheral_library/api/apiVP.c:268:         _s32PreXX[u16Chn][u16Iter] = s32CurXX;
 268:../../peripheral_library/api/apiVP.c ****         _s32PreYY[u16Chn][u16Iter] = s32CurYY;
 1601              		.loc 1 268 36 view .LVU399
 1602 0262 049C     		ldr	r4, [sp, #16]	@ _s32PreYY_I_I_lsm.138, %sfp
 268:../../peripheral_library/api/apiVP.c ****         _s32PreYY[u16Chn][u16Iter] = s32CurYY;
 1603              		.loc 1 268 36 view .LVU400
 1604 0264 1A94     		str	r4, [sp, #104]	@ _s32PreYY_I_I_lsm.138, %sfp
 1605              	@ ../../peripheral_library/api/apiVP.c:266:         s32CurYY = s32CurXX - _s32PreXX[u16Chn][u16Iter
 266:../../peripheral_library/api/apiVP.c **** 
 1606              		.loc 1 266 58 view .LVU401
 1607 0266 8A44     		add	r10, r10, r1	@ _197, _s32PreYY_I_I_lsm.142
 1608              	@ ../../peripheral_library/api/apiVP.c:266:         s32CurYY = s32CurXX - _s32PreXX[u16Chn][u16Iter
 266:../../peripheral_library/api/apiVP.c **** 
 1609              		.loc 1 266 116 view .LVU402
 1610 0268 41FA06FB 		asr	fp, r1, r6	@ tmp385, _s32PreYY_I_I_lsm.142, _105
 1611              	@ ../../peripheral_library/api/apiVP.c:266:         s32CurYY = s32CurXX - _s32PreXX[u16Chn][u16Iter
 266:../../peripheral_library/api/apiVP.c **** 
 1612              		.loc 1 266 18 view .LVU403
 1613 026c AAEB0B01 		sub	r1, r10, fp	@ _s32PreYY_I_I_lsm.142, _197, tmp385
 1614 0270 0127     		movs	r7, #1	@ _s32PreYY_I_I_lsm.143,
 1615 0272 1B91     		str	r1, [sp, #108]	@ _s32PreYY_I_I_lsm.142, %sfp
 1616              	.LVL103:
 268:../../peripheral_library/api/apiVP.c ****         _s32PreYY[u16Chn][u16Iter] = s32CurYY;
 1617              		.loc 1 268 9 is_stmt 1 view .LVU404
 269:../../peripheral_library/api/apiVP.c ****       }
 1618              		.loc 1 269 9 view .LVU405
 1619              	@ ../../peripheral_library/api/apiVP.c:266:         s32CurYY = s32CurXX - _s32PreXX[u16Chn][u16Iter
 266:../../peripheral_library/api/apiVP.c **** 
 1620              		.loc 1 266 18 is_stmt 0 view .LVU406
 1621 0274 3897     		str	r7, [sp, #224]	@ _s32PreYY_I_I_lsm.143, %sfp
 1622              	@ ../../peripheral_library/api/apiVP.c:269:         _s32PreYY[u16Chn][u16Iter] = s32CurYY;
 269:../../peripheral_library/api/apiVP.c ****       }
 1623              		.loc 1 269 36 view .LVU407
 1624 0276 8A46     		mov	r10, r1	@ s32CurYY, _s32PreYY_I_I_lsm.142
 1625              	@ ../../peripheral_library/api/apiVP.c:266:         s32CurYY = s32CurXX - _s32PreXX[u16Chn][u16Iter
 266:../../peripheral_library/api/apiVP.c **** 
 1626              		.loc 1 266 18 view .LVU408
 1627 0278 3797     		str	r7, [sp, #220]	@ _s32PreYY_I_I_lsm.143, %sfp
 1628              	.LVL104:
 1629              	.L110:
 272:../../peripheral_library/api/apiVP.c **** 
 1630              		.loc 1 272 7 is_stmt 1 view .LVU409
 1631              	@ ../../peripheral_library/api/apiVP.c:272:       s32CurYY = s32CurYY>>14;
 272:../../peripheral_library/api/apiVP.c **** 
 1632              		.loc 1 272 16 is_stmt 0 view .LVU410
 1633 027a 4FEAAA3A 		asr	r10, r10, #14	@ s32CurYY, s32CurYY,
 1634              	.LVL105:
 274:../../peripheral_library/api/apiVP.c ****         s16CurY = MAX_S16;
 1635              		.loc 1 274 7 is_stmt 1 view .LVU411
 1636              	@ ../../peripheral_library/api/apiVP.c:274:       if(s32CurYY>MAX_S16)
 274:../../peripheral_library/api/apiVP.c ****         s16CurY = MAX_S16;
ARM GAS  /tmp/cc3Huoko.s 			page 39


 1637              		.loc 1 274 9 is_stmt 0 view .LVU412
 1638 027e 0121     		movs	r1, #1	@ _s32PreYY_I_I_lsm.139,
 1639              	@ ../../peripheral_library/api/apiVP.c:268:         _s32PreXX[u16Chn][u16Iter] = s32CurXX;
 268:../../peripheral_library/api/apiVP.c ****         _s32PreYY[u16Chn][u16Iter] = s32CurYY;
 1640              		.loc 1 268 36 view .LVU413
 1641 0280 019C     		ldr	r4, [sp, #4]	@ s32CurYY, %sfp
 1642              	@ ../../peripheral_library/api/apiVP.c:274:       if(s32CurYY>MAX_S16)
 274:../../peripheral_library/api/apiVP.c ****         s16CurY = MAX_S16;
 1643              		.loc 1 274 9 view .LVU414
 1644 0282 1D91     		str	r1, [sp, #116]	@ _s32PreYY_I_I_lsm.139, %sfp
 1645 0284 BAF5004F 		cmp	r10, #32768	@ s32CurYY,
 1646              	@ ../../peripheral_library/api/apiVP.c:268:         _s32PreXX[u16Chn][u16Iter] = s32CurXX;
 268:../../peripheral_library/api/apiVP.c ****         _s32PreYY[u16Chn][u16Iter] = s32CurYY;
 1647              		.loc 1 268 36 view .LVU415
 1648 0288 0B94     		str	r4, [sp, #44]	@ s32CurYY, %sfp
 1649              	@ ../../peripheral_library/api/apiVP.c:274:       if(s32CurYY>MAX_S16)
 274:../../peripheral_library/api/apiVP.c ****         s16CurY = MAX_S16;
 1650              		.loc 1 274 9 view .LVU416
 1651 028a 1C91     		str	r1, [sp, #112]	@ _s32PreYY_I_I_lsm.139, %sfp
 1652 028c C0F2DD81 		blt	.L320		@,
 1653              	@ ../../peripheral_library/api/apiVP.c:275:         s16CurY = MAX_S16;
 275:../../peripheral_library/api/apiVP.c ****       else if(s32CurYY<MIN_S16)
 1654              		.loc 1 275 17 view .LVU417
 1655 0290 47F6FF7A 		movw	r10, #32767	@ s16CurY,
 1656              	.LVL106:
 1657              	.L109:
 281:../../peripheral_library/api/apiVP.c **** 
 1658              		.loc 1 281 7 is_stmt 1 view .LVU418
 1659              	@ ../../peripheral_library/api/apiVP.c:257:     for(u16Chn=0;u16Chn<_u16Channel;u16Chn++){
 257:../../peripheral_library/api/apiVP.c **** 
 1660              		.loc 1 257 5 is_stmt 0 view .LVU419
 1661 0294 032A     		cmp	r2, #3	@ _113,
 1662              	@ ../../peripheral_library/api/apiVP.c:281:       *(S16*)(ps8Buffer+(u16Num*_u16Channel+u16Chn)*u16
 281:../../peripheral_library/api/apiVP.c **** 
 1663              		.loc 1 281 63 view .LVU420
 1664 0296 A0F804A0 		strh	r10, [r0, #4]	@ movhi	@ s16CurY, MEM[base: _291, offset: 4B]
 1665              	.LVL107:
 1666              	@ ../../peripheral_library/api/apiVP.c:257:     for(u16Chn=0;u16Chn<_u16Channel;u16Chn++){
 257:../../peripheral_library/api/apiVP.c **** 
 1667              		.loc 1 257 5 view .LVU421
 1668 029a 3FF45DAF 		beq	.L103		@,
 259:../../peripheral_library/api/apiVP.c ****         continue;
 1669              		.loc 1 259 7 is_stmt 1 view .LVU422
 262:../../peripheral_library/api/apiVP.c ****       s32CurYY = (S32)s16CurX<<14; //Q3.29
 1670              		.loc 1 262 7 view .LVU423
 1671              	.LVL108:
 263:../../peripheral_library/api/apiVP.c ****       for(u16Iter=0;u16Iter<_u16Stage;u16Iter++){
 1672              		.loc 1 263 7 view .LVU424
 1673              	@ ../../peripheral_library/api/apiVP.c:263:       s32CurYY = (S32)s16CurX<<14; //Q3.29
 263:../../peripheral_library/api/apiVP.c ****       for(u16Iter=0;u16Iter<_u16Stage;u16Iter++){
 1674              		.loc 1 263 18 is_stmt 0 view .LVU425
 1675 029e B0F90610 		ldrsh	r1, [r0, #6]	@ MEM[base: _291, offset: 6B], MEM[base: _291, offset: 6B]
 1676              	@ ../../peripheral_library/api/apiVP.c:263:       s32CurYY = (S32)s16CurX<<14; //Q3.29
 263:../../peripheral_library/api/apiVP.c ****       for(u16Iter=0;u16Iter<_u16Stage;u16Iter++){
 1677              		.loc 1 263 16 view .LVU426
 1678 02a2 8F03     		lsls	r7, r1, #14	@ s32CurYY, MEM[base: _291, offset: 6B],
 1679              	.LVL109:
ARM GAS  /tmp/cc3Huoko.s 			page 40


 264:../../peripheral_library/api/apiVP.c ****         s32CurXX = s32CurYY;
 1680              		.loc 1 264 7 is_stmt 1 view .LVU427
 264:../../peripheral_library/api/apiVP.c ****         s32CurXX = s32CurYY;
 1681              		.loc 1 264 7 is_stmt 0 view .LVU428
 1682 02a4 002B     		cmp	r3, #0	@ _u16Stage.11_8
 1683 02a6 00F0D681 		beq	.L321	@
 265:../../peripheral_library/api/apiVP.c ****         s32CurYY = s32CurXX - _s32PreXX[u16Chn][u16Iter] + _s32PreYY[u16Chn][u16Iter] - (_s32PreYY[
 1684              		.loc 1 265 9 is_stmt 1 view .LVU429
 1685              	.LVL110:
 266:../../peripheral_library/api/apiVP.c **** 
 1686              		.loc 1 266 9 view .LVU430
 1687              	@ ../../peripheral_library/api/apiVP.c:266:         s32CurYY = s32CurXX - _s32PreXX[u16Chn][u16Iter
 266:../../peripheral_library/api/apiVP.c **** 
 1688              		.loc 1 266 29 is_stmt 0 view .LVU431
 1689 02aa 0C99     		ldr	r1, [sp, #48]	@ _s32PreXX_I_I_lsm.144, %sfp
 1690 02ac A7EB010A 		sub	r10, r7, r1	@ tmp389, s32CurYY, _s32PreXX_I_I_lsm.144
 1691              	.LVL111:
 1692              	@ ../../peripheral_library/api/apiVP.c:266:         s32CurYY = s32CurXX - _s32PreXX[u16Chn][u16Iter
 266:../../peripheral_library/api/apiVP.c **** 
 1693              		.loc 1 266 58 view .LVU432
 1694 02b0 0599     		ldr	r1, [sp, #20]	@ _s32PreYY_I_I_lsm.146, %sfp
 1695 02b2 8A44     		add	r10, r10, r1	@ _228, _s32PreYY_I_I_lsm.146
 1696              	@ ../../peripheral_library/api/apiVP.c:266:         s32CurYY = s32CurXX - _s32PreXX[u16Chn][u16Iter
 266:../../peripheral_library/api/apiVP.c **** 
 1697              		.loc 1 266 116 view .LVU433
 1698 02b4 41FA06FB 		asr	fp, r1, r6	@ tmp390, _s32PreYY_I_I_lsm.146, _105
 1699              	@ ../../peripheral_library/api/apiVP.c:266:         s32CurYY = s32CurXX - _s32PreXX[u16Chn][u16Iter
 266:../../peripheral_library/api/apiVP.c **** 
 1700              		.loc 1 266 18 view .LVU434
 1701 02b8 AAEB0B04 		sub	r4, r10, fp	@ _s32PreYY_I_I_lsm.146, _228, tmp390
 1702              	@ ../../peripheral_library/api/apiVP.c:264:       for(u16Iter=0;u16Iter<_u16Stage;u16Iter++){
 264:../../peripheral_library/api/apiVP.c ****         s32CurXX = s32CurYY;
 1703              		.loc 1 264 7 view .LVU435
 1704 02bc 022B     		cmp	r3, #2	@ _u16Stage.11_8,
 1705              	@ ../../peripheral_library/api/apiVP.c:266:         s32CurYY = s32CurXX - _s32PreXX[u16Chn][u16Iter
 266:../../peripheral_library/api/apiVP.c **** 
 1706              		.loc 1 266 18 view .LVU436
 1707 02be 0594     		str	r4, [sp, #20]	@ _s32PreYY_I_I_lsm.146, %sfp
 1708              	.LVL112:
 268:../../peripheral_library/api/apiVP.c ****         _s32PreYY[u16Chn][u16Iter] = s32CurYY;
 1709              		.loc 1 268 9 is_stmt 1 view .LVU437
 269:../../peripheral_library/api/apiVP.c ****       }
 1710              		.loc 1 269 9 view .LVU438
 1711              	@ ../../peripheral_library/api/apiVP.c:264:       for(u16Iter=0;u16Iter<_u16Stage;u16Iter++){
 264:../../peripheral_library/api/apiVP.c ****         s32CurXX = s32CurYY;
 1712              		.loc 1 264 7 is_stmt 0 view .LVU439
 1713 02c0 40F0E181 		bne	.L177		@,
 265:../../peripheral_library/api/apiVP.c ****         s32CurYY = s32CurXX - _s32PreXX[u16Chn][u16Iter] + _s32PreYY[u16Chn][u16Iter] - (_s32PreYY[
 1714              		.loc 1 265 9 is_stmt 1 view .LVU440
 1715              	.LVL113:
 266:../../peripheral_library/api/apiVP.c **** 
 1716              		.loc 1 266 9 view .LVU441
 1717              	@ ../../peripheral_library/api/apiVP.c:266:         s32CurYY = s32CurXX - _s32PreXX[u16Chn][u16Iter
 266:../../peripheral_library/api/apiVP.c **** 
 1718              		.loc 1 266 29 is_stmt 0 view .LVU442
 1719 02c4 2146     		mov	r1, r4	@ _s32PreYY_I_I_lsm.146, _s32PreYY_I_I_lsm.146
 1720 02c6 1E9C     		ldr	r4, [sp, #120]	@ _s32PreXX_I_I_lsm.148, %sfp
ARM GAS  /tmp/cc3Huoko.s 			page 41


 1721              	.LVL114:
 266:../../peripheral_library/api/apiVP.c **** 
 1722              		.loc 1 266 29 view .LVU443
 1723 02c8 A1EB040A 		sub	r10, r1, r4	@ tmp391, _s32PreYY_I_I_lsm.146, _s32PreXX_I_I_lsm.148
 1724              	@ ../../peripheral_library/api/apiVP.c:266:         s32CurYY = s32CurXX - _s32PreXX[u16Chn][u16Iter
 266:../../peripheral_library/api/apiVP.c **** 
 1725              		.loc 1 266 58 view .LVU444
 1726 02cc 1F99     		ldr	r1, [sp, #124]	@ _s32PreYY_I_I_lsm.150, %sfp
 1727              	.LVL115:
 1728              	@ ../../peripheral_library/api/apiVP.c:266:         s32CurYY = s32CurXX - _s32PreXX[u16Chn][u16Iter
 266:../../peripheral_library/api/apiVP.c **** 
 1729              		.loc 1 266 18 view .LVU445
 1730 02ce 0124     		movs	r4, #1	@ _s32PreYY_I_I_lsm.151,
 1731              	@ ../../peripheral_library/api/apiVP.c:266:         s32CurYY = s32CurXX - _s32PreXX[u16Chn][u16Iter
 266:../../peripheral_library/api/apiVP.c **** 
 1732              		.loc 1 266 58 view .LVU446
 1733 02d0 8A44     		add	r10, r10, r1	@ _238, _s32PreYY_I_I_lsm.150
 1734              	@ ../../peripheral_library/api/apiVP.c:266:         s32CurYY = s32CurXX - _s32PreXX[u16Chn][u16Iter
 266:../../peripheral_library/api/apiVP.c **** 
 1735              		.loc 1 266 116 view .LVU447
 1736 02d2 41FA06FB 		asr	fp, r1, r6	@ tmp392, _s32PreYY_I_I_lsm.150, _105
 1737              	@ ../../peripheral_library/api/apiVP.c:266:         s32CurYY = s32CurXX - _s32PreXX[u16Chn][u16Iter
 266:../../peripheral_library/api/apiVP.c **** 
 1738              		.loc 1 266 18 view .LVU448
 1739 02d6 AAEB0B01 		sub	r1, r10, fp	@ _s32PreYY_I_I_lsm.150, _238, tmp392
 1740 02da 3A94     		str	r4, [sp, #232]	@ _s32PreYY_I_I_lsm.151, %sfp
 1741 02dc 3994     		str	r4, [sp, #228]	@ _s32PreYY_I_I_lsm.151, %sfp
 1742              	@ ../../peripheral_library/api/apiVP.c:268:         _s32PreXX[u16Chn][u16Iter] = s32CurXX;
 268:../../peripheral_library/api/apiVP.c ****         _s32PreYY[u16Chn][u16Iter] = s32CurYY;
 1743              		.loc 1 268 36 view .LVU449
 1744 02de 059C     		ldr	r4, [sp, #20]	@ _s32PreYY_I_I_lsm.146, %sfp
 1745              	@ ../../peripheral_library/api/apiVP.c:266:         s32CurYY = s32CurXX - _s32PreXX[u16Chn][u16Iter
 266:../../peripheral_library/api/apiVP.c **** 
 1746              		.loc 1 266 18 view .LVU450
 1747 02e0 1F91     		str	r1, [sp, #124]	@ _s32PreYY_I_I_lsm.150, %sfp
 1748              	.LVL116:
 268:../../peripheral_library/api/apiVP.c ****         _s32PreYY[u16Chn][u16Iter] = s32CurYY;
 1749              		.loc 1 268 9 is_stmt 1 view .LVU451
 269:../../peripheral_library/api/apiVP.c ****       }
 1750              		.loc 1 269 9 view .LVU452
 1751              	@ ../../peripheral_library/api/apiVP.c:269:         _s32PreYY[u16Chn][u16Iter] = s32CurYY;
 269:../../peripheral_library/api/apiVP.c ****       }
 1752              		.loc 1 269 36 is_stmt 0 view .LVU453
 1753 02e2 8A46     		mov	r10, r1	@ s32CurYY, _s32PreYY_I_I_lsm.150
 1754              	@ ../../peripheral_library/api/apiVP.c:268:         _s32PreXX[u16Chn][u16Iter] = s32CurXX;
 268:../../peripheral_library/api/apiVP.c ****         _s32PreYY[u16Chn][u16Iter] = s32CurYY;
 1755              		.loc 1 268 36 view .LVU454
 1756 02e4 1E94     		str	r4, [sp, #120]	@ _s32PreYY_I_I_lsm.146, %sfp
 1757              	.LVL117:
 1758              	.L114:
 272:../../peripheral_library/api/apiVP.c **** 
 1759              		.loc 1 272 7 is_stmt 1 view .LVU455
 1760              	@ ../../peripheral_library/api/apiVP.c:272:       s32CurYY = s32CurYY>>14;
 272:../../peripheral_library/api/apiVP.c **** 
 1761              		.loc 1 272 16 is_stmt 0 view .LVU456
 1762 02e6 4FEAAA3A 		asr	r10, r10, #14	@ s32CurYY, s32CurYY,
 1763              	.LVL118:
ARM GAS  /tmp/cc3Huoko.s 			page 42


 274:../../peripheral_library/api/apiVP.c ****         s16CurY = MAX_S16;
 1764              		.loc 1 274 7 is_stmt 1 view .LVU457
 1765              	@ ../../peripheral_library/api/apiVP.c:274:       if(s32CurYY>MAX_S16)
 274:../../peripheral_library/api/apiVP.c ****         s16CurY = MAX_S16;
 1766              		.loc 1 274 9 is_stmt 0 view .LVU458
 1767 02ea 0121     		movs	r1, #1	@ _s32PreYY_I_I_lsm.147,
 1768 02ec BAF5004F 		cmp	r10, #32768	@ s32CurYY,
 1769 02f0 2491     		str	r1, [sp, #144]	@ _s32PreYY_I_I_lsm.147, %sfp
 1770              	@ ../../peripheral_library/api/apiVP.c:268:         _s32PreXX[u16Chn][u16Iter] = s32CurXX;
 268:../../peripheral_library/api/apiVP.c ****         _s32PreYY[u16Chn][u16Iter] = s32CurYY;
 1771              		.loc 1 268 36 view .LVU459
 1772 02f2 0C97     		str	r7, [sp, #48]	@ s32CurYY, %sfp
 1773              	@ ../../peripheral_library/api/apiVP.c:274:       if(s32CurYY>MAX_S16)
 274:../../peripheral_library/api/apiVP.c ****         s16CurY = MAX_S16;
 1774              		.loc 1 274 9 view .LVU460
 1775 02f4 2391     		str	r1, [sp, #140]	@ _s32PreYY_I_I_lsm.147, %sfp
 1776 02f6 C0F2B581 		blt	.L322		@,
 1777              	@ ../../peripheral_library/api/apiVP.c:275:         s16CurY = MAX_S16;
 275:../../peripheral_library/api/apiVP.c ****       else if(s32CurYY<MIN_S16)
 1778              		.loc 1 275 17 view .LVU461
 1779 02fa 47F6FF7A 		movw	r10, #32767	@ s16CurY,
 1780              	.LVL119:
 1781              	.L113:
 281:../../peripheral_library/api/apiVP.c **** 
 1782              		.loc 1 281 7 is_stmt 1 view .LVU462
 1783              	@ ../../peripheral_library/api/apiVP.c:257:     for(u16Chn=0;u16Chn<_u16Channel;u16Chn++){
 257:../../peripheral_library/api/apiVP.c **** 
 1784              		.loc 1 257 5 is_stmt 0 view .LVU463
 1785 02fe 042A     		cmp	r2, #4	@ _113,
 1786              	@ ../../peripheral_library/api/apiVP.c:281:       *(S16*)(ps8Buffer+(u16Num*_u16Channel+u16Chn)*u16
 281:../../peripheral_library/api/apiVP.c **** 
 1787              		.loc 1 281 63 view .LVU464
 1788 0300 A0F806A0 		strh	r10, [r0, #6]	@ movhi	@ s16CurY, MEM[base: _291, offset: 6B]
 1789              	.LVL120:
 1790              	@ ../../peripheral_library/api/apiVP.c:257:     for(u16Chn=0;u16Chn<_u16Channel;u16Chn++){
 257:../../peripheral_library/api/apiVP.c **** 
 1791              		.loc 1 257 5 view .LVU465
 1792 0304 3FF428AF 		beq	.L103		@,
 259:../../peripheral_library/api/apiVP.c ****         continue;
 1793              		.loc 1 259 7 is_stmt 1 view .LVU466
 262:../../peripheral_library/api/apiVP.c ****       s32CurYY = (S32)s16CurX<<14; //Q3.29
 1794              		.loc 1 262 7 view .LVU467
 1795              	.LVL121:
 263:../../peripheral_library/api/apiVP.c ****       for(u16Iter=0;u16Iter<_u16Stage;u16Iter++){
 1796              		.loc 1 263 7 view .LVU468
 1797              	@ ../../peripheral_library/api/apiVP.c:263:       s32CurYY = (S32)s16CurX<<14; //Q3.29
 263:../../peripheral_library/api/apiVP.c ****       for(u16Iter=0;u16Iter<_u16Stage;u16Iter++){
 1798              		.loc 1 263 18 is_stmt 0 view .LVU469
 1799 0308 B0F90810 		ldrsh	r1, [r0, #8]	@ MEM[base: _291, offset: 8B], MEM[base: _291, offset: 8B]
 1800              	@ ../../peripheral_library/api/apiVP.c:263:       s32CurYY = (S32)s16CurX<<14; //Q3.29
 263:../../peripheral_library/api/apiVP.c ****       for(u16Iter=0;u16Iter<_u16Stage;u16Iter++){
 1801              		.loc 1 263 16 view .LVU470
 1802 030c 8903     		lsls	r1, r1, #14	@ s32CurYY, MEM[base: _291, offset: 8B],
 1803 030e 0191     		str	r1, [sp, #4]	@ s32CurYY, %sfp
 1804              	.LVL122:
 264:../../peripheral_library/api/apiVP.c ****         s32CurXX = s32CurYY;
 1805              		.loc 1 264 7 is_stmt 1 view .LVU471
ARM GAS  /tmp/cc3Huoko.s 			page 43


 264:../../peripheral_library/api/apiVP.c ****         s32CurXX = s32CurYY;
 1806              		.loc 1 264 7 is_stmt 0 view .LVU472
 1807 0310 002B     		cmp	r3, #0	@ _u16Stage.11_8
 1808 0312 00F0B381 		beq	.L323	@
 1809 0316 0C46     		mov	r4, r1	@ s32CurYY, s32CurYY
 265:../../peripheral_library/api/apiVP.c ****         s32CurYY = s32CurXX - _s32PreXX[u16Chn][u16Iter] + _s32PreYY[u16Chn][u16Iter] - (_s32PreYY[
 1810              		.loc 1 265 9 is_stmt 1 view .LVU473
 1811              	.LVL123:
 266:../../peripheral_library/api/apiVP.c **** 
 1812              		.loc 1 266 9 view .LVU474
 1813              	@ ../../peripheral_library/api/apiVP.c:266:         s32CurYY = s32CurXX - _s32PreXX[u16Chn][u16Iter
 266:../../peripheral_library/api/apiVP.c **** 
 1814              		.loc 1 266 29 is_stmt 0 view .LVU475
 1815 0318 0F99     		ldr	r1, [sp, #60]	@ _s32PreXX_I_I_lsm.152, %sfp
 1816              	.LVL124:
 266:../../peripheral_library/api/apiVP.c **** 
 1817              		.loc 1 266 29 view .LVU476
 1818 031a A4EB010A 		sub	r10, r4, r1	@ tmp396, s32CurYY, _s32PreXX_I_I_lsm.152
 1819              	.LVL125:
 1820              	@ ../../peripheral_library/api/apiVP.c:266:         s32CurYY = s32CurXX - _s32PreXX[u16Chn][u16Iter
 266:../../peripheral_library/api/apiVP.c **** 
 1821              		.loc 1 266 58 view .LVU477
 1822 031e 0699     		ldr	r1, [sp, #24]	@ _s32PreYY_I_I_lsm.154, %sfp
 1823 0320 8A44     		add	r10, r10, r1	@ _269, _s32PreYY_I_I_lsm.154
 1824              	@ ../../peripheral_library/api/apiVP.c:266:         s32CurYY = s32CurXX - _s32PreXX[u16Chn][u16Iter
 266:../../peripheral_library/api/apiVP.c **** 
 1825              		.loc 1 266 116 view .LVU478
 1826 0322 41FA06FB 		asr	fp, r1, r6	@ tmp397, _s32PreYY_I_I_lsm.154, _105
 1827              	@ ../../peripheral_library/api/apiVP.c:266:         s32CurYY = s32CurXX - _s32PreXX[u16Chn][u16Iter
 266:../../peripheral_library/api/apiVP.c **** 
 1828              		.loc 1 266 18 view .LVU479
 1829 0326 AAEB0B04 		sub	r4, r10, fp	@ _s32PreYY_I_I_lsm.154, _269, tmp397
 1830              	.LVL126:
 1831              	@ ../../peripheral_library/api/apiVP.c:264:       for(u16Iter=0;u16Iter<_u16Stage;u16Iter++){
 264:../../peripheral_library/api/apiVP.c ****         s32CurXX = s32CurYY;
 1832              		.loc 1 264 7 view .LVU480
 1833 032a 022B     		cmp	r3, #2	@ _u16Stage.11_8,
 1834              	@ ../../peripheral_library/api/apiVP.c:266:         s32CurYY = s32CurXX - _s32PreXX[u16Chn][u16Iter
 266:../../peripheral_library/api/apiVP.c **** 
 1835              		.loc 1 266 18 view .LVU481
 1836 032c 0694     		str	r4, [sp, #24]	@ _s32PreYY_I_I_lsm.154, %sfp
 1837              	.LVL127:
 268:../../peripheral_library/api/apiVP.c ****         _s32PreYY[u16Chn][u16Iter] = s32CurYY;
 1838              		.loc 1 268 9 is_stmt 1 view .LVU482
 269:../../peripheral_library/api/apiVP.c ****       }
 1839              		.loc 1 269 9 view .LVU483
 1840              	@ ../../peripheral_library/api/apiVP.c:264:       for(u16Iter=0;u16Iter<_u16Stage;u16Iter++){
 264:../../peripheral_library/api/apiVP.c ****         s32CurXX = s32CurYY;
 1841              		.loc 1 264 7 is_stmt 0 view .LVU484
 1842 032e 40F0B181 		bne	.L180		@,
 265:../../peripheral_library/api/apiVP.c ****         s32CurYY = s32CurXX - _s32PreXX[u16Chn][u16Iter] + _s32PreYY[u16Chn][u16Iter] - (_s32PreYY[
 1843              		.loc 1 265 9 is_stmt 1 view .LVU485
 1844              	.LVL128:
 266:../../peripheral_library/api/apiVP.c **** 
 1845              		.loc 1 266 9 view .LVU486
 1846              	@ ../../peripheral_library/api/apiVP.c:266:         s32CurYY = s32CurXX - _s32PreXX[u16Chn][u16Iter
 266:../../peripheral_library/api/apiVP.c **** 
ARM GAS  /tmp/cc3Huoko.s 			page 44


 1847              		.loc 1 266 29 is_stmt 0 view .LVU487
 1848 0332 219F     		ldr	r7, [sp, #132]	@ _s32PreXX_I_I_lsm.156, %sfp
 1849              	@ ../../peripheral_library/api/apiVP.c:266:         s32CurYY = s32CurXX - _s32PreXX[u16Chn][u16Iter
 266:../../peripheral_library/api/apiVP.c **** 
 1850              		.loc 1 266 58 view .LVU488
 1851 0334 2299     		ldr	r1, [sp, #136]	@ _s32PreYY_I_I_lsm.158, %sfp
 1852              	@ ../../peripheral_library/api/apiVP.c:266:         s32CurYY = s32CurXX - _s32PreXX[u16Chn][u16Iter
 266:../../peripheral_library/api/apiVP.c **** 
 1853              		.loc 1 266 29 view .LVU489
 1854 0336 A4EB070A 		sub	r10, r4, r7	@ tmp398, _s32PreYY_I_I_lsm.154, _s32PreXX_I_I_lsm.156
 1855              	@ ../../peripheral_library/api/apiVP.c:266:         s32CurYY = s32CurXX - _s32PreXX[u16Chn][u16Iter
 266:../../peripheral_library/api/apiVP.c **** 
 1856              		.loc 1 266 58 view .LVU490
 1857 033a 8A44     		add	r10, r10, r1	@ _279, _s32PreYY_I_I_lsm.158
 1858              	@ ../../peripheral_library/api/apiVP.c:266:         s32CurYY = s32CurXX - _s32PreXX[u16Chn][u16Iter
 266:../../peripheral_library/api/apiVP.c **** 
 1859              		.loc 1 266 18 view .LVU491
 1860 033c 0124     		movs	r4, #1	@ _s32PreYY_I_I_lsm.159,
 1861              	.LVL129:
 1862              	@ ../../peripheral_library/api/apiVP.c:266:         s32CurYY = s32CurXX - _s32PreXX[u16Chn][u16Iter
 266:../../peripheral_library/api/apiVP.c **** 
 1863              		.loc 1 266 116 view .LVU492
 1864 033e 41FA06FB 		asr	fp, r1, r6	@ tmp399, _s32PreYY_I_I_lsm.158, _105
 1865              	@ ../../peripheral_library/api/apiVP.c:266:         s32CurYY = s32CurXX - _s32PreXX[u16Chn][u16Iter
 266:../../peripheral_library/api/apiVP.c **** 
 1866              		.loc 1 266 18 view .LVU493
 1867 0342 AAEB0B01 		sub	r1, r10, fp	@ _s32PreYY_I_I_lsm.158, _279, tmp399
 1868 0346 3D94     		str	r4, [sp, #244]	@ _s32PreYY_I_I_lsm.159, %sfp
 1869 0348 3C94     		str	r4, [sp, #240]	@ _s32PreYY_I_I_lsm.159, %sfp
 1870              	@ ../../peripheral_library/api/apiVP.c:268:         _s32PreXX[u16Chn][u16Iter] = s32CurXX;
 268:../../peripheral_library/api/apiVP.c ****         _s32PreYY[u16Chn][u16Iter] = s32CurYY;
 1871              		.loc 1 268 36 view .LVU494
 1872 034a 069C     		ldr	r4, [sp, #24]	@ _s32PreYY_I_I_lsm.154, %sfp
 1873              	@ ../../peripheral_library/api/apiVP.c:266:         s32CurYY = s32CurXX - _s32PreXX[u16Chn][u16Iter
 266:../../peripheral_library/api/apiVP.c **** 
 1874              		.loc 1 266 18 view .LVU495
 1875 034c 2291     		str	r1, [sp, #136]	@ _s32PreYY_I_I_lsm.158, %sfp
 1876              	.LVL130:
 268:../../peripheral_library/api/apiVP.c ****         _s32PreYY[u16Chn][u16Iter] = s32CurYY;
 1877              		.loc 1 268 9 is_stmt 1 view .LVU496
 269:../../peripheral_library/api/apiVP.c ****       }
 1878              		.loc 1 269 9 view .LVU497
 1879              	@ ../../peripheral_library/api/apiVP.c:269:         _s32PreYY[u16Chn][u16Iter] = s32CurYY;
 269:../../peripheral_library/api/apiVP.c ****       }
 1880              		.loc 1 269 36 is_stmt 0 view .LVU498
 1881 034e 8A46     		mov	r10, r1	@ s32CurYY, _s32PreYY_I_I_lsm.158
 1882              	@ ../../peripheral_library/api/apiVP.c:268:         _s32PreXX[u16Chn][u16Iter] = s32CurXX;
 268:../../peripheral_library/api/apiVP.c ****         _s32PreYY[u16Chn][u16Iter] = s32CurYY;
 1883              		.loc 1 268 36 view .LVU499
 1884 0350 2194     		str	r4, [sp, #132]	@ _s32PreYY_I_I_lsm.154, %sfp
 1885              	.LVL131:
 1886              	.L118:
 272:../../peripheral_library/api/apiVP.c **** 
 1887              		.loc 1 272 7 is_stmt 1 view .LVU500
 1888              	@ ../../peripheral_library/api/apiVP.c:272:       s32CurYY = s32CurYY>>14;
 272:../../peripheral_library/api/apiVP.c **** 
 1889              		.loc 1 272 16 is_stmt 0 view .LVU501
ARM GAS  /tmp/cc3Huoko.s 			page 45


 1890 0352 4FEAAA3A 		asr	r10, r10, #14	@ s32CurYY, s32CurYY,
 1891              	.LVL132:
 274:../../peripheral_library/api/apiVP.c ****         s16CurY = MAX_S16;
 1892              		.loc 1 274 7 is_stmt 1 view .LVU502
 1893              	@ ../../peripheral_library/api/apiVP.c:274:       if(s32CurYY>MAX_S16)
 274:../../peripheral_library/api/apiVP.c ****         s16CurY = MAX_S16;
 1894              		.loc 1 274 9 is_stmt 0 view .LVU503
 1895 0356 0121     		movs	r1, #1	@ _s32PreYY_I_I_lsm.155,
 1896              	@ ../../peripheral_library/api/apiVP.c:268:         _s32PreXX[u16Chn][u16Iter] = s32CurXX;
 268:../../peripheral_library/api/apiVP.c ****         _s32PreYY[u16Chn][u16Iter] = s32CurYY;
 1897              		.loc 1 268 36 view .LVU504
 1898 0358 019C     		ldr	r4, [sp, #4]	@ s32CurYY, %sfp
 1899              	@ ../../peripheral_library/api/apiVP.c:274:       if(s32CurYY>MAX_S16)
 274:../../peripheral_library/api/apiVP.c ****         s16CurY = MAX_S16;
 1900              		.loc 1 274 9 view .LVU505
 1901 035a 2991     		str	r1, [sp, #164]	@ _s32PreYY_I_I_lsm.155, %sfp
 1902 035c BAF5004F 		cmp	r10, #32768	@ s32CurYY,
 1903              	@ ../../peripheral_library/api/apiVP.c:268:         _s32PreXX[u16Chn][u16Iter] = s32CurXX;
 268:../../peripheral_library/api/apiVP.c ****         _s32PreYY[u16Chn][u16Iter] = s32CurYY;
 1904              		.loc 1 268 36 view .LVU506
 1905 0360 0F94     		str	r4, [sp, #60]	@ s32CurYY, %sfp
 1906              	@ ../../peripheral_library/api/apiVP.c:274:       if(s32CurYY>MAX_S16)
 274:../../peripheral_library/api/apiVP.c ****         s16CurY = MAX_S16;
 1907              		.loc 1 274 9 view .LVU507
 1908 0362 2891     		str	r1, [sp, #160]	@ _s32PreYY_I_I_lsm.155, %sfp
 1909 0364 C0F28481 		blt	.L324		@,
 1910              	@ ../../peripheral_library/api/apiVP.c:275:         s16CurY = MAX_S16;
 275:../../peripheral_library/api/apiVP.c ****       else if(s32CurYY<MIN_S16)
 1911              		.loc 1 275 17 view .LVU508
 1912 0368 47F6FF7A 		movw	r10, #32767	@ s16CurY,
 1913              	.LVL133:
 1914              	.L117:
 281:../../peripheral_library/api/apiVP.c **** 
 1915              		.loc 1 281 7 is_stmt 1 view .LVU509
 1916              	@ ../../peripheral_library/api/apiVP.c:257:     for(u16Chn=0;u16Chn<_u16Channel;u16Chn++){
 257:../../peripheral_library/api/apiVP.c **** 
 1917              		.loc 1 257 5 is_stmt 0 view .LVU510
 1918 036c 052A     		cmp	r2, #5	@ _113,
 1919              	@ ../../peripheral_library/api/apiVP.c:281:       *(S16*)(ps8Buffer+(u16Num*_u16Channel+u16Chn)*u16
 281:../../peripheral_library/api/apiVP.c **** 
 1920              		.loc 1 281 63 view .LVU511
 1921 036e A0F808A0 		strh	r10, [r0, #8]	@ movhi	@ s16CurY, MEM[base: _291, offset: 8B]
 1922              	.LVL134:
 1923              	@ ../../peripheral_library/api/apiVP.c:257:     for(u16Chn=0;u16Chn<_u16Channel;u16Chn++){
 257:../../peripheral_library/api/apiVP.c **** 
 1924              		.loc 1 257 5 view .LVU512
 1925 0372 3FF4F1AE 		beq	.L103		@,
 259:../../peripheral_library/api/apiVP.c ****         continue;
 1926              		.loc 1 259 7 is_stmt 1 view .LVU513
 262:../../peripheral_library/api/apiVP.c ****       s32CurYY = (S32)s16CurX<<14; //Q3.29
 1927              		.loc 1 262 7 view .LVU514
 1928              	.LVL135:
 263:../../peripheral_library/api/apiVP.c ****       for(u16Iter=0;u16Iter<_u16Stage;u16Iter++){
 1929              		.loc 1 263 7 view .LVU515
 1930              	@ ../../peripheral_library/api/apiVP.c:263:       s32CurYY = (S32)s16CurX<<14; //Q3.29
 263:../../peripheral_library/api/apiVP.c ****       for(u16Iter=0;u16Iter<_u16Stage;u16Iter++){
 1931              		.loc 1 263 18 is_stmt 0 view .LVU516
ARM GAS  /tmp/cc3Huoko.s 			page 46


 1932 0376 B0F90A10 		ldrsh	r1, [r0, #10]	@ MEM[base: _291, offset: 10B], MEM[base: _291, offset: 10B]
 1933              	@ ../../peripheral_library/api/apiVP.c:263:       s32CurYY = (S32)s16CurX<<14; //Q3.29
 263:../../peripheral_library/api/apiVP.c ****       for(u16Iter=0;u16Iter<_u16Stage;u16Iter++){
 1934              		.loc 1 263 16 view .LVU517
 1935 037a 8903     		lsls	r1, r1, #14	@ s32CurYY, MEM[base: _291, offset: 10B],
 1936 037c 0191     		str	r1, [sp, #4]	@ s32CurYY, %sfp
 1937              	.LVL136:
 264:../../peripheral_library/api/apiVP.c ****         s32CurXX = s32CurYY;
 1938              		.loc 1 264 7 is_stmt 1 view .LVU518
 264:../../peripheral_library/api/apiVP.c ****         s32CurXX = s32CurYY;
 1939              		.loc 1 264 7 is_stmt 0 view .LVU519
 1940 037e 002B     		cmp	r3, #0	@ _u16Stage.11_8
 1941 0380 00F08381 		beq	.L325	@
 1942 0384 0C46     		mov	r4, r1	@ s32CurYY, s32CurYY
 265:../../peripheral_library/api/apiVP.c ****         s32CurYY = s32CurXX - _s32PreXX[u16Chn][u16Iter] + _s32PreYY[u16Chn][u16Iter] - (_s32PreYY[
 1943              		.loc 1 265 9 is_stmt 1 view .LVU520
 1944              	.LVL137:
 266:../../peripheral_library/api/apiVP.c **** 
 1945              		.loc 1 266 9 view .LVU521
 1946              	@ ../../peripheral_library/api/apiVP.c:266:         s32CurYY = s32CurXX - _s32PreXX[u16Chn][u16Iter
 266:../../peripheral_library/api/apiVP.c **** 
 1947              		.loc 1 266 29 is_stmt 0 view .LVU522
 1948 0386 1099     		ldr	r1, [sp, #64]	@ _s32PreXX_I_I_lsm.160, %sfp
 1949              	.LVL138:
 266:../../peripheral_library/api/apiVP.c **** 
 1950              		.loc 1 266 29 view .LVU523
 1951 0388 A4EB010A 		sub	r10, r4, r1	@ tmp403, s32CurYY, _s32PreXX_I_I_lsm.160
 1952              	.LVL139:
 1953              	@ ../../peripheral_library/api/apiVP.c:266:         s32CurYY = s32CurXX - _s32PreXX[u16Chn][u16Iter
 266:../../peripheral_library/api/apiVP.c **** 
 1954              		.loc 1 266 58 view .LVU524
 1955 038c 0899     		ldr	r1, [sp, #32]	@ _s32PreYY_I_I_lsm.162, %sfp
 1956 038e 8A44     		add	r10, r10, r1	@ _310, _s32PreYY_I_I_lsm.162
 1957              	@ ../../peripheral_library/api/apiVP.c:266:         s32CurYY = s32CurXX - _s32PreXX[u16Chn][u16Iter
 266:../../peripheral_library/api/apiVP.c **** 
 1958              		.loc 1 266 116 view .LVU525
 1959 0390 41FA06FB 		asr	fp, r1, r6	@ tmp404, _s32PreYY_I_I_lsm.162, _105
 1960              	@ ../../peripheral_library/api/apiVP.c:266:         s32CurYY = s32CurXX - _s32PreXX[u16Chn][u16Iter
 266:../../peripheral_library/api/apiVP.c **** 
 1961              		.loc 1 266 18 view .LVU526
 1962 0394 AAEB0B04 		sub	r4, r10, fp	@ _s32PreYY_I_I_lsm.162, _310, tmp404
 1963              	.LVL140:
 1964              	@ ../../peripheral_library/api/apiVP.c:264:       for(u16Iter=0;u16Iter<_u16Stage;u16Iter++){
 264:../../peripheral_library/api/apiVP.c ****         s32CurXX = s32CurYY;
 1965              		.loc 1 264 7 view .LVU527
 1966 0398 022B     		cmp	r3, #2	@ _u16Stage.11_8,
 1967              	@ ../../peripheral_library/api/apiVP.c:266:         s32CurYY = s32CurXX - _s32PreXX[u16Chn][u16Iter
 266:../../peripheral_library/api/apiVP.c **** 
 1968              		.loc 1 266 18 view .LVU528
 1969 039a 0894     		str	r4, [sp, #32]	@ _s32PreYY_I_I_lsm.162, %sfp
 1970              	.LVL141:
 268:../../peripheral_library/api/apiVP.c ****         _s32PreYY[u16Chn][u16Iter] = s32CurYY;
 1971              		.loc 1 268 9 is_stmt 1 view .LVU529
 269:../../peripheral_library/api/apiVP.c ****       }
 1972              		.loc 1 269 9 view .LVU530
 1973              	@ ../../peripheral_library/api/apiVP.c:264:       for(u16Iter=0;u16Iter<_u16Stage;u16Iter++){
 264:../../peripheral_library/api/apiVP.c ****         s32CurXX = s32CurYY;
ARM GAS  /tmp/cc3Huoko.s 			page 47


 1974              		.loc 1 264 7 is_stmt 0 view .LVU531
 1975 039c 40F08D81 		bne	.L183		@,
 265:../../peripheral_library/api/apiVP.c ****         s32CurYY = s32CurXX - _s32PreXX[u16Chn][u16Iter] + _s32PreYY[u16Chn][u16Iter] - (_s32PreYY[
 1976              		.loc 1 265 9 is_stmt 1 view .LVU532
 1977              	.LVL142:
 266:../../peripheral_library/api/apiVP.c **** 
 1978              		.loc 1 266 9 view .LVU533
 1979              	@ ../../peripheral_library/api/apiVP.c:266:         s32CurYY = s32CurXX - _s32PreXX[u16Chn][u16Iter
 266:../../peripheral_library/api/apiVP.c **** 
 1980              		.loc 1 266 29 is_stmt 0 view .LVU534
 1981 03a0 269F     		ldr	r7, [sp, #152]	@ _s32PreXX_I_I_lsm.164, %sfp
 1982              	@ ../../peripheral_library/api/apiVP.c:266:         s32CurYY = s32CurXX - _s32PreXX[u16Chn][u16Iter
 266:../../peripheral_library/api/apiVP.c **** 
 1983              		.loc 1 266 58 view .LVU535
 1984 03a2 2799     		ldr	r1, [sp, #156]	@ _s32PreYY_I_I_lsm.166, %sfp
 1985              	@ ../../peripheral_library/api/apiVP.c:266:         s32CurYY = s32CurXX - _s32PreXX[u16Chn][u16Iter
 266:../../peripheral_library/api/apiVP.c **** 
 1986              		.loc 1 266 29 view .LVU536
 1987 03a4 A4EB070A 		sub	r10, r4, r7	@ tmp405, _s32PreYY_I_I_lsm.162, _s32PreXX_I_I_lsm.164
 1988              	@ ../../peripheral_library/api/apiVP.c:266:         s32CurYY = s32CurXX - _s32PreXX[u16Chn][u16Iter
 266:../../peripheral_library/api/apiVP.c **** 
 1989              		.loc 1 266 58 view .LVU537
 1990 03a8 8A44     		add	r10, r10, r1	@ _320, _s32PreYY_I_I_lsm.166
 1991              	@ ../../peripheral_library/api/apiVP.c:266:         s32CurYY = s32CurXX - _s32PreXX[u16Chn][u16Iter
 266:../../peripheral_library/api/apiVP.c **** 
 1992              		.loc 1 266 18 view .LVU538
 1993 03aa 0124     		movs	r4, #1	@ _s32PreYY_I_I_lsm.167,
 1994              	.LVL143:
 1995              	@ ../../peripheral_library/api/apiVP.c:266:         s32CurYY = s32CurXX - _s32PreXX[u16Chn][u16Iter
 266:../../peripheral_library/api/apiVP.c **** 
 1996              		.loc 1 266 116 view .LVU539
 1997 03ac 41FA06FB 		asr	fp, r1, r6	@ tmp406, _s32PreYY_I_I_lsm.166, _105
 1998              	@ ../../peripheral_library/api/apiVP.c:266:         s32CurYY = s32CurXX - _s32PreXX[u16Chn][u16Iter
 266:../../peripheral_library/api/apiVP.c **** 
 1999              		.loc 1 266 18 view .LVU540
 2000 03b0 AAEB0B01 		sub	r1, r10, fp	@ _s32PreYY_I_I_lsm.166, _320, tmp406
 2001 03b4 3F94     		str	r4, [sp, #252]	@ _s32PreYY_I_I_lsm.167, %sfp
 2002 03b6 3E94     		str	r4, [sp, #248]	@ _s32PreYY_I_I_lsm.167, %sfp
 2003              	@ ../../peripheral_library/api/apiVP.c:268:         _s32PreXX[u16Chn][u16Iter] = s32CurXX;
 268:../../peripheral_library/api/apiVP.c ****         _s32PreYY[u16Chn][u16Iter] = s32CurYY;
 2004              		.loc 1 268 36 view .LVU541
 2005 03b8 089C     		ldr	r4, [sp, #32]	@ _s32PreYY_I_I_lsm.162, %sfp
 2006              	@ ../../peripheral_library/api/apiVP.c:266:         s32CurYY = s32CurXX - _s32PreXX[u16Chn][u16Iter
 266:../../peripheral_library/api/apiVP.c **** 
 2007              		.loc 1 266 18 view .LVU542
 2008 03ba 2791     		str	r1, [sp, #156]	@ _s32PreYY_I_I_lsm.166, %sfp
 2009              	.LVL144:
 268:../../peripheral_library/api/apiVP.c ****         _s32PreYY[u16Chn][u16Iter] = s32CurYY;
 2010              		.loc 1 268 9 is_stmt 1 view .LVU543
 269:../../peripheral_library/api/apiVP.c ****       }
 2011              		.loc 1 269 9 view .LVU544
 2012              	@ ../../peripheral_library/api/apiVP.c:269:         _s32PreYY[u16Chn][u16Iter] = s32CurYY;
 269:../../peripheral_library/api/apiVP.c ****       }
 2013              		.loc 1 269 36 is_stmt 0 view .LVU545
 2014 03bc 8A46     		mov	r10, r1	@ s32CurYY, _s32PreYY_I_I_lsm.166
 2015              	@ ../../peripheral_library/api/apiVP.c:268:         _s32PreXX[u16Chn][u16Iter] = s32CurXX;
 268:../../peripheral_library/api/apiVP.c ****         _s32PreYY[u16Chn][u16Iter] = s32CurYY;
ARM GAS  /tmp/cc3Huoko.s 			page 48


 2016              		.loc 1 268 36 view .LVU546
 2017 03be 2694     		str	r4, [sp, #152]	@ _s32PreYY_I_I_lsm.162, %sfp
 2018              	.LVL145:
 2019              	.L122:
 272:../../peripheral_library/api/apiVP.c **** 
 2020              		.loc 1 272 7 is_stmt 1 view .LVU547
 2021              	@ ../../peripheral_library/api/apiVP.c:272:       s32CurYY = s32CurYY>>14;
 272:../../peripheral_library/api/apiVP.c **** 
 2022              		.loc 1 272 16 is_stmt 0 view .LVU548
 2023 03c0 4FEAAA3A 		asr	r10, r10, #14	@ s32CurYY, s32CurYY,
 2024              	.LVL146:
 274:../../peripheral_library/api/apiVP.c ****         s16CurY = MAX_S16;
 2025              		.loc 1 274 7 is_stmt 1 view .LVU549
 2026              	@ ../../peripheral_library/api/apiVP.c:274:       if(s32CurYY>MAX_S16)
 274:../../peripheral_library/api/apiVP.c ****         s16CurY = MAX_S16;
 2027              		.loc 1 274 9 is_stmt 0 view .LVU550
 2028 03c4 0121     		movs	r1, #1	@ _s32PreYY_I_I_lsm.163,
 2029              	@ ../../peripheral_library/api/apiVP.c:268:         _s32PreXX[u16Chn][u16Iter] = s32CurXX;
 268:../../peripheral_library/api/apiVP.c ****         _s32PreYY[u16Chn][u16Iter] = s32CurYY;
 2030              		.loc 1 268 36 view .LVU551
 2031 03c6 019C     		ldr	r4, [sp, #4]	@ s32CurYY, %sfp
 2032              	@ ../../peripheral_library/api/apiVP.c:274:       if(s32CurYY>MAX_S16)
 274:../../peripheral_library/api/apiVP.c ****         s16CurY = MAX_S16;
 2033              		.loc 1 274 9 view .LVU552
 2034 03c8 2D91     		str	r1, [sp, #180]	@ _s32PreYY_I_I_lsm.163, %sfp
 2035 03ca BAF5004F 		cmp	r10, #32768	@ s32CurYY,
 2036              	@ ../../peripheral_library/api/apiVP.c:268:         _s32PreXX[u16Chn][u16Iter] = s32CurXX;
 268:../../peripheral_library/api/apiVP.c ****         _s32PreYY[u16Chn][u16Iter] = s32CurYY;
 2037              		.loc 1 268 36 view .LVU553
 2038 03ce 1094     		str	r4, [sp, #64]	@ s32CurYY, %sfp
 2039              	@ ../../peripheral_library/api/apiVP.c:274:       if(s32CurYY>MAX_S16)
 274:../../peripheral_library/api/apiVP.c ****         s16CurY = MAX_S16;
 2040              		.loc 1 274 9 view .LVU554
 2041 03d0 2C91     		str	r1, [sp, #176]	@ _s32PreYY_I_I_lsm.163, %sfp
 2042 03d2 C0F26181 		blt	.L326		@,
 2043              	@ ../../peripheral_library/api/apiVP.c:275:         s16CurY = MAX_S16;
 275:../../peripheral_library/api/apiVP.c ****       else if(s32CurYY<MIN_S16)
 2044              		.loc 1 275 17 view .LVU555
 2045 03d6 47F6FF7A 		movw	r10, #32767	@ s16CurY,
 2046              	.LVL147:
 2047              	.L121:
 281:../../peripheral_library/api/apiVP.c **** 
 2048              		.loc 1 281 7 is_stmt 1 view .LVU556
 2049              	@ ../../peripheral_library/api/apiVP.c:257:     for(u16Chn=0;u16Chn<_u16Channel;u16Chn++){
 257:../../peripheral_library/api/apiVP.c **** 
 2050              		.loc 1 257 5 is_stmt 0 view .LVU557
 2051 03da 062A     		cmp	r2, #6	@ _113,
 2052              	@ ../../peripheral_library/api/apiVP.c:281:       *(S16*)(ps8Buffer+(u16Num*_u16Channel+u16Chn)*u16
 281:../../peripheral_library/api/apiVP.c **** 
 2053              		.loc 1 281 63 view .LVU558
 2054 03dc A0F80AA0 		strh	r10, [r0, #10]	@ movhi	@ s16CurY, MEM[base: _291, offset: 10B]
 2055              	.LVL148:
 2056              	@ ../../peripheral_library/api/apiVP.c:257:     for(u16Chn=0;u16Chn<_u16Channel;u16Chn++){
 257:../../peripheral_library/api/apiVP.c **** 
 2057              		.loc 1 257 5 view .LVU559
 2058 03e0 3FF4BAAE 		beq	.L103		@,
 259:../../peripheral_library/api/apiVP.c ****         continue;
ARM GAS  /tmp/cc3Huoko.s 			page 49


 2059              		.loc 1 259 7 is_stmt 1 view .LVU560
 262:../../peripheral_library/api/apiVP.c ****       s32CurYY = (S32)s16CurX<<14; //Q3.29
 2060              		.loc 1 262 7 view .LVU561
 2061              	.LVL149:
 263:../../peripheral_library/api/apiVP.c ****       for(u16Iter=0;u16Iter<_u16Stage;u16Iter++){
 2062              		.loc 1 263 7 view .LVU562
 2063              	@ ../../peripheral_library/api/apiVP.c:263:       s32CurYY = (S32)s16CurX<<14; //Q3.29
 263:../../peripheral_library/api/apiVP.c ****       for(u16Iter=0;u16Iter<_u16Stage;u16Iter++){
 2064              		.loc 1 263 18 is_stmt 0 view .LVU563
 2065 03e4 B0F90C10 		ldrsh	r1, [r0, #12]	@ MEM[base: _291, offset: 12B], MEM[base: _291, offset: 12B]
 2066              	@ ../../peripheral_library/api/apiVP.c:263:       s32CurYY = (S32)s16CurX<<14; //Q3.29
 263:../../peripheral_library/api/apiVP.c ****       for(u16Iter=0;u16Iter<_u16Stage;u16Iter++){
 2067              		.loc 1 263 16 view .LVU564
 2068 03e8 8903     		lsls	r1, r1, #14	@ s32CurYY, MEM[base: _291, offset: 12B],
 2069 03ea 0191     		str	r1, [sp, #4]	@ s32CurYY, %sfp
 2070              	.LVL150:
 264:../../peripheral_library/api/apiVP.c ****         s32CurXX = s32CurYY;
 2071              		.loc 1 264 7 is_stmt 1 view .LVU565
 264:../../peripheral_library/api/apiVP.c ****         s32CurXX = s32CurYY;
 2072              		.loc 1 264 7 is_stmt 0 view .LVU566
 2073 03ec 002B     		cmp	r3, #0	@ _u16Stage.11_8
 2074 03ee 00F05981 		beq	.L327	@
 2075 03f2 0C46     		mov	r4, r1	@ s32CurYY, s32CurYY
 265:../../peripheral_library/api/apiVP.c ****         s32CurYY = s32CurXX - _s32PreXX[u16Chn][u16Iter] + _s32PreYY[u16Chn][u16Iter] - (_s32PreYY[
 2076              		.loc 1 265 9 is_stmt 1 view .LVU567
 2077              	.LVL151:
 266:../../peripheral_library/api/apiVP.c **** 
 2078              		.loc 1 266 9 view .LVU568
 2079              	@ ../../peripheral_library/api/apiVP.c:266:         s32CurYY = s32CurXX - _s32PreXX[u16Chn][u16Iter
 266:../../peripheral_library/api/apiVP.c **** 
 2080              		.loc 1 266 29 is_stmt 0 view .LVU569
 2081 03f4 1799     		ldr	r1, [sp, #92]	@ _s32PreXX_I_I_lsm.168, %sfp
 2082              	.LVL152:
 266:../../peripheral_library/api/apiVP.c **** 
 2083              		.loc 1 266 29 view .LVU570
 2084 03f6 A4EB010A 		sub	r10, r4, r1	@ tmp410, s32CurYY, _s32PreXX_I_I_lsm.168
 2085              	.LVL153:
 2086              	@ ../../peripheral_library/api/apiVP.c:266:         s32CurYY = s32CurXX - _s32PreXX[u16Chn][u16Iter
 266:../../peripheral_library/api/apiVP.c **** 
 2087              		.loc 1 266 58 view .LVU571
 2088 03fa 0A99     		ldr	r1, [sp, #40]	@ _s32PreYY_I_I_lsm.170, %sfp
 2089 03fc 8A44     		add	r10, r10, r1	@ _351, _s32PreYY_I_I_lsm.170
 2090              	@ ../../peripheral_library/api/apiVP.c:266:         s32CurYY = s32CurXX - _s32PreXX[u16Chn][u16Iter
 266:../../peripheral_library/api/apiVP.c **** 
 2091              		.loc 1 266 116 view .LVU572
 2092 03fe 41FA06FB 		asr	fp, r1, r6	@ tmp411, _s32PreYY_I_I_lsm.170, _105
 2093              	@ ../../peripheral_library/api/apiVP.c:266:         s32CurYY = s32CurXX - _s32PreXX[u16Chn][u16Iter
 266:../../peripheral_library/api/apiVP.c **** 
 2094              		.loc 1 266 18 view .LVU573
 2095 0402 AAEB0B04 		sub	r4, r10, fp	@ _s32PreYY_I_I_lsm.170, _351, tmp411
 2096              	.LVL154:
 2097              	@ ../../peripheral_library/api/apiVP.c:264:       for(u16Iter=0;u16Iter<_u16Stage;u16Iter++){
 264:../../peripheral_library/api/apiVP.c ****         s32CurXX = s32CurYY;
 2098              		.loc 1 264 7 view .LVU574
 2099 0406 022B     		cmp	r3, #2	@ _u16Stage.11_8,
 2100              	@ ../../peripheral_library/api/apiVP.c:266:         s32CurYY = s32CurXX - _s32PreXX[u16Chn][u16Iter
 266:../../peripheral_library/api/apiVP.c **** 
ARM GAS  /tmp/cc3Huoko.s 			page 50


 2101              		.loc 1 266 18 view .LVU575
 2102 0408 0A94     		str	r4, [sp, #40]	@ _s32PreYY_I_I_lsm.170, %sfp
 2103              	.LVL155:
 268:../../peripheral_library/api/apiVP.c ****         _s32PreYY[u16Chn][u16Iter] = s32CurYY;
 2104              		.loc 1 268 9 is_stmt 1 view .LVU576
 269:../../peripheral_library/api/apiVP.c ****       }
 2105              		.loc 1 269 9 view .LVU577
 2106              	@ ../../peripheral_library/api/apiVP.c:264:       for(u16Iter=0;u16Iter<_u16Stage;u16Iter++){
 264:../../peripheral_library/api/apiVP.c ****         s32CurXX = s32CurYY;
 2107              		.loc 1 264 7 is_stmt 0 view .LVU578
 2108 040a 40F06381 		bne	.L186		@,
 265:../../peripheral_library/api/apiVP.c ****         s32CurYY = s32CurXX - _s32PreXX[u16Chn][u16Iter] + _s32PreYY[u16Chn][u16Iter] - (_s32PreYY[
 2109              		.loc 1 265 9 is_stmt 1 view .LVU579
 2110              	.LVL156:
 266:../../peripheral_library/api/apiVP.c **** 
 2111              		.loc 1 266 9 view .LVU580
 2112              	@ ../../peripheral_library/api/apiVP.c:266:         s32CurYY = s32CurXX - _s32PreXX[u16Chn][u16Iter
 266:../../peripheral_library/api/apiVP.c **** 
 2113              		.loc 1 266 29 is_stmt 0 view .LVU581
 2114 040e 2E9F     		ldr	r7, [sp, #184]	@ _s32PreXX_I_I_lsm.172, %sfp
 2115              	@ ../../peripheral_library/api/apiVP.c:266:         s32CurYY = s32CurXX - _s32PreXX[u16Chn][u16Iter
 266:../../peripheral_library/api/apiVP.c **** 
 2116              		.loc 1 266 58 view .LVU582
 2117 0410 2F99     		ldr	r1, [sp, #188]	@ _s32PreYY_I_I_lsm.174, %sfp
 2118              	@ ../../peripheral_library/api/apiVP.c:266:         s32CurYY = s32CurXX - _s32PreXX[u16Chn][u16Iter
 266:../../peripheral_library/api/apiVP.c **** 
 2119              		.loc 1 266 29 view .LVU583
 2120 0412 A4EB070A 		sub	r10, r4, r7	@ tmp412, _s32PreYY_I_I_lsm.170, _s32PreXX_I_I_lsm.172
 2121              	@ ../../peripheral_library/api/apiVP.c:266:         s32CurYY = s32CurXX - _s32PreXX[u16Chn][u16Iter
 266:../../peripheral_library/api/apiVP.c **** 
 2122              		.loc 1 266 58 view .LVU584
 2123 0416 8A44     		add	r10, r10, r1	@ _361, _s32PreYY_I_I_lsm.174
 2124              	@ ../../peripheral_library/api/apiVP.c:266:         s32CurYY = s32CurXX - _s32PreXX[u16Chn][u16Iter
 266:../../peripheral_library/api/apiVP.c **** 
 2125              		.loc 1 266 18 view .LVU585
 2126 0418 0124     		movs	r4, #1	@ _s32PreYY_I_I_lsm.175,
 2127              	.LVL157:
 2128              	@ ../../peripheral_library/api/apiVP.c:266:         s32CurYY = s32CurXX - _s32PreXX[u16Chn][u16Iter
 266:../../peripheral_library/api/apiVP.c **** 
 2129              		.loc 1 266 116 view .LVU586
 2130 041a 41FA06FB 		asr	fp, r1, r6	@ tmp413, _s32PreYY_I_I_lsm.174, _105
 2131              	@ ../../peripheral_library/api/apiVP.c:266:         s32CurYY = s32CurXX - _s32PreXX[u16Chn][u16Iter
 266:../../peripheral_library/api/apiVP.c **** 
 2132              		.loc 1 266 18 view .LVU587
 2133 041e AAEB0B01 		sub	r1, r10, fp	@ _s32PreYY_I_I_lsm.174, _361, tmp413
 2134 0422 3094     		str	r4, [sp, #192]	@ _s32PreYY_I_I_lsm.175, %sfp
 2135 0424 4194     		str	r4, [sp, #260]	@ _s32PreYY_I_I_lsm.175, %sfp
 2136              	@ ../../peripheral_library/api/apiVP.c:268:         _s32PreXX[u16Chn][u16Iter] = s32CurXX;
 268:../../peripheral_library/api/apiVP.c ****         _s32PreYY[u16Chn][u16Iter] = s32CurYY;
 2137              		.loc 1 268 36 view .LVU588
 2138 0426 0A9C     		ldr	r4, [sp, #40]	@ _s32PreYY_I_I_lsm.170, %sfp
 2139              	@ ../../peripheral_library/api/apiVP.c:266:         s32CurYY = s32CurXX - _s32PreXX[u16Chn][u16Iter
 266:../../peripheral_library/api/apiVP.c **** 
 2140              		.loc 1 266 18 view .LVU589
 2141 0428 2F91     		str	r1, [sp, #188]	@ _s32PreYY_I_I_lsm.174, %sfp
 2142              	.LVL158:
 268:../../peripheral_library/api/apiVP.c ****         _s32PreYY[u16Chn][u16Iter] = s32CurYY;
ARM GAS  /tmp/cc3Huoko.s 			page 51


 2143              		.loc 1 268 9 is_stmt 1 view .LVU590
 269:../../peripheral_library/api/apiVP.c ****       }
 2144              		.loc 1 269 9 view .LVU591
 2145              	@ ../../peripheral_library/api/apiVP.c:269:         _s32PreYY[u16Chn][u16Iter] = s32CurYY;
 269:../../peripheral_library/api/apiVP.c ****       }
 2146              		.loc 1 269 36 is_stmt 0 view .LVU592
 2147 042a 8A46     		mov	r10, r1	@ s32CurYY, _s32PreYY_I_I_lsm.174
 2148              	@ ../../peripheral_library/api/apiVP.c:268:         _s32PreXX[u16Chn][u16Iter] = s32CurXX;
 268:../../peripheral_library/api/apiVP.c ****         _s32PreYY[u16Chn][u16Iter] = s32CurYY;
 2149              		.loc 1 268 36 view .LVU593
 2150 042c 2E94     		str	r4, [sp, #184]	@ _s32PreYY_I_I_lsm.170, %sfp
 2151              	.LVL159:
 2152              	.L126:
 272:../../peripheral_library/api/apiVP.c **** 
 2153              		.loc 1 272 7 is_stmt 1 view .LVU594
 2154              	@ ../../peripheral_library/api/apiVP.c:272:       s32CurYY = s32CurYY>>14;
 272:../../peripheral_library/api/apiVP.c **** 
 2155              		.loc 1 272 16 is_stmt 0 view .LVU595
 2156 042e 4FEAAA3A 		asr	r10, r10, #14	@ s32CurYY, s32CurYY,
 2157              	.LVL160:
 274:../../peripheral_library/api/apiVP.c ****         s16CurY = MAX_S16;
 2158              		.loc 1 274 7 is_stmt 1 view .LVU596
 2159              	@ ../../peripheral_library/api/apiVP.c:274:       if(s32CurYY>MAX_S16)
 274:../../peripheral_library/api/apiVP.c ****         s16CurY = MAX_S16;
 2160              		.loc 1 274 9 is_stmt 0 view .LVU597
 2161 0432 0121     		movs	r1, #1	@ _s32PreYY_I_I_lsm.171,
 2162              	@ ../../peripheral_library/api/apiVP.c:268:         _s32PreXX[u16Chn][u16Iter] = s32CurXX;
 268:../../peripheral_library/api/apiVP.c ****         _s32PreYY[u16Chn][u16Iter] = s32CurYY;
 2163              		.loc 1 268 36 view .LVU598
 2164 0434 019C     		ldr	r4, [sp, #4]	@ s32CurYY, %sfp
 2165              	@ ../../peripheral_library/api/apiVP.c:274:       if(s32CurYY>MAX_S16)
 274:../../peripheral_library/api/apiVP.c ****         s16CurY = MAX_S16;
 2166              		.loc 1 274 9 view .LVU599
 2167 0436 3691     		str	r1, [sp, #216]	@ _s32PreYY_I_I_lsm.171, %sfp
 2168 0438 BAF5004F 		cmp	r10, #32768	@ s32CurYY,
 2169              	@ ../../peripheral_library/api/apiVP.c:268:         _s32PreXX[u16Chn][u16Iter] = s32CurXX;
 268:../../peripheral_library/api/apiVP.c ****         _s32PreYY[u16Chn][u16Iter] = s32CurYY;
 2170              		.loc 1 268 36 view .LVU600
 2171 043c 1794     		str	r4, [sp, #92]	@ s32CurYY, %sfp
 2172              	@ ../../peripheral_library/api/apiVP.c:274:       if(s32CurYY>MAX_S16)
 274:../../peripheral_library/api/apiVP.c ****         s16CurY = MAX_S16;
 2173              		.loc 1 274 9 view .LVU601
 2174 043e 3591     		str	r1, [sp, #212]	@ _s32PreYY_I_I_lsm.171, %sfp
 2175 0440 C0F23581 		blt	.L328		@,
 2176              	@ ../../peripheral_library/api/apiVP.c:275:         s16CurY = MAX_S16;
 275:../../peripheral_library/api/apiVP.c ****       else if(s32CurYY<MIN_S16)
 2177              		.loc 1 275 17 view .LVU602
 2178 0444 47F6FF7A 		movw	r10, #32767	@ s16CurY,
 2179              	.LVL161:
 2180              	.L125:
 281:../../peripheral_library/api/apiVP.c **** 
 2181              		.loc 1 281 7 is_stmt 1 view .LVU603
 2182              	@ ../../peripheral_library/api/apiVP.c:257:     for(u16Chn=0;u16Chn<_u16Channel;u16Chn++){
 257:../../peripheral_library/api/apiVP.c **** 
 2183              		.loc 1 257 5 is_stmt 0 view .LVU604
 2184 0448 072A     		cmp	r2, #7	@ _113,
 2185              	@ ../../peripheral_library/api/apiVP.c:281:       *(S16*)(ps8Buffer+(u16Num*_u16Channel+u16Chn)*u16
ARM GAS  /tmp/cc3Huoko.s 			page 52


 281:../../peripheral_library/api/apiVP.c **** 
 2186              		.loc 1 281 63 view .LVU605
 2187 044a A0F80CA0 		strh	r10, [r0, #12]	@ movhi	@ s16CurY, MEM[base: _291, offset: 12B]
 2188              	.LVL162:
 2189              	@ ../../peripheral_library/api/apiVP.c:257:     for(u16Chn=0;u16Chn<_u16Channel;u16Chn++){
 257:../../peripheral_library/api/apiVP.c **** 
 2190              		.loc 1 257 5 view .LVU606
 2191 044e 3FF483AE 		beq	.L103		@,
 259:../../peripheral_library/api/apiVP.c ****         continue;
 2192              		.loc 1 259 7 is_stmt 1 view .LVU607
 262:../../peripheral_library/api/apiVP.c ****       s32CurYY = (S32)s16CurX<<14; //Q3.29
 2193              		.loc 1 262 7 view .LVU608
 2194              	.LVL163:
 263:../../peripheral_library/api/apiVP.c ****       for(u16Iter=0;u16Iter<_u16Stage;u16Iter++){
 2195              		.loc 1 263 7 view .LVU609
 2196              	@ ../../peripheral_library/api/apiVP.c:263:       s32CurYY = (S32)s16CurX<<14; //Q3.29
 263:../../peripheral_library/api/apiVP.c ****       for(u16Iter=0;u16Iter<_u16Stage;u16Iter++){
 2197              		.loc 1 263 18 is_stmt 0 view .LVU610
 2198 0452 B0F90E10 		ldrsh	r1, [r0, #14]	@ MEM[base: _291, offset: 14B], MEM[base: _291, offset: 14B]
 2199              	@ ../../peripheral_library/api/apiVP.c:263:       s32CurYY = (S32)s16CurX<<14; //Q3.29
 263:../../peripheral_library/api/apiVP.c ****       for(u16Iter=0;u16Iter<_u16Stage;u16Iter++){
 2200              		.loc 1 263 16 view .LVU611
 2201 0456 8C03     		lsls	r4, r1, #14	@ s32CurYY, MEM[base: _291, offset: 14B],
 2202 0458 0194     		str	r4, [sp, #4]	@ s32CurYY, %sfp
 2203              	.LVL164:
 264:../../peripheral_library/api/apiVP.c ****         s32CurXX = s32CurYY;
 2204              		.loc 1 264 7 is_stmt 1 view .LVU612
 264:../../peripheral_library/api/apiVP.c ****         s32CurXX = s32CurYY;
 2205              		.loc 1 264 7 is_stmt 0 view .LVU613
 2206 045a 002B     		cmp	r3, #0	@ _u16Stage.11_8
 2207 045c 00F02F81 		beq	.L128	@
 265:../../peripheral_library/api/apiVP.c ****         s32CurYY = s32CurXX - _s32PreXX[u16Chn][u16Iter] + _s32PreYY[u16Chn][u16Iter] - (_s32PreYY[
 2208              		.loc 1 265 9 is_stmt 1 view .LVU614
 2209              	.LVL165:
 266:../../peripheral_library/api/apiVP.c **** 
 2210              		.loc 1 266 9 view .LVU615
 2211              	@ ../../peripheral_library/api/apiVP.c:266:         s32CurYY = s32CurXX - _s32PreXX[u16Chn][u16Iter
 266:../../peripheral_library/api/apiVP.c **** 
 2212              		.loc 1 266 29 is_stmt 0 view .LVU616
 2213 0460 1199     		ldr	r1, [sp, #68]	@ _s32PreXX_I_I_lsm.112, %sfp
 2214 0462 A4EB010A 		sub	r10, r4, r1	@ tmp417, s32CurYY, _s32PreXX_I_I_lsm.112
 2215              	.LVL166:
 2216              	@ ../../peripheral_library/api/apiVP.c:266:         s32CurYY = s32CurXX - _s32PreXX[u16Chn][u16Iter
 266:../../peripheral_library/api/apiVP.c **** 
 2217              		.loc 1 266 58 view .LVU617
 2218 0466 1699     		ldr	r1, [sp, #88]	@ _s32PreYY_I_I_lsm.114, %sfp
 2219 0468 8A44     		add	r10, r10, r1	@ _110, _s32PreYY_I_I_lsm.114
 2220              	@ ../../peripheral_library/api/apiVP.c:266:         s32CurYY = s32CurXX - _s32PreXX[u16Chn][u16Iter
 266:../../peripheral_library/api/apiVP.c **** 
 2221              		.loc 1 266 116 view .LVU618
 2222 046a 41FA06FB 		asr	fp, r1, r6	@ tmp418, _s32PreYY_I_I_lsm.114, _105
 2223              	@ ../../peripheral_library/api/apiVP.c:266:         s32CurYY = s32CurXX - _s32PreXX[u16Chn][u16Iter
 266:../../peripheral_library/api/apiVP.c **** 
 2224              		.loc 1 266 18 view .LVU619
 2225 046e AAEB0B04 		sub	r4, r10, fp	@ _s32PreYY_I_I_lsm.114, _110, tmp418
 2226              	.LVL167:
 2227              	@ ../../peripheral_library/api/apiVP.c:264:       for(u16Iter=0;u16Iter<_u16Stage;u16Iter++){
ARM GAS  /tmp/cc3Huoko.s 			page 53


 264:../../peripheral_library/api/apiVP.c ****         s32CurXX = s32CurYY;
 2228              		.loc 1 264 7 view .LVU620
 2229 0472 022B     		cmp	r3, #2	@ _u16Stage.11_8,
 2230              	@ ../../peripheral_library/api/apiVP.c:266:         s32CurYY = s32CurXX - _s32PreXX[u16Chn][u16Iter
 266:../../peripheral_library/api/apiVP.c **** 
 2231              		.loc 1 266 18 view .LVU621
 2232 0474 1694     		str	r4, [sp, #88]	@ _s32PreYY_I_I_lsm.114, %sfp
 2233              	.LVL168:
 268:../../peripheral_library/api/apiVP.c ****         _s32PreYY[u16Chn][u16Iter] = s32CurYY;
 2234              		.loc 1 268 9 is_stmt 1 view .LVU622
 269:../../peripheral_library/api/apiVP.c ****       }
 2235              		.loc 1 269 9 view .LVU623
 2236              	@ ../../peripheral_library/api/apiVP.c:264:       for(u16Iter=0;u16Iter<_u16Stage;u16Iter++){
 264:../../peripheral_library/api/apiVP.c ****         s32CurXX = s32CurYY;
 2237              		.loc 1 264 7 is_stmt 0 view .LVU624
 2238 0476 40F02F81 		bne	.L189		@,
 265:../../peripheral_library/api/apiVP.c ****         s32CurYY = s32CurXX - _s32PreXX[u16Chn][u16Iter] + _s32PreYY[u16Chn][u16Iter] - (_s32PreYY[
 2239              		.loc 1 265 9 is_stmt 1 discriminator 3 view .LVU625
 2240              	.LVL169:
 266:../../peripheral_library/api/apiVP.c **** 
 2241              		.loc 1 266 9 discriminator 3 view .LVU626
 2242              	@ ../../peripheral_library/api/apiVP.c:266:         s32CurYY = s32CurXX - _s32PreXX[u16Chn][u16Iter
 266:../../peripheral_library/api/apiVP.c **** 
 2243              		.loc 1 266 29 is_stmt 0 discriminator 3 view .LVU627
 2244 047a 319F     		ldr	r7, [sp, #196]	@ _s32PreXX_I_I_lsm.116, %sfp
 2245              	@ ../../peripheral_library/api/apiVP.c:266:         s32CurYY = s32CurXX - _s32PreXX[u16Chn][u16Iter
 266:../../peripheral_library/api/apiVP.c **** 
 2246              		.loc 1 266 58 discriminator 3 view .LVU628
 2247 047c 3299     		ldr	r1, [sp, #200]	@ _s32PreYY_I_I_lsm.118, %sfp
 2248              	@ ../../peripheral_library/api/apiVP.c:268:         _s32PreXX[u16Chn][u16Iter] = s32CurXX;
 268:../../peripheral_library/api/apiVP.c ****         _s32PreYY[u16Chn][u16Iter] = s32CurYY;
 2249              		.loc 1 268 36 discriminator 3 view .LVU629
 2250 047e 3194     		str	r4, [sp, #196]	@ _s32PreYY_I_I_lsm.114, %sfp
 2251              	@ ../../peripheral_library/api/apiVP.c:266:         s32CurYY = s32CurXX - _s32PreXX[u16Chn][u16Iter
 266:../../peripheral_library/api/apiVP.c **** 
 2252              		.loc 1 266 29 discriminator 3 view .LVU630
 2253 0480 A4EB070A 		sub	r10, r4, r7	@ tmp419, _s32PreYY_I_I_lsm.114, _s32PreXX_I_I_lsm.116
 2254              	@ ../../peripheral_library/api/apiVP.c:266:         s32CurYY = s32CurXX - _s32PreXX[u16Chn][u16Iter
 266:../../peripheral_library/api/apiVP.c **** 
 2255              		.loc 1 266 58 discriminator 3 view .LVU631
 2256 0484 8A44     		add	r10, r10, r1	@ _28, _s32PreYY_I_I_lsm.118
 2257              	@ ../../peripheral_library/api/apiVP.c:266:         s32CurYY = s32CurXX - _s32PreXX[u16Chn][u16Iter
 266:../../peripheral_library/api/apiVP.c **** 
 2258              		.loc 1 266 116 discriminator 3 view .LVU632
 2259 0486 41FA06FB 		asr	fp, r1, r6	@ tmp420, _s32PreYY_I_I_lsm.118, _105
 2260              	@ ../../peripheral_library/api/apiVP.c:266:         s32CurYY = s32CurXX - _s32PreXX[u16Chn][u16Iter
 266:../../peripheral_library/api/apiVP.c **** 
 2261              		.loc 1 266 18 discriminator 3 view .LVU633
 2262 048a AAEB0B01 		sub	r1, r10, fp	@ _s32PreYY_I_I_lsm.118, _28, tmp420
 2263 048e 0127     		movs	r7, #1	@ _s32PreYY_I_I_lsm.119,
 2264 0490 3291     		str	r1, [sp, #200]	@ _s32PreYY_I_I_lsm.118, %sfp
 2265              	.LVL170:
 268:../../peripheral_library/api/apiVP.c ****         _s32PreYY[u16Chn][u16Iter] = s32CurYY;
 2266              		.loc 1 268 9 is_stmt 1 discriminator 3 view .LVU634
 269:../../peripheral_library/api/apiVP.c ****       }
 2267              		.loc 1 269 9 discriminator 3 view .LVU635
 269:../../peripheral_library/api/apiVP.c ****       }
ARM GAS  /tmp/cc3Huoko.s 			page 54


 2268              		.loc 1 269 9 is_stmt 0 discriminator 3 view .LVU636
 2269 0492 4097     		str	r7, [sp, #256]	@ _s32PreYY_I_I_lsm.119, %sfp
 2270              	@ ../../peripheral_library/api/apiVP.c:269:         _s32PreYY[u16Chn][u16Iter] = s32CurYY;
 269:../../peripheral_library/api/apiVP.c ****       }
 2271              		.loc 1 269 36 discriminator 3 view .LVU637
 2272 0494 8A46     		mov	r10, r1	@ s32CurYY, _s32PreYY_I_I_lsm.118
 2273 0496 3B97     		str	r7, [sp, #236]	@ _s32PreYY_I_I_lsm.119, %sfp
 2274              	.LVL171:
 2275              	.L129:
 272:../../peripheral_library/api/apiVP.c **** 
 2276              		.loc 1 272 7 is_stmt 1 view .LVU638
 2277              	@ ../../peripheral_library/api/apiVP.c:272:       s32CurYY = s32CurYY>>14;
 272:../../peripheral_library/api/apiVP.c **** 
 2278              		.loc 1 272 16 is_stmt 0 view .LVU639
 2279 0498 4FEAAA3A 		asr	r10, r10, #14	@ s32CurYY, s32CurYY,
 2280              	.LVL172:
 274:../../peripheral_library/api/apiVP.c ****         s16CurY = MAX_S16;
 2281              		.loc 1 274 7 is_stmt 1 view .LVU640
 2282 049c 0121     		movs	r1, #1	@ _s32PreYY_I_I_lsm.115,
 2283              	@ ../../peripheral_library/api/apiVP.c:268:         _s32PreXX[u16Chn][u16Iter] = s32CurXX;
 268:../../peripheral_library/api/apiVP.c ****         _s32PreYY[u16Chn][u16Iter] = s32CurYY;
 2284              		.loc 1 268 36 is_stmt 0 view .LVU641
 2285 049e 019C     		ldr	r4, [sp, #4]	@ s32CurYY, %sfp
 2286 04a0 2591     		str	r1, [sp, #148]	@ _s32PreYY_I_I_lsm.115, %sfp
 2287              	@ ../../peripheral_library/api/apiVP.c:274:       if(s32CurYY>MAX_S16)
 274:../../peripheral_library/api/apiVP.c ****         s16CurY = MAX_S16;
 2288              		.loc 1 274 9 view .LVU642
 2289 04a2 BAF5004F 		cmp	r10, #32768	@ s32CurYY,
 2290              	@ ../../peripheral_library/api/apiVP.c:268:         _s32PreXX[u16Chn][u16Iter] = s32CurXX;
 268:../../peripheral_library/api/apiVP.c ****         _s32PreYY[u16Chn][u16Iter] = s32CurYY;
 2291              		.loc 1 268 36 view .LVU643
 2292 04a6 1194     		str	r4, [sp, #68]	@ s32CurYY, %sfp
 2293 04a8 2091     		str	r1, [sp, #128]	@ _s32PreYY_I_I_lsm.115, %sfp
 2294              	@ ../../peripheral_library/api/apiVP.c:274:       if(s32CurYY>MAX_S16)
 274:../../peripheral_library/api/apiVP.c ****         s16CurY = MAX_S16;
 2295              		.loc 1 274 9 view .LVU644
 2296 04aa C0F20D81 		blt	.L329		@,
 2297              	@ ../../peripheral_library/api/apiVP.c:275:         s16CurY = MAX_S16;
 275:../../peripheral_library/api/apiVP.c ****       else if(s32CurYY<MIN_S16)
 2298              		.loc 1 275 17 view .LVU645
 2299 04ae 47F6FF7A 		movw	r10, #32767	@ s16CurY,
 2300              	.LVL173:
 2301              	.L130:
 281:../../peripheral_library/api/apiVP.c **** 
 2302              		.loc 1 281 7 is_stmt 1 view .LVU646
 2303              	@ ../../peripheral_library/api/apiVP.c:281:       *(S16*)(ps8Buffer+(u16Num*_u16Channel+u16Chn)*u16
 281:../../peripheral_library/api/apiVP.c **** 
 2304              		.loc 1 281 63 is_stmt 0 view .LVU647
 2305 04b2 A0F80EA0 		strh	r10, [r0, #14]	@ movhi	@ s16CurY, MEM[base: _291, offset: 14B]
 2306              	.LVL174:
 281:../../peripheral_library/api/apiVP.c **** 
 2307              		.loc 1 281 63 view .LVU648
 2308 04b6 4FE6     		b	.L103		@
 2309              	.LVL175:
 2310              	.L314:
 281:../../peripheral_library/api/apiVP.c **** 
 2311              		.loc 1 281 63 view .LVU649
ARM GAS  /tmp/cc3Huoko.s 			page 55


 2312 04b8 209B     		ldr	r3, [sp, #128]	@ _s32PreXX_I_I_lsm.113, %sfp
 2313 04ba 309C     		ldr	r4, [sp, #192]	@ _s32PreYY_I_I_lsm.175, %sfp
 2314 04bc 13B1     		cbz	r3, .L131	@ _s32PreXX_I_I_lsm.113,
 2315 04be 8B4A     		ldr	r2, .L333	@ tmp950,
 2316 04c0 119B     		ldr	r3, [sp, #68]	@ _s32PreXX_I_I_lsm.112, %sfp
 2317 04c2 9363     		str	r3, [r2, #56]	@ _s32PreXX_I_I_lsm.112, _s32PreXX
 2318              	.L131:
 2319 04c4 259B     		ldr	r3, [sp, #148]	@ _s32PreYY_I_I_lsm.115, %sfp
 2320 04c6 13B1     		cbz	r3, .L132	@ _s32PreYY_I_I_lsm.115,
 2321 04c8 169B     		ldr	r3, [sp, #88]	@ _s32PreYY_I_I_lsm.114, %sfp
 2322 04ca CCF83830 		str	r3, [ip, #56]	@ _s32PreYY_I_I_lsm.114, _s32PreYY
 2323              	.L132:
 2324 04ce 3B9B     		ldr	r3, [sp, #236]	@ _s32PreXX_I_I_lsm.117, %sfp
 2325 04d0 13B1     		cbz	r3, .L133	@ _s32PreXX_I_I_lsm.117,
 2326 04d2 864A     		ldr	r2, .L333	@ tmp949,
 2327 04d4 319B     		ldr	r3, [sp, #196]	@ _s32PreXX_I_I_lsm.116, %sfp
 2328 04d6 D363     		str	r3, [r2, #60]	@ _s32PreXX_I_I_lsm.116, _s32PreXX
 2329              	.L133:
 2330 04d8 409B     		ldr	r3, [sp, #256]	@ _s32PreYY_I_I_lsm.119, %sfp
 2331 04da 13B1     		cbz	r3, .L134	@ _s32PreYY_I_I_lsm.119,
 2332 04dc 329B     		ldr	r3, [sp, #200]	@ _s32PreYY_I_I_lsm.118, %sfp
 2333 04de CCF83C30 		str	r3, [ip, #60]	@ _s32PreYY_I_I_lsm.118, _s32PreYY
 2334              	.L134:
 2335 04e2 129B     		ldr	r3, [sp, #72]	@ _s32PreXX_I_I_lsm.121, %sfp
 2336 04e4 13B1     		cbz	r3, .L135	@ _s32PreXX_I_I_lsm.121,
 2337 04e6 814A     		ldr	r2, .L333	@ tmp948,
 2338 04e8 079B     		ldr	r3, [sp, #28]	@ _s32PreXX_I_I_lsm.120, %sfp
 2339 04ea 1360     		str	r3, [r2]	@ _s32PreXX_I_I_lsm.120, _s32PreXX
 2340              	.L135:
 2341 04ec 139B     		ldr	r3, [sp, #76]	@ _s32PreYY_I_I_lsm.123, %sfp
 2342 04ee 0BB1     		cbz	r3, .L136	@ _s32PreYY_I_I_lsm.123,
 2343 04f0 CCF800E0 		str	lr, [ip]	@ _s32PreYY_I_I_lsm.122, _s32PreYY
 2344              	.L136:
 2345 04f4 2A9B     		ldr	r3, [sp, #168]	@ _s32PreXX_I_I_lsm.125, %sfp
 2346 04f6 13B1     		cbz	r3, .L137	@ _s32PreXX_I_I_lsm.125,
 2347 04f8 7C4A     		ldr	r2, .L333	@ tmp947,
 2348 04fa 0D9B     		ldr	r3, [sp, #52]	@ _s32PreXX_I_I_lsm.124, %sfp
 2349 04fc 5360     		str	r3, [r2, #4]	@ _s32PreXX_I_I_lsm.124, _s32PreXX
 2350              	.L137:
 2351 04fe 2B9B     		ldr	r3, [sp, #172]	@ _s32PreYY_I_I_lsm.127, %sfp
 2352 0500 13B1     		cbz	r3, .L138	@ _s32PreYY_I_I_lsm.127,
 2353 0502 0E9B     		ldr	r3, [sp, #56]	@ _s32PreYY_I_I_lsm.126, %sfp
 2354 0504 CCF80430 		str	r3, [ip, #4]	@ _s32PreYY_I_I_lsm.126, _s32PreYY
 2355              	.L138:
 2356 0508 189B     		ldr	r3, [sp, #96]	@ _s32PreXX_I_I_lsm.129, %sfp
 2357 050a 13B1     		cbz	r3, .L139	@ _s32PreXX_I_I_lsm.129,
 2358 050c 774A     		ldr	r2, .L333	@ tmp946,
 2359 050e 099B     		ldr	r3, [sp, #36]	@ _s32PreXX_I_I_lsm.128, %sfp
 2360 0510 9360     		str	r3, [r2, #8]	@ _s32PreXX_I_I_lsm.128, _s32PreXX
 2361              	.L139:
 2362 0512 199B     		ldr	r3, [sp, #100]	@ _s32PreYY_I_I_lsm.131, %sfp
 2363 0514 0BB1     		cbz	r3, .L140	@ _s32PreYY_I_I_lsm.131,
 2364 0516 CCF80880 		str	r8, [ip, #8]	@ _s32PreYY_I_I_lsm.130, _s32PreYY
 2365              	.L140:
 2366 051a 339B     		ldr	r3, [sp, #204]	@ _s32PreXX_I_I_lsm.133, %sfp
 2367 051c 13B1     		cbz	r3, .L141	@ _s32PreXX_I_I_lsm.133,
 2368 051e 734A     		ldr	r2, .L333	@ tmp945,
ARM GAS  /tmp/cc3Huoko.s 			page 56


 2369 0520 149B     		ldr	r3, [sp, #80]	@ _s32PreXX_I_I_lsm.132, %sfp
 2370 0522 D360     		str	r3, [r2, #12]	@ _s32PreXX_I_I_lsm.132, _s32PreXX
 2371              	.L141:
 2372 0524 349B     		ldr	r3, [sp, #208]	@ _s32PreYY_I_I_lsm.135, %sfp
 2373 0526 13B1     		cbz	r3, .L142	@ _s32PreYY_I_I_lsm.135,
 2374 0528 159B     		ldr	r3, [sp, #84]	@ _s32PreYY_I_I_lsm.134, %sfp
 2375 052a CCF80C30 		str	r3, [ip, #12]	@ _s32PreYY_I_I_lsm.134, _s32PreYY
 2376              	.L142:
 2377 052e 1C9B     		ldr	r3, [sp, #112]	@ _s32PreXX_I_I_lsm.137, %sfp
 2378 0530 13B1     		cbz	r3, .L143	@ _s32PreXX_I_I_lsm.137,
 2379 0532 6E4A     		ldr	r2, .L333	@ tmp944,
 2380 0534 0B9B     		ldr	r3, [sp, #44]	@ _s32PreXX_I_I_lsm.136, %sfp
 2381 0536 1361     		str	r3, [r2, #16]	@ _s32PreXX_I_I_lsm.136, _s32PreXX
 2382              	.L143:
 2383 0538 1D9B     		ldr	r3, [sp, #116]	@ _s32PreYY_I_I_lsm.139, %sfp
 2384 053a 13B1     		cbz	r3, .L144	@ _s32PreYY_I_I_lsm.139,
 2385 053c 049B     		ldr	r3, [sp, #16]	@ _s32PreYY_I_I_lsm.138, %sfp
 2386 053e CCF81030 		str	r3, [ip, #16]	@ _s32PreYY_I_I_lsm.138, _s32PreYY
 2387              	.L144:
 2388 0542 379B     		ldr	r3, [sp, #220]	@ _s32PreXX_I_I_lsm.141, %sfp
 2389 0544 13B1     		cbz	r3, .L145	@ _s32PreXX_I_I_lsm.141,
 2390 0546 694A     		ldr	r2, .L333	@ tmp943,
 2391 0548 1A9B     		ldr	r3, [sp, #104]	@ _s32PreXX_I_I_lsm.140, %sfp
 2392 054a 5361     		str	r3, [r2, #20]	@ _s32PreXX_I_I_lsm.140, _s32PreXX
 2393              	.L145:
 2394 054c 389B     		ldr	r3, [sp, #224]	@ _s32PreYY_I_I_lsm.143, %sfp
 2395 054e 13B1     		cbz	r3, .L146	@ _s32PreYY_I_I_lsm.143,
 2396 0550 1B9B     		ldr	r3, [sp, #108]	@ _s32PreYY_I_I_lsm.142, %sfp
 2397 0552 CCF81430 		str	r3, [ip, #20]	@ _s32PreYY_I_I_lsm.142, _s32PreYY
 2398              	.L146:
 2399 0556 239B     		ldr	r3, [sp, #140]	@ _s32PreXX_I_I_lsm.145, %sfp
 2400 0558 13B1     		cbz	r3, .L147	@ _s32PreXX_I_I_lsm.145,
 2401 055a 644A     		ldr	r2, .L333	@ tmp942,
 2402 055c 0C9B     		ldr	r3, [sp, #48]	@ _s32PreXX_I_I_lsm.144, %sfp
 2403 055e 9361     		str	r3, [r2, #24]	@ _s32PreXX_I_I_lsm.144, _s32PreXX
 2404              	.L147:
 2405 0560 249B     		ldr	r3, [sp, #144]	@ _s32PreYY_I_I_lsm.147, %sfp
 2406 0562 13B1     		cbz	r3, .L148	@ _s32PreYY_I_I_lsm.147,
 2407 0564 059B     		ldr	r3, [sp, #20]	@ _s32PreYY_I_I_lsm.146, %sfp
 2408 0566 CCF81830 		str	r3, [ip, #24]	@ _s32PreYY_I_I_lsm.146, _s32PreYY
 2409              	.L148:
 2410 056a 399B     		ldr	r3, [sp, #228]	@ _s32PreXX_I_I_lsm.149, %sfp
 2411 056c 13B1     		cbz	r3, .L149	@ _s32PreXX_I_I_lsm.149,
 2412 056e 5F4A     		ldr	r2, .L333	@ tmp941,
 2413 0570 1E9B     		ldr	r3, [sp, #120]	@ _s32PreXX_I_I_lsm.148, %sfp
 2414 0572 D361     		str	r3, [r2, #28]	@ _s32PreXX_I_I_lsm.148, _s32PreXX
 2415              	.L149:
 2416 0574 3A9B     		ldr	r3, [sp, #232]	@ _s32PreYY_I_I_lsm.151, %sfp
 2417 0576 13B1     		cbz	r3, .L150	@ _s32PreYY_I_I_lsm.151,
 2418 0578 1F9B     		ldr	r3, [sp, #124]	@ _s32PreYY_I_I_lsm.150, %sfp
 2419 057a CCF81C30 		str	r3, [ip, #28]	@ _s32PreYY_I_I_lsm.150, _s32PreYY
 2420              	.L150:
 2421 057e 289B     		ldr	r3, [sp, #160]	@ _s32PreXX_I_I_lsm.153, %sfp
 2422 0580 13B1     		cbz	r3, .L151	@ _s32PreXX_I_I_lsm.153,
 2423 0582 5A4A     		ldr	r2, .L333	@ tmp940,
 2424 0584 0F9B     		ldr	r3, [sp, #60]	@ _s32PreXX_I_I_lsm.152, %sfp
 2425 0586 1362     		str	r3, [r2, #32]	@ _s32PreXX_I_I_lsm.152, _s32PreXX
ARM GAS  /tmp/cc3Huoko.s 			page 57


 2426              	.L151:
 2427 0588 299B     		ldr	r3, [sp, #164]	@ _s32PreYY_I_I_lsm.155, %sfp
 2428 058a 13B1     		cbz	r3, .L152	@ _s32PreYY_I_I_lsm.155,
 2429 058c 069B     		ldr	r3, [sp, #24]	@ _s32PreYY_I_I_lsm.154, %sfp
 2430 058e CCF82030 		str	r3, [ip, #32]	@ _s32PreYY_I_I_lsm.154, _s32PreYY
 2431              	.L152:
 2432 0592 3C9B     		ldr	r3, [sp, #240]	@ _s32PreXX_I_I_lsm.157, %sfp
 2433 0594 13B1     		cbz	r3, .L153	@ _s32PreXX_I_I_lsm.157,
 2434 0596 554A     		ldr	r2, .L333	@ tmp939,
 2435 0598 219B     		ldr	r3, [sp, #132]	@ _s32PreXX_I_I_lsm.156, %sfp
 2436 059a 5362     		str	r3, [r2, #36]	@ _s32PreXX_I_I_lsm.156, _s32PreXX
 2437              	.L153:
 2438 059c 3D9B     		ldr	r3, [sp, #244]	@ _s32PreYY_I_I_lsm.159, %sfp
 2439 059e 13B1     		cbz	r3, .L154	@ _s32PreYY_I_I_lsm.159,
 2440 05a0 229B     		ldr	r3, [sp, #136]	@ _s32PreYY_I_I_lsm.158, %sfp
 2441 05a2 CCF82430 		str	r3, [ip, #36]	@ _s32PreYY_I_I_lsm.158, _s32PreYY
 2442              	.L154:
 2443 05a6 2C9B     		ldr	r3, [sp, #176]	@ _s32PreXX_I_I_lsm.161, %sfp
 2444 05a8 13B1     		cbz	r3, .L155	@ _s32PreXX_I_I_lsm.161,
 2445 05aa 504A     		ldr	r2, .L333	@ tmp938,
 2446 05ac 109B     		ldr	r3, [sp, #64]	@ _s32PreXX_I_I_lsm.160, %sfp
 2447 05ae 9362     		str	r3, [r2, #40]	@ _s32PreXX_I_I_lsm.160, _s32PreXX
 2448              	.L155:
 2449 05b0 2D9B     		ldr	r3, [sp, #180]	@ _s32PreYY_I_I_lsm.163, %sfp
 2450 05b2 13B1     		cbz	r3, .L156	@ _s32PreYY_I_I_lsm.163,
 2451 05b4 089B     		ldr	r3, [sp, #32]	@ _s32PreYY_I_I_lsm.162, %sfp
 2452 05b6 CCF82830 		str	r3, [ip, #40]	@ _s32PreYY_I_I_lsm.162, _s32PreYY
 2453              	.L156:
 2454 05ba 3E9B     		ldr	r3, [sp, #248]	@ _s32PreXX_I_I_lsm.165, %sfp
 2455 05bc 13B1     		cbz	r3, .L157	@ _s32PreXX_I_I_lsm.165,
 2456 05be 4B4A     		ldr	r2, .L333	@ tmp937,
 2457 05c0 269B     		ldr	r3, [sp, #152]	@ _s32PreXX_I_I_lsm.164, %sfp
 2458 05c2 D362     		str	r3, [r2, #44]	@ _s32PreXX_I_I_lsm.164, _s32PreXX
 2459              	.L157:
 2460 05c4 3F9B     		ldr	r3, [sp, #252]	@ _s32PreYY_I_I_lsm.167, %sfp
 2461 05c6 13B1     		cbz	r3, .L158	@ _s32PreYY_I_I_lsm.167,
 2462 05c8 279B     		ldr	r3, [sp, #156]	@ _s32PreYY_I_I_lsm.166, %sfp
 2463 05ca CCF82C30 		str	r3, [ip, #44]	@ _s32PreYY_I_I_lsm.166, _s32PreYY
 2464              	.L158:
 2465 05ce 359B     		ldr	r3, [sp, #212]	@ _s32PreXX_I_I_lsm.169, %sfp
 2466 05d0 13B1     		cbz	r3, .L159	@ _s32PreXX_I_I_lsm.169,
 2467 05d2 464A     		ldr	r2, .L333	@ tmp936,
 2468 05d4 179B     		ldr	r3, [sp, #92]	@ _s32PreXX_I_I_lsm.168, %sfp
 2469 05d6 1363     		str	r3, [r2, #48]	@ _s32PreXX_I_I_lsm.168, _s32PreXX
 2470              	.L159:
 2471 05d8 369B     		ldr	r3, [sp, #216]	@ _s32PreYY_I_I_lsm.171, %sfp
 2472 05da 13B1     		cbz	r3, .L160	@ _s32PreYY_I_I_lsm.171,
 2473 05dc 0A9B     		ldr	r3, [sp, #40]	@ _s32PreYY_I_I_lsm.170, %sfp
 2474 05de CCF83030 		str	r3, [ip, #48]	@ _s32PreYY_I_I_lsm.170, _s32PreYY
 2475              	.L160:
 2476 05e2 419B     		ldr	r3, [sp, #260]	@ _s32PreXX_I_I_lsm.173, %sfp
 2477 05e4 13B1     		cbz	r3, .L161	@ _s32PreXX_I_I_lsm.173,
 2478 05e6 414A     		ldr	r2, .L333	@ tmp935,
 2479 05e8 2E9B     		ldr	r3, [sp, #184]	@ _s32PreXX_I_I_lsm.172, %sfp
 2480 05ea 5363     		str	r3, [r2, #52]	@ _s32PreXX_I_I_lsm.172, _s32PreXX
 2481              	.L161:
 2482 05ec 14B1     		cbz	r4, .L162	@ _s32PreYY_I_I_lsm.175,
ARM GAS  /tmp/cc3Huoko.s 			page 58


 2483 05ee 2F9B     		ldr	r3, [sp, #188]	@ _s32PreYY_I_I_lsm.174, %sfp
 2484 05f0 CCF83430 		str	r3, [ip, #52]	@ _s32PreYY_I_I_lsm.174, _s32PreYY
 2485              	.LVL176:
 2486              	.L162:
 2487              	@ ../../peripheral_library/api/apiVP.c:287:   return 0;
 285:../../peripheral_library/api/apiVP.c ****   }
 286:../../peripheral_library/api/apiVP.c **** 
 287:../../peripheral_library/api/apiVP.c ****   return 0;
 2488              		.loc 1 287 10 view .LVU650
 2489 05f4 0020     		movs	r0, #0	@ <retval>,
 2490              	.L310:
 2491              	@ ../../peripheral_library/api/apiVP.c:288: }
 288:../../peripheral_library/api/apiVP.c **** }
 2492              		.loc 1 288 1 view .LVU651
 2493 05f6 43B0     		add	sp, sp, #268	@,,
 2494              		.cfi_remember_state
 2495              		.cfi_def_cfa_offset 36
 2496              		@ sp needed	@
 2497 05f8 BDE8F08F 		pop	{r4, r5, r6, r7, r8, r9, r10, fp, pc}	@
 2498              	.LVL177:
 2499              	.L316:
 2500              		.cfi_restore_state
 276:../../peripheral_library/api/apiVP.c ****         s16CurY = MIN_S16;
 2501              		.loc 1 276 12 is_stmt 1 view .LVU652
 2502              	@ ../../peripheral_library/api/apiVP.c:276:       else if(s32CurYY<MIN_S16)
 276:../../peripheral_library/api/apiVP.c ****         s16CurY = MIN_S16;
 2503              		.loc 1 276 14 is_stmt 0 view .LVU653
 2504 05fc 0121     		movs	r1, #1	@ _s32PreYY_I_I_lsm.123,
 2505 05fe 1AF5004F 		cmn	r10, #32768	@ s32CurYY,
 2506 0602 1391     		str	r1, [sp, #76]	@ _s32PreYY_I_I_lsm.123, %sfp
 2507              	@ ../../peripheral_library/api/apiVP.c:268:         _s32PreXX[u16Chn][u16Iter] = s32CurXX;
 268:../../peripheral_library/api/apiVP.c ****         _s32PreYY[u16Chn][u16Iter] = s32CurYY;
 2508              		.loc 1 268 36 view .LVU654
 2509 0604 0797     		str	r7, [sp, #28]	@ s32CurYY, %sfp
 2510              	@ ../../peripheral_library/api/apiVP.c:276:       else if(s32CurYY<MIN_S16)
 276:../../peripheral_library/api/apiVP.c ****         s16CurY = MIN_S16;
 2511              		.loc 1 276 14 view .LVU655
 2512 0606 1291     		str	r1, [sp, #72]	@ _s32PreYY_I_I_lsm.123, %sfp
 2513 0608 04DA     		bge	.L102		@,
 2514              	@ ../../peripheral_library/api/apiVP.c:277:         s16CurY = MIN_S16;
 277:../../peripheral_library/api/apiVP.c ****       else
 2515              		.loc 1 277 17 view .LVU656
 2516 060a DFF8E8A0 		ldr	r10, .L333+8	@ s16CurY,
 2517              	.LVL178:
 277:../../peripheral_library/api/apiVP.c ****       else
 2518              		.loc 1 277 17 view .LVU657
 2519 060e DAE5     		b	.L100		@
 2520              	.LVL179:
 2521              	.L315:
 272:../../peripheral_library/api/apiVP.c **** 
 2522              		.loc 1 272 7 is_stmt 1 view .LVU658
 2523              	@ ../../peripheral_library/api/apiVP.c:272:       s32CurYY = s32CurYY>>14;
 272:../../peripheral_library/api/apiVP.c **** 
 2524              		.loc 1 272 16 is_stmt 0 view .LVU659
 2525 0610 4FEAA73A 		asr	r10, r7, #14	@ s32CurYY, s32CurYY,
 2526              	.LVL180:
 274:../../peripheral_library/api/apiVP.c ****         s16CurY = MAX_S16;
ARM GAS  /tmp/cc3Huoko.s 			page 59


 2527              		.loc 1 274 7 is_stmt 1 view .LVU660
 2528              	.L102:
 279:../../peripheral_library/api/apiVP.c **** 
 2529              		.loc 1 279 9 view .LVU661
 2530              	@ ../../peripheral_library/api/apiVP.c:279:         s16CurY = (S16)s32CurYY;
 279:../../peripheral_library/api/apiVP.c **** 
 2531              		.loc 1 279 17 is_stmt 0 view .LVU662
 2532 0614 0FFA8AFA 		sxth	r10, r10	@ s16CurY, s32CurYY
 2533              	.LVL181:
 279:../../peripheral_library/api/apiVP.c **** 
 2534              		.loc 1 279 17 view .LVU663
 2535 0618 D5E5     		b	.L100		@
 2536              	.LVL182:
 2537              	.L317:
 272:../../peripheral_library/api/apiVP.c **** 
 2538              		.loc 1 272 7 is_stmt 1 view .LVU664
 2539              	@ ../../peripheral_library/api/apiVP.c:272:       s32CurYY = s32CurYY>>14;
 272:../../peripheral_library/api/apiVP.c **** 
 2540              		.loc 1 272 16 is_stmt 0 view .LVU665
 2541 061a 4FEAA73A 		asr	r10, r7, #14	@ s32CurYY, s32CurYY,
 2542              	.LVL183:
 274:../../peripheral_library/api/apiVP.c ****         s16CurY = MAX_S16;
 2543              		.loc 1 274 7 is_stmt 1 view .LVU666
 2544              	.L107:
 279:../../peripheral_library/api/apiVP.c **** 
 2545              		.loc 1 279 9 view .LVU667
 2546              	@ ../../peripheral_library/api/apiVP.c:279:         s16CurY = (S16)s32CurYY;
 279:../../peripheral_library/api/apiVP.c **** 
 2547              		.loc 1 279 17 is_stmt 0 view .LVU668
 2548 061e 0FFA8AFA 		sxth	r10, r10	@ s16CurY, s32CurYY
 2549              	.LVL184:
 279:../../peripheral_library/api/apiVP.c **** 
 2550              		.loc 1 279 17 view .LVU669
 2551 0622 01E6     		b	.L105		@
 2552              	.LVL185:
 2553              	.L318:
 276:../../peripheral_library/api/apiVP.c ****         s16CurY = MIN_S16;
 2554              		.loc 1 276 12 is_stmt 1 view .LVU670
 2555              	@ ../../peripheral_library/api/apiVP.c:276:       else if(s32CurYY<MIN_S16)
 276:../../peripheral_library/api/apiVP.c ****         s16CurY = MIN_S16;
 2556              		.loc 1 276 14 is_stmt 0 view .LVU671
 2557 0624 0121     		movs	r1, #1	@ _s32PreYY_I_I_lsm.131,
 2558 0626 1AF5004F 		cmn	r10, #32768	@ s32CurYY,
 2559 062a 1991     		str	r1, [sp, #100]	@ _s32PreYY_I_I_lsm.131, %sfp
 2560              	@ ../../peripheral_library/api/apiVP.c:268:         _s32PreXX[u16Chn][u16Iter] = s32CurXX;
 268:../../peripheral_library/api/apiVP.c ****         _s32PreYY[u16Chn][u16Iter] = s32CurYY;
 2561              		.loc 1 268 36 view .LVU672
 2562 062c 0997     		str	r7, [sp, #36]	@ s32CurYY, %sfp
 2563              	@ ../../peripheral_library/api/apiVP.c:276:       else if(s32CurYY<MIN_S16)
 276:../../peripheral_library/api/apiVP.c ****         s16CurY = MIN_S16;
 2564              		.loc 1 276 14 view .LVU673
 2565 062e 1891     		str	r1, [sp, #96]	@ _s32PreYY_I_I_lsm.131, %sfp
 2566 0630 F5DA     		bge	.L107		@,
 2567              	@ ../../peripheral_library/api/apiVP.c:277:         s16CurY = MIN_S16;
 277:../../peripheral_library/api/apiVP.c ****       else
 2568              		.loc 1 277 17 view .LVU674
 2569 0632 DFF8C0A0 		ldr	r10, .L333+8	@ s16CurY,
ARM GAS  /tmp/cc3Huoko.s 			page 60


 2570              	.LVL186:
 277:../../peripheral_library/api/apiVP.c ****       else
 2571              		.loc 1 277 17 view .LVU675
 2572 0636 F7E5     		b	.L105		@
 2573              	.LVL187:
 2574              	.L168:
 2575              	@ ../../peripheral_library/api/apiVP.c:266:         s32CurYY = s32CurXX - _s32PreXX[u16Chn][u16Iter
 266:../../peripheral_library/api/apiVP.c **** 
 2576              		.loc 1 266 18 view .LVU676
 2577 0638 F246     		mov	r10, lr	@ s32CurYY, _s32PreYY_I_I_lsm.122
 2578 063a B8E5     		b	.L101		@
 2579              	.LVL188:
 2580              	.L319:
 272:../../peripheral_library/api/apiVP.c **** 
 2581              		.loc 1 272 7 is_stmt 1 view .LVU677
 2582              	@ ../../peripheral_library/api/apiVP.c:272:       s32CurYY = s32CurYY>>14;
 272:../../peripheral_library/api/apiVP.c **** 
 2583              		.loc 1 272 16 is_stmt 0 view .LVU678
 2584 063c 4FEAA13A 		asr	r10, r1, #14	@ s32CurYY, s32CurYY,
 2585              	.LVL189:
 274:../../peripheral_library/api/apiVP.c ****         s16CurY = MAX_S16;
 2586              		.loc 1 274 7 is_stmt 1 view .LVU679
 2587              	.L111:
 279:../../peripheral_library/api/apiVP.c **** 
 2588              		.loc 1 279 9 view .LVU680
 2589              	@ ../../peripheral_library/api/apiVP.c:279:         s16CurY = (S16)s32CurYY;
 279:../../peripheral_library/api/apiVP.c **** 
 2590              		.loc 1 279 17 is_stmt 0 view .LVU681
 2591 0640 0FFA8AFA 		sxth	r10, r10	@ s16CurY, s32CurYY
 2592              	.LVL190:
 279:../../peripheral_library/api/apiVP.c **** 
 2593              		.loc 1 279 17 view .LVU682
 2594 0644 26E6     		b	.L109		@
 2595              	.LVL191:
 2596              	.L171:
 2597              	@ ../../peripheral_library/api/apiVP.c:266:         s32CurYY = s32CurXX - _s32PreXX[u16Chn][u16Iter
 266:../../peripheral_library/api/apiVP.c **** 
 2598              		.loc 1 266 18 view .LVU683
 2599 0646 C246     		mov	r10, r8	@ s32CurYY, _s32PreYY_I_I_lsm.130
 2600 0648 E2E5     		b	.L106		@
 2601              	.LVL192:
 2602              	.L320:
 276:../../peripheral_library/api/apiVP.c ****         s16CurY = MIN_S16;
 2603              		.loc 1 276 12 is_stmt 1 view .LVU684
 2604              	@ ../../peripheral_library/api/apiVP.c:276:       else if(s32CurYY<MIN_S16)
 276:../../peripheral_library/api/apiVP.c ****         s16CurY = MIN_S16;
 2605              		.loc 1 276 14 is_stmt 0 view .LVU685
 2606 064a 1AF5004F 		cmn	r10, #32768	@ s32CurYY,
 2607 064e F7DA     		bge	.L111		@,
 2608              	@ ../../peripheral_library/api/apiVP.c:277:         s16CurY = MIN_S16;
 277:../../peripheral_library/api/apiVP.c ****       else
 2609              		.loc 1 277 17 view .LVU686
 2610 0650 DFF8A0A0 		ldr	r10, .L333+8	@ s16CurY,
 2611              	.LVL193:
 277:../../peripheral_library/api/apiVP.c ****       else
 2612              		.loc 1 277 17 view .LVU687
 2613 0654 1EE6     		b	.L109		@
ARM GAS  /tmp/cc3Huoko.s 			page 61


 2614              	.LVL194:
 2615              	.L321:
 272:../../peripheral_library/api/apiVP.c **** 
 2616              		.loc 1 272 7 is_stmt 1 view .LVU688
 2617              	@ ../../peripheral_library/api/apiVP.c:272:       s32CurYY = s32CurYY>>14;
 272:../../peripheral_library/api/apiVP.c **** 
 2618              		.loc 1 272 16 is_stmt 0 view .LVU689
 2619 0656 4FEAA73A 		asr	r10, r7, #14	@ s32CurYY, s32CurYY,
 2620              	.LVL195:
 274:../../peripheral_library/api/apiVP.c ****         s16CurY = MAX_S16;
 2621              		.loc 1 274 7 is_stmt 1 view .LVU690
 2622              	.L115:
 279:../../peripheral_library/api/apiVP.c **** 
 2623              		.loc 1 279 9 view .LVU691
 2624              	@ ../../peripheral_library/api/apiVP.c:279:         s16CurY = (S16)s32CurYY;
 279:../../peripheral_library/api/apiVP.c **** 
 2625              		.loc 1 279 17 is_stmt 0 view .LVU692
 2626 065a 0FFA8AFA 		sxth	r10, r10	@ s16CurY, s32CurYY
 2627              	.LVL196:
 279:../../peripheral_library/api/apiVP.c **** 
 2628              		.loc 1 279 17 view .LVU693
 2629 065e 4EE6     		b	.L113		@
 2630              	.LVL197:
 2631              	.L174:
 279:../../peripheral_library/api/apiVP.c **** 
 2632              		.loc 1 279 17 view .LVU694
 2633 0660 A246     		mov	r10, r4	@ s32CurYY, _s32PreYY_I_I_lsm.138
 2634 0662 0AE6     		b	.L110		@
 2635              	.LVL198:
 2636              	.L322:
 276:../../peripheral_library/api/apiVP.c ****         s16CurY = MIN_S16;
 2637              		.loc 1 276 12 is_stmt 1 view .LVU695
 2638              	@ ../../peripheral_library/api/apiVP.c:276:       else if(s32CurYY<MIN_S16)
 276:../../peripheral_library/api/apiVP.c ****         s16CurY = MIN_S16;
 2639              		.loc 1 276 14 is_stmt 0 view .LVU696
 2640 0664 1AF5004F 		cmn	r10, #32768	@ s32CurYY,
 2641 0668 F7DA     		bge	.L115		@,
 2642              	@ ../../peripheral_library/api/apiVP.c:277:         s16CurY = MIN_S16;
 277:../../peripheral_library/api/apiVP.c ****       else
 2643              		.loc 1 277 17 view .LVU697
 2644 066a DFF888A0 		ldr	r10, .L333+8	@ s16CurY,
 2645              	.LVL199:
 277:../../peripheral_library/api/apiVP.c ****       else
 2646              		.loc 1 277 17 view .LVU698
 2647 066e 46E6     		b	.L113		@
 2648              	.LVL200:
 2649              	.L324:
 276:../../peripheral_library/api/apiVP.c ****         s16CurY = MIN_S16;
 2650              		.loc 1 276 12 is_stmt 1 view .LVU699
 2651              	@ ../../peripheral_library/api/apiVP.c:276:       else if(s32CurYY<MIN_S16)
 276:../../peripheral_library/api/apiVP.c ****         s16CurY = MIN_S16;
 2652              		.loc 1 276 14 is_stmt 0 view .LVU700
 2653 0670 1AF5004F 		cmn	r10, #32768	@ s32CurYY,
 2654 0674 04DA     		bge	.L119		@,
 2655              	@ ../../peripheral_library/api/apiVP.c:277:         s16CurY = MIN_S16;
 277:../../peripheral_library/api/apiVP.c ****       else
 2656              		.loc 1 277 17 view .LVU701
ARM GAS  /tmp/cc3Huoko.s 			page 62


 2657 0676 DFF87CA0 		ldr	r10, .L333+8	@ s16CurY,
 2658              	.LVL201:
 277:../../peripheral_library/api/apiVP.c ****       else
 2659              		.loc 1 277 17 view .LVU702
 2660 067a 77E6     		b	.L117		@
 2661              	.LVL202:
 2662              	.L323:
 272:../../peripheral_library/api/apiVP.c **** 
 2663              		.loc 1 272 7 is_stmt 1 view .LVU703
 2664              	@ ../../peripheral_library/api/apiVP.c:272:       s32CurYY = s32CurYY>>14;
 272:../../peripheral_library/api/apiVP.c **** 
 2665              		.loc 1 272 16 is_stmt 0 view .LVU704
 2666 067c 4FEAA13A 		asr	r10, r1, #14	@ s32CurYY, s32CurYY,
 2667              	.LVL203:
 274:../../peripheral_library/api/apiVP.c ****         s16CurY = MAX_S16;
 2668              		.loc 1 274 7 is_stmt 1 view .LVU705
 2669              	.L119:
 279:../../peripheral_library/api/apiVP.c **** 
 2670              		.loc 1 279 9 view .LVU706
 2671              	@ ../../peripheral_library/api/apiVP.c:279:         s16CurY = (S16)s32CurYY;
 279:../../peripheral_library/api/apiVP.c **** 
 2672              		.loc 1 279 17 is_stmt 0 view .LVU707
 2673 0680 0FFA8AFA 		sxth	r10, r10	@ s16CurY, s32CurYY
 2674              	.LVL204:
 279:../../peripheral_library/api/apiVP.c **** 
 2675              		.loc 1 279 17 view .LVU708
 2676 0684 72E6     		b	.L117		@
 2677              	.LVL205:
 2678              	.L177:
 279:../../peripheral_library/api/apiVP.c **** 
 2679              		.loc 1 279 17 view .LVU709
 2680 0686 A246     		mov	r10, r4	@ s32CurYY, _s32PreYY_I_I_lsm.146
 2681 0688 2DE6     		b	.L114		@
 2682              	.LVL206:
 2683              	.L325:
 272:../../peripheral_library/api/apiVP.c **** 
 2684              		.loc 1 272 7 is_stmt 1 view .LVU710
 2685              	@ ../../peripheral_library/api/apiVP.c:272:       s32CurYY = s32CurYY>>14;
 272:../../peripheral_library/api/apiVP.c **** 
 2686              		.loc 1 272 16 is_stmt 0 view .LVU711
 2687 068a 4FEAA13A 		asr	r10, r1, #14	@ s32CurYY, s32CurYY,
 2688              	.LVL207:
 274:../../peripheral_library/api/apiVP.c ****         s16CurY = MAX_S16;
 2689              		.loc 1 274 7 is_stmt 1 view .LVU712
 2690              	.L123:
 279:../../peripheral_library/api/apiVP.c **** 
 2691              		.loc 1 279 9 view .LVU713
 2692              	@ ../../peripheral_library/api/apiVP.c:279:         s16CurY = (S16)s32CurYY;
 279:../../peripheral_library/api/apiVP.c **** 
 2693              		.loc 1 279 17 is_stmt 0 view .LVU714
 2694 068e 0FFA8AFA 		sxth	r10, r10	@ s16CurY, s32CurYY
 2695              	.LVL208:
 279:../../peripheral_library/api/apiVP.c **** 
 2696              		.loc 1 279 17 view .LVU715
 2697 0692 A2E6     		b	.L121		@
 2698              	.LVL209:
 2699              	.L180:
ARM GAS  /tmp/cc3Huoko.s 			page 63


 279:../../peripheral_library/api/apiVP.c **** 
 2700              		.loc 1 279 17 view .LVU716
 2701 0694 A246     		mov	r10, r4	@ s32CurYY, _s32PreYY_I_I_lsm.154
 2702 0696 5CE6     		b	.L118		@
 2703              	.LVL210:
 2704              	.L326:
 276:../../peripheral_library/api/apiVP.c ****         s16CurY = MIN_S16;
 2705              		.loc 1 276 12 is_stmt 1 view .LVU717
 2706              	@ ../../peripheral_library/api/apiVP.c:276:       else if(s32CurYY<MIN_S16)
 276:../../peripheral_library/api/apiVP.c ****         s16CurY = MIN_S16;
 2707              		.loc 1 276 14 is_stmt 0 view .LVU718
 2708 0698 1AF5004F 		cmn	r10, #32768	@ s32CurYY,
 2709 069c F7DA     		bge	.L123		@,
 2710              	@ ../../peripheral_library/api/apiVP.c:277:         s16CurY = MIN_S16;
 277:../../peripheral_library/api/apiVP.c ****       else
 2711              		.loc 1 277 17 view .LVU719
 2712 069e DFF854A0 		ldr	r10, .L333+8	@ s16CurY,
 2713              	.LVL211:
 277:../../peripheral_library/api/apiVP.c ****       else
 2714              		.loc 1 277 17 view .LVU720
 2715 06a2 9AE6     		b	.L121		@
 2716              	.LVL212:
 2717              	.L327:
 272:../../peripheral_library/api/apiVP.c **** 
 2718              		.loc 1 272 7 is_stmt 1 view .LVU721
 2719              	@ ../../peripheral_library/api/apiVP.c:272:       s32CurYY = s32CurYY>>14;
 272:../../peripheral_library/api/apiVP.c **** 
 2720              		.loc 1 272 16 is_stmt 0 view .LVU722
 2721 06a4 4FEAA13A 		asr	r10, r1, #14	@ s32CurYY, s32CurYY,
 2722              	.LVL213:
 274:../../peripheral_library/api/apiVP.c ****         s16CurY = MAX_S16;
 2723              		.loc 1 274 7 is_stmt 1 view .LVU723
 2724              	.L127:
 279:../../peripheral_library/api/apiVP.c **** 
 2725              		.loc 1 279 9 view .LVU724
 2726              	@ ../../peripheral_library/api/apiVP.c:279:         s16CurY = (S16)s32CurYY;
 279:../../peripheral_library/api/apiVP.c **** 
 2727              		.loc 1 279 17 is_stmt 0 view .LVU725
 2728 06a8 0FFA8AFA 		sxth	r10, r10	@ s16CurY, s32CurYY
 2729              	.LVL214:
 279:../../peripheral_library/api/apiVP.c **** 
 2730              		.loc 1 279 17 view .LVU726
 2731 06ac CCE6     		b	.L125		@
 2732              	.LVL215:
 2733              	.L328:
 276:../../peripheral_library/api/apiVP.c ****         s16CurY = MIN_S16;
 2734              		.loc 1 276 12 is_stmt 1 view .LVU727
 2735              	@ ../../peripheral_library/api/apiVP.c:276:       else if(s32CurYY<MIN_S16)
 276:../../peripheral_library/api/apiVP.c ****         s16CurY = MIN_S16;
 2736              		.loc 1 276 14 is_stmt 0 view .LVU728
 2737 06ae 1AF5004F 		cmn	r10, #32768	@ s32CurYY,
 2738 06b2 F9DA     		bge	.L127		@,
 2739              	@ ../../peripheral_library/api/apiVP.c:277:         s16CurY = MIN_S16;
 277:../../peripheral_library/api/apiVP.c ****       else
 2740              		.loc 1 277 17 view .LVU729
 2741 06b4 DFF83CA0 		ldr	r10, .L333+8	@ s16CurY,
 2742              	.LVL216:
ARM GAS  /tmp/cc3Huoko.s 			page 64


 277:../../peripheral_library/api/apiVP.c ****       else
 2743              		.loc 1 277 17 view .LVU730
 2744 06b8 C6E6     		b	.L125		@
 2745              	.LVL217:
 2746              	.L183:
 277:../../peripheral_library/api/apiVP.c ****       else
 2747              		.loc 1 277 17 view .LVU731
 2748 06ba A246     		mov	r10, r4	@ s32CurYY, _s32PreYY_I_I_lsm.162
 2749 06bc 80E6     		b	.L122		@
 2750              	.LVL218:
 2751              	.L128:
 272:../../peripheral_library/api/apiVP.c **** 
 2752              		.loc 1 272 7 is_stmt 1 view .LVU732
 2753              	@ ../../peripheral_library/api/apiVP.c:272:       s32CurYY = s32CurYY>>14;
 272:../../peripheral_library/api/apiVP.c **** 
 2754              		.loc 1 272 16 is_stmt 0 view .LVU733
 2755 06be 4FEAA43A 		asr	r10, r4, #14	@ s32CurYY, s32CurYY,
 2756              	.LVL219:
 274:../../peripheral_library/api/apiVP.c ****         s16CurY = MAX_S16;
 2757              		.loc 1 274 7 is_stmt 1 view .LVU734
 2758              	.L164:
 279:../../peripheral_library/api/apiVP.c **** 
 2759              		.loc 1 279 9 view .LVU735
 2760              	@ ../../peripheral_library/api/apiVP.c:279:         s16CurY = (S16)s32CurYY;
 279:../../peripheral_library/api/apiVP.c **** 
 2761              		.loc 1 279 17 is_stmt 0 view .LVU736
 2762 06c2 0FFA8AFA 		sxth	r10, r10	@ s16CurY, s32CurYY
 2763              	.LVL220:
 279:../../peripheral_library/api/apiVP.c **** 
 2764              		.loc 1 279 17 view .LVU737
 2765 06c6 F4E6     		b	.L130		@
 2766              	.LVL221:
 2767              	.L329:
 276:../../peripheral_library/api/apiVP.c ****         s16CurY = MIN_S16;
 2768              		.loc 1 276 12 is_stmt 1 view .LVU738
 2769              	@ ../../peripheral_library/api/apiVP.c:276:       else if(s32CurYY<MIN_S16)
 276:../../peripheral_library/api/apiVP.c ****         s16CurY = MIN_S16;
 2770              		.loc 1 276 14 is_stmt 0 view .LVU739
 2771 06c8 1AF5004F 		cmn	r10, #32768	@ s32CurYY,
 2772 06cc F9DA     		bge	.L164		@,
 2773              	@ ../../peripheral_library/api/apiVP.c:277:         s16CurY = MIN_S16;
 277:../../peripheral_library/api/apiVP.c ****       else
 2774              		.loc 1 277 17 view .LVU740
 2775 06ce DFF824A0 		ldr	r10, .L333+8	@ s16CurY,
 2776              	.LVL222:
 277:../../peripheral_library/api/apiVP.c ****       else
 2777              		.loc 1 277 17 view .LVU741
 2778 06d2 EEE6     		b	.L130		@
 2779              	.LVL223:
 2780              	.L186:
 277:../../peripheral_library/api/apiVP.c ****       else
 2781              		.loc 1 277 17 view .LVU742
 2782 06d4 A246     		mov	r10, r4	@ s32CurYY, _s32PreYY_I_I_lsm.170
 2783 06d6 AAE6     		b	.L126		@
 2784              	.LVL224:
 2785              	.L189:
 277:../../peripheral_library/api/apiVP.c ****       else
ARM GAS  /tmp/cc3Huoko.s 			page 65


 2786              		.loc 1 277 17 view .LVU743
 2787 06d8 A246     		mov	r10, r4	@ s32CurYY, _s32PreYY_I_I_lsm.114
 2788 06da DDE6     		b	.L129		@
 2789              	.LVL225:
 2790              	.L94:
 248:../../peripheral_library/api/apiVP.c ****     return -1;
 2791              		.loc 1 248 5 is_stmt 1 view .LVU744
 2792 06dc 044B     		ldr	r3, .L333+4	@ tmp327,
 2793 06de 1B68     		ldr	r3, [r3]	@ gu32MosDbgLevel, gu32MosDbgLevel
 2794 06e0 DB07     		lsls	r3, r3, #31	@, gu32MosDbgLevel,
 2795 06e2 09D4     		bmi	.L330		@,
 2796              	.LVL226:
 2797              	.L167:
 2798              	@ ../../peripheral_library/api/apiVP.c:239:     return -1;
 239:../../peripheral_library/api/apiVP.c ****   }
 2799              		.loc 1 239 12 is_stmt 0 view .LVU745
 2800 06e4 4FF0FF30 		mov	r0, #-1	@ <retval>,
 2801              	.LVL227:
 239:../../peripheral_library/api/apiVP.c ****   }
 2802              		.loc 1 239 12 view .LVU746
 2803 06e8 85E7     		b	.L310		@
 2804              	.L334:
 2805 06ea 00BF     		.align	2
 2806              	.L333:
 2807 06ec 00000000 		.word	.LANCHOR7
 2808 06f0 00000000 		.word	gu32MosDbgLevel
 2809 06f4 0080FFFF 		.word	-32768
 2810              	.LVL228:
 2811              	.L330:
 248:../../peripheral_library/api/apiVP.c ****     return -1;
 2812              		.loc 1 248 5 is_stmt 1 discriminator 1 view .LVU747
 2813 06f8 0C48     		ldr	r0, .L335	@,
 2814              	.LVL229:
 248:../../peripheral_library/api/apiVP.c ****     return -1;
 2815              		.loc 1 248 5 is_stmt 0 discriminator 1 view .LVU748
 2816 06fa FFF7FEFF 		bl	UartSendTrace		@
 2817              	.LVL230:
 2818              	@ ../../peripheral_library/api/apiVP.c:249:     return -1;
 249:../../peripheral_library/api/apiVP.c ****   }
 2819              		.loc 1 249 12 discriminator 1 view .LVU749
 2820 06fe 4FF0FF30 		mov	r0, #-1	@ <retval>,
 2821 0702 78E7     		b	.L310		@
 2822              	.LVL231:
 2823              	.L313:
 243:../../peripheral_library/api/apiVP.c ****     return -1;
 2824              		.loc 1 243 5 is_stmt 1 view .LVU750
 2825 0704 0A4B     		ldr	r3, .L335+4	@ tmp317,
 2826 0706 1B68     		ldr	r3, [r3]	@ gu32MosDbgLevel, gu32MosDbgLevel
 2827 0708 DA07     		lsls	r2, r3, #31	@, gu32MosDbgLevel,
 2828 070a EBD5     		bpl	.L167		@,
 243:../../peripheral_library/api/apiVP.c ****     return -1;
 2829              		.loc 1 243 5 discriminator 1 view .LVU751
 2830 070c 0948     		ldr	r0, .L335+8	@,
 2831              	.LVL232:
 243:../../peripheral_library/api/apiVP.c ****     return -1;
 2832              		.loc 1 243 5 is_stmt 0 discriminator 1 view .LVU752
 2833 070e FFF7FEFF 		bl	UartSendTrace		@
ARM GAS  /tmp/cc3Huoko.s 			page 66


 2834              	.LVL233:
 2835              	@ ../../peripheral_library/api/apiVP.c:244:     return -1;
 244:../../peripheral_library/api/apiVP.c ****   }
 2836              		.loc 1 244 12 discriminator 1 view .LVU753
 2837 0712 4FF0FF30 		mov	r0, #-1	@ <retval>,
 2838 0716 6EE7     		b	.L310		@
 2839              	.LVL234:
 2840              	.L312:
 238:../../peripheral_library/api/apiVP.c ****     return -1;
 2841              		.loc 1 238 5 is_stmt 1 view .LVU754
 2842 0718 054B     		ldr	r3, .L335+4	@ tmp313,
 2843 071a 1B68     		ldr	r3, [r3]	@ gu32MosDbgLevel, gu32MosDbgLevel
 2844 071c D907     		lsls	r1, r3, #31	@, gu32MosDbgLevel,
 2845              	.LVL235:
 238:../../peripheral_library/api/apiVP.c ****     return -1;
 2846              		.loc 1 238 5 is_stmt 0 view .LVU755
 2847 071e E1D5     		bpl	.L167		@,
 238:../../peripheral_library/api/apiVP.c ****     return -1;
 2848              		.loc 1 238 5 is_stmt 1 discriminator 1 view .LVU756
 2849 0720 0548     		ldr	r0, .L335+12	@,
 2850              	.LVL236:
 238:../../peripheral_library/api/apiVP.c ****     return -1;
 2851              		.loc 1 238 5 is_stmt 0 discriminator 1 view .LVU757
 2852 0722 FFF7FEFF 		bl	UartSendTrace		@
 2853              	.LVL237:
 2854              	@ ../../peripheral_library/api/apiVP.c:239:     return -1;
 239:../../peripheral_library/api/apiVP.c ****   }
 2855              		.loc 1 239 12 discriminator 1 view .LVU758
 2856 0726 4FF0FF30 		mov	r0, #-1	@ <retval>,
 2857 072a 64E7     		b	.L310		@
 2858              	.L336:
 2859              		.align	2
 2860              	.L335:
 2861 072c 3C000000 		.word	.LC4
 2862 0730 00000000 		.word	gu32MosDbgLevel
 2863 0734 1C000000 		.word	.LC3
 2864 0738 00000000 		.word	.LC2
 2865              		.cfi_endproc
 2866              	.LFE147:
 2867              		.size	HPF_16, .-HPF_16
 2868              		.section	.text.HPF_32,"ax",%progbits
 2869              		.align	1
 2870              		.p2align 2,,3
 2871              		.global	HPF_32
 2872              		.syntax unified
 2873              		.thumb
 2874              		.thumb_func
 2875              		.fpu fpv4-sp-d16
 2876              		.type	HPF_32, %function
 2877              	HPF_32:
 2878              	.LVL238:
 2879              	.LFB148:
 289:../../peripheral_library/api/apiVP.c **** 
 290:../../peripheral_library/api/apiVP.c **** 
 291:../../peripheral_library/api/apiVP.c **** S16 HPF_32(S8* ps8Buffer, U16 u16Size)
 292:../../peripheral_library/api/apiVP.c **** {
 2880              		.loc 1 292 1 is_stmt 1 view -0
ARM GAS  /tmp/cc3Huoko.s 			page 67


 2881              		.cfi_startproc
 2882              		@ args = 0, pretend = 0, frame = 32
 2883              		@ frame_needed = 0, uses_anonymous_args = 0
 293:../../peripheral_library/api/apiVP.c ****   S64 s64CurYY;
 2884              		.loc 1 293 3 view .LVU760
 294:../../peripheral_library/api/apiVP.c ****   S64 s64CurXX;
 2885              		.loc 1 294 3 view .LVU761
 295:../../peripheral_library/api/apiVP.c ****   S32 s32CurX;
 2886              		.loc 1 295 3 view .LVU762
 296:../../peripheral_library/api/apiVP.c ****   S32 s32CurY;
 2887              		.loc 1 296 3 view .LVU763
 297:../../peripheral_library/api/apiVP.c ****   U16 u16Num=0;
 2888              		.loc 1 297 3 view .LVU764
 298:../../peripheral_library/api/apiVP.c ****   U16 u16Frame;
 2889              		.loc 1 298 3 view .LVU765
 299:../../peripheral_library/api/apiVP.c ****   U16 u16Chn=0;
 2890              		.loc 1 299 3 view .LVU766
 300:../../peripheral_library/api/apiVP.c ****   U16 u16Bytes=4;
 2891              		.loc 1 300 3 view .LVU767
 301:../../peripheral_library/api/apiVP.c ****   U16 u16Iter=0;
 2892              		.loc 1 301 3 view .LVU768
 302:../../peripheral_library/api/apiVP.c **** 
 303:../../peripheral_library/api/apiVP.c ****   if(u16Size == 0){
 2893              		.loc 1 303 3 view .LVU769
 2894              	@ ../../peripheral_library/api/apiVP.c:292: {
 292:../../peripheral_library/api/apiVP.c ****   S64 s64CurYY;
 2895              		.loc 1 292 1 is_stmt 0 view .LVU770
 2896 0000 2DE9F04F 		push	{r4, r5, r6, r7, r8, r9, r10, fp, lr}	@
 2897              		.cfi_def_cfa_offset 36
 2898              		.cfi_offset 4, -36
 2899              		.cfi_offset 5, -32
 2900              		.cfi_offset 6, -28
 2901              		.cfi_offset 7, -24
 2902              		.cfi_offset 8, -20
 2903              		.cfi_offset 9, -16
 2904              		.cfi_offset 10, -12
 2905              		.cfi_offset 11, -8
 2906              		.cfi_offset 14, -4
 2907 0004 89B0     		sub	sp, sp, #36	@,,
 2908              		.cfi_def_cfa_offset 72
 2909              	@ ../../peripheral_library/api/apiVP.c:303:   if(u16Size == 0){
 2910              		.loc 1 303 5 view .LVU771
 2911 0006 0029     		cmp	r1, #0	@ u16Size
 2912 0008 00F0EB80 		beq	.L368	@
 304:../../peripheral_library/api/apiVP.c ****     VP_ERROR("[ERROR] Size 0\n");
 305:../../peripheral_library/api/apiVP.c ****     return -1;
 306:../../peripheral_library/api/apiVP.c ****   }
 307:../../peripheral_library/api/apiVP.c **** 
 308:../../peripheral_library/api/apiVP.c ****   if(!ps8Buffer){
 2913              		.loc 1 308 3 is_stmt 1 view .LVU772
 2914              	@ ../../peripheral_library/api/apiVP.c:308:   if(!ps8Buffer){
 2915              		.loc 1 308 5 is_stmt 0 view .LVU773
 2916 000c 0028     		cmp	r0, #0	@ ps8Buffer
 2917 000e 00F0DE80 		beq	.L369	@
 309:../../peripheral_library/api/apiVP.c ****     VP_ERROR("[ERROR] NULL Buffer\n");
 310:../../peripheral_library/api/apiVP.c ****     return -1;
 311:../../peripheral_library/api/apiVP.c ****   }
ARM GAS  /tmp/cc3Huoko.s 			page 68


 312:../../peripheral_library/api/apiVP.c **** 
 313:../../peripheral_library/api/apiVP.c ****   if(_u16Channel>8 || _s16Coef>9 || _s16Coef<=-3 || _u16Stage>2){
 2918              		.loc 1 313 3 is_stmt 1 view .LVU774
 2919              	@ ../../peripheral_library/api/apiVP.c:313:   if(_u16Channel>8 || _s16Coef>9 || _s16Coef<=-3 || _u1
 2920              		.loc 1 313 17 is_stmt 0 view .LVU775
 2921 0012 794B     		ldr	r3, .L374	@ tmp174,
 2922 0014 1B88     		ldrh	r3, [r3]	@ _u16Channel.25_5, _u16Channel
 2923              	@ ../../peripheral_library/api/apiVP.c:313:   if(_u16Channel>8 || _s16Coef>9 || _s16Coef<=-3 || _u1
 2924              		.loc 1 313 5 view .LVU776
 2925 0016 082B     		cmp	r3, #8	@ _u16Channel.25_5,
 2926 0018 00F2CC80 		bhi	.L341		@,
 2927              	@ ../../peripheral_library/api/apiVP.c:313:   if(_u16Channel>8 || _s16Coef>9 || _s16Coef<=-3 || _u1
 2928              		.loc 1 313 31 discriminator 1 view .LVU777
 2929 001c 774A     		ldr	r2, .L374+4	@ tmp175,
 2930 001e B2F90060 		ldrsh	r6, [r2]	@ _s16Coef.26_6, _s16Coef
 2931              	@ ../../peripheral_library/api/apiVP.c:313:   if(_u16Channel>8 || _s16Coef>9 || _s16Coef<=-3 || _u1
 2932              		.loc 1 313 20 discriminator 1 view .LVU778
 2933 0022 B21C     		adds	r2, r6, #2	@ tmp177, _s16Coef.26_6,
 2934 0024 92B2     		uxth	r2, r2	@ tmp178, tmp177
 2935 0026 0B2A     		cmp	r2, #11	@ tmp178,
 2936 0028 00F2C480 		bhi	.L341		@,
 2937              	@ ../../peripheral_library/api/apiVP.c:313:   if(_u16Channel>8 || _s16Coef>9 || _s16Coef<=-3 || _u1
 2938              		.loc 1 313 62 discriminator 3 view .LVU779
 2939 002c 744A     		ldr	r2, .L374+8	@ tmp179,
 2940 002e B2F800C0 		ldrh	ip, [r2]	@ _u16Stage.28_8, _u16Stage
 2941              	@ ../../peripheral_library/api/apiVP.c:313:   if(_u16Channel>8 || _s16Coef>9 || _s16Coef<=-3 || _u1
 2942              		.loc 1 313 50 discriminator 3 view .LVU780
 2943 0032 BCF1020F 		cmp	ip, #2	@ _u16Stage.28_8,
 2944 0036 00F2BD80 		bhi	.L341		@,
 314:../../peripheral_library/api/apiVP.c ****     VP_ERROR("[ERROR] param not support\n");
 315:../../peripheral_library/api/apiVP.c ****     return -1;
 316:../../peripheral_library/api/apiVP.c ****   }
 317:../../peripheral_library/api/apiVP.c **** 
 318:../../peripheral_library/api/apiVP.c ****   u16Frame = u16Size/(_u16Channel*u16Bytes);
 2945              		.loc 1 318 3 is_stmt 1 view .LVU781
 2946              	@ ../../peripheral_library/api/apiVP.c:318:   u16Frame = u16Size/(_u16Channel*u16Bytes);
 2947              		.loc 1 318 34 is_stmt 0 view .LVU782
 2948 003a 9A00     		lsls	r2, r3, #2	@ tmp184, _u16Channel.25_5,
 2949 003c 0692     		str	r2, [sp, #24]	@ tmp184, %sfp
 2950              	@ ../../peripheral_library/api/apiVP.c:318:   u16Frame = u16Size/(_u16Channel*u16Bytes);
 2951              		.loc 1 318 21 view .LVU783
 2952 003e B1FBF2F1 		udiv	r1, r1, r2	@ _14, u16Size, tmp184
 2953              	.LVL239:
 2954              	@ ../../peripheral_library/api/apiVP.c:318:   u16Frame = u16Size/(_u16Channel*u16Bytes);
 2955              		.loc 1 318 12 view .LVU784
 2956 0042 8AB2     		uxth	r2, r1	@ u16Frame, _14
 2957 0044 0592     		str	r2, [sp, #20]	@ u16Frame, %sfp
 2958              	.LVL240:
 319:../../peripheral_library/api/apiVP.c **** 
 320:../../peripheral_library/api/apiVP.c ****   while(u16Num<u16Frame){
 2959              		.loc 1 320 3 is_stmt 1 view .LVU785
 2960              	@ ../../peripheral_library/api/apiVP.c:320:   while(u16Num<u16Frame){
 2961              		.loc 1 320 8 is_stmt 0 view .LVU786
 2962 0046 0029     		cmp	r1, #0	@ _14
 2963 0048 00F0B080 		beq	.L352	@
 2964              	@ ../../peripheral_library/api/apiVP.c:323:       if(u16Chn >= _u16ProcChn)
 321:../../peripheral_library/api/apiVP.c ****     for(u16Chn=0;u16Chn<_u16Channel;u16Chn++){
ARM GAS  /tmp/cc3Huoko.s 			page 69


 322:../../peripheral_library/api/apiVP.c **** 
 323:../../peripheral_library/api/apiVP.c ****       if(u16Chn >= _u16ProcChn)
 2965              		.loc 1 323 17 view .LVU787
 2966 004c 6D4A     		ldr	r2, .L374+12	@ tmp185,
 2967 004e 1288     		ldrh	r2, [r2]	@ _u16ProcChn.31_15, _u16ProcChn
 2968 0050 0792     		str	r2, [sp, #28]	@ _u16ProcChn.31_15, %sfp
 2969 0052 002B     		cmp	r3, #0	@ _u16Channel.25_5
 2970 0054 00F0AA80 		beq	.L352	@
 2971 0058 9A42     		cmp	r2, r3	@ _117, _u16Channel.25_5
 2972 005a 06F10306 		add	r6, r6, #3	@ _111, _s16Coef.26_6,
 2973 005e 28BF     		it	cs
 2974 0060 1A46     		movcs	r2, r3	@ _117, _u16Channel.25_5
 2975              	@ ../../peripheral_library/api/apiVP.c:330:         s64CurYY = s64CurXX - _s64PreXX[u16Chn][u16Iter
 324:../../peripheral_library/api/apiVP.c ****         continue;
 325:../../peripheral_library/api/apiVP.c **** 
 326:../../peripheral_library/api/apiVP.c ****       s32CurX =*(S32*)(ps8Buffer+(u16Num*_u16Channel+u16Chn)*u16Bytes);
 327:../../peripheral_library/api/apiVP.c ****       s64CurYY = (S64)s32CurX<<6;
 328:../../peripheral_library/api/apiVP.c ****       for(u16Iter=0;u16Iter<_u16Stage;u16Iter++){
 329:../../peripheral_library/api/apiVP.c ****         s64CurXX = s64CurYY;
 330:../../peripheral_library/api/apiVP.c ****         s64CurYY = s64CurXX - _s64PreXX[u16Chn][u16Iter] + _s64PreYY[u16Chn][u16Iter] - (_s64PreYY[
 2976              		.loc 1 330 116 view .LVU788
 2977 0062 C6F12003 		rsb	r3, r6, #32	@ tmp230, _111,
 2978 0066 0193     		str	r3, [sp, #4]	@ tmp230, %sfp
 2979              	@ ../../peripheral_library/api/apiVP.c:323:       if(u16Chn >= _u16ProcChn)
 323:../../peripheral_library/api/apiVP.c ****         continue;
 2980              		.loc 1 323 17 view .LVU789
 2981 0068 0023     		movs	r3, #0	@ ivtmp.189,
 2982 006a 0390     		str	r0, [sp, #12]	@ ps8Buffer, %sfp
 2983 006c 9346     		mov	fp, r2	@ _117, _117
 2984 006e 0493     		str	r3, [sp, #16]	@ ivtmp.189, %sfp
 2985 0070 0BE0     		b	.L345		@
 2986              	.LVL241:
 2987              	.L354:
 331:../../peripheral_library/api/apiVP.c **** 
 332:../../peripheral_library/api/apiVP.c ****         _s64PreXX[u16Chn][u16Iter] = s64CurXX;
 333:../../peripheral_library/api/apiVP.c ****         _s64PreYY[u16Chn][u16Iter] = s64CurYY;
 334:../../peripheral_library/api/apiVP.c ****       }
 335:../../peripheral_library/api/apiVP.c ****       s64CurYY = (s64CurYY>>14)<<8; //LSB should be zero
 336:../../peripheral_library/api/apiVP.c ****       if(s64CurYY>MAX_S32)
 337:../../peripheral_library/api/apiVP.c ****         s32CurY = MAX_S32;
 338:../../peripheral_library/api/apiVP.c ****       else if(s64CurYY<MIN_S32)
 339:../../peripheral_library/api/apiVP.c ****         s32CurY = MIN_S32;
 340:../../peripheral_library/api/apiVP.c ****       else
 341:../../peripheral_library/api/apiVP.c ****         s32CurY = (S32)s64CurYY;
 342:../../peripheral_library/api/apiVP.c ****       *(S32*)(ps8Buffer+(u16Num*_u16Channel+u16Chn)*u16Bytes) = s32CurY;
 343:../../peripheral_library/api/apiVP.c **** 
 344:../../peripheral_library/api/apiVP.c ****     }
 345:../../peripheral_library/api/apiVP.c ****     u16Num++;
 2988              		.loc 1 345 5 is_stmt 1 view .LVU790
 2989              		.loc 1 345 5 is_stmt 0 view .LVU791
 2990 0072 039A     		ldr	r2, [sp, #12]	@ ivtmp.192, %sfp
 2991 0074 0699     		ldr	r1, [sp, #24]	@ tmp184, %sfp
 2992 0076 049B     		ldr	r3, [sp, #16]	@ ivtmp.189, %sfp
 2993 0078 0A44     		add	r2, r2, r1	@ ivtmp.192, tmp184
 2994 007a 0133     		adds	r3, r3, #1	@ ivtmp.189, ivtmp.189,
 2995 007c 0392     		str	r2, [sp, #12]	@ ivtmp.192, %sfp
 2996              	@ ../../peripheral_library/api/apiVP.c:320:   while(u16Num<u16Frame){
ARM GAS  /tmp/cc3Huoko.s 			page 70


 320:../../peripheral_library/api/apiVP.c ****     for(u16Chn=0;u16Chn<_u16Channel;u16Chn++){
 2997              		.loc 1 320 8 view .LVU792
 2998 007e 059A     		ldr	r2, [sp, #20]	@ u16Frame, %sfp
 2999 0080 0493     		str	r3, [sp, #16]	@ ivtmp.189, %sfp
 3000              	.LVL242:
 320:../../peripheral_library/api/apiVP.c ****     for(u16Chn=0;u16Chn<_u16Channel;u16Chn++){
 3001              		.loc 1 320 8 view .LVU793
 3002 0082 9BB2     		uxth	r3, r3	@ ivtmp.189, ivtmp.189
 3003 0084 9342     		cmp	r3, r2	@ ivtmp.189, u16Frame
 3004 0086 80F09180 		bcs	.L352		@,
 3005              	.L345:
 3006              	.LVL243:
 320:../../peripheral_library/api/apiVP.c ****     for(u16Chn=0;u16Chn<_u16Channel;u16Chn++){
 3007              		.loc 1 320 8 view .LVU794
 3008 008a 079B     		ldr	r3, [sp, #28]	@ _u16ProcChn.31_15, %sfp
 3009 008c 002B     		cmp	r3, #0	@ _u16ProcChn.31_15
 3010 008e F0D0     		beq	.L354	@
 3011 0090 5D48     		ldr	r0, .L374+16	@ ivtmp.183,
 3012 0092 5E49     		ldr	r1, .L374+20	@ ivtmp.184,
 3013              	@ ../../peripheral_library/api/apiVP.c:292: {
 292:../../peripheral_library/api/apiVP.c ****   S64 s64CurYY;
 3014              		.loc 1 292 1 view .LVU795
 3015 0094 039D     		ldr	r5, [sp, #12]	@ ivtmp.181, %sfp
 3016 0096 0096     		str	r6, [sp]	@ _111, %sfp
 3017 0098 0024     		movs	r4, #0	@ ivtmp.176,
 3018 009a 6DE0     		b	.L351		@
 3019              	.LVL244:
 3020              	.L372:
 329:../../peripheral_library/api/apiVP.c ****         s64CurYY = s64CurXX - _s64PreXX[u16Chn][u16Iter] + _s64PreYY[u16Chn][u16Iter] - (_s64PreYY[
 3021              		.loc 1 329 9 is_stmt 1 view .LVU796
 330:../../peripheral_library/api/apiVP.c **** 
 3022              		.loc 1 330 9 view .LVU797
 3023              	@ ../../peripheral_library/api/apiVP.c:330:         s64CurYY = s64CurXX - _s64PreXX[u16Chn][u16Iter
 330:../../peripheral_library/api/apiVP.c **** 
 3024              		.loc 1 330 29 is_stmt 0 view .LVU798
 3025 009c D0E90027 		ldrd	r2, r7, [r0]	@ MEM[base: _94, offset: 0B], MEM[base: _94, offset: 0B], ivtmp.183
 3026              	@ ../../peripheral_library/api/apiVP.c:330:         s64CurYY = s64CurXX - _s64PreXX[u16Chn][u16Iter
 330:../../peripheral_library/api/apiVP.c **** 
 3027              		.loc 1 330 77 view .LVU799
 3028 00a0 D1E9003A 		ldrd	r3, r10, [r1]	@ _108, _108, ivtmp.184
 3029              	.LVL245:
 3030              	@ ../../peripheral_library/api/apiVP.c:330:         s64CurYY = s64CurXX - _s64PreXX[u16Chn][u16Iter
 330:../../peripheral_library/api/apiVP.c **** 
 3031              		.loc 1 330 116 view .LVU800
 3032 00a4 009E     		ldr	r6, [sp]	@ _111, %sfp
 3033              	@ ../../peripheral_library/api/apiVP.c:330:         s64CurYY = s64CurXX - _s64PreXX[u16Chn][u16Iter
 330:../../peripheral_library/api/apiVP.c **** 
 3034              		.loc 1 330 29 view .LVU801
 3035 00a6 B8EB0202 		subs	r2, r8, r2	@ tmp252, s64CurYY, MEM[base: _94, offset: 0B]
 3036 00aa 6EEB0709 		sbc	r9, lr, r7	@ tmp253, s64CurYY, MEM[base: _94, offset: 0B]
 3037              	@ ../../peripheral_library/api/apiVP.c:330:         s64CurYY = s64CurXX - _s64PreXX[u16Chn][u16Iter
 330:../../peripheral_library/api/apiVP.c **** 
 3038              		.loc 1 330 58 view .LVU802
 3039 00ae D218     		adds	r2, r2, r3	@ _30, tmp252, _108
 3040              	@ ../../peripheral_library/api/apiVP.c:330:         s64CurYY = s64CurXX - _s64PreXX[u16Chn][u16Iter
 330:../../peripheral_library/api/apiVP.c **** 
 3041              		.loc 1 330 116 view .LVU803
ARM GAS  /tmp/cc3Huoko.s 			page 71


 3042 00b0 23FA06F3 		lsr	r3, r3, r6	@ tmp256, _108, _111
 3043 00b4 019E     		ldr	r6, [sp, #4]	@ tmp230, %sfp
 3044 00b6 0AFA06F7 		lsl	r7, r10, r6	@ tmp196, _108, tmp230
 3045 00ba 3E46     		mov	r6, r7	@ tmp196, tmp196
 3046 00bc 009F     		ldr	r7, [sp]	@ _111, %sfp
 3047              	@ ../../peripheral_library/api/apiVP.c:330:         s64CurYY = s64CurXX - _s64PreXX[u16Chn][u16Iter
 330:../../peripheral_library/api/apiVP.c **** 
 3048              		.loc 1 330 58 view .LVU804
 3049 00be 49EB0A09 		adc	r9, r9, r10	@ _30, tmp253, _108
 3050              	@ ../../peripheral_library/api/apiVP.c:330:         s64CurYY = s64CurXX - _s64PreXX[u16Chn][u16Iter
 330:../../peripheral_library/api/apiVP.c **** 
 3051              		.loc 1 330 116 view .LVU805
 3052 00c2 203F     		subs	r7, r7, #32	@ tmp197, _111,
 3053 00c4 43EA0603 		orr	r3, r3, r6	@ tmp256, tmp256, tmp196
 3054 00c8 58BF     		it	pl
 3055 00ca 4AFA07F7 		asrpl	r7, r10, r7	@ tmp197, _108, tmp197
 3056 00ce 009E     		ldr	r6, [sp]	@ _111, %sfp
 3057 00d0 58BF     		it	pl
 3058 00d2 3B43     		orrpl	r3, r3, r7	@ tmp256, tmp256, tmp197
 3059              	@ ../../peripheral_library/api/apiVP.c:330:         s64CurYY = s64CurXX - _s64PreXX[u16Chn][u16Iter
 330:../../peripheral_library/api/apiVP.c **** 
 3060              		.loc 1 330 18 view .LVU806
 3061 00d4 D31A     		subs	r3, r2, r3	@ s64CurYY, _30, tmp256
 3062              	@ ../../peripheral_library/api/apiVP.c:330:         s64CurYY = s64CurXX - _s64PreXX[u16Chn][u16Iter
 330:../../peripheral_library/api/apiVP.c **** 
 3063              		.loc 1 330 116 view .LVU807
 3064 00d6 4AFA06FA 		asr	r10, r10, r6	@ tmp257, _108, _111
 3065              	@ ../../peripheral_library/api/apiVP.c:330:         s64CurYY = s64CurXX - _s64PreXX[u16Chn][u16Iter
