ARM GAS  /tmp/ccEYK1mV.s 			page 1


   1              		.cpu cortex-m4
   2              		.eabi_attribute 27, 1	@ Tag_ABI_HardFP_use
   3              		.eabi_attribute 20, 1	@ Tag_ABI_FP_denormal
   4              		.eabi_attribute 21, 1	@ Tag_ABI_FP_exceptions
   5              		.eabi_attribute 23, 3	@ Tag_ABI_FP_number_model
   6              		.eabi_attribute 24, 1	@ Tag_ABI_align8_needed
   7              		.eabi_attribute 25, 1	@ Tag_ABI_align8_preserved
   8              		.eabi_attribute 26, 1	@ Tag_ABI_enum_size
   9              		.eabi_attribute 30, 2	@ Tag_ABI_optimization_goals
  10              		.eabi_attribute 34, 1	@ Tag_CPU_unaligned_access
  11              		.eabi_attribute 18, 4	@ Tag_ABI_PCS_wchar_t
  12              		.file	"apiVOC.c"
  13              	@ GNU C89 (GNU Tools for Arm Embedded Processors 8-2018-q4-major) version 8.2.1 20181213 (release) 
  14              	@	compiled by GNU C version 4.8.4, GMP version 6.1.0, MPFR version 3.1.4, MPC version 1.0.3, isl ve
  15              	
  16              	@ GGC heuristics: --param ggc-min-expand=96 --param ggc-min-heapsize=125422
  17              	@ options passed:  -isystem =/include/newlib-nano -I . -I .
  18              	@ -I ../../kernel/FreeRTOS/Source/include
  19              	@ -I ../../kernel/FreeRTOS/Source/portable/GCC/ARM_CM4F
  20              	@ -I ../../kernel/FreeRTOS/Demo/Common/include
  21              	@ -I ../../kernel/FreeRTOS-Plus/Source/FreeRTOS-Plus-CLI
  22              	@ -I ../../peripheral_library/inc -I ../../peripheral_library/hal/m7221/inc
  23              	@ -I ../../CMSIS -I ../../main_full -I ../../3rd/rokid/./ -I /.
  24              	@ -I /../../kernel/FreeRTOS/Source/include
  25              	@ -I /../../kernel/FreeRTOS/Source/portable/GCC/ARM_CM4F
  26              	@ -I /../../kernel/FreeRTOS/Demo/Common/include
  27              	@ -I /../../kernel/FreeRTOS-Plus/Source/FreeRTOS-Plus-CLI
  28              	@ -I /../../peripheral_library/inc
  29              	@ -I /../../peripheral_library/hal/m7221/inc -I /../../CMSIS
  30              	@ -I /../../main_full -I /../../3rd/rokid/./
  31              	@ -imultilib thumb/v7e-m+fp/softfp
  32              	@ -iprefix /home/gu/code/freeRTOS10/vendor/mstar/CM4/tools/gcc-arm-none-eabi-8-2018-q4-major/bin/..
  33              	@ -isysroot /home/gu/code/freeRTOS10/vendor/mstar/CM4/tools/gcc-arm-none-eabi-8-2018-q4-major/bin/.
  34              	@ -MD out/apiVOC.d -MF out/apiVOC.d -MP -MQ out/apiVOC.o
  35              	@ -D__USES_INITFINI__ -D CONFIG_BENCH=0 -D CONFIG_SYS_DBG_LEVEL=0xFFFFFFFF
  36              	@ -D CONFIG_VOC_MIC=6 -D CONFIG_AUD_I2S -D CONFIG_AUD_AEC
  37              	@ -D CONFIG_VOC_MIC_MAPPING -D CONFIG_VOC_SWHPF -D CONFIG_VOC_SW_SRC48K
  38              	@ -D ARM_MATH_CM4 -D BOOTROM_VERSION_ASIC
  39              	@ ../../peripheral_library/api/apiVOC.c -mcpu=cortex-m4 -mthumb
  40              	@ -mthumb-interwork -mfloat-abi=softfp -mfpu=fpv4-sp-d16 -march=armv7e-m+fp
  41              	@ -auxbase-strip out/apiVOC.o -g -ggdb3 -O3 -Wall -Wstrict-prototypes
  42              	@ -Wextra -std=gnu90 -ffunction-sections -fdata-sections
  43              	@ -fno-builtin-printf -fverbose-asm
  44              	@ options enabled:  -faggressive-loop-optimizations -falign-jumps
  45              	@ -falign-labels -falign-loops -fauto-inc-dec -fbranch-count-reg
  46              	@ -fcaller-saves -fchkp-check-incomplete-type -fchkp-check-read
  47              	@ -fchkp-check-write -fchkp-instrument-calls -fchkp-narrow-bounds
  48              	@ -fchkp-optimize -fchkp-store-bounds -fchkp-use-static-bounds
  49              	@ -fchkp-use-static-const-bounds -fchkp-use-wrappers -fcode-hoisting
  50              	@ -fcombine-stack-adjustments -fcommon -fcompare-elim -fcprop-registers
  51              	@ -fcrossjumping -fcse-follow-jumps -fdata-sections -fdefer-pop
  52              	@ -fdelete-null-pointer-checks -fdevirtualize -fdevirtualize-speculatively
  53              	@ -fdwarf2-cfi-asm -fearly-inlining -feliminate-unused-debug-types
  54              	@ -fexpensive-optimizations -fforward-propagate -ffp-int-builtin-inexact
  55              	@ -ffunction-cse -ffunction-sections -fgcse -fgcse-after-reload -fgcse-lm
  56              	@ -fgnu-runtime -fgnu-unique -fguess-branch-probability
  57              	@ -fhoist-adjacent-loads -fident -fif-conversion -fif-conversion2
ARM GAS  /tmp/ccEYK1mV.s 			page 2


  58              	@ -findirect-inlining -finline -finline-atomics -finline-functions
  59              	@ -finline-functions-called-once -finline-small-functions -fipa-bit-cp
  60              	@ -fipa-cp -fipa-cp-clone -fipa-icf -fipa-icf-functions -fipa-icf-variables
  61              	@ -fipa-profile -fipa-pure-const -fipa-ra -fipa-reference -fipa-sra
  62              	@ -fipa-vrp -fira-hoist-pressure -fira-share-save-slots
  63              	@ -fira-share-spill-slots -fisolate-erroneous-paths-dereference -fivopts
  64              	@ -fkeep-static-consts -fleading-underscore -flifetime-dse
  65              	@ -floop-interchange -floop-unroll-and-jam -flra-remat
  66              	@ -flto-odr-type-merging -fmath-errno -fmerge-constants
  67              	@ -fmerge-debug-strings -fmove-loop-invariants -fomit-frame-pointer
  68              	@ -foptimize-sibling-calls -foptimize-strlen -fpartial-inlining
  69              	@ -fpeel-loops -fpeephole -fpeephole2 -fplt -fpredictive-commoning
  70              	@ -fprefetch-loop-arrays -freg-struct-return -freorder-blocks
  71              	@ -freorder-functions -frerun-cse-after-loop
  72              	@ -fsched-critical-path-heuristic -fsched-dep-count-heuristic
  73              	@ -fsched-group-heuristic -fsched-interblock -fsched-last-insn-heuristic
  74              	@ -fsched-pressure -fsched-rank-heuristic -fsched-spec
  75              	@ -fsched-spec-insn-heuristic -fsched-stalled-insns-dep -fschedule-insns
  76              	@ -fschedule-insns2 -fsection-anchors -fsemantic-interposition
  77              	@ -fshow-column -fshrink-wrap -fshrink-wrap-separate -fsigned-zeros
  78              	@ -fsplit-ivs-in-unroller -fsplit-loops -fsplit-paths -fsplit-wide-types
  79              	@ -fssa-backprop -fssa-phiopt -fstdarg-opt -fstore-merging
  80              	@ -fstrict-aliasing -fstrict-volatile-bitfields -fsync-libcalls
  81              	@ -fthread-jumps -ftoplevel-reorder -ftrapping-math -ftree-bit-ccp
  82              	@ -ftree-builtin-call-dce -ftree-ccp -ftree-ch -ftree-coalesce-vars
  83              	@ -ftree-copy-prop -ftree-cselim -ftree-dce -ftree-dominator-opts
  84              	@ -ftree-dse -ftree-forwprop -ftree-fre -ftree-loop-distribute-patterns
  85              	@ -ftree-loop-distribution -ftree-loop-if-convert -ftree-loop-im
  86              	@ -ftree-loop-ivcanon -ftree-loop-optimize -ftree-loop-vectorize
  87              	@ -ftree-parallelize-loops= -ftree-partial-pre -ftree-phiprop -ftree-pre
  88              	@ -ftree-pta -ftree-reassoc -ftree-scev-cprop -ftree-sink
  89              	@ -ftree-slp-vectorize -ftree-slsr -ftree-sra -ftree-switch-conversion
  90              	@ -ftree-tail-merge -ftree-ter -ftree-vrp -funit-at-a-time -funswitch-loops
  91              	@ -fvar-tracking -fvar-tracking-assignments -fverbose-asm
  92              	@ -fzero-initialized-in-bss -masm-syntax-unified -mbe32 -mlittle-endian
  93              	@ -mpic-data-is-text-relative -msched-prolog -mthumb -munaligned-access
  94              	@ -mvectorize-with-neon-quad
  95              	
  96              		.text
  97              	.Ltext0:
  98              		.cfi_sections	.debug_frame
  99              		.section	.text.MApi_VOC_VDInit,"ax",%progbits
 100              		.align	1
 101              		.p2align 2,,3
 102              		.global	MApi_VOC_VDInit
 103              		.arch armv7e-m
 104              		.syntax unified
 105              		.thumb
 106              		.thumb_func
 107              		.fpu fpv4-sp-d16
 108              		.type	MApi_VOC_VDInit, %function
 109              	MApi_VOC_VDInit:
 110              	.LFB138:
 111              		.file 1 "../../peripheral_library/api/apiVOC.c"
   1:../../peripheral_library/api/apiVOC.c **** /* Standard includes. */
   2:../../peripheral_library/api/apiVOC.c **** #include <string.h>
   3:../../peripheral_library/api/apiVOC.c **** #include <stdio.h>
ARM GAS  /tmp/ccEYK1mV.s 			page 3


   4:../../peripheral_library/api/apiVOC.c **** 
   5:../../peripheral_library/api/apiVOC.c **** /* Kernel includes. */
   6:../../peripheral_library/api/apiVOC.c **** #include "mosWrapper.h"
   7:../../peripheral_library/api/apiVOC.c **** 
   8:../../peripheral_library/api/apiVOC.c **** /* driver includes. */
   9:../../peripheral_library/api/apiVOC.c **** #include "drvAudio.h"
  10:../../peripheral_library/api/apiVOC.c **** #include "drvBDMA.h"
  11:../../peripheral_library/api/apiVOC.c **** #include "drvMBX.h"
  12:../../peripheral_library/api/apiVOC.c **** #include "drvPM.h"
  13:../../peripheral_library/api/apiVOC.c **** #include "drvCPU.h"
  14:../../peripheral_library/api/apiVOC.c **** 
  15:../../peripheral_library/api/apiVOC.c **** #include "voc_task.h"
  16:../../peripheral_library/api/apiVOC.c **** #include "apiVOC.h"
  17:../../peripheral_library/api/apiVOC.c **** 
  18:../../peripheral_library/api/apiVOC.c **** #define VOC_MSG(fmt, args...) MOS_DBG_PRINT(MOS_DBG_LEVEL_VOC, "[VOC] " fmt, ##args)
  19:../../peripheral_library/api/apiVOC.c **** #define VOC_ERROR(fmt, args...) MOS_DBG_ERROR("[VOC ERR] " fmt, ##args);
  20:../../peripheral_library/api/apiVOC.c **** 
  21:../../peripheral_library/api/apiVOC.c **** #if defined(CONFIG_VOC_READBIN)
  22:../../peripheral_library/api/apiVOC.c **** INCBIN(voice, "../../3rd/Test/mics4_750ms.pcm");
  23:../../peripheral_library/api/apiVOC.c **** 
  24:../../peripheral_library/api/apiVOC.c **** static char *_pIncBinStart = (char *)&incbin_voice_start;
  25:../../peripheral_library/api/apiVOC.c **** static char *_pIncBinEnd = (char *)&incbin_voice_end;
  26:../../peripheral_library/api/apiVOC.c **** static char *_pIncBinPtr = (char *)&incbin_voice_start;
  27:../../peripheral_library/api/apiVOC.c **** #endif
  28:../../peripheral_library/api/apiVOC.c **** 
  29:../../peripheral_library/api/apiVOC.c **** static SemaphoreHandle_t _tVdMutex;
  30:../../peripheral_library/api/apiVOC.c **** static U32 _u32ACPUBufferAddr = 0;
  31:../../peripheral_library/api/apiVOC.c **** static U32 _u32ACPUBufferSize = 0;
  32:../../peripheral_library/api/apiVOC.c **** static S32 _u32ACPUBufferPtr = 0;
  33:../../peripheral_library/api/apiVOC.c **** static U32 _u32PeriodCount = 0;
  34:../../peripheral_library/api/apiVOC.c **** 
  35:../../peripheral_library/api/apiVOC.c **** static U16 _u16MaxToNotify = 0;
  36:../../peripheral_library/api/apiVOC.c **** static U16 _u16CountToNotify = 0;
  37:../../peripheral_library/api/apiVOC.c **** 
  38:../../peripheral_library/api/apiVOC.c **** void MApi_VOC_VDInit(void)
  39:../../peripheral_library/api/apiVOC.c **** {
 112              		.loc 1 39 1 view -0
 113              		.cfi_startproc
 114              		@ args = 0, pretend = 0, frame = 0
 115              		@ frame_needed = 0, uses_anonymous_args = 0
  40:../../peripheral_library/api/apiVOC.c ****   _tVdMutex = xSemaphoreCreateMutex();
 116              		.loc 1 40 3 view .LVU1
 117              	@ ../../peripheral_library/api/apiVOC.c:39: {
  39:../../peripheral_library/api/apiVOC.c ****   _tVdMutex = xSemaphoreCreateMutex();
 118              		.loc 1 39 1 is_stmt 0 view .LVU2
 119 0000 08B5     		push	{r3, lr}	@
 120              		.cfi_def_cfa_offset 8
 121              		.cfi_offset 3, -8
 122              		.cfi_offset 14, -4
 123              	@ ../../peripheral_library/api/apiVOC.c:40:   _tVdMutex = xSemaphoreCreateMutex();
 124              		.loc 1 40 15 view .LVU3
 125 0002 0120     		movs	r0, #1	@,
 126 0004 FFF7FEFF 		bl	xQueueCreateMutex		@
 127              	.LVL0:
 128              	@ ../../peripheral_library/api/apiVOC.c:40:   _tVdMutex = xSemaphoreCreateMutex();
 129              		.loc 1 40 13 view .LVU4
 130 0008 064B     		ldr	r3, .L7	@ tmp112,
ARM GAS  /tmp/ccEYK1mV.s 			page 4


 131 000a 1860     		str	r0, [r3]	@ _1, _tVdMutex
  41:../../peripheral_library/api/apiVOC.c ****   configASSERT( _tVdMutex );
 132              		.loc 1 41 3 is_stmt 1 view .LVU5
 133 000c 00B1     		cbz	r0, .L6	@ _1,
 134              	@ ../../peripheral_library/api/apiVOC.c:42: }
  42:../../peripheral_library/api/apiVOC.c **** }
 135              		.loc 1 42 1 is_stmt 0 view .LVU6
 136 000e 08BD     		pop	{r3, pc}	@
 137              	.L6:
  41:../../peripheral_library/api/apiVOC.c ****   configASSERT( _tVdMutex );
 138              		.loc 1 41 3 is_stmt 1 view .LVU7
 139              	.LBB4:
 140              	.LBI4:
 141              		.file 2 "../../kernel/FreeRTOS/Source/portable/GCC/ARM_CM4F/portmacro.h"
   1:../../kernel/FreeRTOS/Source/portable/GCC/ARM_CM4F/portmacro.h **** /*
   2:../../kernel/FreeRTOS/Source/portable/GCC/ARM_CM4F/portmacro.h ****  * FreeRTOS Kernel V10.0.1
   3:../../kernel/FreeRTOS/Source/portable/GCC/ARM_CM4F/portmacro.h ****  * Copyright (C) 2017 Amazon.com, Inc. or its affiliates.  All Rights Reserved.
   4:../../kernel/FreeRTOS/Source/portable/GCC/ARM_CM4F/portmacro.h ****  *
   5:../../kernel/FreeRTOS/Source/portable/GCC/ARM_CM4F/portmacro.h ****  * Permission is hereby granted, free of charge, to any person obtaining a copy of
   6:../../kernel/FreeRTOS/Source/portable/GCC/ARM_CM4F/portmacro.h ****  * this software and associated documentation files (the "Software"), to deal in
   7:../../kernel/FreeRTOS/Source/portable/GCC/ARM_CM4F/portmacro.h ****  * the Software without restriction, including without limitation the rights to
   8:../../kernel/FreeRTOS/Source/portable/GCC/ARM_CM4F/portmacro.h ****  * use, copy, modify, merge, publish, distribute, sublicense, and/or sell copies of
   9:../../kernel/FreeRTOS/Source/portable/GCC/ARM_CM4F/portmacro.h ****  * the Software, and to permit persons to whom the Software is furnished to do so,
  10:../../kernel/FreeRTOS/Source/portable/GCC/ARM_CM4F/portmacro.h ****  * subject to the following conditions:
  11:../../kernel/FreeRTOS/Source/portable/GCC/ARM_CM4F/portmacro.h ****  *
  12:../../kernel/FreeRTOS/Source/portable/GCC/ARM_CM4F/portmacro.h ****  * The above copyright notice and this permission notice shall be included in all
  13:../../kernel/FreeRTOS/Source/portable/GCC/ARM_CM4F/portmacro.h ****  * copies or substantial portions of the Software.
  14:../../kernel/FreeRTOS/Source/portable/GCC/ARM_CM4F/portmacro.h ****  *
  15:../../kernel/FreeRTOS/Source/portable/GCC/ARM_CM4F/portmacro.h ****  * THE SOFTWARE IS PROVIDED "AS IS", WITHOUT WARRANTY OF ANY KIND, EXPRESS OR
  16:../../kernel/FreeRTOS/Source/portable/GCC/ARM_CM4F/portmacro.h ****  * IMPLIED, INCLUDING BUT NOT LIMITED TO THE WARRANTIES OF MERCHANTABILITY, FITNESS
  17:../../kernel/FreeRTOS/Source/portable/GCC/ARM_CM4F/portmacro.h ****  * FOR A PARTICULAR PURPOSE AND NONINFRINGEMENT. IN NO EVENT SHALL THE AUTHORS OR
  18:../../kernel/FreeRTOS/Source/portable/GCC/ARM_CM4F/portmacro.h ****  * COPYRIGHT HOLDERS BE LIABLE FOR ANY CLAIM, DAMAGES OR OTHER LIABILITY, WHETHER
  19:../../kernel/FreeRTOS/Source/portable/GCC/ARM_CM4F/portmacro.h ****  * IN AN ACTION OF CONTRACT, TORT OR OTHERWISE, ARISING FROM, OUT OF OR IN
  20:../../kernel/FreeRTOS/Source/portable/GCC/ARM_CM4F/portmacro.h ****  * CONNECTION WITH THE SOFTWARE OR THE USE OR OTHER DEALINGS IN THE SOFTWARE.
  21:../../kernel/FreeRTOS/Source/portable/GCC/ARM_CM4F/portmacro.h ****  *
  22:../../kernel/FreeRTOS/Source/portable/GCC/ARM_CM4F/portmacro.h ****  * http://www.FreeRTOS.org
  23:../../kernel/FreeRTOS/Source/portable/GCC/ARM_CM4F/portmacro.h ****  * http://aws.amazon.com/freertos
  24:../../kernel/FreeRTOS/Source/portable/GCC/ARM_CM4F/portmacro.h ****  *
  25:../../kernel/FreeRTOS/Source/portable/GCC/ARM_CM4F/portmacro.h ****  * 1 tab == 4 spaces!
  26:../../kernel/FreeRTOS/Source/portable/GCC/ARM_CM4F/portmacro.h ****  */
  27:../../kernel/FreeRTOS/Source/portable/GCC/ARM_CM4F/portmacro.h **** 
  28:../../kernel/FreeRTOS/Source/portable/GCC/ARM_CM4F/portmacro.h **** 
  29:../../kernel/FreeRTOS/Source/portable/GCC/ARM_CM4F/portmacro.h **** #ifndef PORTMACRO_H
  30:../../kernel/FreeRTOS/Source/portable/GCC/ARM_CM4F/portmacro.h **** #define PORTMACRO_H
  31:../../kernel/FreeRTOS/Source/portable/GCC/ARM_CM4F/portmacro.h **** 
  32:../../kernel/FreeRTOS/Source/portable/GCC/ARM_CM4F/portmacro.h **** #ifdef __cplusplus
  33:../../kernel/FreeRTOS/Source/portable/GCC/ARM_CM4F/portmacro.h **** extern "C" {
  34:../../kernel/FreeRTOS/Source/portable/GCC/ARM_CM4F/portmacro.h **** #endif
  35:../../kernel/FreeRTOS/Source/portable/GCC/ARM_CM4F/portmacro.h **** 
  36:../../kernel/FreeRTOS/Source/portable/GCC/ARM_CM4F/portmacro.h **** /*-----------------------------------------------------------
  37:../../kernel/FreeRTOS/Source/portable/GCC/ARM_CM4F/portmacro.h ****  * Port specific definitions.
  38:../../kernel/FreeRTOS/Source/portable/GCC/ARM_CM4F/portmacro.h ****  *
  39:../../kernel/FreeRTOS/Source/portable/GCC/ARM_CM4F/portmacro.h ****  * The settings in this file configure FreeRTOS correctly for the
  40:../../kernel/FreeRTOS/Source/portable/GCC/ARM_CM4F/portmacro.h ****  * given hardware and compiler.
  41:../../kernel/FreeRTOS/Source/portable/GCC/ARM_CM4F/portmacro.h ****  *
  42:../../kernel/FreeRTOS/Source/portable/GCC/ARM_CM4F/portmacro.h ****  * These settings should not be altered.
  43:../../kernel/FreeRTOS/Source/portable/GCC/ARM_CM4F/portmacro.h ****  *-----------------------------------------------------------
ARM GAS  /tmp/ccEYK1mV.s 			page 5


  44:../../kernel/FreeRTOS/Source/portable/GCC/ARM_CM4F/portmacro.h ****  */
  45:../../kernel/FreeRTOS/Source/portable/GCC/ARM_CM4F/portmacro.h **** 
  46:../../kernel/FreeRTOS/Source/portable/GCC/ARM_CM4F/portmacro.h **** /* Type definitions. */
  47:../../kernel/FreeRTOS/Source/portable/GCC/ARM_CM4F/portmacro.h **** #define portCHAR		char
  48:../../kernel/FreeRTOS/Source/portable/GCC/ARM_CM4F/portmacro.h **** #define portFLOAT		float
  49:../../kernel/FreeRTOS/Source/portable/GCC/ARM_CM4F/portmacro.h **** #define portDOUBLE		double
  50:../../kernel/FreeRTOS/Source/portable/GCC/ARM_CM4F/portmacro.h **** #define portLONG		long
  51:../../kernel/FreeRTOS/Source/portable/GCC/ARM_CM4F/portmacro.h **** #define portSHORT		short
  52:../../kernel/FreeRTOS/Source/portable/GCC/ARM_CM4F/portmacro.h **** #define portSTACK_TYPE	uint32_t
  53:../../kernel/FreeRTOS/Source/portable/GCC/ARM_CM4F/portmacro.h **** #define portBASE_TYPE	long
  54:../../kernel/FreeRTOS/Source/portable/GCC/ARM_CM4F/portmacro.h **** 
  55:../../kernel/FreeRTOS/Source/portable/GCC/ARM_CM4F/portmacro.h **** typedef portSTACK_TYPE StackType_t;
  56:../../kernel/FreeRTOS/Source/portable/GCC/ARM_CM4F/portmacro.h **** typedef long BaseType_t;
  57:../../kernel/FreeRTOS/Source/portable/GCC/ARM_CM4F/portmacro.h **** typedef unsigned long UBaseType_t;
  58:../../kernel/FreeRTOS/Source/portable/GCC/ARM_CM4F/portmacro.h **** 
  59:../../kernel/FreeRTOS/Source/portable/GCC/ARM_CM4F/portmacro.h **** #if( configUSE_16_BIT_TICKS == 1 )
  60:../../kernel/FreeRTOS/Source/portable/GCC/ARM_CM4F/portmacro.h **** 	typedef uint16_t TickType_t;
  61:../../kernel/FreeRTOS/Source/portable/GCC/ARM_CM4F/portmacro.h **** 	#define portMAX_DELAY ( TickType_t ) 0xffff
  62:../../kernel/FreeRTOS/Source/portable/GCC/ARM_CM4F/portmacro.h **** #else
  63:../../kernel/FreeRTOS/Source/portable/GCC/ARM_CM4F/portmacro.h **** 	typedef uint32_t TickType_t;
  64:../../kernel/FreeRTOS/Source/portable/GCC/ARM_CM4F/portmacro.h **** 	#define portMAX_DELAY ( TickType_t ) 0xffffffffUL
  65:../../kernel/FreeRTOS/Source/portable/GCC/ARM_CM4F/portmacro.h **** 
  66:../../kernel/FreeRTOS/Source/portable/GCC/ARM_CM4F/portmacro.h **** 	/* 32-bit tick type on a 32-bit architecture, so reads of the tick count do
  67:../../kernel/FreeRTOS/Source/portable/GCC/ARM_CM4F/portmacro.h **** 	not need to be guarded with a critical section. */
  68:../../kernel/FreeRTOS/Source/portable/GCC/ARM_CM4F/portmacro.h **** 	#define portTICK_TYPE_IS_ATOMIC 1
  69:../../kernel/FreeRTOS/Source/portable/GCC/ARM_CM4F/portmacro.h **** #endif
  70:../../kernel/FreeRTOS/Source/portable/GCC/ARM_CM4F/portmacro.h **** /*-----------------------------------------------------------*/
  71:../../kernel/FreeRTOS/Source/portable/GCC/ARM_CM4F/portmacro.h **** 
  72:../../kernel/FreeRTOS/Source/portable/GCC/ARM_CM4F/portmacro.h **** /* Architecture specifics. */
  73:../../kernel/FreeRTOS/Source/portable/GCC/ARM_CM4F/portmacro.h **** #define portSTACK_GROWTH			( -1 )
  74:../../kernel/FreeRTOS/Source/portable/GCC/ARM_CM4F/portmacro.h **** #define portTICK_PERIOD_MS			( ( TickType_t ) 1000 / configTICK_RATE_HZ )
  75:../../kernel/FreeRTOS/Source/portable/GCC/ARM_CM4F/portmacro.h **** #define portBYTE_ALIGNMENT			8
  76:../../kernel/FreeRTOS/Source/portable/GCC/ARM_CM4F/portmacro.h **** /*-----------------------------------------------------------*/
  77:../../kernel/FreeRTOS/Source/portable/GCC/ARM_CM4F/portmacro.h **** 
  78:../../kernel/FreeRTOS/Source/portable/GCC/ARM_CM4F/portmacro.h **** /* Scheduler utilities. */
  79:../../kernel/FreeRTOS/Source/portable/GCC/ARM_CM4F/portmacro.h **** #define portYIELD() 															\
  80:../../kernel/FreeRTOS/Source/portable/GCC/ARM_CM4F/portmacro.h **** {																				\
  81:../../kernel/FreeRTOS/Source/portable/GCC/ARM_CM4F/portmacro.h **** 	/* Set a PendSV to request a context switch. */								\
  82:../../kernel/FreeRTOS/Source/portable/GCC/ARM_CM4F/portmacro.h **** 	portNVIC_INT_CTRL_REG = portNVIC_PENDSVSET_BIT;								\
  83:../../kernel/FreeRTOS/Source/portable/GCC/ARM_CM4F/portmacro.h **** 																				\
  84:../../kernel/FreeRTOS/Source/portable/GCC/ARM_CM4F/portmacro.h **** 	/* Barriers are normally not required but do ensure the code is completely	\
  85:../../kernel/FreeRTOS/Source/portable/GCC/ARM_CM4F/portmacro.h **** 	within the specified behaviour for the architecture. */						\
  86:../../kernel/FreeRTOS/Source/portable/GCC/ARM_CM4F/portmacro.h **** 	__asm volatile( "dsb" ::: "memory" );										\
  87:../../kernel/FreeRTOS/Source/portable/GCC/ARM_CM4F/portmacro.h **** 	__asm volatile( "isb" );													\
  88:../../kernel/FreeRTOS/Source/portable/GCC/ARM_CM4F/portmacro.h **** }
  89:../../kernel/FreeRTOS/Source/portable/GCC/ARM_CM4F/portmacro.h **** 
  90:../../kernel/FreeRTOS/Source/portable/GCC/ARM_CM4F/portmacro.h **** #define portNVIC_INT_CTRL_REG		( * ( ( volatile uint32_t * ) 0xe000ed04 ) )
  91:../../kernel/FreeRTOS/Source/portable/GCC/ARM_CM4F/portmacro.h **** #define portNVIC_PENDSVSET_BIT		( 1UL << 28UL )
  92:../../kernel/FreeRTOS/Source/portable/GCC/ARM_CM4F/portmacro.h **** #define portEND_SWITCHING_ISR( xSwitchRequired ) if( xSwitchRequired != pdFALSE ) portYIELD()
  93:../../kernel/FreeRTOS/Source/portable/GCC/ARM_CM4F/portmacro.h **** #define portYIELD_FROM_ISR( x ) portEND_SWITCHING_ISR( x )
  94:../../kernel/FreeRTOS/Source/portable/GCC/ARM_CM4F/portmacro.h **** /*-----------------------------------------------------------*/
  95:../../kernel/FreeRTOS/Source/portable/GCC/ARM_CM4F/portmacro.h **** 
  96:../../kernel/FreeRTOS/Source/portable/GCC/ARM_CM4F/portmacro.h **** /* Critical section management. */
  97:../../kernel/FreeRTOS/Source/portable/GCC/ARM_CM4F/portmacro.h **** extern void vPortEnterCritical( void );
  98:../../kernel/FreeRTOS/Source/portable/GCC/ARM_CM4F/portmacro.h **** extern void vPortExitCritical( void );
  99:../../kernel/FreeRTOS/Source/portable/GCC/ARM_CM4F/portmacro.h **** #define portSET_INTERRUPT_MASK_FROM_ISR()		ulPortRaiseBASEPRI()
 100:../../kernel/FreeRTOS/Source/portable/GCC/ARM_CM4F/portmacro.h **** #define portCLEAR_INTERRUPT_MASK_FROM_ISR(x)	vPortSetBASEPRI(x)
ARM GAS  /tmp/ccEYK1mV.s 			page 6


 101:../../kernel/FreeRTOS/Source/portable/GCC/ARM_CM4F/portmacro.h **** #define portDISABLE_INTERRUPTS()				vPortRaiseBASEPRI()
 102:../../kernel/FreeRTOS/Source/portable/GCC/ARM_CM4F/portmacro.h **** #define portENABLE_INTERRUPTS()					vPortSetBASEPRI(0)
 103:../../kernel/FreeRTOS/Source/portable/GCC/ARM_CM4F/portmacro.h **** #define portENTER_CRITICAL()					vPortEnterCritical()
 104:../../kernel/FreeRTOS/Source/portable/GCC/ARM_CM4F/portmacro.h **** #define portEXIT_CRITICAL()						vPortExitCritical()
 105:../../kernel/FreeRTOS/Source/portable/GCC/ARM_CM4F/portmacro.h **** 
 106:../../kernel/FreeRTOS/Source/portable/GCC/ARM_CM4F/portmacro.h **** /*-----------------------------------------------------------*/
 107:../../kernel/FreeRTOS/Source/portable/GCC/ARM_CM4F/portmacro.h **** 
 108:../../kernel/FreeRTOS/Source/portable/GCC/ARM_CM4F/portmacro.h **** /* Task function macros as described on the FreeRTOS.org WEB site.  These are
 109:../../kernel/FreeRTOS/Source/portable/GCC/ARM_CM4F/portmacro.h **** not necessary for to use this port.  They are defined so the common demo files
 110:../../kernel/FreeRTOS/Source/portable/GCC/ARM_CM4F/portmacro.h **** (which build with all the ports) will build. */
 111:../../kernel/FreeRTOS/Source/portable/GCC/ARM_CM4F/portmacro.h **** #define portTASK_FUNCTION_PROTO( vFunction, pvParameters ) void vFunction( void *pvParameters )
 112:../../kernel/FreeRTOS/Source/portable/GCC/ARM_CM4F/portmacro.h **** #define portTASK_FUNCTION( vFunction, pvParameters ) void vFunction( void *pvParameters )
 113:../../kernel/FreeRTOS/Source/portable/GCC/ARM_CM4F/portmacro.h **** /*-----------------------------------------------------------*/
 114:../../kernel/FreeRTOS/Source/portable/GCC/ARM_CM4F/portmacro.h **** 
 115:../../kernel/FreeRTOS/Source/portable/GCC/ARM_CM4F/portmacro.h **** /* Tickless idle/low power functionality. */
 116:../../kernel/FreeRTOS/Source/portable/GCC/ARM_CM4F/portmacro.h **** #ifndef portSUPPRESS_TICKS_AND_SLEEP
 117:../../kernel/FreeRTOS/Source/portable/GCC/ARM_CM4F/portmacro.h **** 	extern void vPortSuppressTicksAndSleep( TickType_t xExpectedIdleTime );
 118:../../kernel/FreeRTOS/Source/portable/GCC/ARM_CM4F/portmacro.h **** 	#define portSUPPRESS_TICKS_AND_SLEEP( xExpectedIdleTime ) vPortSuppressTicksAndSleep( xExpectedIdl
 119:../../kernel/FreeRTOS/Source/portable/GCC/ARM_CM4F/portmacro.h **** #endif
 120:../../kernel/FreeRTOS/Source/portable/GCC/ARM_CM4F/portmacro.h **** /*-----------------------------------------------------------*/
 121:../../kernel/FreeRTOS/Source/portable/GCC/ARM_CM4F/portmacro.h **** 
 122:../../kernel/FreeRTOS/Source/portable/GCC/ARM_CM4F/portmacro.h **** /* Architecture specific optimisations. */
 123:../../kernel/FreeRTOS/Source/portable/GCC/ARM_CM4F/portmacro.h **** #ifndef configUSE_PORT_OPTIMISED_TASK_SELECTION
 124:../../kernel/FreeRTOS/Source/portable/GCC/ARM_CM4F/portmacro.h **** 	#define configUSE_PORT_OPTIMISED_TASK_SELECTION 1
 125:../../kernel/FreeRTOS/Source/portable/GCC/ARM_CM4F/portmacro.h **** #endif
 126:../../kernel/FreeRTOS/Source/portable/GCC/ARM_CM4F/portmacro.h **** 
 127:../../kernel/FreeRTOS/Source/portable/GCC/ARM_CM4F/portmacro.h **** #if configUSE_PORT_OPTIMISED_TASK_SELECTION == 1
 128:../../kernel/FreeRTOS/Source/portable/GCC/ARM_CM4F/portmacro.h **** 
 129:../../kernel/FreeRTOS/Source/portable/GCC/ARM_CM4F/portmacro.h **** 	/* Generic helper function. */
 130:../../kernel/FreeRTOS/Source/portable/GCC/ARM_CM4F/portmacro.h **** 	__attribute__( ( always_inline ) ) static inline uint8_t ucPortCountLeadingZeros( uint32_t ulBitma
 131:../../kernel/FreeRTOS/Source/portable/GCC/ARM_CM4F/portmacro.h **** 	{
 132:../../kernel/FreeRTOS/Source/portable/GCC/ARM_CM4F/portmacro.h **** 	uint8_t ucReturn;
 133:../../kernel/FreeRTOS/Source/portable/GCC/ARM_CM4F/portmacro.h **** 
 134:../../kernel/FreeRTOS/Source/portable/GCC/ARM_CM4F/portmacro.h **** 		__asm volatile ( "clz %0, %1" : "=r" ( ucReturn ) : "r" ( ulBitmap ) : "memory" );
 135:../../kernel/FreeRTOS/Source/portable/GCC/ARM_CM4F/portmacro.h **** 		return ucReturn;
 136:../../kernel/FreeRTOS/Source/portable/GCC/ARM_CM4F/portmacro.h **** 	}
 137:../../kernel/FreeRTOS/Source/portable/GCC/ARM_CM4F/portmacro.h **** 
 138:../../kernel/FreeRTOS/Source/portable/GCC/ARM_CM4F/portmacro.h **** 	/* Check the configuration. */
 139:../../kernel/FreeRTOS/Source/portable/GCC/ARM_CM4F/portmacro.h **** 	#if( configMAX_PRIORITIES > 32 )
 140:../../kernel/FreeRTOS/Source/portable/GCC/ARM_CM4F/portmacro.h **** 		#error configUSE_PORT_OPTIMISED_TASK_SELECTION can only be set to 1 when configMAX_PRIORITIES is 
 141:../../kernel/FreeRTOS/Source/portable/GCC/ARM_CM4F/portmacro.h **** 	#endif
 142:../../kernel/FreeRTOS/Source/portable/GCC/ARM_CM4F/portmacro.h **** 
 143:../../kernel/FreeRTOS/Source/portable/GCC/ARM_CM4F/portmacro.h **** 	/* Store/clear the ready priorities in a bit map. */
 144:../../kernel/FreeRTOS/Source/portable/GCC/ARM_CM4F/portmacro.h **** 	#define portRECORD_READY_PRIORITY( uxPriority, uxReadyPriorities ) ( uxReadyPriorities ) |= ( 1UL 
 145:../../kernel/FreeRTOS/Source/portable/GCC/ARM_CM4F/portmacro.h **** 	#define portRESET_READY_PRIORITY( uxPriority, uxReadyPriorities ) ( uxReadyPriorities ) &= ~( 1UL 
 146:../../kernel/FreeRTOS/Source/portable/GCC/ARM_CM4F/portmacro.h **** 
 147:../../kernel/FreeRTOS/Source/portable/GCC/ARM_CM4F/portmacro.h **** 	/*-----------------------------------------------------------*/
 148:../../kernel/FreeRTOS/Source/portable/GCC/ARM_CM4F/portmacro.h **** 
 149:../../kernel/FreeRTOS/Source/portable/GCC/ARM_CM4F/portmacro.h **** 	#define portGET_HIGHEST_PRIORITY( uxTopPriority, uxReadyPriorities ) uxTopPriority = ( 31UL - ( ui
 150:../../kernel/FreeRTOS/Source/portable/GCC/ARM_CM4F/portmacro.h **** 
 151:../../kernel/FreeRTOS/Source/portable/GCC/ARM_CM4F/portmacro.h **** #endif /* configUSE_PORT_OPTIMISED_TASK_SELECTION */
 152:../../kernel/FreeRTOS/Source/portable/GCC/ARM_CM4F/portmacro.h **** 
 153:../../kernel/FreeRTOS/Source/portable/GCC/ARM_CM4F/portmacro.h **** /*-----------------------------------------------------------*/
 154:../../kernel/FreeRTOS/Source/portable/GCC/ARM_CM4F/portmacro.h **** 
 155:../../kernel/FreeRTOS/Source/portable/GCC/ARM_CM4F/portmacro.h **** #ifdef configASSERT
 156:../../kernel/FreeRTOS/Source/portable/GCC/ARM_CM4F/portmacro.h **** 	void vPortValidateInterruptPriority( void );
 157:../../kernel/FreeRTOS/Source/portable/GCC/ARM_CM4F/portmacro.h **** 	#define portASSERT_IF_INTERRUPT_PRIORITY_INVALID() 	vPortValidateInterruptPriority()
ARM GAS  /tmp/ccEYK1mV.s 			page 7


 158:../../kernel/FreeRTOS/Source/portable/GCC/ARM_CM4F/portmacro.h **** #endif
 159:../../kernel/FreeRTOS/Source/portable/GCC/ARM_CM4F/portmacro.h **** 
 160:../../kernel/FreeRTOS/Source/portable/GCC/ARM_CM4F/portmacro.h **** /* portNOP() is not required by this port. */
 161:../../kernel/FreeRTOS/Source/portable/GCC/ARM_CM4F/portmacro.h **** #define portNOP()
 162:../../kernel/FreeRTOS/Source/portable/GCC/ARM_CM4F/portmacro.h **** 
 163:../../kernel/FreeRTOS/Source/portable/GCC/ARM_CM4F/portmacro.h **** #define portINLINE	__inline
 164:../../kernel/FreeRTOS/Source/portable/GCC/ARM_CM4F/portmacro.h **** 
 165:../../kernel/FreeRTOS/Source/portable/GCC/ARM_CM4F/portmacro.h **** #ifndef portFORCE_INLINE
 166:../../kernel/FreeRTOS/Source/portable/GCC/ARM_CM4F/portmacro.h **** 	#define portFORCE_INLINE inline __attribute__(( always_inline))
 167:../../kernel/FreeRTOS/Source/portable/GCC/ARM_CM4F/portmacro.h **** #endif
 168:../../kernel/FreeRTOS/Source/portable/GCC/ARM_CM4F/portmacro.h **** 
 169:../../kernel/FreeRTOS/Source/portable/GCC/ARM_CM4F/portmacro.h **** portFORCE_INLINE static BaseType_t xPortIsInsideInterrupt( void )
 170:../../kernel/FreeRTOS/Source/portable/GCC/ARM_CM4F/portmacro.h **** {
 171:../../kernel/FreeRTOS/Source/portable/GCC/ARM_CM4F/portmacro.h **** uint32_t ulCurrentInterrupt;
 172:../../kernel/FreeRTOS/Source/portable/GCC/ARM_CM4F/portmacro.h **** BaseType_t xReturn;
 173:../../kernel/FreeRTOS/Source/portable/GCC/ARM_CM4F/portmacro.h **** 
 174:../../kernel/FreeRTOS/Source/portable/GCC/ARM_CM4F/portmacro.h **** 	/* Obtain the number of the currently executing interrupt. */
 175:../../kernel/FreeRTOS/Source/portable/GCC/ARM_CM4F/portmacro.h **** 	__asm volatile( "mrs %0, ipsr" : "=r"( ulCurrentInterrupt ) :: "memory" );
 176:../../kernel/FreeRTOS/Source/portable/GCC/ARM_CM4F/portmacro.h **** 
 177:../../kernel/FreeRTOS/Source/portable/GCC/ARM_CM4F/portmacro.h **** 	if( ulCurrentInterrupt == 0 )
 178:../../kernel/FreeRTOS/Source/portable/GCC/ARM_CM4F/portmacro.h **** 	{
 179:../../kernel/FreeRTOS/Source/portable/GCC/ARM_CM4F/portmacro.h **** 		xReturn = pdFALSE;
 180:../../kernel/FreeRTOS/Source/portable/GCC/ARM_CM4F/portmacro.h **** 	}
 181:../../kernel/FreeRTOS/Source/portable/GCC/ARM_CM4F/portmacro.h **** 	else
 182:../../kernel/FreeRTOS/Source/portable/GCC/ARM_CM4F/portmacro.h **** 	{
 183:../../kernel/FreeRTOS/Source/portable/GCC/ARM_CM4F/portmacro.h **** 		xReturn = pdTRUE;
 184:../../kernel/FreeRTOS/Source/portable/GCC/ARM_CM4F/portmacro.h **** 	}
 185:../../kernel/FreeRTOS/Source/portable/GCC/ARM_CM4F/portmacro.h **** 
 186:../../kernel/FreeRTOS/Source/portable/GCC/ARM_CM4F/portmacro.h **** 	return xReturn;
 187:../../kernel/FreeRTOS/Source/portable/GCC/ARM_CM4F/portmacro.h **** }
 188:../../kernel/FreeRTOS/Source/portable/GCC/ARM_CM4F/portmacro.h **** 
 189:../../kernel/FreeRTOS/Source/portable/GCC/ARM_CM4F/portmacro.h **** /*-----------------------------------------------------------*/
 190:../../kernel/FreeRTOS/Source/portable/GCC/ARM_CM4F/portmacro.h **** 
 191:../../kernel/FreeRTOS/Source/portable/GCC/ARM_CM4F/portmacro.h **** portFORCE_INLINE static void vPortRaiseBASEPRI( void )
 142              		.loc 2 191 30 view .LVU8
 143              	.LBB5:
 192:../../kernel/FreeRTOS/Source/portable/GCC/ARM_CM4F/portmacro.h **** {
 193:../../kernel/FreeRTOS/Source/portable/GCC/ARM_CM4F/portmacro.h **** uint32_t ulNewBASEPRI;
 144              		.loc 2 193 1 view .LVU9
 194:../../kernel/FreeRTOS/Source/portable/GCC/ARM_CM4F/portmacro.h **** 
 195:../../kernel/FreeRTOS/Source/portable/GCC/ARM_CM4F/portmacro.h **** 	__asm volatile
 145              		.loc 2 195 2 view .LVU10
 146              		.syntax unified
 147              	@ 195 "../../kernel/FreeRTOS/Source/portable/GCC/ARM_CM4F/portmacro.h" 1
 148 0010 4FF0A003 			mov r3, #160													@ ulNewBASEPRI,
 149 0014 83F31188 		msr basepri, r3												@ ulNewBASEPRI
 150 0018 BFF36F8F 		isb														
 151 001c BFF34F8F 		dsb														
 152              	
 153              	@ 0 "" 2
 154              	.LVL1:
 155              		.thumb
 156              		.syntax unified
 157              	.L3:
 158              		.loc 2 195 2 is_stmt 0 view .LVU11
 159              	.LBE5:
 160              	.LBE4:
ARM GAS  /tmp/ccEYK1mV.s 			page 8


  41:../../peripheral_library/api/apiVOC.c **** }
 161              		.loc 1 41 3 is_stmt 1 discriminator 1 view .LVU12
  41:../../peripheral_library/api/apiVOC.c **** }
 162              		.loc 1 41 3 discriminator 1 view .LVU13
  41:../../peripheral_library/api/apiVOC.c **** }
 163              		.loc 1 41 3 discriminator 1 view .LVU14
  41:../../peripheral_library/api/apiVOC.c **** }
 164              		.loc 1 41 3 discriminator 1 view .LVU15
 165 0020 FEE7     		b	.L3		@
 166              	.L8:
 167 0022 00BF     		.align	2
 168              	.L7:
 169 0024 00000000 		.word	.LANCHOR0
 170              		.cfi_endproc
 171              	.LFE138:
 172              		.size	MApi_VOC_VDInit, .-MApi_VOC_VDInit
 173              		.section	.text.MApi_VOC_VDConfig,"ax",%progbits
 174              		.align	1
 175              		.p2align 2,,3
 176              		.global	MApi_VOC_VDConfig
 177              		.syntax unified
 178              		.thumb
 179              		.thumb_func
 180              		.fpu fpv4-sp-d16
 181              		.type	MApi_VOC_VDConfig, %function
 182              	MApi_VOC_VDConfig:
 183              	.LVL2:
 184              	.LFB139:
  43:../../peripheral_library/api/apiVOC.c **** 
  44:../../peripheral_library/api/apiVOC.c **** void MApi_VOC_VDConfig(U32 u32BufferAddr, U32 u32BufferSize)
  45:../../peripheral_library/api/apiVOC.c **** {
 185              		.loc 1 45 1 view -0
 186              		.cfi_startproc
 187              		@ args = 0, pretend = 0, frame = 0
 188              		@ frame_needed = 0, uses_anonymous_args = 0
 189              		@ link register save eliminated.
  46:../../peripheral_library/api/apiVOC.c ****   //if (!(xEventGroupGetBits(_tVocProcEvent) & ebBIT_VD))
  47:../../peripheral_library/api/apiVOC.c ****   {
  48:../../peripheral_library/api/apiVOC.c ****     _u32ACPUBufferAddr = u32BufferAddr;
 190              		.loc 1 48 5 view .LVU17
 191              	@ ../../peripheral_library/api/apiVOC.c:56:     VOC_MSG("MApi_VOC_VDConfig: 0x%x(0x%x)\n", _u32ACPU
  49:../../peripheral_library/api/apiVOC.c ****     _u32ACPUBufferSize = u32BufferSize;
  50:../../peripheral_library/api/apiVOC.c ****     _u32ACPUBufferPtr = _u32ACPUBufferAddr;
  51:../../peripheral_library/api/apiVOC.c ****     _u32PeriodCount = 0;
  52:../../peripheral_library/api/apiVOC.c **** 
  53:../../peripheral_library/api/apiVOC.c ****     _u16MaxToNotify = 0;
  54:../../peripheral_library/api/apiVOC.c ****     _u16CountToNotify = 0;
  55:../../peripheral_library/api/apiVOC.c **** 
  56:../../peripheral_library/api/apiVOC.c ****     VOC_MSG("MApi_VOC_VDConfig: 0x%x(0x%x)\n", _u32ACPUBufferAddr, _u32ACPUBufferSize);
 192              		.loc 1 56 5 is_stmt 0 view .LVU18
 193 0000 0C4B     		ldr	r3, .L13	@ tmp126,
 194 0002 1A68     		ldr	r2, [r3]	@ gu32MosDbgLevel, gu32MosDbgLevel
 195              	@ ../../peripheral_library/api/apiVOC.c:50:     _u32ACPUBufferPtr = _u32ACPUBufferAddr;
  50:../../peripheral_library/api/apiVOC.c ****     _u32PeriodCount = 0;
 196              		.loc 1 50 23 view .LVU19
 197 0004 0C4B     		ldr	r3, .L13+4	@ tmp117,
 198              	@ ../../peripheral_library/api/apiVOC.c:45: {
ARM GAS  /tmp/ccEYK1mV.s 			page 9


  45:../../peripheral_library/api/apiVOC.c ****   //if (!(xEventGroupGetBits(_tVocProcEvent) & ebBIT_VD))
 199              		.loc 1 45 1 view .LVU20
 200 0006 F0B4     		push	{r4, r5, r6, r7}	@
 201              		.cfi_def_cfa_offset 16
 202              		.cfi_offset 4, -16
 203              		.cfi_offset 5, -12
 204              		.cfi_offset 6, -8
 205              		.cfi_offset 7, -4
 206              	@ ../../peripheral_library/api/apiVOC.c:51:     _u32PeriodCount = 0;
  51:../../peripheral_library/api/apiVOC.c **** 
 207              		.loc 1 51 21 view .LVU21
 208 0008 0C4C     		ldr	r4, .L13+8	@ tmp118,
 209              	@ ../../peripheral_library/api/apiVOC.c:50:     _u32ACPUBufferPtr = _u32ACPUBufferAddr;
  50:../../peripheral_library/api/apiVOC.c ****     _u32PeriodCount = 0;
 210              		.loc 1 50 23 view .LVU22
 211 000a 1860     		str	r0, [r3]	@ u32BufferAddr, _u32ACPUBufferPtr
 212              	@ ../../peripheral_library/api/apiVOC.c:51:     _u32PeriodCount = 0;
  51:../../peripheral_library/api/apiVOC.c **** 
 213              		.loc 1 51 21 view .LVU23
 214 000c 0023     		movs	r3, #0	@ tmp119,
 215 000e 2360     		str	r3, [r4]	@ tmp119, _u32PeriodCount
 216              	@ ../../peripheral_library/api/apiVOC.c:53:     _u16MaxToNotify = 0;
  53:../../peripheral_library/api/apiVOC.c ****     _u16CountToNotify = 0;
 217              		.loc 1 53 21 view .LVU24
 218 0010 0B4D     		ldr	r5, .L13+12	@ tmp120,
 219              	@ ../../peripheral_library/api/apiVOC.c:54:     _u16CountToNotify = 0;
  54:../../peripheral_library/api/apiVOC.c **** 
 220              		.loc 1 54 23 view .LVU25
 221 0012 0C4C     		ldr	r4, .L13+16	@ tmp123,
 222              	@ ../../peripheral_library/api/apiVOC.c:48:     _u32ACPUBufferAddr = u32BufferAddr;
  48:../../peripheral_library/api/apiVOC.c ****     _u32ACPUBufferSize = u32BufferSize;
 223              		.loc 1 48 24 view .LVU26
 224 0014 0C4F     		ldr	r7, .L13+20	@ tmp115,
 225              	@ ../../peripheral_library/api/apiVOC.c:49:     _u32ACPUBufferSize = u32BufferSize;
  49:../../peripheral_library/api/apiVOC.c ****     _u32ACPUBufferPtr = _u32ACPUBufferAddr;
 226              		.loc 1 49 24 view .LVU27
 227 0016 0D4E     		ldr	r6, .L13+24	@ tmp116,
 228              	@ ../../peripheral_library/api/apiVOC.c:53:     _u16MaxToNotify = 0;
  53:../../peripheral_library/api/apiVOC.c ****     _u16CountToNotify = 0;
 229              		.loc 1 53 21 view .LVU28
 230 0018 2B80     		strh	r3, [r5]	@ movhi	@ tmp119, _u16MaxToNotify
 231              	@ ../../peripheral_library/api/apiVOC.c:54:     _u16CountToNotify = 0;
  54:../../peripheral_library/api/apiVOC.c **** 
 232              		.loc 1 54 23 view .LVU29
 233 001a 2380     		strh	r3, [r4]	@ movhi	@ tmp119, _u16CountToNotify
 234              	@ ../../peripheral_library/api/apiVOC.c:56:     VOC_MSG("MApi_VOC_VDConfig: 0x%x(0x%x)\n", _u32ACPU
 235              		.loc 1 56 5 view .LVU30
 236 001c 9307     		lsls	r3, r2, #30	@, gu32MosDbgLevel,
 237              	@ ../../peripheral_library/api/apiVOC.c:48:     _u32ACPUBufferAddr = u32BufferAddr;
  48:../../peripheral_library/api/apiVOC.c ****     _u32ACPUBufferSize = u32BufferSize;
 238              		.loc 1 48 24 view .LVU31
 239 001e 3860     		str	r0, [r7]	@ u32BufferAddr, _u32ACPUBufferAddr
  49:../../peripheral_library/api/apiVOC.c ****     _u32ACPUBufferPtr = _u32ACPUBufferAddr;
 240              		.loc 1 49 5 is_stmt 1 view .LVU32
 241              	@ ../../peripheral_library/api/apiVOC.c:49:     _u32ACPUBufferSize = u32BufferSize;
  49:../../peripheral_library/api/apiVOC.c ****     _u32ACPUBufferPtr = _u32ACPUBufferAddr;
 242              		.loc 1 49 24 is_stmt 0 view .LVU33
ARM GAS  /tmp/ccEYK1mV.s 			page 10


 243 0020 3160     		str	r1, [r6]	@ u32BufferSize, _u32ACPUBufferSize
  50:../../peripheral_library/api/apiVOC.c ****     _u32PeriodCount = 0;
 244              		.loc 1 50 5 is_stmt 1 view .LVU34
  51:../../peripheral_library/api/apiVOC.c **** 
 245              		.loc 1 51 5 view .LVU35
  53:../../peripheral_library/api/apiVOC.c ****     _u16CountToNotify = 0;
 246              		.loc 1 53 5 view .LVU36
  54:../../peripheral_library/api/apiVOC.c **** 
 247              		.loc 1 54 5 view .LVU37
 248              		.loc 1 56 5 view .LVU38
 249 0022 01D4     		bmi	.L12		@,
 250              	@ ../../peripheral_library/api/apiVOC.c:60: }
  57:../../peripheral_library/api/apiVOC.c ****   }
  58:../../peripheral_library/api/apiVOC.c ****   //else
  59:../../peripheral_library/api/apiVOC.c ****   //  VOC_ERROR("MApi_VOC_VDConfig failed: State not match\n");
  60:../../peripheral_library/api/apiVOC.c **** }
 251              		.loc 1 60 1 is_stmt 0 view .LVU39
 252 0024 F0BC     		pop	{r4, r5, r6, r7}	@
 253              		.cfi_remember_state
 254              		.cfi_restore 7
 255              		.cfi_restore 6
 256              		.cfi_restore 5
 257              		.cfi_restore 4
 258              		.cfi_def_cfa_offset 0
 259 0026 7047     		bx	lr	@
 260              	.L12:
 261              		.cfi_restore_state
  56:../../peripheral_library/api/apiVOC.c ****   }
 262              		.loc 1 56 5 is_stmt 1 discriminator 1 view .LVU40
 263 0028 0A46     		mov	r2, r1	@, u32BufferSize
 264              	@ ../../peripheral_library/api/apiVOC.c:60: }
 265              		.loc 1 60 1 is_stmt 0 discriminator 1 view .LVU41
 266 002a F0BC     		pop	{r4, r5, r6, r7}	@
 267              		.cfi_restore 7
 268              		.cfi_restore 6
 269              		.cfi_restore 5
 270              		.cfi_restore 4
 271              		.cfi_def_cfa_offset 0
 272              	@ ../../peripheral_library/api/apiVOC.c:56:     VOC_MSG("MApi_VOC_VDConfig: 0x%x(0x%x)\n", _u32ACPU
  56:../../peripheral_library/api/apiVOC.c ****   }
 273              		.loc 1 56 5 discriminator 1 view .LVU42
 274 002c 0146     		mov	r1, r0	@, u32BufferAddr
 275              	.LVL3:
  56:../../peripheral_library/api/apiVOC.c ****   }
 276              		.loc 1 56 5 discriminator 1 view .LVU43
 277 002e 0848     		ldr	r0, .L13+28	@,
 278              	.LVL4:
  56:../../peripheral_library/api/apiVOC.c ****   }
 279              		.loc 1 56 5 discriminator 1 view .LVU44
 280 0030 FFF7FEBF 		b	UartSendTrace		@
 281              	.LVL5:
 282              	.L14:
  56:../../peripheral_library/api/apiVOC.c ****   }
 283              		.loc 1 56 5 discriminator 1 view .LVU45
 284              		.align	2
 285              	.L13:
 286 0034 00000000 		.word	gu32MosDbgLevel
ARM GAS  /tmp/ccEYK1mV.s 			page 11


 287 0038 00000000 		.word	.LANCHOR3
 288 003c 00000000 		.word	.LANCHOR4
 289 0040 00000000 		.word	.LANCHOR5
 290 0044 00000000 		.word	.LANCHOR6
 291 0048 00000000 		.word	.LANCHOR1
 292 004c 00000000 		.word	.LANCHOR2
 293 0050 00000000 		.word	.LC0
 294              		.cfi_endproc
 295              	.LFE139:
 296              		.size	MApi_VOC_VDConfig, .-MApi_VOC_VDConfig
 297              		.section	.text.MApi_VOC_VDConfigExt,"ax",%progbits
 298              		.align	1
 299              		.p2align 2,,3
 300              		.global	MApi_VOC_VDConfigExt
 301              		.syntax unified
 302              		.thumb
 303              		.thumb_func
 304              		.fpu fpv4-sp-d16
 305              		.type	MApi_VOC_VDConfigExt, %function
 306              	MApi_VOC_VDConfigExt:
 307              	.LVL6:
 308              	.LFB140:
  61:../../peripheral_library/api/apiVOC.c **** 
  62:../../peripheral_library/api/apiVOC.c **** void MApi_VOC_VDConfigExt(U32 u32BufferAddr, U32 u32BufferSize, U16 u16MaxToNotify)
  63:../../peripheral_library/api/apiVOC.c **** {
 309              		.loc 1 63 1 is_stmt 1 view -0
 310              		.cfi_startproc
 311              		@ args = 0, pretend = 0, frame = 0
 312              		@ frame_needed = 0, uses_anonymous_args = 0
 313              		@ link register save eliminated.
  64:../../peripheral_library/api/apiVOC.c ****     _u32ACPUBufferAddr = u32BufferAddr;
 314              		.loc 1 64 5 view .LVU47
 315              	@ ../../peripheral_library/api/apiVOC.c:72:     VOC_MSG("MApi_VOC_VDConfigExt: 0x%x(0x%x) - %d\n", 
  65:../../peripheral_library/api/apiVOC.c ****     _u32ACPUBufferSize = u32BufferSize;
  66:../../peripheral_library/api/apiVOC.c ****     _u32ACPUBufferPtr = _u32ACPUBufferAddr;
  67:../../peripheral_library/api/apiVOC.c ****     _u32PeriodCount = 0;
  68:../../peripheral_library/api/apiVOC.c **** 
  69:../../peripheral_library/api/apiVOC.c ****     _u16MaxToNotify = u16MaxToNotify;
  70:../../peripheral_library/api/apiVOC.c ****     _u16CountToNotify = 0;
  71:../../peripheral_library/api/apiVOC.c **** 
  72:../../peripheral_library/api/apiVOC.c ****     VOC_MSG("MApi_VOC_VDConfigExt: 0x%x(0x%x) - %d\n", _u32ACPUBufferAddr, _u32ACPUBufferSize, _u16
 316              		.loc 1 72 5 is_stmt 0 view .LVU48
 317 0000 0E4B     		ldr	r3, .L19	@ tmp127,
 318              	@ ../../peripheral_library/api/apiVOC.c:64:     _u32ACPUBufferAddr = u32BufferAddr;
  64:../../peripheral_library/api/apiVOC.c ****     _u32ACPUBufferAddr = u32BufferAddr;
 319              		.loc 1 64 24 view .LVU49
 320 0002 DFF854C0 		ldr	ip, .L19+28	@ tmp117,
 321              	@ ../../peripheral_library/api/apiVOC.c:72:     VOC_MSG("MApi_VOC_VDConfigExt: 0x%x(0x%x) - %d\n", 
 322              		.loc 1 72 5 view .LVU50
 323 0006 1B68     		ldr	r3, [r3]	@ gu32MosDbgLevel, gu32MosDbgLevel
 324              	@ ../../peripheral_library/api/apiVOC.c:64:     _u32ACPUBufferAddr = u32BufferAddr;
  64:../../peripheral_library/api/apiVOC.c ****     _u32ACPUBufferAddr = u32BufferAddr;
 325              		.loc 1 64 24 view .LVU51
 326 0008 CCF80000 		str	r0, [ip]	@ u32BufferAddr, _u32ACPUBufferAddr
  65:../../peripheral_library/api/apiVOC.c ****     _u32ACPUBufferSize = u32BufferSize;
 327              		.loc 1 65 5 is_stmt 1 view .LVU52
 328              	@ ../../peripheral_library/api/apiVOC.c:63: {
ARM GAS  /tmp/ccEYK1mV.s 			page 12


  63:../../peripheral_library/api/apiVOC.c ****     _u32ACPUBufferAddr = u32BufferAddr;
 329              		.loc 1 63 1 is_stmt 0 view .LVU53
 330 000c F0B4     		push	{r4, r5, r6, r7}	@
 331              		.cfi_def_cfa_offset 16
 332              		.cfi_offset 4, -16
 333              		.cfi_offset 5, -12
 334              		.cfi_offset 6, -8
 335              		.cfi_offset 7, -4
 336              	@ ../../peripheral_library/api/apiVOC.c:66:     _u32ACPUBufferPtr = _u32ACPUBufferAddr;
  66:../../peripheral_library/api/apiVOC.c ****     _u32PeriodCount = 0;
 337              		.loc 1 66 23 view .LVU54
 338 000e 0C4D     		ldr	r5, .L19+4	@ tmp119,
 339              	@ ../../peripheral_library/api/apiVOC.c:69:     _u16MaxToNotify = u16MaxToNotify;
  69:../../peripheral_library/api/apiVOC.c ****     _u16CountToNotify = 0;
 340              		.loc 1 69 21 view .LVU55
 341 0010 0C4C     		ldr	r4, .L19+8	@ tmp122,
 342              	@ ../../peripheral_library/api/apiVOC.c:66:     _u32ACPUBufferPtr = _u32ACPUBufferAddr;
  66:../../peripheral_library/api/apiVOC.c ****     _u32PeriodCount = 0;
 343              		.loc 1 66 23 view .LVU56
 344 0012 2860     		str	r0, [r5]	@ u32BufferAddr, _u32ACPUBufferPtr
 345              	@ ../../peripheral_library/api/apiVOC.c:65:     _u32ACPUBufferSize = u32BufferSize;
  65:../../peripheral_library/api/apiVOC.c ****     _u32ACPUBufferPtr = _u32ACPUBufferAddr;
 346              		.loc 1 65 24 view .LVU57
 347 0014 0C4F     		ldr	r7, .L19+12	@ tmp118,
 348              	@ ../../peripheral_library/api/apiVOC.c:67:     _u32PeriodCount = 0;
  67:../../peripheral_library/api/apiVOC.c **** 
 349              		.loc 1 67 21 view .LVU58
 350 0016 0D4E     		ldr	r6, .L19+16	@ tmp120,
 351              	@ ../../peripheral_library/api/apiVOC.c:70:     _u16CountToNotify = 0;
  70:../../peripheral_library/api/apiVOC.c **** 
 352              		.loc 1 70 23 view .LVU59
 353 0018 0D4D     		ldr	r5, .L19+20	@ tmp124,
 354              	@ ../../peripheral_library/api/apiVOC.c:69:     _u16MaxToNotify = u16MaxToNotify;
  69:../../peripheral_library/api/apiVOC.c ****     _u16CountToNotify = 0;
 355              		.loc 1 69 21 view .LVU60
 356 001a 2280     		strh	r2, [r4]	@ movhi	@ u16MaxToNotify, _u16MaxToNotify
 357              	@ ../../peripheral_library/api/apiVOC.c:72:     VOC_MSG("MApi_VOC_VDConfigExt: 0x%x(0x%x) - %d\n", 
 358              		.loc 1 72 5 view .LVU61
 359 001c 9B07     		lsls	r3, r3, #30	@, gu32MosDbgLevel,
 360              	@ ../../peripheral_library/api/apiVOC.c:67:     _u32PeriodCount = 0;
  67:../../peripheral_library/api/apiVOC.c **** 
 361              		.loc 1 67 21 view .LVU62
 362 001e 4FF00004 		mov	r4, #0	@ tmp121,
 363              	@ ../../peripheral_library/api/apiVOC.c:65:     _u32ACPUBufferSize = u32BufferSize;
  65:../../peripheral_library/api/apiVOC.c ****     _u32ACPUBufferPtr = _u32ACPUBufferAddr;
 364              		.loc 1 65 24 view .LVU63
 365 0022 3960     		str	r1, [r7]	@ u32BufferSize, _u32ACPUBufferSize
  66:../../peripheral_library/api/apiVOC.c ****     _u32PeriodCount = 0;
 366              		.loc 1 66 5 is_stmt 1 view .LVU64
  67:../../peripheral_library/api/apiVOC.c **** 
 367              		.loc 1 67 5 view .LVU65
 368              	@ ../../peripheral_library/api/apiVOC.c:67:     _u32PeriodCount = 0;
  67:../../peripheral_library/api/apiVOC.c **** 
 369              		.loc 1 67 21 is_stmt 0 view .LVU66
 370 0024 3460     		str	r4, [r6]	@ tmp121, _u32PeriodCount
  69:../../peripheral_library/api/apiVOC.c ****     _u16CountToNotify = 0;
 371              		.loc 1 69 5 is_stmt 1 view .LVU67
ARM GAS  /tmp/ccEYK1mV.s 			page 13


  70:../../peripheral_library/api/apiVOC.c **** 
 372              		.loc 1 70 5 view .LVU68
 373              	@ ../../peripheral_library/api/apiVOC.c:70:     _u16CountToNotify = 0;
  70:../../peripheral_library/api/apiVOC.c **** 
 374              		.loc 1 70 23 is_stmt 0 view .LVU69
 375 0026 2C80     		strh	r4, [r5]	@ movhi	@ tmp121, _u16CountToNotify
 376              		.loc 1 72 5 is_stmt 1 view .LVU70
 377 0028 01D4     		bmi	.L18		@,
 378              	@ ../../peripheral_library/api/apiVOC.c:73: }
  73:../../peripheral_library/api/apiVOC.c **** }
 379              		.loc 1 73 1 is_stmt 0 view .LVU71
 380 002a F0BC     		pop	{r4, r5, r6, r7}	@
 381              		.cfi_remember_state
 382              		.cfi_restore 7
 383              		.cfi_restore 6
 384              		.cfi_restore 5
 385              		.cfi_restore 4
 386              		.cfi_def_cfa_offset 0
 387 002c 7047     		bx	lr	@
 388              	.L18:
 389              		.cfi_restore_state
  72:../../peripheral_library/api/apiVOC.c **** }
 390              		.loc 1 72 5 is_stmt 1 discriminator 1 view .LVU72
 391 002e 1346     		mov	r3, r2	@, u16MaxToNotify
 392              	@ ../../peripheral_library/api/apiVOC.c:73: }
 393              		.loc 1 73 1 is_stmt 0 discriminator 1 view .LVU73
 394 0030 F0BC     		pop	{r4, r5, r6, r7}	@
 395              		.cfi_restore 7
 396              		.cfi_restore 6
 397              		.cfi_restore 5
 398              		.cfi_restore 4
 399              		.cfi_def_cfa_offset 0
 400              	@ ../../peripheral_library/api/apiVOC.c:72:     VOC_MSG("MApi_VOC_VDConfigExt: 0x%x(0x%x) - %d\n", 
  72:../../peripheral_library/api/apiVOC.c **** }
 401              		.loc 1 72 5 discriminator 1 view .LVU74
 402 0032 0A46     		mov	r2, r1	@, u32BufferSize
 403              	.LVL7:
  72:../../peripheral_library/api/apiVOC.c **** }
 404              		.loc 1 72 5 discriminator 1 view .LVU75
 405 0034 0146     		mov	r1, r0	@, u32BufferAddr
 406              	.LVL8:
  72:../../peripheral_library/api/apiVOC.c **** }
 407              		.loc 1 72 5 discriminator 1 view .LVU76
 408 0036 0748     		ldr	r0, .L19+24	@,
 409              	.LVL9:
  72:../../peripheral_library/api/apiVOC.c **** }
 410              		.loc 1 72 5 discriminator 1 view .LVU77
 411 0038 FFF7FEBF 		b	UartSendTrace		@
 412              	.LVL10:
 413              	.L20:
  72:../../peripheral_library/api/apiVOC.c **** }
 414              		.loc 1 72 5 discriminator 1 view .LVU78
 415              		.align	2
 416              	.L19:
 417 003c 00000000 		.word	gu32MosDbgLevel
 418 0040 00000000 		.word	.LANCHOR3
 419 0044 00000000 		.word	.LANCHOR5
ARM GAS  /tmp/ccEYK1mV.s 			page 14


 420 0048 00000000 		.word	.LANCHOR2
 421 004c 00000000 		.word	.LANCHOR4
 422 0050 00000000 		.word	.LANCHOR6
 423 0054 00000000 		.word	.LC1
 424 0058 00000000 		.word	.LANCHOR1
 425              		.cfi_endproc
 426              	.LFE140:
 427              		.size	MApi_VOC_VDConfigExt, .-MApi_VOC_VDConfigExt
 428              		.section	.text.MApi_VOC_VDReset,"ax",%progbits
 429              		.align	1
 430              		.p2align 2,,3
 431              		.global	MApi_VOC_VDReset
 432              		.syntax unified
 433              		.thumb
 434              		.thumb_func
 435              		.fpu fpv4-sp-d16
 436              		.type	MApi_VOC_VDReset, %function
 437              	MApi_VOC_VDReset:
 438              	.LFB141:
  74:../../peripheral_library/api/apiVOC.c **** 
  75:../../peripheral_library/api/apiVOC.c **** void MApi_VOC_VDReset(void)
  76:../../peripheral_library/api/apiVOC.c **** {
 439              		.loc 1 76 1 is_stmt 1 view -0
 440              		.cfi_startproc
 441              		@ args = 0, pretend = 0, frame = 0
 442              		@ frame_needed = 0, uses_anonymous_args = 0
  77:../../peripheral_library/api/apiVOC.c ****   if( xSemaphoreTake( _tVdMutex, portMAX_DELAY ) == pdPASS )
 443              		.loc 1 77 3 view .LVU80
 444              	@ ../../peripheral_library/api/apiVOC.c:76: {
  76:../../peripheral_library/api/apiVOC.c ****   if( xSemaphoreTake( _tVdMutex, portMAX_DELAY ) == pdPASS )
 445              		.loc 1 76 1 is_stmt 0 view .LVU81
 446 0000 38B5     		push	{r3, r4, r5, lr}	@
 447              		.cfi_def_cfa_offset 16
 448              		.cfi_offset 3, -16
 449              		.cfi_offset 4, -12
 450              		.cfi_offset 5, -8
 451              		.cfi_offset 14, -4
 452              	@ ../../peripheral_library/api/apiVOC.c:77:   if( xSemaphoreTake( _tVdMutex, portMAX_DELAY ) == pdP
 453              		.loc 1 77 7 view .LVU82
 454 0002 114C     		ldr	r4, .L27	@ tmp117,
 455 0004 4FF0FF31 		mov	r1, #-1	@,
 456 0008 2068     		ldr	r0, [r4]	@, _tVdMutex
 457 000a FFF7FEFF 		bl	xQueueSemaphoreTake		@
 458              	.LVL11:
 459              	@ ../../peripheral_library/api/apiVOC.c:77:   if( xSemaphoreTake( _tVdMutex, portMAX_DELAY ) == pdP
 460              		.loc 1 77 5 view .LVU83
 461 000e 0128     		cmp	r0, #1	@,
 462 0010 09D0     		beq	.L25		@,
 463              	.L22:
  78:../../peripheral_library/api/apiVOC.c ****   {
  79:../../peripheral_library/api/apiVOC.c ****     _u32ACPUBufferPtr = _u32ACPUBufferAddr;
  80:../../peripheral_library/api/apiVOC.c ****     _u32PeriodCount = 0;
  81:../../peripheral_library/api/apiVOC.c ****     _u16CountToNotify = 0;
  82:../../peripheral_library/api/apiVOC.c **** 
  83:../../peripheral_library/api/apiVOC.c ****     xSemaphoreGive(_tVdMutex);
  84:../../peripheral_library/api/apiVOC.c ****   }
  85:../../peripheral_library/api/apiVOC.c ****   VOC_MSG("MApi_VOC_VDReset\n");
ARM GAS  /tmp/ccEYK1mV.s 			page 15


 464              		.loc 1 85 3 is_stmt 1 view .LVU84
 465 0012 0E4B     		ldr	r3, .L27+4	@ tmp129,
 466 0014 1B68     		ldr	r3, [r3]	@ gu32MosDbgLevel, gu32MosDbgLevel
 467 0016 9B07     		lsls	r3, r3, #30	@, gu32MosDbgLevel,
 468 0018 00D4     		bmi	.L26		@,
 469              	@ ../../peripheral_library/api/apiVOC.c:86: }
  86:../../peripheral_library/api/apiVOC.c **** }
 470              		.loc 1 86 1 is_stmt 0 view .LVU85
 471 001a 38BD     		pop	{r3, r4, r5, pc}	@
 472              	.L26:
  85:../../peripheral_library/api/apiVOC.c **** }
 473              		.loc 1 85 3 is_stmt 1 discriminator 1 view .LVU86
 474 001c 0C48     		ldr	r0, .L27+8	@,
 475              	@ ../../peripheral_library/api/apiVOC.c:86: }
 476              		.loc 1 86 1 is_stmt 0 discriminator 1 view .LVU87
 477 001e BDE83840 		pop	{r3, r4, r5, lr}	@
 478              		.cfi_remember_state
 479              		.cfi_restore 14
 480              		.cfi_restore 5
 481              		.cfi_restore 4
 482              		.cfi_restore 3
 483              		.cfi_def_cfa_offset 0
 484              	@ ../../peripheral_library/api/apiVOC.c:85:   VOC_MSG("MApi_VOC_VDReset\n");
  85:../../peripheral_library/api/apiVOC.c **** }
 485              		.loc 1 85 3 discriminator 1 view .LVU88
 486 0022 FFF7FEBF 		b	UartSendTrace		@
 487              	.LVL12:
 488              	.L25:
 489              		.cfi_restore_state
  79:../../peripheral_library/api/apiVOC.c ****     _u32PeriodCount = 0;
 490              		.loc 1 79 5 is_stmt 1 view .LVU89
 491              	@ ../../peripheral_library/api/apiVOC.c:79:     _u32ACPUBufferPtr = _u32ACPUBufferAddr;
  79:../../peripheral_library/api/apiVOC.c ****     _u32PeriodCount = 0;
 492              		.loc 1 79 23 is_stmt 0 view .LVU90
 493 0026 0B4A     		ldr	r2, .L27+12	@ tmp120,
 494 0028 0B4B     		ldr	r3, .L27+16	@ tmp119,
 495              	@ ../../peripheral_library/api/apiVOC.c:80:     _u32PeriodCount = 0;
  80:../../peripheral_library/api/apiVOC.c ****     _u16CountToNotify = 0;
 496              		.loc 1 80 21 view .LVU91
 497 002a 0C49     		ldr	r1, .L27+20	@ tmp122,
 498              	@ ../../peripheral_library/api/apiVOC.c:81:     _u16CountToNotify = 0;
  81:../../peripheral_library/api/apiVOC.c **** 
 499              		.loc 1 81 23 view .LVU92
 500 002c 0C4D     		ldr	r5, .L27+24	@ tmp124,
 501              	@ ../../peripheral_library/api/apiVOC.c:79:     _u32ACPUBufferPtr = _u32ACPUBufferAddr;
  79:../../peripheral_library/api/apiVOC.c ****     _u32PeriodCount = 0;
 502              		.loc 1 79 23 view .LVU93
 503 002e 1268     		ldr	r2, [r2]	@ _u32ACPUBufferAddr, _u32ACPUBufferAddr
 504              	@ ../../peripheral_library/api/apiVOC.c:83:     xSemaphoreGive(_tVdMutex);
  83:../../peripheral_library/api/apiVOC.c ****   }
 505              		.loc 1 83 5 view .LVU94
 506 0030 2068     		ldr	r0, [r4]	@, _tVdMutex
 507              	@ ../../peripheral_library/api/apiVOC.c:79:     _u32ACPUBufferPtr = _u32ACPUBufferAddr;
  79:../../peripheral_library/api/apiVOC.c ****     _u32PeriodCount = 0;
 508              		.loc 1 79 23 view .LVU95
 509 0032 1A60     		str	r2, [r3]	@ _u32ACPUBufferAddr, _u32ACPUBufferPtr
  80:../../peripheral_library/api/apiVOC.c ****     _u16CountToNotify = 0;
ARM GAS  /tmp/ccEYK1mV.s 			page 16


 510              		.loc 1 80 5 is_stmt 1 view .LVU96
 511              	@ ../../peripheral_library/api/apiVOC.c:80:     _u32PeriodCount = 0;
  80:../../peripheral_library/api/apiVOC.c ****     _u16CountToNotify = 0;
 512              		.loc 1 80 21 is_stmt 0 view .LVU97
 513 0034 0024     		movs	r4, #0	@ tmp123,
 514 0036 0C60     		str	r4, [r1]	@ tmp3, _u32PeriodCount
  81:../../peripheral_library/api/apiVOC.c **** 
 515              		.loc 1 81 5 is_stmt 1 view .LVU98
 516              	@ ../../peripheral_library/api/apiVOC.c:83:     xSemaphoreGive(_tVdMutex);
  83:../../peripheral_library/api/apiVOC.c ****   }
 517              		.loc 1 83 5 is_stmt 0 view .LVU99
 518 0038 2346     		mov	r3, r4	@, tmp123
 519 003a 2246     		mov	r2, r4	@, tmp3
 520 003c 2146     		mov	r1, r4	@, tmp3
 521              	@ ../../peripheral_library/api/apiVOC.c:81:     _u16CountToNotify = 0;
  81:../../peripheral_library/api/apiVOC.c **** 
 522              		.loc 1 81 23 view .LVU100
 523 003e 2C80     		strh	r4, [r5]	@ movhi	@ tmp123, _u16CountToNotify
  83:../../peripheral_library/api/apiVOC.c ****   }
 524              		.loc 1 83 5 is_stmt 1 view .LVU101
 525 0040 FFF7FEFF 		bl	xQueueGenericSend		@
 526              	.LVL13:
 527 0044 E5E7     		b	.L22		@
 528              	.L28:
 529 0046 00BF     		.align	2
 530              	.L27:
 531 0048 00000000 		.word	.LANCHOR0
 532 004c 00000000 		.word	gu32MosDbgLevel
 533 0050 00000000 		.word	.LC2
 534 0054 00000000 		.word	.LANCHOR1
 535 0058 00000000 		.word	.LANCHOR3
 536 005c 00000000 		.word	.LANCHOR4
 537 0060 00000000 		.word	.LANCHOR6
 538              		.cfi_endproc
 539              	.LFE141:
 540              		.size	MApi_VOC_VDReset, .-MApi_VOC_VDReset
 541              		.section	.text.MApi_VOC_VDPort,"ax",%progbits
 542              		.align	1
 543              		.p2align 2,,3
 544              		.global	MApi_VOC_VDPort
 545              		.syntax unified
 546              		.thumb
 547              		.thumb_func
 548              		.fpu fpv4-sp-d16
 549              		.type	MApi_VOC_VDPort, %function
 550              	MApi_VOC_VDPort:
 551              	.LVL14:
 552              	.LFB142:
  87:../../peripheral_library/api/apiVOC.c **** 
  88:../../peripheral_library/api/apiVOC.c **** BOOL MApi_VOC_VDPort(S16 *ps16Buffer, U32 u32Count)
  89:../../peripheral_library/api/apiVOC.c **** {
 553              		.loc 1 89 1 view -0
 554              		.cfi_startproc
 555              		@ args = 0, pretend = 0, frame = 0
 556              		@ frame_needed = 0, uses_anonymous_args = 0
  90:../../peripheral_library/api/apiVOC.c ****   U32 u32Buffer = (U32)ps16Buffer;
 557              		.loc 1 90 3 view .LVU103
ARM GAS  /tmp/ccEYK1mV.s 			page 17


 558              	@ ../../peripheral_library/api/apiVOC.c:89: {
  89:../../peripheral_library/api/apiVOC.c ****   U32 u32Buffer = (U32)ps16Buffer;
 559              		.loc 1 89 1 is_stmt 0 view .LVU104
 560 0000 2DE9F843 		push	{r3, r4, r5, r6, r7, r8, r9, lr}	@
 561              		.cfi_def_cfa_offset 32
 562              		.cfi_offset 3, -32
 563              		.cfi_offset 4, -28
 564              		.cfi_offset 5, -24
 565              		.cfi_offset 6, -20
 566              		.cfi_offset 7, -16
 567              		.cfi_offset 8, -12
 568              		.cfi_offset 9, -8
 569              		.cfi_offset 14, -4
 570              	@ ../../peripheral_library/api/apiVOC.c:93:   if( xSemaphoreTake( _tVdMutex, portMAX_DELAY ) == pdP
  91:../../peripheral_library/api/apiVOC.c ****   U32 u32Size = u32Count*2;
  92:../../peripheral_library/api/apiVOC.c **** 
  93:../../peripheral_library/api/apiVOC.c ****   if( xSemaphoreTake( _tVdMutex, portMAX_DELAY ) == pdPASS )
 571              		.loc 1 93 7 view .LVU105
 572 0004 314D     		ldr	r5, .L48	@ tmp183,
 573              	@ ../../peripheral_library/api/apiVOC.c:89: {
  89:../../peripheral_library/api/apiVOC.c ****   U32 u32Buffer = (U32)ps16Buffer;
 574              		.loc 1 89 1 view .LVU106
 575 0006 0646     		mov	r6, r0	@ ps16Buffer, ps16Buffer
 576              	.LVL15:
  91:../../peripheral_library/api/apiVOC.c ****   U32 u32Size = u32Count*2;
 577              		.loc 1 91 3 is_stmt 1 view .LVU107
 578              	@ ../../peripheral_library/api/apiVOC.c:89: {
  89:../../peripheral_library/api/apiVOC.c ****   U32 u32Buffer = (U32)ps16Buffer;
 579              		.loc 1 89 1 is_stmt 0 view .LVU108
 580 0008 0C46     		mov	r4, r1	@ u32Count, u32Count
 581              	.LVL16:
 582              		.loc 1 93 3 is_stmt 1 view .LVU109
 583              	@ ../../peripheral_library/api/apiVOC.c:93:   if( xSemaphoreTake( _tVdMutex, portMAX_DELAY ) == pdP
 584              		.loc 1 93 7 is_stmt 0 view .LVU110
 585 000a 2868     		ldr	r0, [r5]	@, _tVdMutex
 586              	.LVL17:
 587              		.loc 1 93 7 view .LVU111
 588 000c 4FF0FF31 		mov	r1, #-1	@,
 589              	.LVL18:
 590              		.loc 1 93 7 view .LVU112
 591 0010 FFF7FEFF 		bl	xQueueSemaphoreTake		@
 592              	.LVL19:
 593              	@ ../../peripheral_library/api/apiVOC.c:93:   if( xSemaphoreTake( _tVdMutex, portMAX_DELAY ) == pdP
 594              		.loc 1 93 5 view .LVU113
 595 0014 0128     		cmp	r0, #1	@,
 596 0016 02D0     		beq	.L44		@,
 597              	@ ../../peripheral_library/api/apiVOC.c:126:   return TRUE;
  94:../../peripheral_library/api/apiVOC.c ****   {
  95:../../peripheral_library/api/apiVOC.c ****     if (u32Size > _u32ACPUBufferSize || !_u32ACPUBufferAddr)
  96:../../peripheral_library/api/apiVOC.c ****     {
  97:../../peripheral_library/api/apiVOC.c ****       VOC_ERROR("MApi_VOC_VDPort: copy DMA data size 0x%x to ACPU 0x%x(0x%x)\n", u32Size, _u32ACPUB
  98:../../peripheral_library/api/apiVOC.c ****       xSemaphoreGive(_tVdMutex);
  99:../../peripheral_library/api/apiVOC.c ****       return pdFAIL;
 100:../../peripheral_library/api/apiVOC.c ****     }
 101:../../peripheral_library/api/apiVOC.c **** 
 102:../../peripheral_library/api/apiVOC.c ****     if(_u32ACPUBufferPtr + u32Size >= _u32ACPUBufferAddr + _u32ACPUBufferSize)
 103:../../peripheral_library/api/apiVOC.c ****     {
ARM GAS  /tmp/ccEYK1mV.s 			page 18


 104:../../peripheral_library/api/apiVOC.c ****       //memcpy(ptr, buffer, _gMcuDmaBuf3 + sizeof(_gMcuDmaBuf3) - ptr);
 105:../../peripheral_library/api/apiVOC.c ****       MDrv_BDMA_Copy(u32Buffer, _u32ACPUBufferPtr, (_u32ACPUBufferAddr + _u32ACPUBufferSize - _u32A
 106:../../peripheral_library/api/apiVOC.c ****      // VOC_MSG("MApi_VOC_VDPort: moving audio data size 0x%x to ACPU 0x%x, period = %d\n", u32Size
 107:../../peripheral_library/api/apiVOC.c ****       //_chip_flush_miu_pipe();
 108:../../peripheral_library/api/apiVOC.c ****       u32Size -= (_u32ACPUBufferAddr + _u32ACPUBufferSize - _u32ACPUBufferPtr);
 109:../../peripheral_library/api/apiVOC.c ****       u32Buffer +=  (_u32ACPUBufferAddr + _u32ACPUBufferSize - _u32ACPUBufferPtr);
 110:../../peripheral_library/api/apiVOC.c ****       _u32ACPUBufferPtr = _u32ACPUBufferAddr;
 111:../../peripheral_library/api/apiVOC.c ****     }
 112:../../peripheral_library/api/apiVOC.c **** 
 113:../../peripheral_library/api/apiVOC.c ****     if (u32Size > 0)
 114:../../peripheral_library/api/apiVOC.c ****     {
 115:../../peripheral_library/api/apiVOC.c ****       //memcpy(ptr, buffer, size);
 116:../../peripheral_library/api/apiVOC.c ****       MDrv_BDMA_Copy(u32Buffer, _u32ACPUBufferPtr, u32Size, E_BDMA_CPtoHK);
 117:../../peripheral_library/api/apiVOC.c ****       //VOC_MSG("MApi_VOC_VDPort: moving audio data size 0x%x to ACPU 0x%x, period = %d\n", u32Size
 118:../../peripheral_library/api/apiVOC.c ****       _u32ACPUBufferPtr += u32Size;
 119:../../peripheral_library/api/apiVOC.c ****     }
 120:../../peripheral_library/api/apiVOC.c **** 
 121:../../peripheral_library/api/apiVOC.c ****     _u32PeriodCount++;
 122:../../peripheral_library/api/apiVOC.c ****     _u16CountToNotify++;
 123:../../peripheral_library/api/apiVOC.c ****     xSemaphoreGive(_tVdMutex);
 124:../../peripheral_library/api/apiVOC.c ****   }
 125:../../peripheral_library/api/apiVOC.c **** 
 126:../../peripheral_library/api/apiVOC.c ****   return TRUE;
 598              		.loc 1 126 10 view .LVU114
 599 0018 0120     		movs	r0, #1	@ <retval>,
 600              	@ ../../peripheral_library/api/apiVOC.c:127: }
 127:../../peripheral_library/api/apiVOC.c **** }
 601              		.loc 1 127 1 view .LVU115
 602 001a BDE8F883 		pop	{r3, r4, r5, r6, r7, r8, r9, pc}	@
 603              	.LVL20:
 604              	.L44:
 605              	@ ../../peripheral_library/api/apiVOC.c:95:     if (u32Size > _u32ACPUBufferSize || !_u32ACPUBuffer
  95:../../peripheral_library/api/apiVOC.c ****     {
 606              		.loc 1 95 17 view .LVU116
 607 001e 2C4F     		ldr	r7, .L48+4	@ tmp146,
 608 0020 3B68     		ldr	r3, [r7]	@ _u32ACPUBufferSize.18_3, _u32ACPUBufferSize
 609              	@ ../../peripheral_library/api/apiVOC.c:91:   U32 u32Size = u32Count*2;
  91:../../peripheral_library/api/apiVOC.c **** 
 610              		.loc 1 91 7 view .LVU117
 611 0022 6400     		lsls	r4, r4, #1	@ u32Size, u32Count,
 612              	.LVL21:
  95:../../peripheral_library/api/apiVOC.c ****     {
 613              		.loc 1 95 5 is_stmt 1 view .LVU118
 614              	@ ../../peripheral_library/api/apiVOC.c:95:     if (u32Size > _u32ACPUBufferSize || !_u32ACPUBuffer
  95:../../peripheral_library/api/apiVOC.c ****     {
 615              		.loc 1 95 8 is_stmt 0 view .LVU119
 616 0024 A342     		cmp	r3, r4	@ _u32ACPUBufferSize.18_3, u32Size
 617 0026 1FD3     		bcc	.L31		@,
 618              	@ ../../peripheral_library/api/apiVOC.c:95:     if (u32Size > _u32ACPUBufferSize || !_u32ACPUBuffer
  95:../../peripheral_library/api/apiVOC.c ****     {
 619              		.loc 1 95 41 discriminator 1 view .LVU120
 620 0028 DFF8B480 		ldr	r8, .L48+20	@ tmp147,
 621 002c D8F80020 		ldr	r2, [r8]	@ _u32ACPUBufferAddr.19_4, _u32ACPUBufferAddr
 622              	@ ../../peripheral_library/api/apiVOC.c:95:     if (u32Size > _u32ACPUBufferSize || !_u32ACPUBuffer
  95:../../peripheral_library/api/apiVOC.c ****     {
 623              		.loc 1 95 38 discriminator 1 view .LVU121
 624 0030 D2B1     		cbz	r2, .L31	@ _u32ACPUBufferAddr.19_4,
ARM GAS  /tmp/ccEYK1mV.s 			page 19


 625              	@ ../../peripheral_library/api/apiVOC.c:102:     if(_u32ACPUBufferPtr + u32Size >= _u32ACPUBufferAd
 102:../../peripheral_library/api/apiVOC.c ****     {
 626              		.loc 1 102 26 view .LVU122
 627 0032 DFF8B490 		ldr	r9, .L48+28	@ tmp182,
 628 0036 D9F80010 		ldr	r1, [r9]	@ _u32ACPUBufferPtr.25_10, _u32ACPUBufferPtr
 629              	@ ../../peripheral_library/api/apiVOC.c:102:     if(_u32ACPUBufferPtr + u32Size >= _u32ACPUBufferAd
 102:../../peripheral_library/api/apiVOC.c ****     {
 630              		.loc 1 102 58 view .LVU123
 631 003a 1344     		add	r3, r3, r2	@ _12, _u32ACPUBufferAddr.19_4
 632              	@ ../../peripheral_library/api/apiVOC.c:102:     if(_u32ACPUBufferPtr + u32Size >= _u32ACPUBufferAd
 102:../../peripheral_library/api/apiVOC.c ****     {
 633              		.loc 1 102 26 view .LVU124
 634 003c 0A19     		adds	r2, r1, r4	@ tmp157, _u32ACPUBufferPtr.25_10, u32Size
 102:../../peripheral_library/api/apiVOC.c ****     {
 635              		.loc 1 102 5 is_stmt 1 view .LVU125
 636              	@ ../../peripheral_library/api/apiVOC.c:102:     if(_u32ACPUBufferPtr + u32Size >= _u32ACPUBufferAd
 102:../../peripheral_library/api/apiVOC.c ****     {
 637              		.loc 1 102 7 is_stmt 0 view .LVU126
 638 003e 9A42     		cmp	r2, r3	@ tmp157, _12
 639 0040 26D2     		bcs	.L45		@,
 640              	.LVL22:
 641              	.L34:
 113:../../peripheral_library/api/apiVOC.c ****     {
 642              		.loc 1 113 5 is_stmt 1 view .LVU127
 643              	@ ../../peripheral_library/api/apiVOC.c:113:     if (u32Size > 0)
 113:../../peripheral_library/api/apiVOC.c ****     {
 644              		.loc 1 113 8 is_stmt 0 view .LVU128
 645 0042 002C     		cmp	r4, #0	@ u32Size
 646 0044 36D1     		bne	.L46	@
 647              	.LVL23:
 648              	.L35:
 121:../../peripheral_library/api/apiVOC.c ****     _u16CountToNotify++;
 649              		.loc 1 121 5 is_stmt 1 view .LVU129
 650              	@ ../../peripheral_library/api/apiVOC.c:121:     _u32PeriodCount++;
 121:../../peripheral_library/api/apiVOC.c ****     _u16CountToNotify++;
 651              		.loc 1 121 20 is_stmt 0 view .LVU130
 652 0046 2349     		ldr	r1, .L48+8	@ tmp170,
 653              	@ ../../peripheral_library/api/apiVOC.c:122:     _u16CountToNotify++;
 122:../../peripheral_library/api/apiVOC.c ****     xSemaphoreGive(_tVdMutex);
 654              		.loc 1 122 22 view .LVU131
 655 0048 234E     		ldr	r6, .L48+12	@ tmp174,
 656              	.LVL24:
 657              	@ ../../peripheral_library/api/apiVOC.c:121:     _u32PeriodCount++;
 121:../../peripheral_library/api/apiVOC.c ****     _u16CountToNotify++;
 658              		.loc 1 121 20 view .LVU132
 659 004a 0A68     		ldr	r2, [r1]	@ _u32PeriodCount, _u32PeriodCount
 660              	@ ../../peripheral_library/api/apiVOC.c:122:     _u16CountToNotify++;
 122:../../peripheral_library/api/apiVOC.c ****     xSemaphoreGive(_tVdMutex);
 661              		.loc 1 122 22 view .LVU133
 662 004c 3488     		ldrh	r4, [r6]	@, _u16CountToNotify
 663              	@ ../../peripheral_library/api/apiVOC.c:123:     xSemaphoreGive(_tVdMutex);
 123:../../peripheral_library/api/apiVOC.c ****   }
 664              		.loc 1 123 5 view .LVU134
 665 004e 2868     		ldr	r0, [r5]	@, _tVdMutex
 666 0050 0023     		movs	r3, #0	@,
 667              	@ ../../peripheral_library/api/apiVOC.c:121:     _u32PeriodCount++;
 121:../../peripheral_library/api/apiVOC.c ****     _u16CountToNotify++;
ARM GAS  /tmp/ccEYK1mV.s 			page 20


 668              		.loc 1 121 20 view .LVU135
 669 0052 0132     		adds	r2, r2, #1	@ tmp172, _u32PeriodCount,
 670 0054 0A60     		str	r2, [r1]	@ tmp172, _u32PeriodCount
 122:../../peripheral_library/api/apiVOC.c ****     xSemaphoreGive(_tVdMutex);
 671              		.loc 1 122 5 is_stmt 1 view .LVU136
 672              	@ ../../peripheral_library/api/apiVOC.c:122:     _u16CountToNotify++;
 122:../../peripheral_library/api/apiVOC.c ****     xSemaphoreGive(_tVdMutex);
 673              		.loc 1 122 22 is_stmt 0 view .LVU137
 674 0056 0134     		adds	r4, r4, #1	@ tmp177, _u16CountToNotify,
 675              	@ ../../peripheral_library/api/apiVOC.c:123:     xSemaphoreGive(_tVdMutex);
 123:../../peripheral_library/api/apiVOC.c ****   }
 676              		.loc 1 123 5 view .LVU138
 677 0058 1A46     		mov	r2, r3	@,
 678 005a 1946     		mov	r1, r3	@,
 679              	@ ../../peripheral_library/api/apiVOC.c:122:     _u16CountToNotify++;
 122:../../peripheral_library/api/apiVOC.c ****     xSemaphoreGive(_tVdMutex);
 680              		.loc 1 122 22 view .LVU139
 681 005c 3480     		strh	r4, [r6]	@ movhi	@ tmp177, _u16CountToNotify
 123:../../peripheral_library/api/apiVOC.c ****   }
 682              		.loc 1 123 5 is_stmt 1 view .LVU140
 683 005e FFF7FEFF 		bl	xQueueGenericSend		@
 684              	.LVL25:
 685              	@ ../../peripheral_library/api/apiVOC.c:126:   return TRUE;
 126:../../peripheral_library/api/apiVOC.c **** }
 686              		.loc 1 126 10 is_stmt 0 view .LVU141
 687 0062 0120     		movs	r0, #1	@ <retval>,
 688              	@ ../../peripheral_library/api/apiVOC.c:127: }
 689              		.loc 1 127 1 view .LVU142
 690 0064 BDE8F883 		pop	{r3, r4, r5, r6, r7, r8, r9, pc}	@
 691              	.LVL26:
 692              	.L31:
  97:../../peripheral_library/api/apiVOC.c ****       xSemaphoreGive(_tVdMutex);
 693              		.loc 1 97 7 is_stmt 1 view .LVU143
 694 0068 1C4A     		ldr	r2, .L48+16	@ tmp148,
 695 006a 1268     		ldr	r2, [r2]	@ gu32MosDbgLevel, gu32MosDbgLevel
 696 006c D207     		lsls	r2, r2, #31	@, gu32MosDbgLevel,
 697 006e 08D4     		bmi	.L47		@,
 698              	.L33:
  97:../../peripheral_library/api/apiVOC.c ****       xSemaphoreGive(_tVdMutex);
 699              		.loc 1 97 7 discriminator 3 view .LVU144
  97:../../peripheral_library/api/apiVOC.c ****       xSemaphoreGive(_tVdMutex);
 700              		.loc 1 97 130 discriminator 3 view .LVU145
  98:../../peripheral_library/api/apiVOC.c ****       return pdFAIL;
 701              		.loc 1 98 7 discriminator 3 view .LVU146
 702 0070 0023     		movs	r3, #0	@,
 703 0072 2868     		ldr	r0, [r5]	@, _tVdMutex
 704 0074 1A46     		mov	r2, r3	@,
 705 0076 1946     		mov	r1, r3	@,
 706 0078 FFF7FEFF 		bl	xQueueGenericSend		@
 707              	.LVL27:
  99:../../peripheral_library/api/apiVOC.c ****     }
 708              		.loc 1 99 7 discriminator 3 view .LVU147
 709              	@ ../../peripheral_library/api/apiVOC.c:99:       return pdFAIL;
  99:../../peripheral_library/api/apiVOC.c ****     }
 710              		.loc 1 99 14 is_stmt 0 discriminator 3 view .LVU148
 711 007c 0020     		movs	r0, #0	@ <retval>,
 712              	@ ../../peripheral_library/api/apiVOC.c:127: }
ARM GAS  /tmp/ccEYK1mV.s 			page 21


 713              		.loc 1 127 1 discriminator 3 view .LVU149
 714 007e BDE8F883 		pop	{r3, r4, r5, r6, r7, r8, r9, pc}	@
 715              	.LVL28:
 716              	.L47:
  97:../../peripheral_library/api/apiVOC.c ****       xSemaphoreGive(_tVdMutex);
 717              		.loc 1 97 7 is_stmt 1 discriminator 1 view .LVU150
 718 0082 174A     		ldr	r2, .L48+20	@ tmp151,
 719 0084 1748     		ldr	r0, .L48+24	@,
 720 0086 1268     		ldr	r2, [r2]	@, _u32ACPUBufferAddr
 721 0088 2146     		mov	r1, r4	@, u32Size
 722 008a FFF7FEFF 		bl	UartSendTrace		@
 723              	.LVL29:
 724 008e EFE7     		b	.L33		@
 725              	.L45:
 105:../../peripheral_library/api/apiVOC.c ****      // VOC_MSG("MApi_VOC_VDPort: moving audio data size 0x%x to ACPU 0x%x, period = %d\n", u32Size
 726              		.loc 1 105 7 view .LVU151
 727 0090 5A1A     		subs	r2, r3, r1	@, _12, _u32ACPUBufferPtr.25_10
 728 0092 3046     		mov	r0, r6	@, u32Buffer
 729 0094 0023     		movs	r3, #0	@,
 730 0096 FFF7FEFF 		bl	MDrv_BDMA_Copy		@
 731              	.LVL30:
 108:../../peripheral_library/api/apiVOC.c ****       u32Buffer +=  (_u32ACPUBufferAddr + _u32ACPUBufferSize - _u32ACPUBufferPtr);
 732              		.loc 1 108 7 view .LVU152
 733              	@ ../../peripheral_library/api/apiVOC.c:108:       u32Size -= (_u32ACPUBufferAddr + _u32ACPUBufferS
 108:../../peripheral_library/api/apiVOC.c ****       u32Buffer +=  (_u32ACPUBufferAddr + _u32ACPUBufferSize - _u32ACPUBufferPtr);
 734              		.loc 1 108 38 is_stmt 0 view .LVU153
 735 009a D8F80010 		ldr	r1, [r8]	@ _u32ACPUBufferPtr.25_10, _u32ACPUBufferAddr
 736 009e 3B68     		ldr	r3, [r7]	@ _u32ACPUBufferSize, _u32ACPUBufferSize
 737              	@ ../../peripheral_library/api/apiVOC.c:108:       u32Size -= (_u32ACPUBufferAddr + _u32ACPUBufferS
 108:../../peripheral_library/api/apiVOC.c ****       u32Buffer +=  (_u32ACPUBufferAddr + _u32ACPUBufferSize - _u32ACPUBufferPtr);
 738              		.loc 1 108 15 view .LVU154
 739 00a0 D9F80020 		ldr	r2, [r9]	@ _u32ACPUBufferPtr.35_15, _u32ACPUBufferPtr
 740              	@ ../../peripheral_library/api/apiVOC.c:110:       _u32ACPUBufferPtr = _u32ACPUBufferAddr;
 110:../../peripheral_library/api/apiVOC.c ****     }
 741              		.loc 1 110 25 view .LVU155
 742 00a4 C9F80010 		str	r1, [r9]	@ _u32ACPUBufferPtr.25_10, _u32ACPUBufferPtr
 743              	@ ../../peripheral_library/api/apiVOC.c:108:       u32Size -= (_u32ACPUBufferAddr + _u32ACPUBufferS
 108:../../peripheral_library/api/apiVOC.c ****       u32Buffer +=  (_u32ACPUBufferAddr + _u32ACPUBufferSize - _u32ACPUBufferPtr);
 744              		.loc 1 108 38 view .LVU156
 745 00a8 0B44     		add	r3, r3, r1	@ _18, _u32ACPUBufferPtr.25_10
 746              	@ ../../peripheral_library/api/apiVOC.c:108:       u32Size -= (_u32ACPUBufferAddr + _u32ACPUBufferS
 108:../../peripheral_library/api/apiVOC.c ****       u32Buffer +=  (_u32ACPUBufferAddr + _u32ACPUBufferSize - _u32ACPUBufferPtr);
 747              		.loc 1 108 15 view .LVU157
 748 00aa D01A     		subs	r0, r2, r3	@ tmp163, _u32ACPUBufferPtr.35_15, _18
 749              	@ ../../peripheral_library/api/apiVOC.c:109:       u32Buffer +=  (_u32ACPUBufferAddr + _u32ACPUBuff
 109:../../peripheral_library/api/apiVOC.c ****       _u32ACPUBufferPtr = _u32ACPUBufferAddr;
 750              		.loc 1 109 62 view .LVU158
 751 00ac 9B1A     		subs	r3, r3, r2	@ tmp164, _18, _u32ACPUBufferPtr.35_15
 752              	@ ../../peripheral_library/api/apiVOC.c:108:       u32Size -= (_u32ACPUBufferAddr + _u32ACPUBufferS
 108:../../peripheral_library/api/apiVOC.c ****       u32Buffer +=  (_u32ACPUBufferAddr + _u32ACPUBufferSize - _u32ACPUBufferPtr);
 753              		.loc 1 108 15 view .LVU159
 754 00ae 0444     		add	r4, r4, r0	@ u32Size, tmp163
 755              	.LVL31:
 109:../../peripheral_library/api/apiVOC.c ****       _u32ACPUBufferPtr = _u32ACPUBufferAddr;
 756              		.loc 1 109 7 is_stmt 1 view .LVU160
 757              	@ ../../peripheral_library/api/apiVOC.c:109:       u32Buffer +=  (_u32ACPUBufferAddr + _u32ACPUBuff
 109:../../peripheral_library/api/apiVOC.c ****       _u32ACPUBufferPtr = _u32ACPUBufferAddr;
ARM GAS  /tmp/ccEYK1mV.s 			page 22


 758              		.loc 1 109 17 is_stmt 0 view .LVU161
 759 00b0 1E44     		add	r6, r6, r3	@ u32Buffer, tmp164
 760              	.LVL32:
 110:../../peripheral_library/api/apiVOC.c ****     }
 761              		.loc 1 110 7 is_stmt 1 view .LVU162
 762 00b2 C6E7     		b	.L34		@
 763              	.L46:
 116:../../peripheral_library/api/apiVOC.c ****       //VOC_MSG("MApi_VOC_VDPort: moving audio data size 0x%x to ACPU 0x%x, period = %d\n", u32Size
 764              		.loc 1 116 7 view .LVU163
 765 00b4 0023     		movs	r3, #0	@,
 766 00b6 2246     		mov	r2, r4	@, u32Size
 767 00b8 3046     		mov	r0, r6	@, u32Buffer
 768 00ba FFF7FEFF 		bl	MDrv_BDMA_Copy		@
 769              	.LVL33:
 118:../../peripheral_library/api/apiVOC.c ****     }
 770              		.loc 1 118 7 view .LVU164
 771              	@ ../../peripheral_library/api/apiVOC.c:118:       _u32ACPUBufferPtr += u32Size;
 118:../../peripheral_library/api/apiVOC.c ****     }
 772              		.loc 1 118 25 is_stmt 0 view .LVU165
 773 00be D9F80030 		ldr	r3, [r9]	@ _u32ACPUBufferPtr, _u32ACPUBufferPtr
 774 00c2 1C44     		add	r4, r4, r3	@ tmp168, _u32ACPUBufferPtr
 775              	.LVL34:
 118:../../peripheral_library/api/apiVOC.c ****     }
 776              		.loc 1 118 25 view .LVU166
 777 00c4 C9F80040 		str	r4, [r9]	@ tmp168, _u32ACPUBufferPtr
 778 00c8 BDE7     		b	.L35		@
 779              	.L49:
 780 00ca 00BF     		.align	2
 781              	.L48:
 782 00cc 00000000 		.word	.LANCHOR0
 783 00d0 00000000 		.word	.LANCHOR2
 784 00d4 00000000 		.word	.LANCHOR4
 785 00d8 00000000 		.word	.LANCHOR6
 786 00dc 00000000 		.word	gu32MosDbgLevel
 787 00e0 00000000 		.word	.LANCHOR1
 788 00e4 00000000 		.word	.LC3
 789 00e8 00000000 		.word	.LANCHOR3
 790              		.cfi_endproc
 791              	.LFE142:
 792              		.size	MApi_VOC_VDPort, .-MApi_VOC_VDPort
 793              		.section	.text.MApi_VOC_VDNotify,"ax",%progbits
 794              		.align	1
 795              		.p2align 2,,3
 796              		.global	MApi_VOC_VDNotify
 797              		.syntax unified
 798              		.thumb
 799              		.thumb_func
 800              		.fpu fpv4-sp-d16
 801              		.type	MApi_VOC_VDNotify, %function
 802              	MApi_VOC_VDNotify:
 803              	.LVL35:
 804              	.LFB143:
 128:../../peripheral_library/api/apiVOC.c **** 
 129:../../peripheral_library/api/apiVOC.c **** void MApi_VOC_VDNotify(U32 u32Count)
 130:../../peripheral_library/api/apiVOC.c **** {
 805              		.loc 1 130 1 is_stmt 1 view -0
 806              		.cfi_startproc
ARM GAS  /tmp/ccEYK1mV.s 			page 23


 807              		@ args = 0, pretend = 0, frame = 24
 808              		@ frame_needed = 0, uses_anonymous_args = 0
 131:../../peripheral_library/api/apiVOC.c ****   MBX_Msg tMsg;
 809              		.loc 1 131 3 view .LVU168
 132:../../peripheral_library/api/apiVOC.c **** 
 133:../../peripheral_library/api/apiVOC.c ****   if (_u16CountToNotify < _u16MaxToNotify)
 810              		.loc 1 133 3 view .LVU169
 811              	@ ../../peripheral_library/api/apiVOC.c:130: {
 130:../../peripheral_library/api/apiVOC.c ****   MBX_Msg tMsg;
 812              		.loc 1 130 1 is_stmt 0 view .LVU170
 813 0000 70B5     		push	{r4, r5, r6, lr}	@
 814              		.cfi_def_cfa_offset 16
 815              		.cfi_offset 4, -16
 816              		.cfi_offset 5, -12
 817              		.cfi_offset 6, -8
 818              		.cfi_offset 14, -4
 819              	@ ../../peripheral_library/api/apiVOC.c:133:   if (_u16CountToNotify < _u16MaxToNotify)
 820              		.loc 1 133 25 view .LVU171
 821 0002 164B     		ldr	r3, .L54	@ tmp129,
 822 0004 164C     		ldr	r4, .L54+4	@ tmp128,
 823              	@ ../../peripheral_library/api/apiVOC.c:133:   if (_u16CountToNotify < _u16MaxToNotify)
 824              		.loc 1 133 6 view .LVU172
 825 0006 1B88     		ldrh	r3, [r3]	@ _u16MaxToNotify, _u16MaxToNotify
 826 0008 2288     		ldrh	r2, [r4]	@ _u16CountToNotify, _u16CountToNotify
 827 000a 9A42     		cmp	r2, r3	@ _u16CountToNotify, _u16MaxToNotify
 828              	@ ../../peripheral_library/api/apiVOC.c:130: {
 130:../../peripheral_library/api/apiVOC.c ****   MBX_Msg tMsg;
 829              		.loc 1 130 1 view .LVU173
 830 000c 86B0     		sub	sp, sp, #24	@,,
 831              		.cfi_def_cfa_offset 40
 832              	@ ../../peripheral_library/api/apiVOC.c:133:   if (_u16CountToNotify < _u16MaxToNotify)
 833              		.loc 1 133 6 view .LVU174
 834 000e 23D3     		bcc	.L50		@,
 134:../../peripheral_library/api/apiVOC.c ****     return;
 135:../../peripheral_library/api/apiVOC.c **** 
 136:../../peripheral_library/api/apiVOC.c ****   tMsg.eRoleID = E_MBX_ROLE_HK;
 835              		.loc 1 136 3 is_stmt 1 view .LVU175
 137:../../peripheral_library/api/apiVOC.c ****   //tMsg.eRoleID = E_MBX_ROLE_CP;
 138:../../peripheral_library/api/apiVOC.c ****   tMsg.eMsgType = E_MBX_MSG_TYPE_NORMAL;
 836              		.loc 1 138 3 view .LVU176
 837              	@ ../../peripheral_library/api/apiVOC.c:145:   MBX_MSG_PUT_2U32(tMsg, _u32PeriodCount, (u32Count*2)
 139:../../peripheral_library/api/apiVOC.c ****   tMsg.u8MsgClass = E_MBX_CLASS_VOC;
 140:../../peripheral_library/api/apiVOC.c ****   tMsg.u8Index = E_MBX_MSG_PERIOD_NOTIFY;
 141:../../peripheral_library/api/apiVOC.c **** 
 142:../../peripheral_library/api/apiVOC.c ****   //MBX_MSG_PUT_U32(tMsg, _u32PeriodCount);
 143:../../peripheral_library/api/apiVOC.c ****   //MBX_MSG_PUT_2U32(tMsg, _u32PeriodCount, u32Count*2);
 144:../../peripheral_library/api/apiVOC.c **** 
 145:../../peripheral_library/api/apiVOC.c ****   MBX_MSG_PUT_2U32(tMsg, _u32PeriodCount, (u32Count*2));
 838              		.loc 1 145 3 is_stmt 0 view .LVU177
 839 0010 144A     		ldr	r2, .L54+8	@ tmp138,
 840 0012 1368     		ldr	r3, [r2]	@ _u32PeriodCount.54_3, _u32PeriodCount
 841 0014 1288     		ldrh	r2, [r2]	@, MEM[(long unsigned int *)&_u32PeriodCount]
 842 0016 ADF80A20 		strh	r2, [sp, #10]	@ movhi	@ MEM[(long unsigned int *)&_u32PeriodCount], MEM[(unsigned char[10] *)
 843 001a 4000     		lsls	r0, r0, #1	@ tmp146, u32Count,
 844              	.LVL36:
 845              		.loc 1 145 3 view .LVU178
 846 001c 1D0C     		lsrs	r5, r3, #16	@ tmp141, _u32PeriodCount.54_3,
ARM GAS  /tmp/ccEYK1mV.s 			page 24


 847 001e 1A0E     		lsrs	r2, r3, #24	@ tmp143, _u32PeriodCount.54_3,
 848 0020 010C     		lsrs	r1, r0, #16	@ tmp150, tmp146,
 849 0022 030E     		lsrs	r3, r0, #24	@ tmp152, tmp146,
 850 0024 060A     		lsrs	r6, r0, #8	@ tmp148, tmp146,
 851 0026 8DF80E00 		strb	r0, [sp, #14]	@ tmp146, tMsg.u8Parameters
 852 002a 8DF80C50 		strb	r5, [sp, #12]	@ tmp141, tMsg.u8Parameters
 853 002e 8DF80D20 		strb	r2, [sp, #13]	@ tmp143, tMsg.u8Parameters
 854              	@ ../../peripheral_library/api/apiVOC.c:136:   tMsg.eRoleID = E_MBX_ROLE_HK;
 136:../../peripheral_library/api/apiVOC.c ****   //tMsg.eRoleID = E_MBX_ROLE_CP;
 855              		.loc 1 136 16 view .LVU179
 856 0032 0025     		movs	r5, #0	@ tmp133,
 857              	@ ../../peripheral_library/api/apiVOC.c:140:   tMsg.u8Index = E_MBX_MSG_PERIOD_NOTIFY;
 140:../../peripheral_library/api/apiVOC.c **** 
 858              		.loc 1 140 16 view .LVU180
 859 0034 4FF40162 		mov	r2, #2064	@ tmp137,
 860              	@ ../../peripheral_library/api/apiVOC.c:147:   MDrv_MBX_SendMsg(&tMsg);
 146:../../peripheral_library/api/apiVOC.c **** 
 147:../../peripheral_library/api/apiVOC.c ****   MDrv_MBX_SendMsg(&tMsg);
 861              		.loc 1 147 3 view .LVU181
 862 0038 01A8     		add	r0, sp, #4	@,,
 863              	@ ../../peripheral_library/api/apiVOC.c:145:   MBX_MSG_PUT_2U32(tMsg, _u32PeriodCount, (u32Count*2)
 145:../../peripheral_library/api/apiVOC.c **** 
 864              		.loc 1 145 3 view .LVU182
 865 003a 8DF80F60 		strb	r6, [sp, #15]	@ tmp148, tMsg.u8Parameters
 866 003e 8DF81010 		strb	r1, [sp, #16]	@ tmp150, tMsg.u8Parameters
 867 0042 8DF81130 		strb	r3, [sp, #17]	@ tmp152, tMsg.u8Parameters
 868              	@ ../../peripheral_library/api/apiVOC.c:136:   tMsg.eRoleID = E_MBX_ROLE_HK;
 136:../../peripheral_library/api/apiVOC.c ****   //tMsg.eRoleID = E_MBX_ROLE_CP;
 869              		.loc 1 136 16 view .LVU183
 870 0046 ADF80450 		strh	r5, [sp, #4]	@ movhi	@ tmp133, MEM[(void *)&tMsg]
 139:../../peripheral_library/api/apiVOC.c ****   tMsg.u8Index = E_MBX_MSG_PERIOD_NOTIFY;
 871              		.loc 1 139 3 is_stmt 1 view .LVU184
 140:../../peripheral_library/api/apiVOC.c **** 
 872              		.loc 1 140 3 view .LVU185
 145:../../peripheral_library/api/apiVOC.c **** 
 873              		.loc 1 145 3 view .LVU186
 874              	@ ../../peripheral_library/api/apiVOC.c:139:   tMsg.u8MsgClass = E_MBX_CLASS_VOC;
 139:../../peripheral_library/api/apiVOC.c ****   tMsg.u8Index = E_MBX_MSG_PERIOD_NOTIFY;
 875              		.loc 1 139 19 is_stmt 0 view .LVU187
 876 004a 8DF80750 		strb	r5, [sp, #7]	@ tmp133, tMsg.u8MsgClass
 877              	@ ../../peripheral_library/api/apiVOC.c:140:   tMsg.u8Index = E_MBX_MSG_PERIOD_NOTIFY;
 140:../../peripheral_library/api/apiVOC.c **** 
 878              		.loc 1 140 16 view .LVU188
 879 004e ADF80820 		strh	r2, [sp, #8]	@ movhi	@ tmp137, MEM[(unsigned char *)&tMsg + 4B]
 145:../../peripheral_library/api/apiVOC.c **** 
 880              		.loc 1 145 3 is_stmt 1 view .LVU189
 145:../../peripheral_library/api/apiVOC.c **** 
 881              		.loc 1 145 3 view .LVU190
 145:../../peripheral_library/api/apiVOC.c **** 
 882              		.loc 1 145 3 view .LVU191
 145:../../peripheral_library/api/apiVOC.c **** 
 883              		.loc 1 145 3 view .LVU192
 145:../../peripheral_library/api/apiVOC.c **** 
 884              		.loc 1 145 3 view .LVU193
 145:../../peripheral_library/api/apiVOC.c **** 
 885              		.loc 1 145 3 view .LVU194
 145:../../peripheral_library/api/apiVOC.c **** 
ARM GAS  /tmp/ccEYK1mV.s 			page 25


 886              		.loc 1 145 3 view .LVU195
 145:../../peripheral_library/api/apiVOC.c **** 
 887              		.loc 1 145 3 view .LVU196
 145:../../peripheral_library/api/apiVOC.c **** 
 888              		.loc 1 145 56 view .LVU197
 889              		.loc 1 147 3 view .LVU198
 890 0052 FFF7FEFF 		bl	MDrv_MBX_SendMsg		@
 891              	.LVL37:
 148:../../peripheral_library/api/apiVOC.c ****   //OUTREG16(0x40006600, 0x7878);
 149:../../peripheral_library/api/apiVOC.c ****   //MDrv_MBX_SendMsgExt(&tMsg);
 150:../../peripheral_library/api/apiVOC.c **** 
 151:../../peripheral_library/api/apiVOC.c ****   _u16CountToNotify = 0;
 892              		.loc 1 151 3 view .LVU199
 893              	@ ../../peripheral_library/api/apiVOC.c:151:   _u16CountToNotify = 0;
 894              		.loc 1 151 21 is_stmt 0 view .LVU200
 895 0056 2580     		strh	r5, [r4]	@ movhi	@ tmp133, _u16CountToNotify
 896              	.L50:
 897              	@ ../../peripheral_library/api/apiVOC.c:152: }
 152:../../peripheral_library/api/apiVOC.c **** }
 898              		.loc 1 152 1 view .LVU201
 899 0058 06B0     		add	sp, sp, #24	@,,
 900              		.cfi_def_cfa_offset 16
 901              		@ sp needed	@
 902 005a 70BD     		pop	{r4, r5, r6, pc}	@
 903              	.L55:
 904              		.align	2
 905              	.L54:
 906 005c 00000000 		.word	.LANCHOR5
 907 0060 00000000 		.word	.LANCHOR6
 908 0064 00000000 		.word	.LANCHOR4
 909              		.cfi_endproc
 910              	.LFE143:
 911              		.size	MApi_VOC_VDNotify, .-MApi_VOC_VDNotify
 912              		.section	.text.MApi_VOC_NotifyStartTime,"ax",%progbits
 913              		.align	1
 914              		.p2align 2,,3
 915              		.global	MApi_VOC_NotifyStartTime
 916              		.syntax unified
 917              		.thumb
 918              		.thumb_func
 919              		.fpu fpv4-sp-d16
 920              		.type	MApi_VOC_NotifyStartTime, %function
 921              	MApi_VOC_NotifyStartTime:
 922              	.LFB144:
 153:../../peripheral_library/api/apiVOC.c **** 
 154:../../peripheral_library/api/apiVOC.c **** 
 155:../../peripheral_library/api/apiVOC.c **** void MApi_VOC_NotifyStartTime(void)
 156:../../peripheral_library/api/apiVOC.c **** {
 923              		.loc 1 156 1 is_stmt 1 view -0
 924              		.cfi_startproc
 925              		@ args = 0, pretend = 0, frame = 24
 926              		@ frame_needed = 0, uses_anonymous_args = 0
 157:../../peripheral_library/api/apiVOC.c ****   MBX_Msg tMsg;
 927              		.loc 1 157 3 view .LVU203
 158:../../peripheral_library/api/apiVOC.c ****   U64 u64StartTime;
 928              		.loc 1 158 3 view .LVU204
 159:../../peripheral_library/api/apiVOC.c **** 
ARM GAS  /tmp/ccEYK1mV.s 			page 26


 160:../../peripheral_library/api/apiVOC.c ****   U32 u32Low, u32High;
 929              		.loc 1 160 3 view .LVU205
 161:../../peripheral_library/api/apiVOC.c **** 
 162:../../peripheral_library/api/apiVOC.c ****   tMsg.eRoleID = E_MBX_ROLE_HK;
 930              		.loc 1 162 3 view .LVU206
 163:../../peripheral_library/api/apiVOC.c ****   //tMsg.eRoleID = E_MBX_ROLE_CP;
 164:../../peripheral_library/api/apiVOC.c ****   tMsg.eMsgType = E_MBX_MSG_TYPE_NORMAL;
 931              		.loc 1 164 3 view .LVU207
 932              	@ ../../peripheral_library/api/apiVOC.c:156: {
 156:../../peripheral_library/api/apiVOC.c ****   MBX_Msg tMsg;
 933              		.loc 1 156 1 is_stmt 0 view .LVU208
 934 0000 F0B5     		push	{r4, r5, r6, r7, lr}	@
 935              		.cfi_def_cfa_offset 20
 936              		.cfi_offset 4, -20
 937              		.cfi_offset 5, -16
 938              		.cfi_offset 6, -12
 939              		.cfi_offset 7, -8
 940              		.cfi_offset 14, -4
 941 0002 87B0     		sub	sp, sp, #28	@,,
 942              		.cfi_def_cfa_offset 48
 943              	@ ../../peripheral_library/api/apiVOC.c:162:   tMsg.eRoleID = E_MBX_ROLE_HK;
 162:../../peripheral_library/api/apiVOC.c ****   //tMsg.eRoleID = E_MBX_ROLE_CP;
 944              		.loc 1 162 16 view .LVU209
 945 0004 0023     		movs	r3, #0	@ tmp127,
 946              	@ ../../peripheral_library/api/apiVOC.c:166:   tMsg.u8Index = E_MBX_MSG_STARTTIME_NOTIFY;
 165:../../peripheral_library/api/apiVOC.c ****   tMsg.u8MsgClass = E_MBX_CLASS_VOC;
 166:../../peripheral_library/api/apiVOC.c ****   tMsg.u8Index = E_MBX_MSG_STARTTIME_NOTIFY;
 947              		.loc 1 166 16 view .LVU210
 948 0006 1122     		movs	r2, #17	@ tmp130,
 949              	@ ../../peripheral_library/api/apiVOC.c:162:   tMsg.eRoleID = E_MBX_ROLE_HK;
 162:../../peripheral_library/api/apiVOC.c ****   //tMsg.eRoleID = E_MBX_ROLE_CP;
 950              		.loc 1 162 16 view .LVU211
 951 0008 ADF80430 		strh	r3, [sp, #4]	@ movhi	@ tmp127, MEM[(void *)&tMsg]
 165:../../peripheral_library/api/apiVOC.c ****   tMsg.u8MsgClass = E_MBX_CLASS_VOC;
 952              		.loc 1 165 3 is_stmt 1 view .LVU212
 953              	@ ../../peripheral_library/api/apiVOC.c:165:   tMsg.u8MsgClass = E_MBX_CLASS_VOC;
 165:../../peripheral_library/api/apiVOC.c ****   tMsg.u8MsgClass = E_MBX_CLASS_VOC;
 954              		.loc 1 165 19 is_stmt 0 view .LVU213
 955 000c 8DF80730 		strb	r3, [sp, #7]	@ tmp127, tMsg.u8MsgClass
 956              		.loc 1 166 3 is_stmt 1 view .LVU214
 957              	@ ../../peripheral_library/api/apiVOC.c:166:   tMsg.u8Index = E_MBX_MSG_STARTTIME_NOTIFY;
 958              		.loc 1 166 16 is_stmt 0 view .LVU215
 959 0010 8DF80820 		strb	r2, [sp, #8]	@ tmp130, tMsg.u8Index
 167:../../peripheral_library/api/apiVOC.c **** 
 168:../../peripheral_library/api/apiVOC.c ****   u64StartTime = MDrv_AUD_GetStartTime();
 960              		.loc 1 168 3 is_stmt 1 view .LVU216
 961              	@ ../../peripheral_library/api/apiVOC.c:168:   u64StartTime = MDrv_AUD_GetStartTime();
 962              		.loc 1 168 18 is_stmt 0 view .LVU217
 963 0014 FFF7FEFF 		bl	MDrv_AUD_GetStartTime		@
 964              	.LVL38:
 169:../../peripheral_library/api/apiVOC.c ****   u32Low = (U32)u64StartTime;
 965              		.loc 1 169 3 is_stmt 1 view .LVU218
 170:../../peripheral_library/api/apiVOC.c ****   u32High = (U32)(u64StartTime>>32);
 966              		.loc 1 170 3 view .LVU219
 171:../../peripheral_library/api/apiVOC.c ****   MBX_MSG_PUT_2U32(tMsg, u32Low, u32High);
 967              		.loc 1 171 3 view .LVU220
 968 0018 0823     		movs	r3, #8	@ tmp134,
ARM GAS  /tmp/ccEYK1mV.s 			page 27


 969 001a 070C     		lsrs	r7, r0, #16	@ tmp137, u64StartTime,
 970 001c 060E     		lsrs	r6, r0, #24	@ tmp139, u64StartTime,
 971 001e 0D0A     		lsrs	r5, r1, #8	@ tmp142, u64StartTime,
 972 0020 0C0C     		lsrs	r4, r1, #16	@ tmp144, u64StartTime,
 973 0022 ADF80A00 		strh	r0, [sp, #10]	@ movhi	@ u64StartTime, MEM[(unsigned char[10] *)&tMsg + 6B]
 974 0026 0A0E     		lsrs	r2, r1, #24	@ tmp146, u64StartTime,
 975              	@ ../../peripheral_library/api/apiVOC.c:173:   MDrv_MBX_SendMsg(&tMsg);
 172:../../peripheral_library/api/apiVOC.c **** 
 173:../../peripheral_library/api/apiVOC.c ****   MDrv_MBX_SendMsg(&tMsg);
 976              		.loc 1 173 3 is_stmt 0 view .LVU221
 977 0028 01A8     		add	r0, sp, #4	@,,
 978              	.LVL39:
 979              	@ ../../peripheral_library/api/apiVOC.c:171:   MBX_MSG_PUT_2U32(tMsg, u32Low, u32High);
 171:../../peripheral_library/api/apiVOC.c ****   MBX_MSG_PUT_2U32(tMsg, u32Low, u32High);
 980              		.loc 1 171 3 view .LVU222
 981 002a 8DF80E10 		strb	r1, [sp, #14]	@ u64StartTime, tMsg.u8Parameters
 982 002e 8DF80C70 		strb	r7, [sp, #12]	@ tmp137, tMsg.u8Parameters
 983 0032 8DF80D60 		strb	r6, [sp, #13]	@ tmp139, tMsg.u8Parameters
 984 0036 8DF80F50 		strb	r5, [sp, #15]	@ tmp142, tMsg.u8Parameters
 985 003a 8DF81040 		strb	r4, [sp, #16]	@ tmp144, tMsg.u8Parameters
 986 003e 8DF81120 		strb	r2, [sp, #17]	@ tmp146, tMsg.u8Parameters
 987 0042 8DF80930 		strb	r3, [sp, #9]	@ tmp134, tMsg.u8ParameterCount
 171:../../peripheral_library/api/apiVOC.c ****   MBX_MSG_PUT_2U32(tMsg, u32Low, u32High);
 988              		.loc 1 171 3 is_stmt 1 view .LVU223
 171:../../peripheral_library/api/apiVOC.c ****   MBX_MSG_PUT_2U32(tMsg, u32Low, u32High);
 989              		.loc 1 171 3 view .LVU224
 171:../../peripheral_library/api/apiVOC.c ****   MBX_MSG_PUT_2U32(tMsg, u32Low, u32High);
 990              		.loc 1 171 3 view .LVU225
 171:../../peripheral_library/api/apiVOC.c ****   MBX_MSG_PUT_2U32(tMsg, u32Low, u32High);
 991              		.loc 1 171 3 view .LVU226
 171:../../peripheral_library/api/apiVOC.c ****   MBX_MSG_PUT_2U32(tMsg, u32Low, u32High);
 992              		.loc 1 171 3 view .LVU227
 171:../../peripheral_library/api/apiVOC.c ****   MBX_MSG_PUT_2U32(tMsg, u32Low, u32High);
 993              		.loc 1 171 3 view .LVU228
 171:../../peripheral_library/api/apiVOC.c ****   MBX_MSG_PUT_2U32(tMsg, u32Low, u32High);
 994              		.loc 1 171 3 view .LVU229
 171:../../peripheral_library/api/apiVOC.c ****   MBX_MSG_PUT_2U32(tMsg, u32Low, u32High);
 995              		.loc 1 171 3 view .LVU230
 171:../../peripheral_library/api/apiVOC.c ****   MBX_MSG_PUT_2U32(tMsg, u32Low, u32High);
 996              		.loc 1 171 42 view .LVU231
 997              		.loc 1 173 3 view .LVU232
 998 0046 FFF7FEFF 		bl	MDrv_MBX_SendMsg		@
 999              	.LVL40:
 1000              	@ ../../peripheral_library/api/apiVOC.c:174: }
 174:../../peripheral_library/api/apiVOC.c **** }
 1001              		.loc 1 174 1 is_stmt 0 view .LVU233
 1002 004a 07B0     		add	sp, sp, #28	@,,
 1003              		.cfi_def_cfa_offset 20
 1004              		@ sp needed	@
 1005 004c F0BD     		pop	{r4, r5, r6, r7, pc}	@
 1006              		.cfi_endproc
 1007              	.LFE144:
 1008              		.size	MApi_VOC_NotifyStartTime, .-MApi_VOC_NotifyStartTime
 1009 004e 00BF     		.section	.text.MApi_VOC_NotifyPeriod,"ax",%progbits
 1010              		.align	1
 1011              		.p2align 2,,3
 1012              		.global	MApi_VOC_NotifyPeriod
ARM GAS  /tmp/ccEYK1mV.s 			page 28


 1013              		.syntax unified
 1014              		.thumb
 1015              		.thumb_func
 1016              		.fpu fpv4-sp-d16
 1017              		.type	MApi_VOC_NotifyPeriod, %function
 1018              	MApi_VOC_NotifyPeriod:
 1019              	.LVL41:
 1020              	.LFB145:
 175:../../peripheral_library/api/apiVOC.c **** 
 176:../../peripheral_library/api/apiVOC.c **** void MApi_VOC_NotifyPeriod(U32 u32Count)
 177:../../peripheral_library/api/apiVOC.c **** {
 1021              		.loc 1 177 1 is_stmt 1 view -0
 1022              		.cfi_startproc
 1023              		@ args = 0, pretend = 0, frame = 24
 1024              		@ frame_needed = 0, uses_anonymous_args = 0
 178:../../peripheral_library/api/apiVOC.c ****   MBX_Msg tMsg;
 1025              		.loc 1 178 3 view .LVU235
 179:../../peripheral_library/api/apiVOC.c **** 
 180:../../peripheral_library/api/apiVOC.c ****   tMsg.eRoleID = E_MBX_ROLE_HK;
 1026              		.loc 1 180 3 view .LVU236
 181:../../peripheral_library/api/apiVOC.c ****   //tMsg.eRoleID = E_MBX_ROLE_CP;
 182:../../peripheral_library/api/apiVOC.c ****   tMsg.eMsgType = E_MBX_MSG_TYPE_NORMAL;
 1027              		.loc 1 182 3 view .LVU237
 1028              	@ ../../peripheral_library/api/apiVOC.c:177: {
 177:../../peripheral_library/api/apiVOC.c ****   MBX_Msg tMsg;
 1029              		.loc 1 177 1 is_stmt 0 view .LVU238
 1030 0000 70B5     		push	{r4, r5, r6, lr}	@
 1031              		.cfi_def_cfa_offset 16
 1032              		.cfi_offset 4, -16
 1033              		.cfi_offset 5, -12
 1034              		.cfi_offset 6, -8
 1035              		.cfi_offset 14, -4
 1036              	@ ../../peripheral_library/api/apiVOC.c:189:   MBX_MSG_PUT_2U32(tMsg, _u32PeriodCount, (u32Count*2)
 183:../../peripheral_library/api/apiVOC.c ****   tMsg.u8MsgClass = E_MBX_CLASS_VOC;
 184:../../peripheral_library/api/apiVOC.c ****   tMsg.u8Index = E_MBX_MSG_PERIOD_NOTIFY;
 185:../../peripheral_library/api/apiVOC.c **** 
 186:../../peripheral_library/api/apiVOC.c ****   //MBX_MSG_PUT_U32(tMsg, _u32PeriodCount);
 187:../../peripheral_library/api/apiVOC.c ****   //MBX_MSG_PUT_2U32(tMsg, _u32PeriodCount, u32Count*2);
 188:../../peripheral_library/api/apiVOC.c **** 
 189:../../peripheral_library/api/apiVOC.c ****   MBX_MSG_PUT_2U32(tMsg, _u32PeriodCount, (u32Count*2));
 1037              		.loc 1 189 3 view .LVU239
 1038 0002 134A     		ldr	r2, .L60	@ tmp132,
 1039 0004 1368     		ldr	r3, [r2]	@ _u32PeriodCount.58_1, _u32PeriodCount
 1040 0006 1288     		ldrh	r2, [r2]	@, MEM[(long unsigned int *)&_u32PeriodCount]
 1041              	@ ../../peripheral_library/api/apiVOC.c:177: {
 177:../../peripheral_library/api/apiVOC.c ****   MBX_Msg tMsg;
 1042              		.loc 1 177 1 view .LVU240
 1043 0008 86B0     		sub	sp, sp, #24	@,,
 1044              		.cfi_def_cfa_offset 40
 1045              	@ ../../peripheral_library/api/apiVOC.c:189:   MBX_MSG_PUT_2U32(tMsg, _u32PeriodCount, (u32Count*2)
 1046              		.loc 1 189 3 view .LVU241
 1047 000a 4000     		lsls	r0, r0, #1	@ tmp140, u32Count,
 1048              	.LVL42:
 1049              		.loc 1 189 3 view .LVU242
 1050 000c 190C     		lsrs	r1, r3, #16	@ tmp135, _u32PeriodCount.58_1,
 1051 000e ADF80A20 		strh	r2, [sp, #10]	@ movhi	@ MEM[(long unsigned int *)&_u32PeriodCount], MEM[(unsigned char[10] *)
 1052 0012 1B0E     		lsrs	r3, r3, #24	@ tmp137, _u32PeriodCount.58_1,
ARM GAS  /tmp/ccEYK1mV.s 			page 29


 1053              	@ ../../peripheral_library/api/apiVOC.c:180:   tMsg.eRoleID = E_MBX_ROLE_HK;
 180:../../peripheral_library/api/apiVOC.c ****   //tMsg.eRoleID = E_MBX_ROLE_CP;
 1054              		.loc 1 180 16 view .LVU243
 1055 0014 0022     		movs	r2, #0	@ tmp127,
 1056              	@ ../../peripheral_library/api/apiVOC.c:189:   MBX_MSG_PUT_2U32(tMsg, _u32PeriodCount, (u32Count*2)
 1057              		.loc 1 189 3 view .LVU244
 1058 0016 060A     		lsrs	r6, r0, #8	@ tmp142, tmp140,
 1059 0018 050C     		lsrs	r5, r0, #16	@ tmp144, tmp140,
 1060 001a 040E     		lsrs	r4, r0, #24	@ tmp146, tmp140,
 1061 001c 8DF80E00 		strb	r0, [sp, #14]	@ tmp140, tMsg.u8Parameters
 1062 0020 8DF80C10 		strb	r1, [sp, #12]	@ tmp135, tMsg.u8Parameters
 1063              	@ ../../peripheral_library/api/apiVOC.c:191:   MDrv_MBX_SendMsg(&tMsg);
 190:../../peripheral_library/api/apiVOC.c **** 
 191:../../peripheral_library/api/apiVOC.c ****   MDrv_MBX_SendMsg(&tMsg);
 1064              		.loc 1 191 3 view .LVU245
 1065 0024 01A8     		add	r0, sp, #4	@,,
 1066              	@ ../../peripheral_library/api/apiVOC.c:184:   tMsg.u8Index = E_MBX_MSG_PERIOD_NOTIFY;
 184:../../peripheral_library/api/apiVOC.c **** 
 1067              		.loc 1 184 16 view .LVU246
 1068 0026 4FF40161 		mov	r1, #2064	@ tmp131,
 1069              	@ ../../peripheral_library/api/apiVOC.c:189:   MBX_MSG_PUT_2U32(tMsg, _u32PeriodCount, (u32Count*2)
 189:../../peripheral_library/api/apiVOC.c **** 
 1070              		.loc 1 189 3 view .LVU247
 1071 002a 8DF80D30 		strb	r3, [sp, #13]	@ tmp137, tMsg.u8Parameters
 1072 002e 8DF80F60 		strb	r6, [sp, #15]	@ tmp142, tMsg.u8Parameters
 1073 0032 8DF81050 		strb	r5, [sp, #16]	@ tmp144, tMsg.u8Parameters
 1074 0036 8DF81140 		strb	r4, [sp, #17]	@ tmp146, tMsg.u8Parameters
 1075              	@ ../../peripheral_library/api/apiVOC.c:180:   tMsg.eRoleID = E_MBX_ROLE_HK;
 180:../../peripheral_library/api/apiVOC.c ****   //tMsg.eRoleID = E_MBX_ROLE_CP;
 1076              		.loc 1 180 16 view .LVU248
 1077 003a ADF80420 		strh	r2, [sp, #4]	@ movhi	@ tmp127, MEM[(void *)&tMsg]
 183:../../peripheral_library/api/apiVOC.c ****   tMsg.u8Index = E_MBX_MSG_PERIOD_NOTIFY;
 1078              		.loc 1 183 3 is_stmt 1 view .LVU249
 184:../../peripheral_library/api/apiVOC.c **** 
 1079              		.loc 1 184 3 view .LVU250
 189:../../peripheral_library/api/apiVOC.c **** 
 1080              		.loc 1 189 3 view .LVU251
 1081              	@ ../../peripheral_library/api/apiVOC.c:183:   tMsg.u8MsgClass = E_MBX_CLASS_VOC;
 183:../../peripheral_library/api/apiVOC.c ****   tMsg.u8Index = E_MBX_MSG_PERIOD_NOTIFY;
 1082              		.loc 1 183 19 is_stmt 0 view .LVU252
 1083 003e 8DF80720 		strb	r2, [sp, #7]	@ tmp127, tMsg.u8MsgClass
 1084              	@ ../../peripheral_library/api/apiVOC.c:184:   tMsg.u8Index = E_MBX_MSG_PERIOD_NOTIFY;
 184:../../peripheral_library/api/apiVOC.c **** 
 1085              		.loc 1 184 16 view .LVU253
 1086 0042 ADF80810 		strh	r1, [sp, #8]	@ movhi	@ tmp131, MEM[(unsigned char *)&tMsg + 4B]
 189:../../peripheral_library/api/apiVOC.c **** 
 1087              		.loc 1 189 3 is_stmt 1 view .LVU254
 189:../../peripheral_library/api/apiVOC.c **** 
 1088              		.loc 1 189 3 view .LVU255
 189:../../peripheral_library/api/apiVOC.c **** 
 1089              		.loc 1 189 3 view .LVU256
 189:../../peripheral_library/api/apiVOC.c **** 
 1090              		.loc 1 189 3 view .LVU257
 189:../../peripheral_library/api/apiVOC.c **** 
 1091              		.loc 1 189 3 view .LVU258
 189:../../peripheral_library/api/apiVOC.c **** 
 1092              		.loc 1 189 3 view .LVU259
ARM GAS  /tmp/ccEYK1mV.s 			page 30


 189:../../peripheral_library/api/apiVOC.c **** 
 1093              		.loc 1 189 3 view .LVU260
 189:../../peripheral_library/api/apiVOC.c **** 
 1094              		.loc 1 189 3 view .LVU261
 189:../../peripheral_library/api/apiVOC.c **** 
 1095              		.loc 1 189 56 view .LVU262
 1096              		.loc 1 191 3 view .LVU263
 1097 0046 FFF7FEFF 		bl	MDrv_MBX_SendMsg		@
 1098              	.LVL43:
 1099              	@ ../../peripheral_library/api/apiVOC.c:194: }
 192:../../peripheral_library/api/apiVOC.c ****   //OUTREG16(0x40006600, 0x7878);
 193:../../peripheral_library/api/apiVOC.c ****   //MDrv_MBX_SendMsgExt(&tMsg);
 194:../../peripheral_library/api/apiVOC.c **** }
 1100              		.loc 1 194 1 is_stmt 0 view .LVU264
 1101 004a 06B0     		add	sp, sp, #24	@,,
 1102              		.cfi_def_cfa_offset 16
 1103              		@ sp needed	@
 1104 004c 70BD     		pop	{r4, r5, r6, pc}	@
 1105              	.L61:
 1106 004e 00BF     		.align	2
 1107              	.L60:
 1108 0050 00000000 		.word	.LANCHOR4
 1109              		.cfi_endproc
 1110              	.LFE145:
 1111              		.size	MApi_VOC_NotifyPeriod, .-MApi_VOC_NotifyPeriod
 1112              		.section	.text.MApi_VOC_NotifyStatus,"ax",%progbits
 1113              		.align	1
 1114              		.p2align 2,,3
 1115              		.global	MApi_VOC_NotifyStatus
 1116              		.syntax unified
 1117              		.thumb
 1118              		.thumb_func
 1119              		.fpu fpv4-sp-d16
 1120              		.type	MApi_VOC_NotifyStatus, %function
 1121              	MApi_VOC_NotifyStatus:
 1122              	.LVL44:
 1123              	.LFB146:
 195:../../peripheral_library/api/apiVOC.c **** 
 196:../../peripheral_library/api/apiVOC.c **** void MApi_VOC_NotifyStatus(U8 u8Status)
 197:../../peripheral_library/api/apiVOC.c **** {
 1124              		.loc 1 197 1 is_stmt 1 view -0
 1125              		.cfi_startproc
 1126              		@ args = 0, pretend = 0, frame = 24
 1127              		@ frame_needed = 0, uses_anonymous_args = 0
 198:../../peripheral_library/api/apiVOC.c ****   MBX_Msg tMsg;
 1128              		.loc 1 198 3 view .LVU266
 199:../../peripheral_library/api/apiVOC.c **** 
 200:../../peripheral_library/api/apiVOC.c ****   tMsg.eRoleID = E_MBX_ROLE_HK;
 1129              		.loc 1 200 3 view .LVU267
 201:../../peripheral_library/api/apiVOC.c ****   //tMsg.eRoleID = E_MBX_ROLE_CP;
 202:../../peripheral_library/api/apiVOC.c ****   tMsg.eMsgType = E_MBX_MSG_TYPE_NORMAL;
 1130              		.loc 1 202 3 view .LVU268
 1131              	@ ../../peripheral_library/api/apiVOC.c:197: {
 197:../../peripheral_library/api/apiVOC.c ****   MBX_Msg tMsg;
 1132              		.loc 1 197 1 is_stmt 0 view .LVU269
 1133 0000 00B5     		push	{lr}	@
 1134              		.cfi_def_cfa_offset 4
ARM GAS  /tmp/ccEYK1mV.s 			page 31


 1135              		.cfi_offset 14, -4
 1136 0002 87B0     		sub	sp, sp, #28	@,,
 1137              		.cfi_def_cfa_offset 32
 1138              	@ ../../peripheral_library/api/apiVOC.c:200:   tMsg.eRoleID = E_MBX_ROLE_HK;
 200:../../peripheral_library/api/apiVOC.c ****   //tMsg.eRoleID = E_MBX_ROLE_CP;
 1139              		.loc 1 200 16 view .LVU270
 1140 0004 0023     		movs	r3, #0	@ tmp112,
 1141              	@ ../../peripheral_library/api/apiVOC.c:206:   tMsg.u8Parameters[0] = u8Status;
 203:../../peripheral_library/api/apiVOC.c ****   tMsg.u8MsgClass = E_MBX_CLASS_VOC;
 204:../../peripheral_library/api/apiVOC.c ****   tMsg.u8Index = E_MBX_MSG_STATUS_NOTIFY;
 205:../../peripheral_library/api/apiVOC.c ****   tMsg.u8ParameterCount = 1;
 206:../../peripheral_library/api/apiVOC.c ****   tMsg.u8Parameters[0] = u8Status;
 1142              		.loc 1 206 24 view .LVU271
 1143 0006 8DF80A00 		strb	r0, [sp, #10]	@ u8Status, tMsg.u8Parameters
 1144              	@ ../../peripheral_library/api/apiVOC.c:204:   tMsg.u8Index = E_MBX_MSG_STATUS_NOTIFY;
 204:../../peripheral_library/api/apiVOC.c ****   tMsg.u8ParameterCount = 1;
 1145              		.loc 1 204 16 view .LVU272
 1146 000a 4FF48972 		mov	r2, #274	@ tmp116,
 1147              	@ ../../peripheral_library/api/apiVOC.c:208:   MDrv_MBX_SendMsg(&tMsg);
 207:../../peripheral_library/api/apiVOC.c **** 
 208:../../peripheral_library/api/apiVOC.c ****   MDrv_MBX_SendMsg(&tMsg);
 1148              		.loc 1 208 3 view .LVU273
 1149 000e 01A8     		add	r0, sp, #4	@,,
 1150              	.LVL45:
 1151              	@ ../../peripheral_library/api/apiVOC.c:200:   tMsg.eRoleID = E_MBX_ROLE_HK;
 200:../../peripheral_library/api/apiVOC.c ****   //tMsg.eRoleID = E_MBX_ROLE_CP;
 1152              		.loc 1 200 16 view .LVU274
 1153 0010 ADF80430 		strh	r3, [sp, #4]	@ movhi	@ tmp112, MEM[(void *)&tMsg]
 203:../../peripheral_library/api/apiVOC.c ****   tMsg.u8Index = E_MBX_MSG_STATUS_NOTIFY;
 1154              		.loc 1 203 3 is_stmt 1 view .LVU275
 204:../../peripheral_library/api/apiVOC.c ****   tMsg.u8ParameterCount = 1;
 1155              		.loc 1 204 3 view .LVU276
 205:../../peripheral_library/api/apiVOC.c ****   tMsg.u8Parameters[0] = u8Status;
 1156              		.loc 1 205 3 view .LVU277
 1157              	@ ../../peripheral_library/api/apiVOC.c:203:   tMsg.u8MsgClass = E_MBX_CLASS_VOC;
 203:../../peripheral_library/api/apiVOC.c ****   tMsg.u8Index = E_MBX_MSG_STATUS_NOTIFY;
 1158              		.loc 1 203 19 is_stmt 0 view .LVU278
 1159 0014 8DF80730 		strb	r3, [sp, #7]	@ tmp112, tMsg.u8MsgClass
 1160              	@ ../../peripheral_library/api/apiVOC.c:204:   tMsg.u8Index = E_MBX_MSG_STATUS_NOTIFY;
 204:../../peripheral_library/api/apiVOC.c ****   tMsg.u8ParameterCount = 1;
 1161              		.loc 1 204 16 view .LVU279
 1162 0018 ADF80820 		strh	r2, [sp, #8]	@ movhi	@ tmp116, MEM[(unsigned char *)&tMsg + 4B]
 206:../../peripheral_library/api/apiVOC.c **** 
 1163              		.loc 1 206 3 is_stmt 1 view .LVU280
 1164              		.loc 1 208 3 view .LVU281
 1165 001c FFF7FEFF 		bl	MDrv_MBX_SendMsg		@
 1166              	.LVL46:
 1167              	@ ../../peripheral_library/api/apiVOC.c:209: }
 209:../../peripheral_library/api/apiVOC.c **** }
 1168              		.loc 1 209 1 is_stmt 0 view .LVU282
 1169 0020 07B0     		add	sp, sp, #28	@,,
 1170              		.cfi_def_cfa_offset 4
 1171              		@ sp needed	@
 1172 0022 5DF804FB 		ldr	pc, [sp], #4	@
 1173              		.cfi_endproc
 1174              	.LFE146:
 1175              		.size	MApi_VOC_NotifyStatus, .-MApi_VOC_NotifyStatus
ARM GAS  /tmp/ccEYK1mV.s 			page 32


 1176 0026 00BF     		.section	.bss._tVdMutex,"aw",%nobits
 1177              		.align	2
 1178              		.set	.LANCHOR0,. + 0
 1179              		.type	_tVdMutex, %object
 1180              		.size	_tVdMutex, 4
 1181              	_tVdMutex:
 1182 0000 00000000 		.space	4
 1183              		.section	.bss._u16CountToNotify,"aw",%nobits
 1184              		.align	1
 1185              		.set	.LANCHOR6,. + 0
 1186              		.type	_u16CountToNotify, %object
 1187              		.size	_u16CountToNotify, 2
 1188              	_u16CountToNotify:
 1189 0000 0000     		.space	2
 1190              		.section	.bss._u16MaxToNotify,"aw",%nobits
 1191              		.align	1
 1192              		.set	.LANCHOR5,. + 0
 1193              		.type	_u16MaxToNotify, %object
 1194              		.size	_u16MaxToNotify, 2
 1195              	_u16MaxToNotify:
 1196 0000 0000     		.space	2
 1197              		.section	.bss._u32ACPUBufferAddr,"aw",%nobits
 1198              		.align	2
 1199              		.set	.LANCHOR1,. + 0
 1200              		.type	_u32ACPUBufferAddr, %object
 1201              		.size	_u32ACPUBufferAddr, 4
 1202              	_u32ACPUBufferAddr:
 1203 0000 00000000 		.space	4
 1204              		.section	.bss._u32ACPUBufferPtr,"aw",%nobits
 1205              		.align	2
 1206              		.set	.LANCHOR3,. + 0
 1207              		.type	_u32ACPUBufferPtr, %object
 1208              		.size	_u32ACPUBufferPtr, 4
 1209              	_u32ACPUBufferPtr:
 1210 0000 00000000 		.space	4
 1211              		.section	.bss._u32ACPUBufferSize,"aw",%nobits
 1212              		.align	2
 1213              		.set	.LANCHOR2,. + 0
 1214              		.type	_u32ACPUBufferSize, %object
 1215              		.size	_u32ACPUBufferSize, 4
 1216              	_u32ACPUBufferSize:
 1217 0000 00000000 		.space	4
 1218              		.section	.bss._u32PeriodCount,"aw",%nobits
 1219              		.align	2
 1220              		.set	.LANCHOR4,. + 0
 1221              		.type	_u32PeriodCount, %object
 1222              		.size	_u32PeriodCount, 4
 1223              	_u32PeriodCount:
 1224 0000 00000000 		.space	4
 1225              		.section	.rodata.MApi_VOC_VDConfig.str1.4,"aMS",%progbits,1
 1226              		.align	2
 1227              	.LC0:
 1228 0000 5B564F43 		.ascii	"[VOC] MApi_VOC_VDConfig: 0x%x(0x%x)\012\000"
 1228      5D204D41 
 1228      70695F56 
 1228      4F435F56 
 1228      44436F6E 
ARM GAS  /tmp/ccEYK1mV.s 			page 33


 1229              		.section	.rodata.MApi_VOC_VDConfigExt.str1.4,"aMS",%progbits,1
 1230              		.align	2
 1231              	.LC1:
 1232 0000 5B564F43 		.ascii	"[VOC] MApi_VOC_VDConfigExt: 0x%x(0x%x) - %d\012\000"
 1232      5D204D41 
 1232      70695F56 
 1232      4F435F56 
 1232      44436F6E 
 1233              		.section	.rodata.MApi_VOC_VDPort.str1.4,"aMS",%progbits,1
 1234              		.align	2
 1235              	.LC3:
 1236 0000 5B564F43 		.ascii	"[VOC ERR] MApi_VOC_VDPort: copy DMA data size 0x%x "
 1236      20455252 
 1236      5D204D41 
 1236      70695F56 
 1236      4F435F56 
 1237 0033 746F2041 		.ascii	"to ACPU 0x%x(0x%x)\012\000"
 1237      43505520 
 1237      30782578 
 1237      28307825 
 1237      78290A00 
 1238              		.section	.rodata.MApi_VOC_VDReset.str1.4,"aMS",%progbits,1
 1239              		.align	2
 1240              	.LC2:
 1241 0000 5B564F43 		.ascii	"[VOC] MApi_VOC_VDReset\012\000"
 1241      5D204D41 
 1241      70695F56 
 1241      4F435F56 
 1241      44526573 
 1242              		.text
 1243              	.Letext0:
 1244              		.file 3 "/home/gu/code/freeRTOS10/vendor/mstar/CM4/tools/gcc-arm-none-eabi-8-2018-q4-major/arm-non
 1245              		.file 4 "/home/gu/code/freeRTOS10/vendor/mstar/CM4/tools/gcc-arm-none-eabi-8-2018-q4-major/arm-non
 1246              		.file 5 "/home/gu/code/freeRTOS10/vendor/mstar/CM4/tools/gcc-arm-none-eabi-8-2018-q4-major/arm-non
 1247              		.file 6 "/home/gu/code/freeRTOS10/vendor/mstar/CM4/tools/gcc-arm-none-eabi-8-2018-q4-major/lib/gcc
 1248              		.file 7 "/home/gu/code/freeRTOS10/vendor/mstar/CM4/tools/gcc-arm-none-eabi-8-2018-q4-major/arm-non
 1249              		.file 8 "/home/gu/code/freeRTOS10/vendor/mstar/CM4/tools/gcc-arm-none-eabi-8-2018-q4-major/arm-non
 1250              		.file 9 "/home/gu/code/freeRTOS10/vendor/mstar/CM4/tools/gcc-arm-none-eabi-8-2018-q4-major/arm-non
 1251              		.file 10 "/home/gu/code/freeRTOS10/vendor/mstar/CM4/tools/gcc-arm-none-eabi-8-2018-q4-major/arm-no
 1252              		.file 11 "../../kernel/FreeRTOS/Source/include/queue.h"
 1253              		.file 12 "../../kernel/FreeRTOS/Source/include/semphr.h"
 1254              		.file 13 "../../CMSIS/core_cm4.h"
 1255              		.file 14 "../../peripheral_library/inc/mosWrapper.h"
 1256              		.file 15 "../../peripheral_library/inc/drvBDMA.h"
 1257              		.file 16 "../../peripheral_library/inc/drvMBX.h"
 1258              		.file 17 "../../peripheral_library/inc/drvAudio.h"
 1259              		.file 18 "../../peripheral_library/hal/m7221/inc/halUART.h"