ARM GAS  /tmp/ccDHbyKG.s 			page 1


   1              		.cpu cortex-m4
   2              		.eabi_attribute 27, 1	@ Tag_ABI_HardFP_use
   3              		.eabi_attribute 20, 1	@ Tag_ABI_FP_denormal
   4              		.eabi_attribute 21, 1	@ Tag_ABI_FP_exceptions
   5              		.eabi_attribute 23, 3	@ Tag_ABI_FP_number_model
   6              		.eabi_attribute 24, 1	@ Tag_ABI_align8_needed
   7              		.eabi_attribute 25, 1	@ Tag_ABI_align8_preserved
   8              		.eabi_attribute 26, 1	@ Tag_ABI_enum_size
   9              		.eabi_attribute 30, 2	@ Tag_ABI_optimization_goals
  10              		.eabi_attribute 34, 1	@ Tag_CPU_unaligned_access
  11              		.eabi_attribute 18, 4	@ Tag_ABI_PCS_wchar_t
  12              		.file	"drvCPU.c"
  13              	@ GNU C89 (GNU Tools for Arm Embedded Processors 8-2018-q4-major) version 8.2.1 20181213 (release) 
  14              	@	compiled by GNU C version 4.8.4, GMP version 6.1.0, MPFR version 3.1.4, MPC version 1.0.3, isl ve
  15              	
  16              	@ GGC heuristics: --param ggc-min-expand=96 --param ggc-min-heapsize=125422
  17              	@ options passed:  -isystem =/include/newlib-nano -I . -I .
  18              	@ -I ../../kernel/FreeRTOS/Source/include
  19              	@ -I ../../kernel/FreeRTOS/Source/portable/GCC/ARM_CM4F
  20              	@ -I ../../kernel/FreeRTOS/Demo/Common/include
  21              	@ -I ../../kernel/FreeRTOS-Plus/Source/FreeRTOS-Plus-CLI
  22              	@ -I ../../peripheral_library/inc -I ../../peripheral_library/hal/m7221/inc
  23              	@ -I ../../CMSIS -I ../../main_full -I ../../3rd/rokid/./ -I /.
  24              	@ -I /../../kernel/FreeRTOS/Source/include
  25              	@ -I /../../kernel/FreeRTOS/Source/portable/GCC/ARM_CM4F
  26              	@ -I /../../kernel/FreeRTOS/Demo/Common/include
  27              	@ -I /../../kernel/FreeRTOS-Plus/Source/FreeRTOS-Plus-CLI
  28              	@ -I /../../peripheral_library/inc
  29              	@ -I /../../peripheral_library/hal/m7221/inc -I /../../CMSIS
  30              	@ -I /../../main_full -I /../../3rd/rokid/./
  31              	@ -imultilib thumb/v7e-m+fp/softfp
  32              	@ -iprefix /home/gu/code/freeRTOS10/vendor/mstar/CM4/tools/gcc-arm-none-eabi-8-2018-q4-major/bin/..
  33              	@ -isysroot /home/gu/code/freeRTOS10/vendor/mstar/CM4/tools/gcc-arm-none-eabi-8-2018-q4-major/bin/.
  34              	@ -MD out/drvCPU.d -MF out/drvCPU.d -MP -MQ out/drvCPU.o
  35              	@ -D__USES_INITFINI__ -D CONFIG_BENCH=0 -D CONFIG_SYS_DBG_LEVEL=0xFFFFFFFF
  36              	@ -D CONFIG_VOC_MIC=6 -D CONFIG_AUD_I2S -D CONFIG_AUD_AEC
  37              	@ -D CONFIG_VOC_MIC_MAPPING -D CONFIG_VOC_SWHPF -D CONFIG_VOC_SW_SRC48K
  38              	@ -D ARM_MATH_CM4 -D BOOTROM_VERSION_ASIC
  39              	@ ../../peripheral_library/drv/drvCPU.c -mcpu=cortex-m4 -mthumb
  40              	@ -mthumb-interwork -mfloat-abi=softfp -mfpu=fpv4-sp-d16 -march=armv7e-m+fp
  41              	@ -auxbase-strip out/drvCPU.o -g -ggdb3 -O3 -Wall -Wstrict-prototypes
  42              	@ -Wextra -std=gnu90 -ffunction-sections -fdata-sections
  43              	@ -fno-builtin-printf -fverbose-asm
  44              	@ options enabled:  -faggressive-loop-optimizations -falign-jumps
  45              	@ -falign-labels -falign-loops -fauto-inc-dec -fbranch-count-reg
  46              	@ -fcaller-saves -fchkp-check-incomplete-type -fchkp-check-read
  47              	@ -fchkp-check-write -fchkp-instrument-calls -fchkp-narrow-bounds
  48              	@ -fchkp-optimize -fchkp-store-bounds -fchkp-use-static-bounds
  49              	@ -fchkp-use-static-const-bounds -fchkp-use-wrappers -fcode-hoisting
  50              	@ -fcombine-stack-adjustments -fcommon -fcompare-elim -fcprop-registers
  51              	@ -fcrossjumping -fcse-follow-jumps -fdata-sections -fdefer-pop
  52              	@ -fdelete-null-pointer-checks -fdevirtualize -fdevirtualize-speculatively
  53              	@ -fdwarf2-cfi-asm -fearly-inlining -feliminate-unused-debug-types
  54              	@ -fexpensive-optimizations -fforward-propagate -ffp-int-builtin-inexact
  55              	@ -ffunction-cse -ffunction-sections -fgcse -fgcse-after-reload -fgcse-lm
  56              	@ -fgnu-runtime -fgnu-unique -fguess-branch-probability
  57              	@ -fhoist-adjacent-loads -fident -fif-conversion -fif-conversion2
ARM GAS  /tmp/ccDHbyKG.s 			page 2


  58              	@ -findirect-inlining -finline -finline-atomics -finline-functions
  59              	@ -finline-functions-called-once -finline-small-functions -fipa-bit-cp
  60              	@ -fipa-cp -fipa-cp-clone -fipa-icf -fipa-icf-functions -fipa-icf-variables
  61              	@ -fipa-profile -fipa-pure-const -fipa-ra -fipa-reference -fipa-sra
  62              	@ -fipa-vrp -fira-hoist-pressure -fira-share-save-slots
  63              	@ -fira-share-spill-slots -fisolate-erroneous-paths-dereference -fivopts
  64              	@ -fkeep-static-consts -fleading-underscore -flifetime-dse
  65              	@ -floop-interchange -floop-unroll-and-jam -flra-remat
  66              	@ -flto-odr-type-merging -fmath-errno -fmerge-constants
  67              	@ -fmerge-debug-strings -fmove-loop-invariants -fomit-frame-pointer
  68              	@ -foptimize-sibling-calls -foptimize-strlen -fpartial-inlining
  69              	@ -fpeel-loops -fpeephole -fpeephole2 -fplt -fpredictive-commoning
  70              	@ -fprefetch-loop-arrays -freg-struct-return -freorder-blocks
  71              	@ -freorder-functions -frerun-cse-after-loop
  72              	@ -fsched-critical-path-heuristic -fsched-dep-count-heuristic
  73              	@ -fsched-group-heuristic -fsched-interblock -fsched-last-insn-heuristic
  74              	@ -fsched-pressure -fsched-rank-heuristic -fsched-spec
  75              	@ -fsched-spec-insn-heuristic -fsched-stalled-insns-dep -fschedule-insns
  76              	@ -fschedule-insns2 -fsection-anchors -fsemantic-interposition
  77              	@ -fshow-column -fshrink-wrap -fshrink-wrap-separate -fsigned-zeros
  78              	@ -fsplit-ivs-in-unroller -fsplit-loops -fsplit-paths -fsplit-wide-types
  79              	@ -fssa-backprop -fssa-phiopt -fstdarg-opt -fstore-merging
  80              	@ -fstrict-aliasing -fstrict-volatile-bitfields -fsync-libcalls
  81              	@ -fthread-jumps -ftoplevel-reorder -ftrapping-math -ftree-bit-ccp
  82              	@ -ftree-builtin-call-dce -ftree-ccp -ftree-ch -ftree-coalesce-vars
  83              	@ -ftree-copy-prop -ftree-cselim -ftree-dce -ftree-dominator-opts
  84              	@ -ftree-dse -ftree-forwprop -ftree-fre -ftree-loop-distribute-patterns
  85              	@ -ftree-loop-distribution -ftree-loop-if-convert -ftree-loop-im
  86              	@ -ftree-loop-ivcanon -ftree-loop-optimize -ftree-loop-vectorize
  87              	@ -ftree-parallelize-loops= -ftree-partial-pre -ftree-phiprop -ftree-pre
  88              	@ -ftree-pta -ftree-reassoc -ftree-scev-cprop -ftree-sink
  89              	@ -ftree-slp-vectorize -ftree-slsr -ftree-sra -ftree-switch-conversion
  90              	@ -ftree-tail-merge -ftree-ter -ftree-vrp -funit-at-a-time -funswitch-loops
  91              	@ -fvar-tracking -fvar-tracking-assignments -fverbose-asm
  92              	@ -fzero-initialized-in-bss -masm-syntax-unified -mbe32 -mlittle-endian
  93              	@ -mpic-data-is-text-relative -msched-prolog -mthumb -munaligned-access
  94              	@ -mvectorize-with-neon-quad
  95              	
  96              		.text
  97              	.Ltext0:
  98              		.cfi_sections	.debug_frame
  99              		.section	.text.MDrv_CPU_SetFreq,"ax",%progbits
 100              		.align	1
 101              		.p2align 2,,3
 102              		.global	MDrv_CPU_SetFreq
 103              		.arch armv7e-m
 104              		.syntax unified
 105              		.thumb
 106              		.thumb_func
 107              		.fpu fpv4-sp-d16
 108              		.type	MDrv_CPU_SetFreq, %function
 109              	MDrv_CPU_SetFreq:
 110              	.LVL0:
 111              	.LFB134:
 112              		.file 1 "../../peripheral_library/drv/drvCPU.c"
   1:../../peripheral_library/drv/drvCPU.c **** ////////////////////////////////////////////////////////////////////////////////
   2:../../peripheral_library/drv/drvCPU.c **** //
ARM GAS  /tmp/ccDHbyKG.s 			page 3


   3:../../peripheral_library/drv/drvCPU.c **** // Copyright (c) 2018 MStar Semiconductor, Inc.
   4:../../peripheral_library/drv/drvCPU.c **** // All rights reserved.
   5:../../peripheral_library/drv/drvCPU.c **** //
   6:../../peripheral_library/drv/drvCPU.c **** // Unless otherwise stipulated in writing, any and all information contained
   7:../../peripheral_library/drv/drvCPU.c **** // herein regardless in any format shall remain the sole proprietary of
   8:../../peripheral_library/drv/drvCPU.c **** // MStar Semiconductor Inc. and be kept in strict confidence
   9:../../peripheral_library/drv/drvCPU.c **** // ("MStar Confidential Information") by the recipient.
  10:../../peripheral_library/drv/drvCPU.c **** // Any unauthorized act including without limitation unauthorized disclosure,
  11:../../peripheral_library/drv/drvCPU.c **** // copying, use, reproduction, sale, distribution, modification, disassembling,
  12:../../peripheral_library/drv/drvCPU.c **** // reverse engineering and compiling of the contents of MStar Confidential
  13:../../peripheral_library/drv/drvCPU.c **** // Information is unlawful and strictly prohibited. MStar hereby reserves the
  14:../../peripheral_library/drv/drvCPU.c **** // rights to any and all damages, losses, costs and expenses resulting therefrom.
  15:../../peripheral_library/drv/drvCPU.c **** //
  16:../../peripheral_library/drv/drvCPU.c **** ////////////////////////////////////////////////////////////////////////////////
  17:../../peripheral_library/drv/drvCPU.c **** 
  18:../../peripheral_library/drv/drvCPU.c **** ///////////////////////////////////////////////////////////////////////////////////////////////////
  19:../../peripheral_library/drv/drvCPU.c **** /// @file   drvCPU.c
  20:../../peripheral_library/drv/drvCPU.c **** /// @brief  MStar CPU DRV Driver DDI
  21:../../peripheral_library/drv/drvCPU.c **** /// @author MStar Semiconductor Inc.
  22:../../peripheral_library/drv/drvCPU.c **** /// @attention
  23:../../peripheral_library/drv/drvCPU.c **** /// <b><em></em></b>
  24:../../peripheral_library/drv/drvCPU.c **** ///////////////////////////////////////////////////////////////////////////////////////////////////
  25:../../peripheral_library/drv/drvCPU.c **** 
  26:../../peripheral_library/drv/drvCPU.c **** #define _DRV_CPU_C
  27:../../peripheral_library/drv/drvCPU.c **** 
  28:../../peripheral_library/drv/drvCPU.c **** /* driver includes. */
  29:../../peripheral_library/drv/drvCPU.c **** #include "mosWrapper.h"
  30:../../peripheral_library/drv/drvCPU.c **** #include "drvCPU.h"
  31:../../peripheral_library/drv/drvCPU.c **** #include "halCPU.h"
  32:../../peripheral_library/drv/drvCPU.c **** 
  33:../../peripheral_library/drv/drvCPU.c **** static CPU_FREQ_e _eCPUFreq = E_CPU_FREQ_NONE;
  34:../../peripheral_library/drv/drvCPU.c **** 
  35:../../peripheral_library/drv/drvCPU.c **** /*-----------------------------------------------------------*/
  36:../../peripheral_library/drv/drvCPU.c **** 
  37:../../peripheral_library/drv/drvCPU.c **** void MDrv_CPU_SetFreq(CPU_FREQ_e eFreq)
  38:../../peripheral_library/drv/drvCPU.c **** {
 113              		.loc 1 38 1 view -0
 114              		.cfi_startproc
 115              		@ args = 0, pretend = 0, frame = 0
 116              		@ frame_needed = 0, uses_anonymous_args = 0
  39:../../peripheral_library/drv/drvCPU.c ****   if (_eCPUFreq == E_CPU_FREQ_NONE)
 117              		.loc 1 39 3 view .LVU1
 118              	@ ../../peripheral_library/drv/drvCPU.c:38: {
  38:../../peripheral_library/drv/drvCPU.c ****   if (_eCPUFreq == E_CPU_FREQ_NONE)
 119              		.loc 1 38 1 is_stmt 0 view .LVU2
 120 0000 38B5     		push	{r3, r4, r5, lr}	@
 121              		.cfi_def_cfa_offset 16
 122              		.cfi_offset 3, -16
 123              		.cfi_offset 4, -12
 124              		.cfi_offset 5, -8
 125              		.cfi_offset 14, -4
 126              	@ ../../peripheral_library/drv/drvCPU.c:39:   if (_eCPUFreq == E_CPU_FREQ_NONE)
 127              		.loc 1 39 17 view .LVU3
 128 0002 094D     		ldr	r5, .L8	@ tmp116,
 129 0004 2B78     		ldrb	r3, [r5]	@ zero_extendqisi2	@ _eCPUFreq.0_1, _eCPUFreq
 130              	@ ../../peripheral_library/drv/drvCPU.c:38: {
  38:../../peripheral_library/drv/drvCPU.c ****   if (_eCPUFreq == E_CPU_FREQ_NONE)
ARM GAS  /tmp/ccDHbyKG.s 			page 4


 131              		.loc 1 38 1 view .LVU4
 132 0006 0446     		mov	r4, r0	@ eFreq, eFreq
 133              	@ ../../peripheral_library/drv/drvCPU.c:39:   if (_eCPUFreq == E_CPU_FREQ_NONE)
 134              		.loc 1 39 6 view .LVU5
 135 0008 3BB1     		cbz	r3, .L6	@ _eCPUFreq.0_1,
 136              	.LVL1:
 137              	.L2:
  40:../../peripheral_library/drv/drvCPU.c ****   {
  41:../../peripheral_library/drv/drvCPU.c ****     MHal_CPU_Init();
  42:../../peripheral_library/drv/drvCPU.c ****     MOS_mDelay(1);
  43:../../peripheral_library/drv/drvCPU.c ****   }
  44:../../peripheral_library/drv/drvCPU.c **** 
  45:../../peripheral_library/drv/drvCPU.c **** 
  46:../../peripheral_library/drv/drvCPU.c ****   if(_eCPUFreq != eFreq)
 138              		.loc 1 46 3 is_stmt 1 view .LVU6
 139              	@ ../../peripheral_library/drv/drvCPU.c:46:   if(_eCPUFreq != eFreq)
 140              		.loc 1 46 5 is_stmt 0 view .LVU7
 141 000a 9C42     		cmp	r4, r3	@ eFreq, _eCPUFreq.0_1
 142 000c 00D1     		bne	.L7		@,
 143              	@ ../../peripheral_library/drv/drvCPU.c:51: }
  47:../../peripheral_library/drv/drvCPU.c ****   {
  48:../../peripheral_library/drv/drvCPU.c ****     MHal_CPU_SetFreq(eFreq);
  49:../../peripheral_library/drv/drvCPU.c ****     _eCPUFreq = eFreq;
  50:../../peripheral_library/drv/drvCPU.c ****   }
  51:../../peripheral_library/drv/drvCPU.c **** }
 144              		.loc 1 51 1 view .LVU8
 145 000e 38BD     		pop	{r3, r4, r5, pc}	@
 146              	.L7:
  48:../../peripheral_library/drv/drvCPU.c ****     _eCPUFreq = eFreq;
 147              		.loc 1 48 5 is_stmt 1 view .LVU9
 148 0010 2046     		mov	r0, r4	@, eFreq
 149 0012 FFF7FEFF 		bl	MHal_CPU_SetFreq		@
 150              	.LVL2:
  49:../../peripheral_library/drv/drvCPU.c ****   }
 151              		.loc 1 49 5 view .LVU10
 152              	@ ../../peripheral_library/drv/drvCPU.c:49:     _eCPUFreq = eFreq;
  49:../../peripheral_library/drv/drvCPU.c ****   }
 153              		.loc 1 49 15 is_stmt 0 view .LVU11
 154 0016 2C70     		strb	r4, [r5]	@ eFreq, _eCPUFreq
 155              	@ ../../peripheral_library/drv/drvCPU.c:51: }
 156              		.loc 1 51 1 view .LVU12
 157 0018 38BD     		pop	{r3, r4, r5, pc}	@
 158              	.LVL3:
 159              	.L6:
  41:../../peripheral_library/drv/drvCPU.c ****     MOS_mDelay(1);
 160              		.loc 1 41 5 is_stmt 1 view .LVU13
 161 001a FFF7FEFF 		bl	MHal_CPU_Init		@
 162              	.LVL4:
  42:../../peripheral_library/drv/drvCPU.c ****   }
 163              		.loc 1 42 5 view .LVU14
 164 001e 0120     		movs	r0, #1	@,
 165 0020 FFF7FEFF 		bl	MOS_mDelay		@
 166              	.LVL5:
 167 0024 2B78     		ldrb	r3, [r5]	@ zero_extendqisi2	@ _eCPUFreq.0_1, _eCPUFreq
 168 0026 F0E7     		b	.L2		@
 169              	.L9:
 170              		.align	2
ARM GAS  /tmp/ccDHbyKG.s 			page 5


 171              	.L8:
 172 0028 00000000 		.word	.LANCHOR0
 173              		.cfi_endproc
 174              	.LFE134:
 175              		.size	MDrv_CPU_SetFreq, .-MDrv_CPU_SetFreq
 176              		.section	.bss._eCPUFreq,"aw",%nobits
 177              		.set	.LANCHOR0,. + 0
 178              		.type	_eCPUFreq, %object
 179              		.size	_eCPUFreq, 1
 180              	_eCPUFreq:
 181 0000 00       		.space	1
 182              		.text
 183              	.Letext0:
 184              		.file 2 "/home/gu/code/freeRTOS10/vendor/mstar/CM4/tools/gcc-arm-none-eabi-8-2018-q4-major/arm-non
 185              		.file 3 "/home/gu/code/freeRTOS10/vendor/mstar/CM4/tools/gcc-arm-none-eabi-8-2018-q4-major/arm-non
 186              		.file 4 "/home/gu/code/freeRTOS10/vendor/mstar/CM4/tools/gcc-arm-none-eabi-8-2018-q4-major/arm-non
 187              		.file 5 "/home/gu/code/freeRTOS10/vendor/mstar/CM4/tools/gcc-arm-none-eabi-8-2018-q4-major/lib/gcc
 188              		.file 6 "/home/gu/code/freeRTOS10/vendor/mstar/CM4/tools/gcc-arm-none-eabi-8-2018-q4-major/arm-non
 189              		.file 7 "/home/gu/code/freeRTOS10/vendor/mstar/CM4/tools/gcc-arm-none-eabi-8-2018-q4-major/arm-non
 190              		.file 8 "/home/gu/code/freeRTOS10/vendor/mstar/CM4/tools/gcc-arm-none-eabi-8-2018-q4-major/arm-non
 191              		.file 9 "/home/gu/code/freeRTOS10/vendor/mstar/CM4/tools/gcc-arm-none-eabi-8-2018-q4-major/arm-non
 192              		.file 10 "../../CMSIS/core_cm4.h"
 193              		.file 11 "../../peripheral_library/inc/mosWrapper.h"
 194              		.file 12 "../../peripheral_library/inc/drvCPU.h"
 195              		.file 13 "../../peripheral_library/hal/m7221/inc/halCPU.h"