ARM GAS  /tmp/ccmKmm9N.s 			page 1


   1              		.cpu cortex-m4
   2              		.eabi_attribute 27, 1	@ Tag_ABI_HardFP_use
   3              		.eabi_attribute 20, 1	@ Tag_ABI_FP_denormal
   4              		.eabi_attribute 21, 1	@ Tag_ABI_FP_exceptions
   5              		.eabi_attribute 23, 3	@ Tag_ABI_FP_number_model
   6              		.eabi_attribute 24, 1	@ Tag_ABI_align8_needed
   7              		.eabi_attribute 25, 1	@ Tag_ABI_align8_preserved
   8              		.eabi_attribute 26, 1	@ Tag_ABI_enum_size
   9              		.eabi_attribute 30, 2	@ Tag_ABI_optimization_goals
  10              		.eabi_attribute 34, 1	@ Tag_CPU_unaligned_access
  11              		.eabi_attribute 18, 4	@ Tag_ABI_PCS_wchar_t
  12              		.file	"drvMBX.c"
  13              	@ GNU C89 (GNU Tools for Arm Embedded Processors 8-2018-q4-major) version 8.2.1 20181213 (release) 
  14              	@	compiled by GNU C version 4.8.4, GMP version 6.1.0, MPFR version 3.1.4, MPC version 1.0.3, isl ve
  15              	
  16              	@ GGC heuristics: --param ggc-min-expand=96 --param ggc-min-heapsize=125422
  17              	@ options passed:  -isystem =/include/newlib-nano -I . -I .
  18              	@ -I ../../kernel/FreeRTOS/Source/include
  19              	@ -I ../../kernel/FreeRTOS/Source/portable/GCC/ARM_CM4F
  20              	@ -I ../../kernel/FreeRTOS/Demo/Common/include
  21              	@ -I ../../kernel/FreeRTOS-Plus/Source/FreeRTOS-Plus-CLI
  22              	@ -I ../../peripheral_library/inc -I ../../peripheral_library/hal/m7221/inc
  23              	@ -I ../../CMSIS -I ../../main_full -I ../../3rd/rokid/./ -I /.
  24              	@ -I /../../kernel/FreeRTOS/Source/include
  25              	@ -I /../../kernel/FreeRTOS/Source/portable/GCC/ARM_CM4F
  26              	@ -I /../../kernel/FreeRTOS/Demo/Common/include
  27              	@ -I /../../kernel/FreeRTOS-Plus/Source/FreeRTOS-Plus-CLI
  28              	@ -I /../../peripheral_library/inc
  29              	@ -I /../../peripheral_library/hal/m7221/inc -I /../../CMSIS
  30              	@ -I /../../main_full -I /../../3rd/rokid/./
  31              	@ -imultilib thumb/v7e-m+fp/softfp
  32              	@ -iprefix /home/gu/code/freeRTOS10/vendor/mstar/CM4/tools/gcc-arm-none-eabi-8-2018-q4-major/bin/..
  33              	@ -isysroot /home/gu/code/freeRTOS10/vendor/mstar/CM4/tools/gcc-arm-none-eabi-8-2018-q4-major/bin/.
  34              	@ -MD out/drvMBX.d -MF out/drvMBX.d -MP -MQ out/drvMBX.o
  35              	@ -D__USES_INITFINI__ -D CONFIG_BENCH=0 -D CONFIG_SYS_DBG_LEVEL=0xFFFFFFFF
  36              	@ -D CONFIG_VOC_MIC=6 -D CONFIG_AUD_I2S -D CONFIG_AUD_AEC
  37              	@ -D CONFIG_VOC_MIC_MAPPING -D CONFIG_VOC_SWHPF -D CONFIG_VOC_SW_SRC48K
  38              	@ -D ARM_MATH_CM4 -D BOOTROM_VERSION_ASIC
  39              	@ ../../peripheral_library/drv/drvMBX.c -mcpu=cortex-m4 -mthumb
  40              	@ -mthumb-interwork -mfloat-abi=softfp -mfpu=fpv4-sp-d16 -march=armv7e-m+fp
  41              	@ -auxbase-strip out/drvMBX.o -g -ggdb3 -O3 -Wall -Wstrict-prototypes
  42              	@ -Wextra -std=gnu90 -ffunction-sections -fdata-sections
  43              	@ -fno-builtin-printf -fverbose-asm
  44              	@ options enabled:  -faggressive-loop-optimizations -falign-jumps
  45              	@ -falign-labels -falign-loops -fauto-inc-dec -fbranch-count-reg
  46              	@ -fcaller-saves -fchkp-check-incomplete-type -fchkp-check-read
  47              	@ -fchkp-check-write -fchkp-instrument-calls -fchkp-narrow-bounds
  48              	@ -fchkp-optimize -fchkp-store-bounds -fchkp-use-static-bounds
  49              	@ -fchkp-use-static-const-bounds -fchkp-use-wrappers -fcode-hoisting
  50              	@ -fcombine-stack-adjustments -fcommon -fcompare-elim -fcprop-registers
  51              	@ -fcrossjumping -fcse-follow-jumps -fdata-sections -fdefer-pop
  52              	@ -fdelete-null-pointer-checks -fdevirtualize -fdevirtualize-speculatively
  53              	@ -fdwarf2-cfi-asm -fearly-inlining -feliminate-unused-debug-types
  54              	@ -fexpensive-optimizations -fforward-propagate -ffp-int-builtin-inexact
  55              	@ -ffunction-cse -ffunction-sections -fgcse -fgcse-after-reload -fgcse-lm
  56              	@ -fgnu-runtime -fgnu-unique -fguess-branch-probability
  57              	@ -fhoist-adjacent-loads -fident -fif-conversion -fif-conversion2
ARM GAS  /tmp/ccmKmm9N.s 			page 2


  58              	@ -findirect-inlining -finline -finline-atomics -finline-functions
  59              	@ -finline-functions-called-once -finline-small-functions -fipa-bit-cp
  60              	@ -fipa-cp -fipa-cp-clone -fipa-icf -fipa-icf-functions -fipa-icf-variables
  61              	@ -fipa-profile -fipa-pure-const -fipa-ra -fipa-reference -fipa-sra
  62              	@ -fipa-vrp -fira-hoist-pressure -fira-share-save-slots
  63              	@ -fira-share-spill-slots -fisolate-erroneous-paths-dereference -fivopts
  64              	@ -fkeep-static-consts -fleading-underscore -flifetime-dse
  65              	@ -floop-interchange -floop-unroll-and-jam -flra-remat
  66              	@ -flto-odr-type-merging -fmath-errno -fmerge-constants
  67              	@ -fmerge-debug-strings -fmove-loop-invariants -fomit-frame-pointer
  68              	@ -foptimize-sibling-calls -foptimize-strlen -fpartial-inlining
  69              	@ -fpeel-loops -fpeephole -fpeephole2 -fplt -fpredictive-commoning
  70              	@ -fprefetch-loop-arrays -freg-struct-return -freorder-blocks
  71              	@ -freorder-functions -frerun-cse-after-loop
  72              	@ -fsched-critical-path-heuristic -fsched-dep-count-heuristic
  73              	@ -fsched-group-heuristic -fsched-interblock -fsched-last-insn-heuristic
  74              	@ -fsched-pressure -fsched-rank-heuristic -fsched-spec
  75              	@ -fsched-spec-insn-heuristic -fsched-stalled-insns-dep -fschedule-insns
  76              	@ -fschedule-insns2 -fsection-anchors -fsemantic-interposition
  77              	@ -fshow-column -fshrink-wrap -fshrink-wrap-separate -fsigned-zeros
  78              	@ -fsplit-ivs-in-unroller -fsplit-loops -fsplit-paths -fsplit-wide-types
  79              	@ -fssa-backprop -fssa-phiopt -fstdarg-opt -fstore-merging
  80              	@ -fstrict-aliasing -fstrict-volatile-bitfields -fsync-libcalls
  81              	@ -fthread-jumps -ftoplevel-reorder -ftrapping-math -ftree-bit-ccp
  82              	@ -ftree-builtin-call-dce -ftree-ccp -ftree-ch -ftree-coalesce-vars
  83              	@ -ftree-copy-prop -ftree-cselim -ftree-dce -ftree-dominator-opts
  84              	@ -ftree-dse -ftree-forwprop -ftree-fre -ftree-loop-distribute-patterns
  85              	@ -ftree-loop-distribution -ftree-loop-if-convert -ftree-loop-im
  86              	@ -ftree-loop-ivcanon -ftree-loop-optimize -ftree-loop-vectorize
  87              	@ -ftree-parallelize-loops= -ftree-partial-pre -ftree-phiprop -ftree-pre
  88              	@ -ftree-pta -ftree-reassoc -ftree-scev-cprop -ftree-sink
  89              	@ -ftree-slp-vectorize -ftree-slsr -ftree-sra -ftree-switch-conversion
  90              	@ -ftree-tail-merge -ftree-ter -ftree-vrp -funit-at-a-time -funswitch-loops
  91              	@ -fvar-tracking -fvar-tracking-assignments -fverbose-asm
  92              	@ -fzero-initialized-in-bss -masm-syntax-unified -mbe32 -mlittle-endian
  93              	@ -mpic-data-is-text-relative -msched-prolog -mthumb -munaligned-access
  94              	@ -mvectorize-with-neon-quad
  95              	
  96              		.text
  97              	.Ltext0:
  98              		.cfi_sections	.debug_frame
  99              		.section	.text.NVIC_Handler_MBX,"ax",%progbits
 100              		.align	1
 101              		.p2align 2,,3
 102              		.global	NVIC_Handler_MBX
 103              		.arch armv7e-m
 104              		.syntax unified
 105              		.thumb
 106              		.thumb_func
 107              		.fpu fpv4-sp-d16
 108              		.type	NVIC_Handler_MBX, %function
 109              	NVIC_Handler_MBX:
 110              	.LFB134:
 111              		.file 1 "../../peripheral_library/drv/drvMBX.c"
   1:../../peripheral_library/drv/drvMBX.c **** ////////////////////////////////////////////////////////////////////////////////
   2:../../peripheral_library/drv/drvMBX.c **** //
   3:../../peripheral_library/drv/drvMBX.c **** // Copyright (c) 2018 MStar Semiconductor, Inc.
ARM GAS  /tmp/ccmKmm9N.s 			page 3


   4:../../peripheral_library/drv/drvMBX.c **** // All rights reserved.
   5:../../peripheral_library/drv/drvMBX.c **** //
   6:../../peripheral_library/drv/drvMBX.c **** // Unless otherwise stipulated in writing, any and all information contained
   7:../../peripheral_library/drv/drvMBX.c **** // herein regardless in any format shall remain the sole proprietary of
   8:../../peripheral_library/drv/drvMBX.c **** // MStar Semiconductor Inc. and be kept in strict confidence
   9:../../peripheral_library/drv/drvMBX.c **** // ("MStar Confidential Information") by the recipient.
  10:../../peripheral_library/drv/drvMBX.c **** // Any unauthorized act including without limitation unauthorized disclosure,
  11:../../peripheral_library/drv/drvMBX.c **** // copying, use, reproduction, sale, distribution, modification, disassembling,
  12:../../peripheral_library/drv/drvMBX.c **** // reverse engineering and compiling of the contents of MStar Confidential
  13:../../peripheral_library/drv/drvMBX.c **** // Information is unlawful and strictly prohibited. MStar hereby reserves the
  14:../../peripheral_library/drv/drvMBX.c **** // rights to any and all damages, losses, costs and expenses resulting therefrom.
  15:../../peripheral_library/drv/drvMBX.c **** //
  16:../../peripheral_library/drv/drvMBX.c **** ////////////////////////////////////////////////////////////////////////////////
  17:../../peripheral_library/drv/drvMBX.c **** 
  18:../../peripheral_library/drv/drvMBX.c **** ///////////////////////////////////////////////////////////////////////////////////////////////////
  19:../../peripheral_library/drv/drvMBX.c **** ///
  20:../../peripheral_library/drv/drvMBX.c **** /// file    drvMBX.c
  21:../../peripheral_library/drv/drvMBX.c **** /// @brief  MStar MailBox DDI
  22:../../peripheral_library/drv/drvMBX.c **** /// @author MStar Semiconductor Inc.
  23:../../peripheral_library/drv/drvMBX.c **** ///////////////////////////////////////////////////////////////////////////////////////////////////
  24:../../peripheral_library/drv/drvMBX.c **** 
  25:../../peripheral_library/drv/drvMBX.c **** #define _DRV_MBX_C
  26:../../peripheral_library/drv/drvMBX.c **** /* Standard includes. */
  27:../../peripheral_library/drv/drvMBX.c **** 
  28:../../peripheral_library/drv/drvMBX.c **** /* Kernel includes. */
  29:../../peripheral_library/drv/drvMBX.c **** #include "mosWrapper.h"
  30:../../peripheral_library/drv/drvMBX.c **** 
  31:../../peripheral_library/drv/drvMBX.c **** /* driver includes. */
  32:../../peripheral_library/drv/drvMBX.c **** #include "drvMBX.h"
  33:../../peripheral_library/drv/drvMBX.c **** #include "halMBX.h"
  34:../../peripheral_library/drv/drvMBX.c **** #include "halCPUINT.h"
  35:../../peripheral_library/drv/drvMBX.c **** 
  36:../../peripheral_library/drv/drvMBX.c **** #define MBX_INT_PRIORITY		(configLIBRARY_MAX_SYSCALL_INTERRUPT_PRIORITY)
  37:../../peripheral_library/drv/drvMBX.c **** 
  38:../../peripheral_library/drv/drvMBX.c **** #define MBX_MSG(fmt, args...) MOS_DBG_PRINT(MOS_DBG_LEVEL_MBX, "[MBX] " fmt, ##args)
  39:../../peripheral_library/drv/drvMBX.c **** #define MBX_ERROR(fmt, args...) MOS_DBG_ERROR("[MBX ERR] " fmt, ##args);
  40:../../peripheral_library/drv/drvMBX.c **** 
  41:../../peripheral_library/drv/drvMBX.c **** //=============================================================================
  42:../../peripheral_library/drv/drvMBX.c **** // Local Variables
  43:../../peripheral_library/drv/drvMBX.c **** //=============================================================================
  44:../../peripheral_library/drv/drvMBX.c **** typedef struct
  45:../../peripheral_library/drv/drvMBX.c **** {
  46:../../peripheral_library/drv/drvMBX.c ****   MBX_ROLE_ID eMbxHostRole;
  47:../../peripheral_library/drv/drvMBX.c ****   //MBX_ROLE_ID eMbxCpu2Role[E_MBX_CPU_MAX];
  48:../../peripheral_library/drv/drvMBX.c ****   CPUINT_ID_e eMbxRole2Cpu[E_MBX_ROLE_MAX];
  49:../../peripheral_library/drv/drvMBX.c ****   U32 u32TimeoutMillSecs;
  50:../../peripheral_library/drv/drvMBX.c **** 
  51:../../peripheral_library/drv/drvMBX.c ****   S32 s32RefCnt;
  52:../../peripheral_library/drv/drvMBX.c ****   BOOL bMsgRecvEnable;
  53:../../peripheral_library/drv/drvMBX.c ****   BOOL bInInterruptHandler;
  54:../../peripheral_library/drv/drvMBX.c ****   U32 u32IntLockerMBX;
  55:../../peripheral_library/drv/drvMBX.c ****   S32 s32SendMutexMBX;
  56:../../peripheral_library/drv/drvMBX.c ****   S32 s32RecvMutexMBX;
  57:../../peripheral_library/drv/drvMBX.c ****   U8 u8DbgLevel;
  58:../../peripheral_library/drv/drvMBX.c **** 
  59:../../peripheral_library/drv/drvMBX.c ****   SemaphoreHandle_t tMbxIntSem;
  60:../../peripheral_library/drv/drvMBX.c ****   SemaphoreHandle_t tMbxMutex;
ARM GAS  /tmp/ccmKmm9N.s 			page 4


  61:../../peripheral_library/drv/drvMBX.c ****   IRQn_Type eMbxIntNum;
  62:../../peripheral_library/drv/drvMBX.c **** } MBX_Mgr;
  63:../../peripheral_library/drv/drvMBX.c **** 
  64:../../peripheral_library/drv/drvMBX.c **** 
  65:../../peripheral_library/drv/drvMBX.c **** static MBX_Mgr _mgrMBX =
  66:../../peripheral_library/drv/drvMBX.c **** {
  67:../../peripheral_library/drv/drvMBX.c ****   .eMbxHostRole = E_MBX_ROLE_MAX,
  68:../../peripheral_library/drv/drvMBX.c ****   .s32RefCnt = 0,
  69:../../peripheral_library/drv/drvMBX.c ****   .bMsgRecvEnable = FALSE,
  70:../../peripheral_library/drv/drvMBX.c ****   .bInInterruptHandler = FALSE, ////suppose two interrupt has the same priority, won't break each o
  71:../../peripheral_library/drv/drvMBX.c ****   .s32SendMutexMBX = -1,
  72:../../peripheral_library/drv/drvMBX.c ****   .s32RecvMutexMBX = -1,
  73:../../peripheral_library/drv/drvMBX.c ****   .u8DbgLevel = MBX_DBG_LEVEL_NONE,
  74:../../peripheral_library/drv/drvMBX.c ****   .tMbxIntSem = NULL,
  75:../../peripheral_library/drv/drvMBX.c ****   .tMbxMutex = NULL
  76:../../peripheral_library/drv/drvMBX.c **** };
  77:../../peripheral_library/drv/drvMBX.c **** 
  78:../../peripheral_library/drv/drvMBX.c **** /*-----------------------------------------------------------*/
  79:../../peripheral_library/drv/drvMBX.c **** 
  80:../../peripheral_library/drv/drvMBX.c **** 
  81:../../peripheral_library/drv/drvMBX.c **** void NVIC_Handler_MBX(void)
  82:../../peripheral_library/drv/drvMBX.c **** {
 112              		.loc 1 82 1 view -0
 113              		.cfi_startproc
 114              		@ args = 0, pretend = 0, frame = 8
 115              		@ frame_needed = 0, uses_anonymous_args = 0
  83:../../peripheral_library/drv/drvMBX.c ****   BaseType_t xHigherPriorityTaskWoken = pdFALSE;
 116              		.loc 1 83 3 view .LVU1
 117              	@ ../../peripheral_library/drv/drvMBX.c:82: {
  82:../../peripheral_library/drv/drvMBX.c ****   BaseType_t xHigherPriorityTaskWoken = pdFALSE;
 118              		.loc 1 82 1 is_stmt 0 view .LVU2
 119 0000 00B5     		push	{lr}	@
 120              		.cfi_def_cfa_offset 4
 121              		.cfi_offset 14, -4
 122 0002 83B0     		sub	sp, sp, #12	@,,
 123              		.cfi_def_cfa_offset 16
 124              	@ ../../peripheral_library/drv/drvMBX.c:83:   BaseType_t xHigherPriorityTaskWoken = pdFALSE;
 125              		.loc 1 83 14 view .LVU3
 126 0004 0023     		movs	r3, #0	@ tmp115,
 127              	@ ../../peripheral_library/drv/drvMBX.c:85:   MHal_CPUINT_Clear(E_CPUINT_CP , E_CPUINT_HK0);
  84:../../peripheral_library/drv/drvMBX.c **** 
  85:../../peripheral_library/drv/drvMBX.c ****   MHal_CPUINT_Clear(E_CPUINT_CP , E_CPUINT_HK0);
 128              		.loc 1 85 3 view .LVU4
 129 0006 0121     		movs	r1, #1	@,
 130 0008 0320     		movs	r0, #3	@,
 131              	@ ../../peripheral_library/drv/drvMBX.c:83:   BaseType_t xHigherPriorityTaskWoken = pdFALSE;
  83:../../peripheral_library/drv/drvMBX.c **** 
 132              		.loc 1 83 14 view .LVU5
 133 000a 0193     		str	r3, [sp, #4]	@ tmp115, xHigherPriorityTaskWoken
 134              		.loc 1 85 3 is_stmt 1 view .LVU6
 135 000c FFF7FEFF 		bl	MHal_CPUINT_Clear		@
 136              	.LVL0:
  86:../../peripheral_library/drv/drvMBX.c **** 
  87:../../peripheral_library/drv/drvMBX.c ****   MBX_MSG("NVIC_Handler_MBX ms = %d\r\n", xTaskGetTickCount()*portTICK_PERIOD_MS);
 137              		.loc 1 87 3 view .LVU7
 138 0010 0E4B     		ldr	r3, .L13	@ tmp116,
 139 0012 1B68     		ldr	r3, [r3]	@ gu32MosDbgLevel, gu32MosDbgLevel
ARM GAS  /tmp/ccmKmm9N.s 			page 5


 140 0014 9B03     		lsls	r3, r3, #14	@, gu32MosDbgLevel,
 141 0016 11D4     		bmi	.L12		@,
 142              	.L2:
 143              		.loc 1 87 82 discriminator 3 view .LVU8
  88:../../peripheral_library/drv/drvMBX.c **** 
  89:../../peripheral_library/drv/drvMBX.c ****   xSemaphoreGiveFromISR(_mgrMBX.tMbxIntSem, &xHigherPriorityTaskWoken);
 144              		.loc 1 89 3 discriminator 3 view .LVU9
 145 0018 0D4B     		ldr	r3, .L13+4	@ tmp121,
 146 001a 01A9     		add	r1, sp, #4	@,,
 147 001c 186A     		ldr	r0, [r3, #32]	@, _mgrMBX.tMbxIntSem
 148 001e FFF7FEFF 		bl	xQueueGiveFromISR		@
 149              	.LVL1:
  90:../../peripheral_library/drv/drvMBX.c **** 
  91:../../peripheral_library/drv/drvMBX.c ****   /* Call the IntQ test function for this channel. */
  92:../../peripheral_library/drv/drvMBX.c ****   portYIELD_FROM_ISR(xHigherPriorityTaskWoken);
 150              		.loc 1 92 3 discriminator 3 view .LVU10
 151 0022 019B     		ldr	r3, [sp, #4]	@ xHigherPriorityTaskWoken, xHigherPriorityTaskWoken
 152 0024 3BB1     		cbz	r3, .L1	@ xHigherPriorityTaskWoken,
 153              	.LBB8:
 154              	.LBI8:
  81:../../peripheral_library/drv/drvMBX.c **** {
 155              		.loc 1 81 6 view .LVU11
 156              	.LBB9:
 157              		.loc 1 92 3 view .LVU12
 158 0026 0B4B     		ldr	r3, .L13+8	@ tmp124,
 159 0028 4FF08052 		mov	r2, #268435456	@ tmp125,
 160 002c 1A60     		str	r2, [r3]	@ tmp125, MEM[(volatile uint32_t *)3758157060B]
 161              		.loc 1 92 3 view .LVU13
 162              		.syntax unified
 163              	@ 92 "../../peripheral_library/drv/drvMBX.c" 1
 164 002e BFF34F8F 		dsb	
 165              	@ 0 "" 2
 166              		.loc 1 92 3 view .LVU14
 167              	@ 92 "../../peripheral_library/drv/drvMBX.c" 1
 168 0032 BFF36F8F 		isb
 169              	@ 0 "" 2
 170              		.loc 1 92 47 view .LVU15
 171              	.LVL2:
 172              		.loc 1 92 47 is_stmt 0 view .LVU16
 173              		.thumb
 174              		.syntax unified
 175              	.LBE9:
 176              	.LBE8:
 177              		.loc 1 92 47 is_stmt 1 view .LVU17
 178              	.L1:
 179              	@ ../../peripheral_library/drv/drvMBX.c:94: }
  93:../../peripheral_library/drv/drvMBX.c **** 
  94:../../peripheral_library/drv/drvMBX.c **** }
 180              		.loc 1 94 1 is_stmt 0 view .LVU18
 181 0036 03B0     		add	sp, sp, #12	@,,
 182              		.cfi_remember_state
 183              		.cfi_def_cfa_offset 4
 184              		@ sp needed	@
 185 0038 5DF804FB 		ldr	pc, [sp], #4	@
 186              	.L12:
 187              		.cfi_restore_state
  87:../../peripheral_library/drv/drvMBX.c **** 
ARM GAS  /tmp/ccmKmm9N.s 			page 6


 188              		.loc 1 87 3 is_stmt 1 discriminator 1 view .LVU19
 189 003c FFF7FEFF 		bl	xTaskGetTickCount		@
 190              	.LVL3:
 191 0040 0146     		mov	r1, r0	@,
 192 0042 0548     		ldr	r0, .L13+12	@,
 193 0044 FFF7FEFF 		bl	UartSendTrace		@
 194              	.LVL4:
 195 0048 E6E7     		b	.L2		@
 196              	.L14:
 197 004a 00BF     		.align	2
 198              	.L13:
 199 004c 00000000 		.word	gu32MosDbgLevel
 200 0050 00000000 		.word	.LANCHOR0
 201 0054 04ED00E0 		.word	-536810236
 202 0058 00000000 		.word	.LC0
 203              		.cfi_endproc
 204              	.LFE134:
 205              		.size	NVIC_Handler_MBX, .-NVIC_Handler_MBX
 206              		.section	.text.MDrv_MBX_Init,"ax",%progbits
 207              		.align	1
 208              		.p2align 2,,3
 209              		.global	MDrv_MBX_Init
 210              		.syntax unified
 211              		.thumb
 212              		.thumb_func
 213              		.fpu fpv4-sp-d16
 214              		.type	MDrv_MBX_Init, %function
 215              	MDrv_MBX_Init:
 216              	.LFB135:
  95:../../peripheral_library/drv/drvMBX.c **** 
  96:../../peripheral_library/drv/drvMBX.c **** void MDrv_MBX_Init(void)
  97:../../peripheral_library/drv/drvMBX.c **** {
 217              		.loc 1 97 1 view -0
 218              		.cfi_startproc
 219              		@ args = 0, pretend = 0, frame = 0
 220              		@ frame_needed = 0, uses_anonymous_args = 0
  98:../../peripheral_library/drv/drvMBX.c **** 
  99:../../peripheral_library/drv/drvMBX.c ****   MHAL_MBX_Init(E_MBX_ROLE_CP);
 221              		.loc 1 99 3 view .LVU21
 222              	@ ../../peripheral_library/drv/drvMBX.c:97: {
  97:../../peripheral_library/drv/drvMBX.c **** 
 223              		.loc 1 97 1 is_stmt 0 view .LVU22
 224 0000 38B5     		push	{r3, r4, r5, lr}	@
 225              		.cfi_def_cfa_offset 16
 226              		.cfi_offset 3, -16
 227              		.cfi_offset 4, -12
 228              		.cfi_offset 5, -8
 229              		.cfi_offset 14, -4
 230              	@ ../../peripheral_library/drv/drvMBX.c:99:   MHAL_MBX_Init(E_MBX_ROLE_CP);
 231              		.loc 1 99 3 view .LVU23
 232 0002 0120     		movs	r0, #1	@,
 233              	@ ../../peripheral_library/drv/drvMBX.c:101:   _mgrMBX.eMbxHostRole = E_MBX_ROLE_CP;
 100:../../peripheral_library/drv/drvMBX.c **** 
 101:../../peripheral_library/drv/drvMBX.c ****   _mgrMBX.eMbxHostRole = E_MBX_ROLE_CP;
 234              		.loc 1 101 24 view .LVU24
 235 0004 174C     		ldr	r4, .L23	@ tmp115,
 236              	@ ../../peripheral_library/drv/drvMBX.c:99:   MHAL_MBX_Init(E_MBX_ROLE_CP);
ARM GAS  /tmp/ccmKmm9N.s 			page 7


  99:../../peripheral_library/drv/drvMBX.c **** 
 237              		.loc 1 99 3 view .LVU25
 238 0006 FFF7FEFF 		bl	MHAL_MBX_Init		@
 239              	.LVL5:
 240              		.loc 1 101 3 is_stmt 1 view .LVU26
 102:../../peripheral_library/drv/drvMBX.c ****   _mgrMBX.eMbxRole2Cpu[E_MBX_ROLE_CP] = E_CPUINT_CP;
 241              		.loc 1 102 3 view .LVU27
 103:../../peripheral_library/drv/drvMBX.c ****   _mgrMBX.eMbxRole2Cpu[E_MBX_ROLE_HK] = E_CPUINT_HK0;
 242              		.loc 1 103 3 view .LVU28
 243              	@ ../../peripheral_library/drv/drvMBX.c:102:   _mgrMBX.eMbxRole2Cpu[E_MBX_ROLE_CP] = E_CPUINT_CP;
 102:../../peripheral_library/drv/drvMBX.c ****   _mgrMBX.eMbxRole2Cpu[E_MBX_ROLE_CP] = E_CPUINT_CP;
 244              		.loc 1 102 39 is_stmt 0 view .LVU29
 245 000a 0323     		movs	r3, #3	@ tmp119,
 246              	@ ../../peripheral_library/drv/drvMBX.c:101:   _mgrMBX.eMbxHostRole = E_MBX_ROLE_CP;
 101:../../peripheral_library/drv/drvMBX.c ****   _mgrMBX.eMbxRole2Cpu[E_MBX_ROLE_CP] = E_CPUINT_CP;
 247              		.loc 1 101 24 view .LVU30
 248 000c 40F20110 		movw	r0, #257	@ tmp117,
 249 0010 2080     		strh	r0, [r4]	@ movhi	@ tmp117, MEM[(void *)&_mgrMBX]
 250              	@ ../../peripheral_library/drv/drvMBX.c:105:   _mgrMBX.eMbxIntNum = HK0ToCP_IRQn;
 104:../../peripheral_library/drv/drvMBX.c **** 
 105:../../peripheral_library/drv/drvMBX.c ****   _mgrMBX.eMbxIntNum = HK0ToCP_IRQn;
 251              		.loc 1 105 22 view .LVU31
 252 0012 4FF4AC75 		mov	r5, #344	@ tmp122,
 253              	@ ../../peripheral_library/drv/drvMBX.c:108:   _mgrMBX.tMbxIntSem = xSemaphoreCreateBinary();
 106:../../peripheral_library/drv/drvMBX.c **** 
 107:../../peripheral_library/drv/drvMBX.c ****   // Create the semaphore to guard a shared resource.
 108:../../peripheral_library/drv/drvMBX.c ****   _mgrMBX.tMbxIntSem = xSemaphoreCreateBinary();
 254              		.loc 1 108 24 view .LVU32
 255 0016 1A46     		mov	r2, r3	@, tmp119
 256 0018 0021     		movs	r1, #0	@,
 257 001a 0120     		movs	r0, #1	@,
 258              	@ ../../peripheral_library/drv/drvMBX.c:105:   _mgrMBX.eMbxIntNum = HK0ToCP_IRQn;
 105:../../peripheral_library/drv/drvMBX.c **** 
 259              		.loc 1 105 22 view .LVU33
 260 001c A562     		str	r5, [r4, #40]	@ tmp122, _mgrMBX.eMbxIntNum
 261              	@ ../../peripheral_library/drv/drvMBX.c:102:   _mgrMBX.eMbxRole2Cpu[E_MBX_ROLE_CP] = E_CPUINT_CP;
 102:../../peripheral_library/drv/drvMBX.c ****   _mgrMBX.eMbxRole2Cpu[E_MBX_ROLE_HK] = E_CPUINT_HK0;
 262              		.loc 1 102 39 view .LVU34
 263 001e A370     		strb	r3, [r4, #2]	@ tmp119, _mgrMBX.eMbxRole2Cpu
 105:../../peripheral_library/drv/drvMBX.c **** 
 264              		.loc 1 105 3 is_stmt 1 view .LVU35
 265              		.loc 1 108 3 view .LVU36
 266              	@ ../../peripheral_library/drv/drvMBX.c:108:   _mgrMBX.tMbxIntSem = xSemaphoreCreateBinary();
 267              		.loc 1 108 24 is_stmt 0 view .LVU37
 268 0020 FFF7FEFF 		bl	xQueueGenericCreate		@
 269              	.LVL6:
 270              	@ ../../peripheral_library/drv/drvMBX.c:108:   _mgrMBX.tMbxIntSem = xSemaphoreCreateBinary();
 271              		.loc 1 108 22 view .LVU38
 272 0024 2062     		str	r0, [r4, #32]	@ _1, _mgrMBX.tMbxIntSem
 109:../../peripheral_library/drv/drvMBX.c ****   configASSERT(_mgrMBX.tMbxIntSem);
 273              		.loc 1 109 3 is_stmt 1 view .LVU39
 274 0026 A0B1     		cbz	r0, .L21	@ _1,
 275              		.loc 1 109 35 discriminator 2 view .LVU40
 110:../../peripheral_library/drv/drvMBX.c ****   _mgrMBX.tMbxMutex = xSemaphoreCreateMutex();
 276              		.loc 1 110 3 discriminator 2 view .LVU41
 277              	@ ../../peripheral_library/drv/drvMBX.c:110:   _mgrMBX.tMbxMutex = xSemaphoreCreateMutex();
 278              		.loc 1 110 23 is_stmt 0 discriminator 2 view .LVU42
ARM GAS  /tmp/ccmKmm9N.s 			page 8


 279 0028 0120     		movs	r0, #1	@,
 280 002a FFF7FEFF 		bl	xQueueCreateMutex		@
 281              	.LVL7:
 282              	@ ../../peripheral_library/drv/drvMBX.c:110:   _mgrMBX.tMbxMutex = xSemaphoreCreateMutex();
 283              		.loc 1 110 21 discriminator 2 view .LVU43
 284 002e 6062     		str	r0, [r4, #36]	@ _2, _mgrMBX.tMbxMutex
 111:../../peripheral_library/drv/drvMBX.c ****   configASSERT(_mgrMBX.tMbxMutex);
 285              		.loc 1 111 3 is_stmt 1 discriminator 2 view .LVU44
 286 0030 30B1     		cbz	r0, .L22	@ _2,
 287              		.loc 1 111 34 discriminator 2 view .LVU45
 112:../../peripheral_library/drv/drvMBX.c **** 
 113:../../peripheral_library/drv/drvMBX.c ****   MOS_IRQn_AttachIsr(NVIC_Handler_MBX, _mgrMBX.eMbxIntNum, MBX_INT_PRIORITY);
 288              		.loc 1 113 3 discriminator 2 view .LVU46
 289 0032 A16A     		ldr	r1, [r4, #40]	@, _mgrMBX.eMbxIntNum
 290 0034 0C48     		ldr	r0, .L23+4	@,
 291 0036 0522     		movs	r2, #5	@,
 292              	@ ../../peripheral_library/drv/drvMBX.c:118: }
 114:../../peripheral_library/drv/drvMBX.c ****   //MOS_IRQn_AttachIsr(INTC_Handler_HK0ToCP_IRQn, HK0ToCP_IRQn, 0);
 115:../../peripheral_library/drv/drvMBX.c ****   //MOS_IRQn_AttachIsr(INTC_Handler_HK1ToCP_IRQn, HK1ToCP_IRQn, 0);
 116:../../peripheral_library/drv/drvMBX.c ****   //MOS_IRQn_Unmask(HK0ToCP_IRQn);
 117:../../peripheral_library/drv/drvMBX.c ****   //MOS_IRQn_Unmask(HK1ToCP_IRQn);
 118:../../peripheral_library/drv/drvMBX.c **** }
 293              		.loc 1 118 1 is_stmt 0 discriminator 2 view .LVU47
 294 0038 BDE83840 		pop	{r3, r4, r5, lr}	@
 295              		.cfi_remember_state
 296              		.cfi_restore 14
 297              		.cfi_restore 5
 298              		.cfi_restore 4
 299              		.cfi_restore 3
 300              		.cfi_def_cfa_offset 0
 301              	@ ../../peripheral_library/drv/drvMBX.c:113:   MOS_IRQn_AttachIsr(NVIC_Handler_MBX, _mgrMBX.eMbxInt
 113:../../peripheral_library/drv/drvMBX.c ****   //MOS_IRQn_AttachIsr(INTC_Handler_HK0ToCP_IRQn, HK0ToCP_IRQn, 0);
 302              		.loc 1 113 3 discriminator 2 view .LVU48
 303 003c FFF7FEBF 		b	MOS_IRQn_AttachIsr		@
 304              	.LVL8:
 305              	.L22:
 306              		.cfi_restore_state
 111:../../peripheral_library/drv/drvMBX.c **** 
 307              		.loc 1 111 3 is_stmt 1 view .LVU49
 308              	.LBB10:
 309              	.LBI10:
 310              		.file 2 "../../kernel/FreeRTOS/Source/portable/GCC/ARM_CM4F/portmacro.h"
   1:../../kernel/FreeRTOS/Source/portable/GCC/ARM_CM4F/portmacro.h **** /*
   2:../../kernel/FreeRTOS/Source/portable/GCC/ARM_CM4F/portmacro.h ****  * FreeRTOS Kernel V10.0.1
   3:../../kernel/FreeRTOS/Source/portable/GCC/ARM_CM4F/portmacro.h ****  * Copyright (C) 2017 Amazon.com, Inc. or its affiliates.  All Rights Reserved.
   4:../../kernel/FreeRTOS/Source/portable/GCC/ARM_CM4F/portmacro.h ****  *
   5:../../kernel/FreeRTOS/Source/portable/GCC/ARM_CM4F/portmacro.h ****  * Permission is hereby granted, free of charge, to any person obtaining a copy of
   6:../../kernel/FreeRTOS/Source/portable/GCC/ARM_CM4F/portmacro.h ****  * this software and associated documentation files (the "Software"), to deal in
   7:../../kernel/FreeRTOS/Source/portable/GCC/ARM_CM4F/portmacro.h ****  * the Software without restriction, including without limitation the rights to
   8:../../kernel/FreeRTOS/Source/portable/GCC/ARM_CM4F/portmacro.h ****  * use, copy, modify, merge, publish, distribute, sublicense, and/or sell copies of
   9:../../kernel/FreeRTOS/Source/portable/GCC/ARM_CM4F/portmacro.h ****  * the Software, and to permit persons to whom the Software is furnished to do so,
  10:../../kernel/FreeRTOS/Source/portable/GCC/ARM_CM4F/portmacro.h ****  * subject to the following conditions:
  11:../../kernel/FreeRTOS/Source/portable/GCC/ARM_CM4F/portmacro.h ****  *
  12:../../kernel/FreeRTOS/Source/portable/GCC/ARM_CM4F/portmacro.h ****  * The above copyright notice and this permission notice shall be included in all
  13:../../kernel/FreeRTOS/Source/portable/GCC/ARM_CM4F/portmacro.h ****  * copies or substantial portions of the Software.
  14:../../kernel/FreeRTOS/Source/portable/GCC/ARM_CM4F/portmacro.h ****  *
  15:../../kernel/FreeRTOS/Source/portable/GCC/ARM_CM4F/portmacro.h ****  * THE SOFTWARE IS PROVIDED "AS IS", WITHOUT WARRANTY OF ANY KIND, EXPRESS OR
ARM GAS  /tmp/ccmKmm9N.s 			page 9


  16:../../kernel/FreeRTOS/Source/portable/GCC/ARM_CM4F/portmacro.h ****  * IMPLIED, INCLUDING BUT NOT LIMITED TO THE WARRANTIES OF MERCHANTABILITY, FITNESS
  17:../../kernel/FreeRTOS/Source/portable/GCC/ARM_CM4F/portmacro.h ****  * FOR A PARTICULAR PURPOSE AND NONINFRINGEMENT. IN NO EVENT SHALL THE AUTHORS OR
  18:../../kernel/FreeRTOS/Source/portable/GCC/ARM_CM4F/portmacro.h ****  * COPYRIGHT HOLDERS BE LIABLE FOR ANY CLAIM, DAMAGES OR OTHER LIABILITY, WHETHER
  19:../../kernel/FreeRTOS/Source/portable/GCC/ARM_CM4F/portmacro.h ****  * IN AN ACTION OF CONTRACT, TORT OR OTHERWISE, ARISING FROM, OUT OF OR IN
  20:../../kernel/FreeRTOS/Source/portable/GCC/ARM_CM4F/portmacro.h ****  * CONNECTION WITH THE SOFTWARE OR THE USE OR OTHER DEALINGS IN THE SOFTWARE.
  21:../../kernel/FreeRTOS/Source/portable/GCC/ARM_CM4F/portmacro.h ****  *
  22:../../kernel/FreeRTOS/Source/portable/GCC/ARM_CM4F/portmacro.h ****  * http://www.FreeRTOS.org
  23:../../kernel/FreeRTOS/Source/portable/GCC/ARM_CM4F/portmacro.h ****  * http://aws.amazon.com/freertos
  24:../../kernel/FreeRTOS/Source/portable/GCC/ARM_CM4F/portmacro.h ****  *
  25:../../kernel/FreeRTOS/Source/portable/GCC/ARM_CM4F/portmacro.h ****  * 1 tab == 4 spaces!
  26:../../kernel/FreeRTOS/Source/portable/GCC/ARM_CM4F/portmacro.h ****  */
  27:../../kernel/FreeRTOS/Source/portable/GCC/ARM_CM4F/portmacro.h **** 
  28:../../kernel/FreeRTOS/Source/portable/GCC/ARM_CM4F/portmacro.h **** 
  29:../../kernel/FreeRTOS/Source/portable/GCC/ARM_CM4F/portmacro.h **** #ifndef PORTMACRO_H
  30:../../kernel/FreeRTOS/Source/portable/GCC/ARM_CM4F/portmacro.h **** #define PORTMACRO_H
  31:../../kernel/FreeRTOS/Source/portable/GCC/ARM_CM4F/portmacro.h **** 
  32:../../kernel/FreeRTOS/Source/portable/GCC/ARM_CM4F/portmacro.h **** #ifdef __cplusplus
  33:../../kernel/FreeRTOS/Source/portable/GCC/ARM_CM4F/portmacro.h **** extern "C" {
  34:../../kernel/FreeRTOS/Source/portable/GCC/ARM_CM4F/portmacro.h **** #endif
  35:../../kernel/FreeRTOS/Source/portable/GCC/ARM_CM4F/portmacro.h **** 
  36:../../kernel/FreeRTOS/Source/portable/GCC/ARM_CM4F/portmacro.h **** /*-----------------------------------------------------------
  37:../../kernel/FreeRTOS/Source/portable/GCC/ARM_CM4F/portmacro.h ****  * Port specific definitions.
  38:../../kernel/FreeRTOS/Source/portable/GCC/ARM_CM4F/portmacro.h ****  *
  39:../../kernel/FreeRTOS/Source/portable/GCC/ARM_CM4F/portmacro.h ****  * The settings in this file configure FreeRTOS correctly for the
  40:../../kernel/FreeRTOS/Source/portable/GCC/ARM_CM4F/portmacro.h ****  * given hardware and compiler.
  41:../../kernel/FreeRTOS/Source/portable/GCC/ARM_CM4F/portmacro.h ****  *
  42:../../kernel/FreeRTOS/Source/portable/GCC/ARM_CM4F/portmacro.h ****  * These settings should not be altered.
  43:../../kernel/FreeRTOS/Source/portable/GCC/ARM_CM4F/portmacro.h ****  *-----------------------------------------------------------
  44:../../kernel/FreeRTOS/Source/portable/GCC/ARM_CM4F/portmacro.h ****  */
  45:../../kernel/FreeRTOS/Source/portable/GCC/ARM_CM4F/portmacro.h **** 
  46:../../kernel/FreeRTOS/Source/portable/GCC/ARM_CM4F/portmacro.h **** /* Type definitions. */
  47:../../kernel/FreeRTOS/Source/portable/GCC/ARM_CM4F/portmacro.h **** #define portCHAR		char
  48:../../kernel/FreeRTOS/Source/portable/GCC/ARM_CM4F/portmacro.h **** #define portFLOAT		float
  49:../../kernel/FreeRTOS/Source/portable/GCC/ARM_CM4F/portmacro.h **** #define portDOUBLE		double
  50:../../kernel/FreeRTOS/Source/portable/GCC/ARM_CM4F/portmacro.h **** #define portLONG		long
  51:../../kernel/FreeRTOS/Source/portable/GCC/ARM_CM4F/portmacro.h **** #define portSHORT		short
  52:../../kernel/FreeRTOS/Source/portable/GCC/ARM_CM4F/portmacro.h **** #define portSTACK_TYPE	uint32_t
  53:../../kernel/FreeRTOS/Source/portable/GCC/ARM_CM4F/portmacro.h **** #define portBASE_TYPE	long
  54:../../kernel/FreeRTOS/Source/portable/GCC/ARM_CM4F/portmacro.h **** 
  55:../../kernel/FreeRTOS/Source/portable/GCC/ARM_CM4F/portmacro.h **** typedef portSTACK_TYPE StackType_t;
  56:../../kernel/FreeRTOS/Source/portable/GCC/ARM_CM4F/portmacro.h **** typedef long BaseType_t;
  57:../../kernel/FreeRTOS/Source/portable/GCC/ARM_CM4F/portmacro.h **** typedef unsigned long UBaseType_t;
  58:../../kernel/FreeRTOS/Source/portable/GCC/ARM_CM4F/portmacro.h **** 
  59:../../kernel/FreeRTOS/Source/portable/GCC/ARM_CM4F/portmacro.h **** #if( configUSE_16_BIT_TICKS == 1 )
  60:../../kernel/FreeRTOS/Source/portable/GCC/ARM_CM4F/portmacro.h **** 	typedef uint16_t TickType_t;
  61:../../kernel/FreeRTOS/Source/portable/GCC/ARM_CM4F/portmacro.h **** 	#define portMAX_DELAY ( TickType_t ) 0xffff
  62:../../kernel/FreeRTOS/Source/portable/GCC/ARM_CM4F/portmacro.h **** #else
  63:../../kernel/FreeRTOS/Source/portable/GCC/ARM_CM4F/portmacro.h **** 	typedef uint32_t TickType_t;
  64:../../kernel/FreeRTOS/Source/portable/GCC/ARM_CM4F/portmacro.h **** 	#define portMAX_DELAY ( TickType_t ) 0xffffffffUL
  65:../../kernel/FreeRTOS/Source/portable/GCC/ARM_CM4F/portmacro.h **** 
  66:../../kernel/FreeRTOS/Source/portable/GCC/ARM_CM4F/portmacro.h **** 	/* 32-bit tick type on a 32-bit architecture, so reads of the tick count do
  67:../../kernel/FreeRTOS/Source/portable/GCC/ARM_CM4F/portmacro.h **** 	not need to be guarded with a critical section. */
  68:../../kernel/FreeRTOS/Source/portable/GCC/ARM_CM4F/portmacro.h **** 	#define portTICK_TYPE_IS_ATOMIC 1
  69:../../kernel/FreeRTOS/Source/portable/GCC/ARM_CM4F/portmacro.h **** #endif
  70:../../kernel/FreeRTOS/Source/portable/GCC/ARM_CM4F/portmacro.h **** /*-----------------------------------------------------------*/
  71:../../kernel/FreeRTOS/Source/portable/GCC/ARM_CM4F/portmacro.h **** 
  72:../../kernel/FreeRTOS/Source/portable/GCC/ARM_CM4F/portmacro.h **** /* Architecture specifics. */
ARM GAS  /tmp/ccmKmm9N.s 			page 10


  73:../../kernel/FreeRTOS/Source/portable/GCC/ARM_CM4F/portmacro.h **** #define portSTACK_GROWTH			( -1 )
  74:../../kernel/FreeRTOS/Source/portable/GCC/ARM_CM4F/portmacro.h **** #define portTICK_PERIOD_MS			( ( TickType_t ) 1000 / configTICK_RATE_HZ )
  75:../../kernel/FreeRTOS/Source/portable/GCC/ARM_CM4F/portmacro.h **** #define portBYTE_ALIGNMENT			8
  76:../../kernel/FreeRTOS/Source/portable/GCC/ARM_CM4F/portmacro.h **** /*-----------------------------------------------------------*/
  77:../../kernel/FreeRTOS/Source/portable/GCC/ARM_CM4F/portmacro.h **** 
  78:../../kernel/FreeRTOS/Source/portable/GCC/ARM_CM4F/portmacro.h **** /* Scheduler utilities. */
  79:../../kernel/FreeRTOS/Source/portable/GCC/ARM_CM4F/portmacro.h **** #define portYIELD() 															\
  80:../../kernel/FreeRTOS/Source/portable/GCC/ARM_CM4F/portmacro.h **** {																				\
  81:../../kernel/FreeRTOS/Source/portable/GCC/ARM_CM4F/portmacro.h **** 	/* Set a PendSV to request a context switch. */								\
  82:../../kernel/FreeRTOS/Source/portable/GCC/ARM_CM4F/portmacro.h **** 	portNVIC_INT_CTRL_REG = portNVIC_PENDSVSET_BIT;								\
  83:../../kernel/FreeRTOS/Source/portable/GCC/ARM_CM4F/portmacro.h **** 																				\
  84:../../kernel/FreeRTOS/Source/portable/GCC/ARM_CM4F/portmacro.h **** 	/* Barriers are normally not required but do ensure the code is completely	\
  85:../../kernel/FreeRTOS/Source/portable/GCC/ARM_CM4F/portmacro.h **** 	within the specified behaviour for the architecture. */						\
  86:../../kernel/FreeRTOS/Source/portable/GCC/ARM_CM4F/portmacro.h **** 	__asm volatile( "dsb" ::: "memory" );										\
  87:../../kernel/FreeRTOS/Source/portable/GCC/ARM_CM4F/portmacro.h **** 	__asm volatile( "isb" );													\
  88:../../kernel/FreeRTOS/Source/portable/GCC/ARM_CM4F/portmacro.h **** }
  89:../../kernel/FreeRTOS/Source/portable/GCC/ARM_CM4F/portmacro.h **** 
  90:../../kernel/FreeRTOS/Source/portable/GCC/ARM_CM4F/portmacro.h **** #define portNVIC_INT_CTRL_REG		( * ( ( volatile uint32_t * ) 0xe000ed04 ) )
  91:../../kernel/FreeRTOS/Source/portable/GCC/ARM_CM4F/portmacro.h **** #define portNVIC_PENDSVSET_BIT		( 1UL << 28UL )
  92:../../kernel/FreeRTOS/Source/portable/GCC/ARM_CM4F/portmacro.h **** #define portEND_SWITCHING_ISR( xSwitchRequired ) if( xSwitchRequired != pdFALSE ) portYIELD()
  93:../../kernel/FreeRTOS/Source/portable/GCC/ARM_CM4F/portmacro.h **** #define portYIELD_FROM_ISR( x ) portEND_SWITCHING_ISR( x )
  94:../../kernel/FreeRTOS/Source/portable/GCC/ARM_CM4F/portmacro.h **** /*-----------------------------------------------------------*/
  95:../../kernel/FreeRTOS/Source/portable/GCC/ARM_CM4F/portmacro.h **** 
  96:../../kernel/FreeRTOS/Source/portable/GCC/ARM_CM4F/portmacro.h **** /* Critical section management. */
  97:../../kernel/FreeRTOS/Source/portable/GCC/ARM_CM4F/portmacro.h **** extern void vPortEnterCritical( void );
  98:../../kernel/FreeRTOS/Source/portable/GCC/ARM_CM4F/portmacro.h **** extern void vPortExitCritical( void );
  99:../../kernel/FreeRTOS/Source/portable/GCC/ARM_CM4F/portmacro.h **** #define portSET_INTERRUPT_MASK_FROM_ISR()		ulPortRaiseBASEPRI()
 100:../../kernel/FreeRTOS/Source/portable/GCC/ARM_CM4F/portmacro.h **** #define portCLEAR_INTERRUPT_MASK_FROM_ISR(x)	vPortSetBASEPRI(x)
 101:../../kernel/FreeRTOS/Source/portable/GCC/ARM_CM4F/portmacro.h **** #define portDISABLE_INTERRUPTS()				vPortRaiseBASEPRI()
 102:../../kernel/FreeRTOS/Source/portable/GCC/ARM_CM4F/portmacro.h **** #define portENABLE_INTERRUPTS()					vPortSetBASEPRI(0)
 103:../../kernel/FreeRTOS/Source/portable/GCC/ARM_CM4F/portmacro.h **** #define portENTER_CRITICAL()					vPortEnterCritical()
 104:../../kernel/FreeRTOS/Source/portable/GCC/ARM_CM4F/portmacro.h **** #define portEXIT_CRITICAL()						vPortExitCritical()
 105:../../kernel/FreeRTOS/Source/portable/GCC/ARM_CM4F/portmacro.h **** 
 106:../../kernel/FreeRTOS/Source/portable/GCC/ARM_CM4F/portmacro.h **** /*-----------------------------------------------------------*/
 107:../../kernel/FreeRTOS/Source/portable/GCC/ARM_CM4F/portmacro.h **** 
 108:../../kernel/FreeRTOS/Source/portable/GCC/ARM_CM4F/portmacro.h **** /* Task function macros as described on the FreeRTOS.org WEB site.  These are
 109:../../kernel/FreeRTOS/Source/portable/GCC/ARM_CM4F/portmacro.h **** not necessary for to use this port.  They are defined so the common demo files
 110:../../kernel/FreeRTOS/Source/portable/GCC/ARM_CM4F/portmacro.h **** (which build with all the ports) will build. */
 111:../../kernel/FreeRTOS/Source/portable/GCC/ARM_CM4F/portmacro.h **** #define portTASK_FUNCTION_PROTO( vFunction, pvParameters ) void vFunction( void *pvParameters )
 112:../../kernel/FreeRTOS/Source/portable/GCC/ARM_CM4F/portmacro.h **** #define portTASK_FUNCTION( vFunction, pvParameters ) void vFunction( void *pvParameters )
 113:../../kernel/FreeRTOS/Source/portable/GCC/ARM_CM4F/portmacro.h **** /*-----------------------------------------------------------*/
 114:../../kernel/FreeRTOS/Source/portable/GCC/ARM_CM4F/portmacro.h **** 
 115:../../kernel/FreeRTOS/Source/portable/GCC/ARM_CM4F/portmacro.h **** /* Tickless idle/low power functionality. */
 116:../../kernel/FreeRTOS/Source/portable/GCC/ARM_CM4F/portmacro.h **** #ifndef portSUPPRESS_TICKS_AND_SLEEP
 117:../../kernel/FreeRTOS/Source/portable/GCC/ARM_CM4F/portmacro.h **** 	extern void vPortSuppressTicksAndSleep( TickType_t xExpectedIdleTime );
 118:../../kernel/FreeRTOS/Source/portable/GCC/ARM_CM4F/portmacro.h **** 	#define portSUPPRESS_TICKS_AND_SLEEP( xExpectedIdleTime ) vPortSuppressTicksAndSleep( xExpectedIdl
 119:../../kernel/FreeRTOS/Source/portable/GCC/ARM_CM4F/portmacro.h **** #endif
 120:../../kernel/FreeRTOS/Source/portable/GCC/ARM_CM4F/portmacro.h **** /*-----------------------------------------------------------*/
 121:../../kernel/FreeRTOS/Source/portable/GCC/ARM_CM4F/portmacro.h **** 
 122:../../kernel/FreeRTOS/Source/portable/GCC/ARM_CM4F/portmacro.h **** /* Architecture specific optimisations. */
 123:../../kernel/FreeRTOS/Source/portable/GCC/ARM_CM4F/portmacro.h **** #ifndef configUSE_PORT_OPTIMISED_TASK_SELECTION
 124:../../kernel/FreeRTOS/Source/portable/GCC/ARM_CM4F/portmacro.h **** 	#define configUSE_PORT_OPTIMISED_TASK_SELECTION 1
 125:../../kernel/FreeRTOS/Source/portable/GCC/ARM_CM4F/portmacro.h **** #endif
 126:../../kernel/FreeRTOS/Source/portable/GCC/ARM_CM4F/portmacro.h **** 
 127:../../kernel/FreeRTOS/Source/portable/GCC/ARM_CM4F/portmacro.h **** #if configUSE_PORT_OPTIMISED_TASK_SELECTION == 1
 128:../../kernel/FreeRTOS/Source/portable/GCC/ARM_CM4F/portmacro.h **** 
 129:../../kernel/FreeRTOS/Source/portable/GCC/ARM_CM4F/portmacro.h **** 	/* Generic helper function. */
ARM GAS  /tmp/ccmKmm9N.s 			page 11


 130:../../kernel/FreeRTOS/Source/portable/GCC/ARM_CM4F/portmacro.h **** 	__attribute__( ( always_inline ) ) static inline uint8_t ucPortCountLeadingZeros( uint32_t ulBitma
 131:../../kernel/FreeRTOS/Source/portable/GCC/ARM_CM4F/portmacro.h **** 	{
 132:../../kernel/FreeRTOS/Source/portable/GCC/ARM_CM4F/portmacro.h **** 	uint8_t ucReturn;
 133:../../kernel/FreeRTOS/Source/portable/GCC/ARM_CM4F/portmacro.h **** 
 134:../../kernel/FreeRTOS/Source/portable/GCC/ARM_CM4F/portmacro.h **** 		__asm volatile ( "clz %0, %1" : "=r" ( ucReturn ) : "r" ( ulBitmap ) : "memory" );
 135:../../kernel/FreeRTOS/Source/portable/GCC/ARM_CM4F/portmacro.h **** 		return ucReturn;
 136:../../kernel/FreeRTOS/Source/portable/GCC/ARM_CM4F/portmacro.h **** 	}
 137:../../kernel/FreeRTOS/Source/portable/GCC/ARM_CM4F/portmacro.h **** 
 138:../../kernel/FreeRTOS/Source/portable/GCC/ARM_CM4F/portmacro.h **** 	/* Check the configuration. */
 139:../../kernel/FreeRTOS/Source/portable/GCC/ARM_CM4F/portmacro.h **** 	#if( configMAX_PRIORITIES > 32 )
 140:../../kernel/FreeRTOS/Source/portable/GCC/ARM_CM4F/portmacro.h **** 		#error configUSE_PORT_OPTIMISED_TASK_SELECTION can only be set to 1 when configMAX_PRIORITIES is 
 141:../../kernel/FreeRTOS/Source/portable/GCC/ARM_CM4F/portmacro.h **** 	#endif
 142:../../kernel/FreeRTOS/Source/portable/GCC/ARM_CM4F/portmacro.h **** 
 143:../../kernel/FreeRTOS/Source/portable/GCC/ARM_CM4F/portmacro.h **** 	/* Store/clear the ready priorities in a bit map. */
 144:../../kernel/FreeRTOS/Source/portable/GCC/ARM_CM4F/portmacro.h **** 	#define portRECORD_READY_PRIORITY( uxPriority, uxReadyPriorities ) ( uxReadyPriorities ) |= ( 1UL 
 145:../../kernel/FreeRTOS/Source/portable/GCC/ARM_CM4F/portmacro.h **** 	#define portRESET_READY_PRIORITY( uxPriority, uxReadyPriorities ) ( uxReadyPriorities ) &= ~( 1UL 
 146:../../kernel/FreeRTOS/Source/portable/GCC/ARM_CM4F/portmacro.h **** 
 147:../../kernel/FreeRTOS/Source/portable/GCC/ARM_CM4F/portmacro.h **** 	/*-----------------------------------------------------------*/
 148:../../kernel/FreeRTOS/Source/portable/GCC/ARM_CM4F/portmacro.h **** 
 149:../../kernel/FreeRTOS/Source/portable/GCC/ARM_CM4F/portmacro.h **** 	#define portGET_HIGHEST_PRIORITY( uxTopPriority, uxReadyPriorities ) uxTopPriority = ( 31UL - ( ui
 150:../../kernel/FreeRTOS/Source/portable/GCC/ARM_CM4F/portmacro.h **** 
 151:../../kernel/FreeRTOS/Source/portable/GCC/ARM_CM4F/portmacro.h **** #endif /* configUSE_PORT_OPTIMISED_TASK_SELECTION */
 152:../../kernel/FreeRTOS/Source/portable/GCC/ARM_CM4F/portmacro.h **** 
 153:../../kernel/FreeRTOS/Source/portable/GCC/ARM_CM4F/portmacro.h **** /*-----------------------------------------------------------*/
 154:../../kernel/FreeRTOS/Source/portable/GCC/ARM_CM4F/portmacro.h **** 
 155:../../kernel/FreeRTOS/Source/portable/GCC/ARM_CM4F/portmacro.h **** #ifdef configASSERT
 156:../../kernel/FreeRTOS/Source/portable/GCC/ARM_CM4F/portmacro.h **** 	void vPortValidateInterruptPriority( void );
 157:../../kernel/FreeRTOS/Source/portable/GCC/ARM_CM4F/portmacro.h **** 	#define portASSERT_IF_INTERRUPT_PRIORITY_INVALID() 	vPortValidateInterruptPriority()
 158:../../kernel/FreeRTOS/Source/portable/GCC/ARM_CM4F/portmacro.h **** #endif
 159:../../kernel/FreeRTOS/Source/portable/GCC/ARM_CM4F/portmacro.h **** 
 160:../../kernel/FreeRTOS/Source/portable/GCC/ARM_CM4F/portmacro.h **** /* portNOP() is not required by this port. */
 161:../../kernel/FreeRTOS/Source/portable/GCC/ARM_CM4F/portmacro.h **** #define portNOP()
 162:../../kernel/FreeRTOS/Source/portable/GCC/ARM_CM4F/portmacro.h **** 
 163:../../kernel/FreeRTOS/Source/portable/GCC/ARM_CM4F/portmacro.h **** #define portINLINE	__inline
 164:../../kernel/FreeRTOS/Source/portable/GCC/ARM_CM4F/portmacro.h **** 
 165:../../kernel/FreeRTOS/Source/portable/GCC/ARM_CM4F/portmacro.h **** #ifndef portFORCE_INLINE
 166:../../kernel/FreeRTOS/Source/portable/GCC/ARM_CM4F/portmacro.h **** 	#define portFORCE_INLINE inline __attribute__(( always_inline))
 167:../../kernel/FreeRTOS/Source/portable/GCC/ARM_CM4F/portmacro.h **** #endif
 168:../../kernel/FreeRTOS/Source/portable/GCC/ARM_CM4F/portmacro.h **** 
 169:../../kernel/FreeRTOS/Source/portable/GCC/ARM_CM4F/portmacro.h **** portFORCE_INLINE static BaseType_t xPortIsInsideInterrupt( void )
 170:../../kernel/FreeRTOS/Source/portable/GCC/ARM_CM4F/portmacro.h **** {
 171:../../kernel/FreeRTOS/Source/portable/GCC/ARM_CM4F/portmacro.h **** uint32_t ulCurrentInterrupt;
 172:../../kernel/FreeRTOS/Source/portable/GCC/ARM_CM4F/portmacro.h **** BaseType_t xReturn;
 173:../../kernel/FreeRTOS/Source/portable/GCC/ARM_CM4F/portmacro.h **** 
 174:../../kernel/FreeRTOS/Source/portable/GCC/ARM_CM4F/portmacro.h **** 	/* Obtain the number of the currently executing interrupt. */
 175:../../kernel/FreeRTOS/Source/portable/GCC/ARM_CM4F/portmacro.h **** 	__asm volatile( "mrs %0, ipsr" : "=r"( ulCurrentInterrupt ) :: "memory" );
 176:../../kernel/FreeRTOS/Source/portable/GCC/ARM_CM4F/portmacro.h **** 
 177:../../kernel/FreeRTOS/Source/portable/GCC/ARM_CM4F/portmacro.h **** 	if( ulCurrentInterrupt == 0 )
 178:../../kernel/FreeRTOS/Source/portable/GCC/ARM_CM4F/portmacro.h **** 	{
 179:../../kernel/FreeRTOS/Source/portable/GCC/ARM_CM4F/portmacro.h **** 		xReturn = pdFALSE;
 180:../../kernel/FreeRTOS/Source/portable/GCC/ARM_CM4F/portmacro.h **** 	}
 181:../../kernel/FreeRTOS/Source/portable/GCC/ARM_CM4F/portmacro.h **** 	else
 182:../../kernel/FreeRTOS/Source/portable/GCC/ARM_CM4F/portmacro.h **** 	{
 183:../../kernel/FreeRTOS/Source/portable/GCC/ARM_CM4F/portmacro.h **** 		xReturn = pdTRUE;
 184:../../kernel/FreeRTOS/Source/portable/GCC/ARM_CM4F/portmacro.h **** 	}
 185:../../kernel/FreeRTOS/Source/portable/GCC/ARM_CM4F/portmacro.h **** 
 186:../../kernel/FreeRTOS/Source/portable/GCC/ARM_CM4F/portmacro.h **** 	return xReturn;
ARM GAS  /tmp/ccmKmm9N.s 			page 12


 187:../../kernel/FreeRTOS/Source/portable/GCC/ARM_CM4F/portmacro.h **** }
 188:../../kernel/FreeRTOS/Source/portable/GCC/ARM_CM4F/portmacro.h **** 
 189:../../kernel/FreeRTOS/Source/portable/GCC/ARM_CM4F/portmacro.h **** /*-----------------------------------------------------------*/
 190:../../kernel/FreeRTOS/Source/portable/GCC/ARM_CM4F/portmacro.h **** 
 191:../../kernel/FreeRTOS/Source/portable/GCC/ARM_CM4F/portmacro.h **** portFORCE_INLINE static void vPortRaiseBASEPRI( void )
 311              		.loc 2 191 30 view .LVU50
 312              	.LBB11:
 192:../../kernel/FreeRTOS/Source/portable/GCC/ARM_CM4F/portmacro.h **** {
 193:../../kernel/FreeRTOS/Source/portable/GCC/ARM_CM4F/portmacro.h **** uint32_t ulNewBASEPRI;
 313              		.loc 2 193 1 view .LVU51
 194:../../kernel/FreeRTOS/Source/portable/GCC/ARM_CM4F/portmacro.h **** 
 195:../../kernel/FreeRTOS/Source/portable/GCC/ARM_CM4F/portmacro.h **** 	__asm volatile
 314              		.loc 2 195 2 view .LVU52
 315              		.syntax unified
 316              	@ 195 "../../kernel/FreeRTOS/Source/portable/GCC/ARM_CM4F/portmacro.h" 1
 317 0040 4FF0A003 			mov r3, #160													@ ulNewBASEPRI,
 318 0044 83F31188 		msr basepri, r3												@ ulNewBASEPRI
 319 0048 BFF36F8F 		isb														
 320 004c BFF34F8F 		dsb														
 321              	
 322              	@ 0 "" 2
 323              	.LVL9:
 324              		.thumb
 325              		.syntax unified
 326              	.L19:
 327              		.loc 2 195 2 is_stmt 0 view .LVU53
 328              	.LBE11:
 329              	.LBE10:
 111:../../peripheral_library/drv/drvMBX.c **** 
 330              		.loc 1 111 3 is_stmt 1 discriminator 2 view .LVU54
 111:../../peripheral_library/drv/drvMBX.c **** 
 331              		.loc 1 111 3 discriminator 2 view .LVU55
 111:../../peripheral_library/drv/drvMBX.c **** 
 332              		.loc 1 111 3 discriminator 2 view .LVU56
 111:../../peripheral_library/drv/drvMBX.c **** 
 333              		.loc 1 111 3 discriminator 2 view .LVU57
 334 0050 FEE7     		b	.L19		@
 335              	.L21:
 109:../../peripheral_library/drv/drvMBX.c ****   _mgrMBX.tMbxMutex = xSemaphoreCreateMutex();
 336              		.loc 1 109 3 view .LVU58
 337              	.LBB12:
 338              	.LBI12:
 191:../../kernel/FreeRTOS/Source/portable/GCC/ARM_CM4F/portmacro.h **** {
 339              		.loc 2 191 30 view .LVU59
 340              	.LBB13:
 193:../../kernel/FreeRTOS/Source/portable/GCC/ARM_CM4F/portmacro.h **** 
 341              		.loc 2 193 1 view .LVU60
 342              		.loc 2 195 2 view .LVU61
 343              		.syntax unified
 344              	@ 195 "../../kernel/FreeRTOS/Source/portable/GCC/ARM_CM4F/portmacro.h" 1
 345 0052 4FF0A003 			mov r3, #160													@ ulNewBASEPRI,
 346 0056 83F31188 		msr basepri, r3												@ ulNewBASEPRI
 347 005a BFF36F8F 		isb														
 348 005e BFF34F8F 		dsb														
 349              	
 350              	@ 0 "" 2
 351              	.LVL10:
ARM GAS  /tmp/ccmKmm9N.s 			page 13


 352              		.thumb
 353              		.syntax unified
 354              	.L17:
 355              		.loc 2 195 2 is_stmt 0 view .LVU62
 356              	.LBE13:
 357              	.LBE12:
 109:../../peripheral_library/drv/drvMBX.c ****   _mgrMBX.tMbxMutex = xSemaphoreCreateMutex();
 358              		.loc 1 109 3 is_stmt 1 discriminator 1 view .LVU63
 109:../../peripheral_library/drv/drvMBX.c ****   _mgrMBX.tMbxMutex = xSemaphoreCreateMutex();
 359              		.loc 1 109 3 discriminator 1 view .LVU64
 109:../../peripheral_library/drv/drvMBX.c ****   _mgrMBX.tMbxMutex = xSemaphoreCreateMutex();
 360              		.loc 1 109 3 discriminator 1 view .LVU65
 109:../../peripheral_library/drv/drvMBX.c ****   _mgrMBX.tMbxMutex = xSemaphoreCreateMutex();
 361              		.loc 1 109 3 discriminator 1 view .LVU66
 362 0062 FEE7     		b	.L17		@
 363              	.L24:
 364              		.align	2
 365              	.L23:
 366 0064 00000000 		.word	.LANCHOR0
 367 0068 00000000 		.word	NVIC_Handler_MBX
 368              		.cfi_endproc
 369              	.LFE135:
 370              		.size	MDrv_MBX_Init, .-MDrv_MBX_Init
 371              		.section	.text.MDrv_MBX_SendMsg,"ax",%progbits
 372              		.align	1
 373              		.p2align 2,,3
 374              		.global	MDrv_MBX_SendMsg
 375              		.syntax unified
 376              		.thumb
 377              		.thumb_func
 378              		.fpu fpv4-sp-d16
 379              		.type	MDrv_MBX_SendMsg, %function
 380              	MDrv_MBX_SendMsg:
 381              	.LVL11:
 382              	.LFB136:
 119:../../peripheral_library/drv/drvMBX.c **** 
 120:../../peripheral_library/drv/drvMBX.c **** 
 121:../../peripheral_library/drv/drvMBX.c **** MBX_Result MDrv_MBX_SendMsg(MBX_Msg *pMsg)
 122:../../peripheral_library/drv/drvMBX.c **** {
 383              		.loc 1 122 1 view -0
 384              		.cfi_startproc
 385              		@ args = 0, pretend = 0, frame = 8
 386              		@ frame_needed = 0, uses_anonymous_args = 0
 123:../../peripheral_library/drv/drvMBX.c ****   MBX_Result mbxResult = E_MBX_SUCCESS;
 387              		.loc 1 123 3 view .LVU68
 124:../../peripheral_library/drv/drvMBX.c ****   MBXHAL_Fire_Status mbxHalFireStatus;
 388              		.loc 1 124 3 view .LVU69
 125:../../peripheral_library/drv/drvMBX.c ****   U32 u32WaitCnt = 0;
 389              		.loc 1 125 3 view .LVU70
 126:../../peripheral_library/drv/drvMBX.c ****   //parameter check:
 127:../../peripheral_library/drv/drvMBX.c ****   if(NULL == pMsg)
 390              		.loc 1 127 3 view .LVU71
 391              	@ ../../peripheral_library/drv/drvMBX.c:122: {
 122:../../peripheral_library/drv/drvMBX.c ****   MBX_Result mbxResult = E_MBX_SUCCESS;
 392              		.loc 1 122 1 is_stmt 0 view .LVU72
 393 0000 70B5     		push	{r4, r5, r6, lr}	@
 394              		.cfi_def_cfa_offset 16
ARM GAS  /tmp/ccmKmm9N.s 			page 14


 395              		.cfi_offset 4, -16
 396              		.cfi_offset 5, -12
 397              		.cfi_offset 6, -8
 398              		.cfi_offset 14, -4
 399 0002 82B0     		sub	sp, sp, #8	@,,
 400              		.cfi_def_cfa_offset 24
 401              	@ ../../peripheral_library/drv/drvMBX.c:127:   if(NULL == pMsg)
 402              		.loc 1 127 5 view .LVU73
 403 0004 0028     		cmp	r0, #0	@ pMsg
 404 0006 41D0     		beq	.L46	@
 405 0008 0546     		mov	r5, r0	@ pMsg, pMsg
 406 000a 244E     		ldr	r6, .L49	@ tmp167,
 407 000c 4FF48034 		mov	r4, #65536	@ ivtmp_40,
 408 0010 04E0     		b	.L26		@
 409              	.LVL12:
 410              	.L29:
 411              	@ ../../peripheral_library/drv/drvMBX.c:142:     if(E_MBXHAL_FIRE_SUCCESS == mbxHalFireStatus)
 128:../../peripheral_library/drv/drvMBX.c ****   {
 129:../../peripheral_library/drv/drvMBX.c ****     MBX_ERROR("MDrv_MBX_SendMsg: E_MBX_ERR_INVALID_PARAM!\r\n");
 130:../../peripheral_library/drv/drvMBX.c ****     return E_MBX_ERR_INVALID_PARAM;
 131:../../peripheral_library/drv/drvMBX.c ****   }
 132:../../peripheral_library/drv/drvMBX.c **** 
 133:../../peripheral_library/drv/drvMBX.c ****   do
 134:../../peripheral_library/drv/drvMBX.c ****   {
 135:../../peripheral_library/drv/drvMBX.c ****     mbxResult = MHAL_MBX_GetFireStatus(_mgrMBX.eMbxHostRole, pMsg->eRoleID, &mbxHalFireStatus);
 136:../../peripheral_library/drv/drvMBX.c ****     if(E_MBX_SUCCESS != mbxResult)
 137:../../peripheral_library/drv/drvMBX.c ****     {
 138:../../peripheral_library/drv/drvMBX.c ****       MBX_ERROR("MDrv_MBX_SendMsg: MHAL_MBX_GetFireStatus failed = %d\r\n ", mbxResult);
 139:../../peripheral_library/drv/drvMBX.c ****       return E_MBX_ERR_INVALID_PARAM;
 140:../../peripheral_library/drv/drvMBX.c ****     }
 141:../../peripheral_library/drv/drvMBX.c **** 
 142:../../peripheral_library/drv/drvMBX.c ****     if(E_MBXHAL_FIRE_SUCCESS == mbxHalFireStatus)
 412              		.loc 1 142 7 view .LVU74
 413 0012 9DF80730 		ldrb	r3, [sp, #7]	@ zero_extendqisi2	@ mbxHalFireStatus, mbxHalFireStatus
 414 0016 8BB1     		cbz	r3, .L31	@ mbxHalFireStatus,
 415              	@ ../../peripheral_library/drv/drvMBX.c:147:     if(u32WaitCnt >= 0x10000)
 143:../../peripheral_library/drv/drvMBX.c ****       break;
 144:../../peripheral_library/drv/drvMBX.c **** 
 145:../../peripheral_library/drv/drvMBX.c ****     //check If Timeout:
 146:../../peripheral_library/drv/drvMBX.c ****     u32WaitCnt++;
 147:../../peripheral_library/drv/drvMBX.c ****     if(u32WaitCnt >= 0x10000)
 416              		.loc 1 147 7 view .LVU75
 417 0018 013C     		subs	r4, r4, #1	@ ivtmp_40, ivtmp_40,
 418 001a 0FD0     		beq	.L31		@,
 419              	.LVL13:
 420              	.L26:
 133:../../peripheral_library/drv/drvMBX.c ****   {
 421              		.loc 1 133 3 is_stmt 1 view .LVU76
 135:../../peripheral_library/drv/drvMBX.c ****     if(E_MBX_SUCCESS != mbxResult)
 422              		.loc 1 135 5 view .LVU77
 423              	@ ../../peripheral_library/drv/drvMBX.c:135:     mbxResult = MHAL_MBX_GetFireStatus(_mgrMBX.eMbxHos
 135:../../peripheral_library/drv/drvMBX.c ****     if(E_MBX_SUCCESS != mbxResult)
 424              		.loc 1 135 17 is_stmt 0 view .LVU78
 425 001c 0DF10702 		add	r2, sp, #7	@ tmp168,,
 426 0020 2978     		ldrb	r1, [r5]	@ zero_extendqisi2	@, pMsg_27(D)->eRoleID
 427 0022 3078     		ldrb	r0, [r6]	@ zero_extendqisi2	@, _mgrMBX.eMbxHostRole
 428 0024 FFF7FEFF 		bl	MHAL_MBX_GetFireStatus		@
ARM GAS  /tmp/ccmKmm9N.s 			page 15


 429              	.LVL14:
 136:../../peripheral_library/drv/drvMBX.c ****     {
 430              		.loc 1 136 5 is_stmt 1 view .LVU79
 142:../../peripheral_library/drv/drvMBX.c ****       break;
 431              		.loc 1 142 5 view .LVU80
 146:../../peripheral_library/drv/drvMBX.c ****     if(u32WaitCnt >= 0x10000)
 432              		.loc 1 146 5 view .LVU81
 433              		.loc 1 147 5 view .LVU82
 434              	@ ../../peripheral_library/drv/drvMBX.c:136:     if(E_MBX_SUCCESS != mbxResult)
 136:../../peripheral_library/drv/drvMBX.c ****     {
 435              		.loc 1 136 7 is_stmt 0 view .LVU83
 436 0028 0028     		cmp	r0, #0	@ tmp141
 437 002a F2D0     		beq	.L29	@
 138:../../peripheral_library/drv/drvMBX.c ****       return E_MBX_ERR_INVALID_PARAM;
 438              		.loc 1 138 7 is_stmt 1 view .LVU84
 439 002c 1C4B     		ldr	r3, .L49+4	@ tmp142,
 440 002e 1B68     		ldr	r3, [r3]	@ gu32MosDbgLevel, gu32MosDbgLevel
 441 0030 DA07     		lsls	r2, r3, #31	@, gu32MosDbgLevel,
 442 0032 23D4     		bmi	.L47		@,
 443              	.LVL15:
 444              	.L45:
 445              	@ ../../peripheral_library/drv/drvMBX.c:130:     return E_MBX_ERR_INVALID_PARAM;
 130:../../peripheral_library/drv/drvMBX.c ****   }
 446              		.loc 1 130 12 is_stmt 0 discriminator 1 view .LVU85
 447 0034 0724     		movs	r4, #7	@ <retval>,
 448              	.L28:
 449              	@ ../../peripheral_library/drv/drvMBX.c:165: }
 148:../../peripheral_library/drv/drvMBX.c ****       break;
 149:../../peripheral_library/drv/drvMBX.c ****   }
 150:../../peripheral_library/drv/drvMBX.c ****   while(1);
 151:../../peripheral_library/drv/drvMBX.c **** 
 152:../../peripheral_library/drv/drvMBX.c ****   //mbxResult = _MDrv_MBX_SendMsg(pMsg, _mgrMBX.eMbxHostRole);
 153:../../peripheral_library/drv/drvMBX.c ****   MHAL_MBX_ClearAll(pMsg, _mgrMBX.eMbxHostRole);
 154:../../peripheral_library/drv/drvMBX.c ****   mbxResult = MHAL_MBX_Fire(pMsg, _mgrMBX.eMbxHostRole);
 155:../../peripheral_library/drv/drvMBX.c ****   if(E_MBX_SUCCESS == mbxResult)
 156:../../peripheral_library/drv/drvMBX.c ****   {
 157:../../peripheral_library/drv/drvMBX.c ****     MHal_CPUINT_Fire(_mgrMBX.eMbxRole2Cpu[pMsg->eRoleID], _mgrMBX.eMbxRole2Cpu[_mgrMBX.eMbxHostRole
 158:../../peripheral_library/drv/drvMBX.c ****   }
 159:../../peripheral_library/drv/drvMBX.c ****   else
 160:../../peripheral_library/drv/drvMBX.c ****   {
 161:../../peripheral_library/drv/drvMBX.c ****     MBX_ERROR("MDrv_MBX_SendMsg: MHAL_MBX_Fire Failed! Result=%d\r\n", mbxResult);
 162:../../peripheral_library/drv/drvMBX.c ****   }
 163:../../peripheral_library/drv/drvMBX.c **** 
 164:../../peripheral_library/drv/drvMBX.c ****   return mbxResult;
 165:../../peripheral_library/drv/drvMBX.c **** }
 450              		.loc 1 165 1 view .LVU86
 451 0036 2046     		mov	r0, r4	@, <retval>
 452 0038 02B0     		add	sp, sp, #8	@,,
 453              		.cfi_remember_state
 454              		.cfi_def_cfa_offset 16
 455              		@ sp needed	@
 456 003a 70BD     		pop	{r4, r5, r6, pc}	@
 457              	.LVL16:
 458              	.L31:
 459              		.cfi_restore_state
 153:../../peripheral_library/drv/drvMBX.c ****   mbxResult = MHAL_MBX_Fire(pMsg, _mgrMBX.eMbxHostRole);
 460              		.loc 1 153 3 is_stmt 1 view .LVU87
ARM GAS  /tmp/ccmKmm9N.s 			page 16


 461 003c 3178     		ldrb	r1, [r6]	@ zero_extendqisi2	@, _mgrMBX.eMbxHostRole
 462 003e 2846     		mov	r0, r5	@, pMsg
 463              	.LVL17:
 153:../../peripheral_library/drv/drvMBX.c ****   mbxResult = MHAL_MBX_Fire(pMsg, _mgrMBX.eMbxHostRole);
 464              		.loc 1 153 3 is_stmt 0 view .LVU88
 465 0040 FFF7FEFF 		bl	MHAL_MBX_ClearAll		@
 466              	.LVL18:
 154:../../peripheral_library/drv/drvMBX.c ****   if(E_MBX_SUCCESS == mbxResult)
 467              		.loc 1 154 3 is_stmt 1 view .LVU89
 468              	@ ../../peripheral_library/drv/drvMBX.c:154:   mbxResult = MHAL_MBX_Fire(pMsg, _mgrMBX.eMbxHostRole
 154:../../peripheral_library/drv/drvMBX.c ****   if(E_MBX_SUCCESS == mbxResult)
 469              		.loc 1 154 15 is_stmt 0 view .LVU90
 470 0044 3178     		ldrb	r1, [r6]	@ zero_extendqisi2	@, _mgrMBX.eMbxHostRole
 471 0046 2846     		mov	r0, r5	@, pMsg
 472 0048 FFF7FEFF 		bl	MHAL_MBX_Fire		@
 473              	.LVL19:
 155:../../peripheral_library/drv/drvMBX.c ****   {
 474              		.loc 1 155 3 is_stmt 1 view .LVU91
 475              	@ ../../peripheral_library/drv/drvMBX.c:155:   if(E_MBX_SUCCESS == mbxResult)
 155:../../peripheral_library/drv/drvMBX.c ****   {
 476              		.loc 1 155 5 is_stmt 0 view .LVU92
 477 004c 0446     		mov	r4, r0	@ <retval>,
 478 004e 50B1     		cbz	r0, .L48	@ <retval>,
 161:../../peripheral_library/drv/drvMBX.c ****   }
 479              		.loc 1 161 5 is_stmt 1 view .LVU93
 480 0050 134B     		ldr	r3, .L49+4	@ tmp161,
 481 0052 1B68     		ldr	r3, [r3]	@ gu32MosDbgLevel, gu32MosDbgLevel
 482 0054 DB07     		lsls	r3, r3, #31	@, gu32MosDbgLevel,
 483 0056 EED5     		bpl	.L28		@,
 161:../../peripheral_library/drv/drvMBX.c ****   }
 484              		.loc 1 161 5 discriminator 1 view .LVU94
 485 0058 0146     		mov	r1, r0	@, <retval>
 486 005a 1248     		ldr	r0, .L49+8	@,
 487              	.LVL20:
 161:../../peripheral_library/drv/drvMBX.c ****   }
 488              		.loc 1 161 5 is_stmt 0 discriminator 1 view .LVU95
 489 005c FFF7FEFF 		bl	UartSendTrace		@
 490              	.LVL21:
 491              	@ ../../peripheral_library/drv/drvMBX.c:165: }
 492              		.loc 1 165 1 discriminator 1 view .LVU96
 493 0060 2046     		mov	r0, r4	@, <retval>
 494 0062 02B0     		add	sp, sp, #8	@,,
 495              		.cfi_remember_state
 496              		.cfi_def_cfa_offset 16
 497              		@ sp needed	@
 498 0064 70BD     		pop	{r4, r5, r6, pc}	@
 499              	.LVL22:
 500              	.L48:
 501              		.cfi_restore_state
 157:../../peripheral_library/drv/drvMBX.c ****   }
 502              		.loc 1 157 5 is_stmt 1 view .LVU97
 503              	@ ../../peripheral_library/drv/drvMBX.c:157:     MHal_CPUINT_Fire(_mgrMBX.eMbxRole2Cpu[pMsg->eRoleI
 157:../../peripheral_library/drv/drvMBX.c ****   }
 504              		.loc 1 157 47 is_stmt 0 view .LVU98
 505 0066 2B78     		ldrb	r3, [r5]	@ zero_extendqisi2	@ pMsg_27(D)->eRoleID, pMsg_27(D)->eRoleID
 506              	@ ../../peripheral_library/drv/drvMBX.c:157:     MHal_CPUINT_Fire(_mgrMBX.eMbxRole2Cpu[pMsg->eRoleI
 157:../../peripheral_library/drv/drvMBX.c ****   }
ARM GAS  /tmp/ccmKmm9N.s 			page 17


 507              		.loc 1 157 87 view .LVU99
 508 0068 3278     		ldrb	r2, [r6]	@ zero_extendqisi2	@ _mgrMBX.eMbxHostRole, _mgrMBX.eMbxHostRole
 509              	@ ../../peripheral_library/drv/drvMBX.c:157:     MHal_CPUINT_Fire(_mgrMBX.eMbxRole2Cpu[pMsg->eRoleI
 157:../../peripheral_library/drv/drvMBX.c ****   }
 510              		.loc 1 157 5 view .LVU100
 511 006a 3344     		add	r3, r3, r6	@ tmp159, tmp167
 512 006c 1644     		add	r6, r6, r2	@ tmp155, _mgrMBX.eMbxHostRole
 513 006e 5878     		ldrb	r0, [r3, #1]	@ zero_extendqisi2	@, _mgrMBX.eMbxRole2Cpu
 514              	.LVL23:
 157:../../peripheral_library/drv/drvMBX.c ****   }
 515              		.loc 1 157 5 view .LVU101
 516 0070 7178     		ldrb	r1, [r6, #1]	@ zero_extendqisi2	@, _mgrMBX.eMbxRole2Cpu
 517 0072 FFF7FEFF 		bl	MHal_CPUINT_Fire		@
 518              	.LVL24:
 519              	@ ../../peripheral_library/drv/drvMBX.c:165: }
 520              		.loc 1 165 1 view .LVU102
 521 0076 2046     		mov	r0, r4	@, <retval>
 522 0078 02B0     		add	sp, sp, #8	@,,
 523              		.cfi_remember_state
 524              		.cfi_def_cfa_offset 16
 525              		@ sp needed	@
 526 007a 70BD     		pop	{r4, r5, r6, pc}	@
 527              	.LVL25:
 528              	.L47:
 529              		.cfi_restore_state
 138:../../peripheral_library/drv/drvMBX.c ****       return E_MBX_ERR_INVALID_PARAM;
 530              		.loc 1 138 7 is_stmt 1 discriminator 1 view .LVU103
 531 007c 0146     		mov	r1, r0	@, tmp141
 532 007e 0A48     		ldr	r0, .L49+12	@,
 533              	.LVL26:
 138:../../peripheral_library/drv/drvMBX.c ****       return E_MBX_ERR_INVALID_PARAM;
 534              		.loc 1 138 7 is_stmt 0 discriminator 1 view .LVU104
 535 0080 FFF7FEFF 		bl	UartSendTrace		@
 536              	.LVL27:
 537              	@ ../../peripheral_library/drv/drvMBX.c:139:       return E_MBX_ERR_INVALID_PARAM;
 139:../../peripheral_library/drv/drvMBX.c ****     }
 538              		.loc 1 139 14 discriminator 1 view .LVU105
 539 0084 0724     		movs	r4, #7	@ <retval>,
 540              	@ ../../peripheral_library/drv/drvMBX.c:165: }
 541              		.loc 1 165 1 discriminator 1 view .LVU106
 542 0086 2046     		mov	r0, r4	@, <retval>
 543 0088 02B0     		add	sp, sp, #8	@,,
 544              		.cfi_remember_state
 545              		.cfi_def_cfa_offset 16
 546              		@ sp needed	@
 547 008a 70BD     		pop	{r4, r5, r6, pc}	@
 548              	.LVL28:
 549              	.L46:
 550              		.cfi_restore_state
 129:../../peripheral_library/drv/drvMBX.c ****     return E_MBX_ERR_INVALID_PARAM;
 551              		.loc 1 129 5 is_stmt 1 view .LVU107
 552 008c 044B     		ldr	r3, .L49+4	@ tmp133,
 553 008e 1B68     		ldr	r3, [r3]	@ gu32MosDbgLevel, gu32MosDbgLevel
 554 0090 D907     		lsls	r1, r3, #31	@, gu32MosDbgLevel,
 555 0092 CFD5     		bpl	.L45		@,
 129:../../peripheral_library/drv/drvMBX.c ****     return E_MBX_ERR_INVALID_PARAM;
 556              		.loc 1 129 5 discriminator 1 view .LVU108
ARM GAS  /tmp/ccmKmm9N.s 			page 18


 557 0094 0548     		ldr	r0, .L49+16	@,
 558              	.LVL29:
 129:../../peripheral_library/drv/drvMBX.c ****     return E_MBX_ERR_INVALID_PARAM;
 559              		.loc 1 129 5 is_stmt 0 discriminator 1 view .LVU109
 560 0096 FFF7FEFF 		bl	UartSendTrace		@
 561              	.LVL30:
 562 009a CBE7     		b	.L45		@
 563              	.L50:
 564              		.align	2
 565              	.L49:
 566 009c 00000000 		.word	.LANCHOR0
 567 00a0 00000000 		.word	gu32MosDbgLevel
 568 00a4 7C000000 		.word	.LC3
 569 00a8 38000000 		.word	.LC2
 570 00ac 00000000 		.word	.LC1
 571              		.cfi_endproc
 572              	.LFE136:
 573              		.size	MDrv_MBX_SendMsg, .-MDrv_MBX_SendMsg
 574              		.section	.text.MDrv_MBX_SendMsgExt,"ax",%progbits
 575              		.align	1
 576              		.p2align 2,,3
 577              		.global	MDrv_MBX_SendMsgExt
 578              		.syntax unified
 579              		.thumb
 580              		.thumb_func
 581              		.fpu fpv4-sp-d16
 582              		.type	MDrv_MBX_SendMsgExt, %function
 583              	MDrv_MBX_SendMsgExt:
 584              	.LVL31:
 585              	.LFB137:
 166:../../peripheral_library/drv/drvMBX.c **** 
 167:../../peripheral_library/drv/drvMBX.c **** MBX_Result MDrv_MBX_SendMsgExt(MBX_Msg *pMsg, MBX_ROLE_ID eSrcRole)
 168:../../peripheral_library/drv/drvMBX.c **** {
 586              		.loc 1 168 1 is_stmt 1 view -0
 587              		.cfi_startproc
 588              		@ args = 0, pretend = 0, frame = 8
 589              		@ frame_needed = 0, uses_anonymous_args = 0
 169:../../peripheral_library/drv/drvMBX.c ****   MBX_Result mbxResult = E_MBX_SUCCESS;
 590              		.loc 1 169 3 view .LVU111
 170:../../peripheral_library/drv/drvMBX.c ****   MBXHAL_Fire_Status mbxHalFireStatus;
 591              		.loc 1 170 3 view .LVU112
 171:../../peripheral_library/drv/drvMBX.c ****   U32 u32WaitCnt = 0;
 592              		.loc 1 171 3 view .LVU113
 172:../../peripheral_library/drv/drvMBX.c ****   //parameter check:
 173:../../peripheral_library/drv/drvMBX.c ****   if(NULL == pMsg)
 593              		.loc 1 173 3 view .LVU114
 594              	@ ../../peripheral_library/drv/drvMBX.c:168: {
 168:../../peripheral_library/drv/drvMBX.c ****   MBX_Result mbxResult = E_MBX_SUCCESS;
 595              		.loc 1 168 1 is_stmt 0 view .LVU115
 596 0000 70B5     		push	{r4, r5, r6, lr}	@
 597              		.cfi_def_cfa_offset 16
 598              		.cfi_offset 4, -16
 599              		.cfi_offset 5, -12
 600              		.cfi_offset 6, -8
 601              		.cfi_offset 14, -4
 602 0002 82B0     		sub	sp, sp, #8	@,,
 603              		.cfi_def_cfa_offset 24
ARM GAS  /tmp/ccmKmm9N.s 			page 19


 604              	@ ../../peripheral_library/drv/drvMBX.c:173:   if(NULL == pMsg)
 605              		.loc 1 173 5 view .LVU116
 606 0004 0028     		cmp	r0, #0	@ pMsg
 607 0006 41D0     		beq	.L72	@
 608 0008 0E46     		mov	r6, r1	@ eSrcRole, eSrcRole
 609 000a 0546     		mov	r5, r0	@ pMsg, pMsg
 610 000c 4FF48034 		mov	r4, #65536	@ ivtmp_37,
 611 0010 04E0     		b	.L52		@
 612              	.LVL32:
 613              	.L55:
 614              	@ ../../peripheral_library/drv/drvMBX.c:188:     if(E_MBXHAL_FIRE_SUCCESS == mbxHalFireStatus)
 174:../../peripheral_library/drv/drvMBX.c ****   {
 175:../../peripheral_library/drv/drvMBX.c ****     MBX_ERROR("MDrv_MBX_SendMsgExt: E_MBX_ERR_INVALID_PARAM!\r\n");
 176:../../peripheral_library/drv/drvMBX.c ****     return E_MBX_ERR_INVALID_PARAM;
 177:../../peripheral_library/drv/drvMBX.c ****   }
 178:../../peripheral_library/drv/drvMBX.c **** 
 179:../../peripheral_library/drv/drvMBX.c ****   do
 180:../../peripheral_library/drv/drvMBX.c ****   {
 181:../../peripheral_library/drv/drvMBX.c ****     mbxResult = MHAL_MBX_GetFireStatus(eSrcRole, pMsg->eRoleID, &mbxHalFireStatus);
 182:../../peripheral_library/drv/drvMBX.c ****     if(E_MBX_SUCCESS != mbxResult)
 183:../../peripheral_library/drv/drvMBX.c ****     {
 184:../../peripheral_library/drv/drvMBX.c ****       MBX_ERROR("MDrv_MBX_SendMsgExt: MHAL_MBX_GetFireStatus failed = %d\r\n ", mbxResult);
 185:../../peripheral_library/drv/drvMBX.c ****       return E_MBX_ERR_INVALID_PARAM;
 186:../../peripheral_library/drv/drvMBX.c ****     }
 187:../../peripheral_library/drv/drvMBX.c **** 
 188:../../peripheral_library/drv/drvMBX.c ****     if(E_MBXHAL_FIRE_SUCCESS == mbxHalFireStatus)
 615              		.loc 1 188 7 view .LVU117
 616 0012 9DF80730 		ldrb	r3, [sp, #7]	@ zero_extendqisi2	@ mbxHalFireStatus, mbxHalFireStatus
 617 0016 8BB1     		cbz	r3, .L57	@ mbxHalFireStatus,
 618              	@ ../../peripheral_library/drv/drvMBX.c:193:     if(u32WaitCnt >= 0x10000)
 189:../../peripheral_library/drv/drvMBX.c ****       break;
 190:../../peripheral_library/drv/drvMBX.c **** 
 191:../../peripheral_library/drv/drvMBX.c ****     //check If Timeout:
 192:../../peripheral_library/drv/drvMBX.c ****     u32WaitCnt++;
 193:../../peripheral_library/drv/drvMBX.c ****     if(u32WaitCnt >= 0x10000)
 619              		.loc 1 193 7 view .LVU118
 620 0018 013C     		subs	r4, r4, #1	@ ivtmp_37, ivtmp_37,
 621 001a 0FD0     		beq	.L57		@,
 622              	.LVL33:
 623              	.L52:
 179:../../peripheral_library/drv/drvMBX.c ****   {
 624              		.loc 1 179 3 is_stmt 1 view .LVU119
 181:../../peripheral_library/drv/drvMBX.c ****     if(E_MBX_SUCCESS != mbxResult)
 625              		.loc 1 181 5 view .LVU120
 626              	@ ../../peripheral_library/drv/drvMBX.c:181:     mbxResult = MHAL_MBX_GetFireStatus(eSrcRole, pMsg-
 181:../../peripheral_library/drv/drvMBX.c ****     if(E_MBX_SUCCESS != mbxResult)
 627              		.loc 1 181 17 is_stmt 0 view .LVU121
 628 001c 0DF10702 		add	r2, sp, #7	@ tmp156,,
 629 0020 2978     		ldrb	r1, [r5]	@ zero_extendqisi2	@, pMsg_23(D)->eRoleID
 630 0022 3046     		mov	r0, r6	@, eSrcRole
 631 0024 FFF7FEFF 		bl	MHAL_MBX_GetFireStatus		@
 632              	.LVL34:
 182:../../peripheral_library/drv/drvMBX.c ****     {
 633              		.loc 1 182 5 is_stmt 1 view .LVU122
 188:../../peripheral_library/drv/drvMBX.c ****       break;
 634              		.loc 1 188 5 view .LVU123
 192:../../peripheral_library/drv/drvMBX.c ****     if(u32WaitCnt >= 0x10000)
ARM GAS  /tmp/ccmKmm9N.s 			page 20


 635              		.loc 1 192 5 view .LVU124
 636              		.loc 1 193 5 view .LVU125
 637              	@ ../../peripheral_library/drv/drvMBX.c:182:     if(E_MBX_SUCCESS != mbxResult)
 182:../../peripheral_library/drv/drvMBX.c ****     {
 638              		.loc 1 182 7 is_stmt 0 view .LVU126
 639 0028 0028     		cmp	r0, #0	@ tmp136
 640 002a F2D0     		beq	.L55	@
 184:../../peripheral_library/drv/drvMBX.c ****       return E_MBX_ERR_INVALID_PARAM;
 641              		.loc 1 184 7 is_stmt 1 view .LVU127
 642 002c 1B4B     		ldr	r3, .L75	@ tmp137,
 643 002e 1B68     		ldr	r3, [r3]	@ gu32MosDbgLevel, gu32MosDbgLevel
 644 0030 DA07     		lsls	r2, r3, #31	@, gu32MosDbgLevel,
 645 0032 23D4     		bmi	.L73		@,
 646              	.LVL35:
 647              	.L71:
 648              	@ ../../peripheral_library/drv/drvMBX.c:176:     return E_MBX_ERR_INVALID_PARAM;
 176:../../peripheral_library/drv/drvMBX.c ****   }
 649              		.loc 1 176 12 is_stmt 0 discriminator 1 view .LVU128
 650 0034 0724     		movs	r4, #7	@ <retval>,
 651              	.L54:
 652              	@ ../../peripheral_library/drv/drvMBX.c:211: }
 194:../../peripheral_library/drv/drvMBX.c ****       break;
 195:../../peripheral_library/drv/drvMBX.c ****   }
 196:../../peripheral_library/drv/drvMBX.c ****   while(1);
 197:../../peripheral_library/drv/drvMBX.c **** 
 198:../../peripheral_library/drv/drvMBX.c ****   //mbxResult = _MDrv_MBX_SendMsg(pMsg, _mgrMBX.eMbxHostRole);
 199:../../peripheral_library/drv/drvMBX.c ****   MHAL_MBX_ClearAll(pMsg, eSrcRole);
 200:../../peripheral_library/drv/drvMBX.c ****   mbxResult = MHAL_MBX_Fire(pMsg, eSrcRole);
 201:../../peripheral_library/drv/drvMBX.c ****   if(E_MBX_SUCCESS == mbxResult)
 202:../../peripheral_library/drv/drvMBX.c ****   {
 203:../../peripheral_library/drv/drvMBX.c ****     MHal_CPUINT_Fire(_mgrMBX.eMbxRole2Cpu[pMsg->eRoleID], _mgrMBX.eMbxRole2Cpu[eSrcRole]);
 204:../../peripheral_library/drv/drvMBX.c ****   }
 205:../../peripheral_library/drv/drvMBX.c ****   else
 206:../../peripheral_library/drv/drvMBX.c ****   {
 207:../../peripheral_library/drv/drvMBX.c ****     MBX_ERROR("MDrv_MBX_SendMsg: MDrv_MBX_SendMsgExt Failed! Result=%d\r\n", mbxResult);
 208:../../peripheral_library/drv/drvMBX.c ****   }
 209:../../peripheral_library/drv/drvMBX.c **** 
 210:../../peripheral_library/drv/drvMBX.c ****   return mbxResult;
 211:../../peripheral_library/drv/drvMBX.c **** }
 653              		.loc 1 211 1 view .LVU129
 654 0036 2046     		mov	r0, r4	@, <retval>
 655 0038 02B0     		add	sp, sp, #8	@,,
 656              		.cfi_remember_state
 657              		.cfi_def_cfa_offset 16
 658              		@ sp needed	@
 659 003a 70BD     		pop	{r4, r5, r6, pc}	@
 660              	.LVL36:
 661              	.L57:
 662              		.cfi_restore_state
 199:../../peripheral_library/drv/drvMBX.c ****   mbxResult = MHAL_MBX_Fire(pMsg, eSrcRole);
 663              		.loc 1 199 3 is_stmt 1 view .LVU130
 664 003c 3146     		mov	r1, r6	@, eSrcRole
 665 003e 2846     		mov	r0, r5	@, pMsg
 666              	.LVL37:
 199:../../peripheral_library/drv/drvMBX.c ****   mbxResult = MHAL_MBX_Fire(pMsg, eSrcRole);
 667              		.loc 1 199 3 is_stmt 0 view .LVU131
 668 0040 FFF7FEFF 		bl	MHAL_MBX_ClearAll		@
ARM GAS  /tmp/ccmKmm9N.s 			page 21


 669              	.LVL38:
 200:../../peripheral_library/drv/drvMBX.c ****   if(E_MBX_SUCCESS == mbxResult)
 670              		.loc 1 200 3 is_stmt 1 view .LVU132
 671              	@ ../../peripheral_library/drv/drvMBX.c:200:   mbxResult = MHAL_MBX_Fire(pMsg, eSrcRole);
 200:../../peripheral_library/drv/drvMBX.c ****   if(E_MBX_SUCCESS == mbxResult)
 672              		.loc 1 200 15 is_stmt 0 view .LVU133
 673 0044 3146     		mov	r1, r6	@, eSrcRole
 674 0046 2846     		mov	r0, r5	@, pMsg
 675 0048 FFF7FEFF 		bl	MHAL_MBX_Fire		@
 676              	.LVL39:
 201:../../peripheral_library/drv/drvMBX.c ****   {
 677              		.loc 1 201 3 is_stmt 1 view .LVU134
 678              	@ ../../peripheral_library/drv/drvMBX.c:201:   if(E_MBX_SUCCESS == mbxResult)
 201:../../peripheral_library/drv/drvMBX.c ****   {
 679              		.loc 1 201 5 is_stmt 0 view .LVU135
 680 004c 0446     		mov	r4, r0	@ <retval>,
 681 004e 50B1     		cbz	r0, .L74	@ <retval>,
 207:../../peripheral_library/drv/drvMBX.c ****   }
 682              		.loc 1 207 5 is_stmt 1 view .LVU136
 683 0050 124B     		ldr	r3, .L75	@ tmp150,
 684 0052 1B68     		ldr	r3, [r3]	@ gu32MosDbgLevel, gu32MosDbgLevel
 685 0054 DB07     		lsls	r3, r3, #31	@, gu32MosDbgLevel,
 686 0056 EED5     		bpl	.L54		@,
 207:../../peripheral_library/drv/drvMBX.c ****   }
 687              		.loc 1 207 5 discriminator 1 view .LVU137
 688 0058 0146     		mov	r1, r0	@, <retval>
 689 005a 1148     		ldr	r0, .L75+4	@,
 690              	.LVL40:
 207:../../peripheral_library/drv/drvMBX.c ****   }
 691              		.loc 1 207 5 is_stmt 0 discriminator 1 view .LVU138
 692 005c FFF7FEFF 		bl	UartSendTrace		@
 693              	.LVL41:
 694              	@ ../../peripheral_library/drv/drvMBX.c:211: }
 695              		.loc 1 211 1 discriminator 1 view .LVU139
 696 0060 2046     		mov	r0, r4	@, <retval>
 697 0062 02B0     		add	sp, sp, #8	@,,
 698              		.cfi_remember_state
 699              		.cfi_def_cfa_offset 16
 700              		@ sp needed	@
 701 0064 70BD     		pop	{r4, r5, r6, pc}	@
 702              	.LVL42:
 703              	.L74:
 704              		.cfi_restore_state
 203:../../peripheral_library/drv/drvMBX.c ****   }
 705              		.loc 1 203 5 is_stmt 1 view .LVU140
 706              	@ ../../peripheral_library/drv/drvMBX.c:203:     MHal_CPUINT_Fire(_mgrMBX.eMbxRole2Cpu[pMsg->eRoleI
 203:../../peripheral_library/drv/drvMBX.c ****   }
 707              		.loc 1 203 47 is_stmt 0 view .LVU141
 708 0066 2A78     		ldrb	r2, [r5]	@ zero_extendqisi2	@ pMsg_23(D)->eRoleID, pMsg_23(D)->eRoleID
 709              	@ ../../peripheral_library/drv/drvMBX.c:203:     MHal_CPUINT_Fire(_mgrMBX.eMbxRole2Cpu[pMsg->eRoleI
 203:../../peripheral_library/drv/drvMBX.c ****   }
 710              		.loc 1 203 5 view .LVU142
 711 0068 0E4B     		ldr	r3, .L75+8	@ tmp143,
 712 006a 1A44     		add	r2, r2, r3	@ tmp148, tmp143
 713 006c 3344     		add	r3, r3, r6	@ tmp144, eSrcRole
 714 006e 5078     		ldrb	r0, [r2, #1]	@ zero_extendqisi2	@, _mgrMBX.eMbxRole2Cpu
 715              	.LVL43:
ARM GAS  /tmp/ccmKmm9N.s 			page 22


 203:../../peripheral_library/drv/drvMBX.c ****   }
 716              		.loc 1 203 5 view .LVU143
 717 0070 5978     		ldrb	r1, [r3, #1]	@ zero_extendqisi2	@, _mgrMBX.eMbxRole2Cpu
 718 0072 FFF7FEFF 		bl	MHal_CPUINT_Fire		@
 719              	.LVL44:
 720              	@ ../../peripheral_library/drv/drvMBX.c:211: }
 721              		.loc 1 211 1 view .LVU144
 722 0076 2046     		mov	r0, r4	@, <retval>
 723 0078 02B0     		add	sp, sp, #8	@,,
 724              		.cfi_remember_state
 725              		.cfi_def_cfa_offset 16
 726              		@ sp needed	@
 727 007a 70BD     		pop	{r4, r5, r6, pc}	@
 728              	.LVL45:
 729              	.L73:
 730              		.cfi_restore_state
 184:../../peripheral_library/drv/drvMBX.c ****       return E_MBX_ERR_INVALID_PARAM;
 731              		.loc 1 184 7 is_stmt 1 discriminator 1 view .LVU145
 732 007c 0146     		mov	r1, r0	@, tmp136
 733 007e 0A48     		ldr	r0, .L75+12	@,
 734              	.LVL46:
 184:../../peripheral_library/drv/drvMBX.c ****       return E_MBX_ERR_INVALID_PARAM;
 735              		.loc 1 184 7 is_stmt 0 discriminator 1 view .LVU146
 736 0080 FFF7FEFF 		bl	UartSendTrace		@
 737              	.LVL47:
 738              	@ ../../peripheral_library/drv/drvMBX.c:185:       return E_MBX_ERR_INVALID_PARAM;
 185:../../peripheral_library/drv/drvMBX.c ****     }
 739              		.loc 1 185 14 discriminator 1 view .LVU147
 740 0084 0724     		movs	r4, #7	@ <retval>,
 741              	@ ../../peripheral_library/drv/drvMBX.c:211: }
 742              		.loc 1 211 1 discriminator 1 view .LVU148
 743 0086 2046     		mov	r0, r4	@, <retval>
 744 0088 02B0     		add	sp, sp, #8	@,,
 745              		.cfi_remember_state
 746              		.cfi_def_cfa_offset 16
 747              		@ sp needed	@
 748 008a 70BD     		pop	{r4, r5, r6, pc}	@
 749              	.LVL48:
 750              	.L72:
 751              		.cfi_restore_state
 175:../../peripheral_library/drv/drvMBX.c ****     return E_MBX_ERR_INVALID_PARAM;
 752              		.loc 1 175 5 is_stmt 1 view .LVU149
 753 008c 034B     		ldr	r3, .L75	@ tmp130,
 754 008e 1B68     		ldr	r3, [r3]	@ gu32MosDbgLevel, gu32MosDbgLevel
 755 0090 D907     		lsls	r1, r3, #31	@, gu32MosDbgLevel,
 756              	.LVL49:
 175:../../peripheral_library/drv/drvMBX.c ****     return E_MBX_ERR_INVALID_PARAM;
 757              		.loc 1 175 5 is_stmt 0 view .LVU150
 758 0092 CFD5     		bpl	.L71		@,
 175:../../peripheral_library/drv/drvMBX.c ****     return E_MBX_ERR_INVALID_PARAM;
 759              		.loc 1 175 5 is_stmt 1 discriminator 1 view .LVU151
 760 0094 0548     		ldr	r0, .L75+16	@,
 761              	.LVL50:
 175:../../peripheral_library/drv/drvMBX.c ****     return E_MBX_ERR_INVALID_PARAM;
 762              		.loc 1 175 5 is_stmt 0 discriminator 1 view .LVU152
 763 0096 FFF7FEFF 		bl	UartSendTrace		@
 764              	.LVL51:
ARM GAS  /tmp/ccmKmm9N.s 			page 23


 765 009a CBE7     		b	.L71		@
 766              	.L76:
 767              		.align	2
 768              	.L75:
 769 009c 00000000 		.word	gu32MosDbgLevel
 770 00a0 84000000 		.word	.LC6
 771 00a4 00000000 		.word	.LANCHOR0
 772 00a8 3C000000 		.word	.LC5
 773 00ac 00000000 		.word	.LC4
 774              		.cfi_endproc
 775              	.LFE137:
 776              		.size	MDrv_MBX_SendMsgExt, .-MDrv_MBX_SendMsgExt
 777              		.section	.text.MDrv_MBX_RecvMsg,"ax",%progbits
 778              		.align	1
 779              		.p2align 2,,3
 780              		.global	MDrv_MBX_RecvMsg
 781              		.syntax unified
 782              		.thumb
 783              		.thumb_func
 784              		.fpu fpv4-sp-d16
 785              		.type	MDrv_MBX_RecvMsg, %function
 786              	MDrv_MBX_RecvMsg:
 787              	.LVL52:
 788              	.LFB138:
 212:../../peripheral_library/drv/drvMBX.c **** 
 213:../../peripheral_library/drv/drvMBX.c **** 
 214:../../peripheral_library/drv/drvMBX.c **** MBX_Result MDrv_MBX_RecvMsg(MBX_Msg *pMsg, BOOL bBlock)
 215:../../peripheral_library/drv/drvMBX.c **** {
 789              		.loc 1 215 1 is_stmt 1 view -0
 790              		.cfi_startproc
 791              		@ args = 0, pretend = 0, frame = 0
 792              		@ frame_needed = 0, uses_anonymous_args = 0
 216:../../peripheral_library/drv/drvMBX.c ****   TickType_t xTicksToWait;
 793              		.loc 1 216 3 view .LVU154
 217:../../peripheral_library/drv/drvMBX.c ****   MBX_Result mbxResult = E_MBX_SUCCESS;
 794              		.loc 1 217 3 view .LVU155
 218:../../peripheral_library/drv/drvMBX.c **** 
 219:../../peripheral_library/drv/drvMBX.c ****   //parameter check:
 220:../../peripheral_library/drv/drvMBX.c ****   if((pMsg == NULL))
 795              		.loc 1 220 3 view .LVU156
 796              	@ ../../peripheral_library/drv/drvMBX.c:215: {
 215:../../peripheral_library/drv/drvMBX.c ****   TickType_t xTicksToWait;
 797              		.loc 1 215 1 is_stmt 0 view .LVU157
 798 0000 70B5     		push	{r4, r5, r6, lr}	@
 799              		.cfi_def_cfa_offset 16
 800              		.cfi_offset 4, -16
 801              		.cfi_offset 5, -12
 802              		.cfi_offset 6, -8
 803              		.cfi_offset 14, -4
 804              	@ ../../peripheral_library/drv/drvMBX.c:220:   if((pMsg == NULL))
 805              		.loc 1 220 5 view .LVU158
 806 0002 50B3     		cbz	r0, .L95	@ pMsg,
 221:../../peripheral_library/drv/drvMBX.c ****   {
 222:../../peripheral_library/drv/drvMBX.c ****     MBX_ERROR("MDrv_MBX_RecvMsg: E_MBX_ERR_INVALID_PARAM!\r\n");
 223:../../peripheral_library/drv/drvMBX.c ****     return E_MBX_ERR_INVALID_PARAM;
 224:../../peripheral_library/drv/drvMBX.c ****   }
 225:../../peripheral_library/drv/drvMBX.c **** 
ARM GAS  /tmp/ccmKmm9N.s 			page 24


 226:../../peripheral_library/drv/drvMBX.c ****   if(bBlock)
 807              		.loc 1 226 3 is_stmt 1 view .LVU159
 808 0004 1A4D     		ldr	r5, .L98	@ tmp138,
 809 0006 0646     		mov	r6, r0	@ pMsg, pMsg
 810 0008 0C46     		mov	r4, r1	@ bBlock, bBlock
 811 000a A86A     		ldr	r0, [r5, #40]	@ pretmp_27, _mgrMBX.eMbxIntNum
 812              	.LVL53:
 813              	@ ../../peripheral_library/drv/drvMBX.c:226:   if(bBlock)
 814              		.loc 1 226 5 is_stmt 0 view .LVU160
 815 000c 51B9     		cbnz	r1, .L96	@ bBlock,
 227:../../peripheral_library/drv/drvMBX.c ****   {
 228:../../peripheral_library/drv/drvMBX.c ****     xTicksToWait = portMAX_DELAY;
 229:../../peripheral_library/drv/drvMBX.c ****     MOS_IRQn_Unmask(_mgrMBX.eMbxIntNum);
 230:../../peripheral_library/drv/drvMBX.c ****   }
 231:../../peripheral_library/drv/drvMBX.c ****   else
 232:../../peripheral_library/drv/drvMBX.c ****   {
 233:../../peripheral_library/drv/drvMBX.c ****     xTicksToWait = 0;
 816              		.loc 1 233 5 is_stmt 1 view .LVU161
 817              	.LVL54:
 234:../../peripheral_library/drv/drvMBX.c ****     MOS_IRQn_Mask(_mgrMBX.eMbxIntNum);
 818              		.loc 1 234 5 view .LVU162
 819 000e FFF7FEFF 		bl	MOS_IRQn_Mask		@
 820              	.LVL55:
 821              	@ ../../peripheral_library/drv/drvMBX.c:233:     xTicksToWait = 0;
 233:../../peripheral_library/drv/drvMBX.c ****     MOS_IRQn_Mask(_mgrMBX.eMbxIntNum);
 822              		.loc 1 233 18 is_stmt 0 view .LVU163
 823 0012 2146     		mov	r1, r4	@ xTicksToWait, bBlock
 824              	.LVL56:
 235:../../peripheral_library/drv/drvMBX.c ****   }
 236:../../peripheral_library/drv/drvMBX.c **** 
 237:../../peripheral_library/drv/drvMBX.c ****   if(xSemaphoreTake(_mgrMBX.tMbxIntSem, xTicksToWait) == pdPASS)
 825              		.loc 1 237 3 is_stmt 1 view .LVU164
 826              	@ ../../peripheral_library/drv/drvMBX.c:237:   if(xSemaphoreTake(_mgrMBX.tMbxIntSem, xTicksToWait) 
 827              		.loc 1 237 6 is_stmt 0 view .LVU165
 828 0014 286A     		ldr	r0, [r5, #32]	@, _mgrMBX.tMbxIntSem
 829 0016 FFF7FEFF 		bl	xQueueSemaphoreTake		@
 830              	.LVL57:
 831              	@ ../../peripheral_library/drv/drvMBX.c:237:   if(xSemaphoreTake(_mgrMBX.tMbxIntSem, xTicksToWait) 
 832              		.loc 1 237 5 view .LVU166
 833 001a 0128     		cmp	r0, #1	@,
 834 001c 0BD0     		beq	.L82		@,
 835              	.LVL58:
 836              	.L83:
 837              	@ ../../peripheral_library/drv/drvMBX.c:217:   MBX_Result mbxResult = E_MBX_SUCCESS;
 217:../../peripheral_library/drv/drvMBX.c **** 
 838              		.loc 1 217 14 view .LVU167
 839 001e 0024     		movs	r4, #0	@ <retval>,
 840              	.LVL59:
 841              	.L79:
 842              	@ ../../peripheral_library/drv/drvMBX.c:246: }
 238:../../peripheral_library/drv/drvMBX.c ****     mbxResult = MHAL_MBX_Recv(pMsg,  _mgrMBX.eMbxHostRole);
 239:../../peripheral_library/drv/drvMBX.c **** 
 240:../../peripheral_library/drv/drvMBX.c ****   if((E_MBX_SUCCESS != mbxResult) && (E_MBX_ERR_NO_MORE_MSG != mbxResult))
 241:../../peripheral_library/drv/drvMBX.c ****   {
 242:../../peripheral_library/drv/drvMBX.c ****     MBX_ERROR("MDrv_MBX_RecvMsg: Failed! Result=%d\r\n", mbxResult);
 243:../../peripheral_library/drv/drvMBX.c ****   }
 244:../../peripheral_library/drv/drvMBX.c **** 
ARM GAS  /tmp/ccmKmm9N.s 			page 25


 245:../../peripheral_library/drv/drvMBX.c ****   return mbxResult;
 246:../../peripheral_library/drv/drvMBX.c **** }
 843              		.loc 1 246 1 view .LVU168
 844 0020 2046     		mov	r0, r4	@, <retval>
 845 0022 70BD     		pop	{r4, r5, r6, pc}	@
 846              	.LVL60:
 847              	.L96:
 228:../../peripheral_library/drv/drvMBX.c ****     MOS_IRQn_Unmask(_mgrMBX.eMbxIntNum);
 848              		.loc 1 228 5 is_stmt 1 view .LVU169
 229:../../peripheral_library/drv/drvMBX.c ****   }
 849              		.loc 1 229 5 view .LVU170
 850 0024 FFF7FEFF 		bl	MOS_IRQn_Unmask		@
 851              	.LVL61:
 852              	@ ../../peripheral_library/drv/drvMBX.c:228:     xTicksToWait = portMAX_DELAY;
 228:../../peripheral_library/drv/drvMBX.c ****     MOS_IRQn_Unmask(_mgrMBX.eMbxIntNum);
 853              		.loc 1 228 18 is_stmt 0 view .LVU171
 854 0028 4FF0FF31 		mov	r1, #-1	@ xTicksToWait,
 855              	.LVL62:
 237:../../peripheral_library/drv/drvMBX.c ****     mbxResult = MHAL_MBX_Recv(pMsg,  _mgrMBX.eMbxHostRole);
 856              		.loc 1 237 3 is_stmt 1 view .LVU172
 857              	@ ../../peripheral_library/drv/drvMBX.c:237:   if(xSemaphoreTake(_mgrMBX.tMbxIntSem, xTicksToWait) 
 237:../../peripheral_library/drv/drvMBX.c ****     mbxResult = MHAL_MBX_Recv(pMsg,  _mgrMBX.eMbxHostRole);
 858              		.loc 1 237 6 is_stmt 0 view .LVU173
 859 002c 286A     		ldr	r0, [r5, #32]	@, _mgrMBX.tMbxIntSem
 860 002e FFF7FEFF 		bl	xQueueSemaphoreTake		@
 861              	.LVL63:
 862              	@ ../../peripheral_library/drv/drvMBX.c:237:   if(xSemaphoreTake(_mgrMBX.tMbxIntSem, xTicksToWait) 
 237:../../peripheral_library/drv/drvMBX.c ****     mbxResult = MHAL_MBX_Recv(pMsg,  _mgrMBX.eMbxHostRole);
 863              		.loc 1 237 5 view .LVU174
 864 0032 0128     		cmp	r0, #1	@,
 865 0034 F3D1     		bne	.L83		@,
 866              	.LVL64:
 867              	.L82:
 238:../../peripheral_library/drv/drvMBX.c **** 
 868              		.loc 1 238 5 is_stmt 1 view .LVU175
 869              	@ ../../peripheral_library/drv/drvMBX.c:238:     mbxResult = MHAL_MBX_Recv(pMsg,  _mgrMBX.eMbxHostR
 238:../../peripheral_library/drv/drvMBX.c **** 
 870              		.loc 1 238 17 is_stmt 0 view .LVU176
 871 0036 2978     		ldrb	r1, [r5]	@ zero_extendqisi2	@, _mgrMBX.eMbxHostRole
 872 0038 3046     		mov	r0, r6	@, pMsg
 873 003a FFF7FEFF 		bl	MHAL_MBX_Recv		@
 874              	.LVL65:
 240:../../peripheral_library/drv/drvMBX.c ****   {
 875              		.loc 1 240 3 is_stmt 1 view .LVU177
 876              	@ ../../peripheral_library/drv/drvMBX.c:240:   if((E_MBX_SUCCESS != mbxResult) && (E_MBX_ERR_NO_MOR
 240:../../peripheral_library/drv/drvMBX.c ****   {
 877              		.loc 1 240 5 is_stmt 0 view .LVU178
 878 003e 0446     		mov	r4, r0	@ <retval>,
 879 0040 0028     		cmp	r0, #0	@ <retval>
 880 0042 ECD0     		beq	.L83	@
 881              	@ ../../peripheral_library/drv/drvMBX.c:240:   if((E_MBX_SUCCESS != mbxResult) && (E_MBX_ERR_NO_MOR
 240:../../peripheral_library/drv/drvMBX.c ****   {
 882              		.loc 1 240 35 discriminator 1 view .LVU179
 883 0044 0E28     		cmp	r0, #14	@ <retval>,
 884 0046 EBD0     		beq	.L79		@,
 242:../../peripheral_library/drv/drvMBX.c ****   }
 885              		.loc 1 242 5 is_stmt 1 view .LVU180
ARM GAS  /tmp/ccmKmm9N.s 			page 26


 886 0048 0A4B     		ldr	r3, .L98+4	@ tmp133,
 887 004a 1B68     		ldr	r3, [r3]	@ gu32MosDbgLevel, gu32MosDbgLevel
 888 004c DB07     		lsls	r3, r3, #31	@, gu32MosDbgLevel,
 889 004e E7D5     		bpl	.L79		@,
 242:../../peripheral_library/drv/drvMBX.c ****   }
 890              		.loc 1 242 5 discriminator 1 view .LVU181
 891 0050 0146     		mov	r1, r0	@, <retval>
 892 0052 0948     		ldr	r0, .L98+8	@,
 893              	.LVL66:
 242:../../peripheral_library/drv/drvMBX.c ****   }
 894              		.loc 1 242 5 is_stmt 0 discriminator 1 view .LVU182
 895 0054 FFF7FEFF 		bl	UartSendTrace		@
 896              	.LVL67:
 897 0058 E2E7     		b	.L79		@
 898              	.LVL68:
 899              	.L95:
 222:../../peripheral_library/drv/drvMBX.c ****     return E_MBX_ERR_INVALID_PARAM;
 900              		.loc 1 222 5 is_stmt 1 view .LVU183
 901 005a 064B     		ldr	r3, .L98+4	@ tmp123,
 902 005c 1B68     		ldr	r3, [r3]	@ gu32MosDbgLevel, gu32MosDbgLevel
 903 005e DA07     		lsls	r2, r3, #31	@, gu32MosDbgLevel,
 904 0060 01D4     		bmi	.L97		@,
 905              	@ ../../peripheral_library/drv/drvMBX.c:223:     return E_MBX_ERR_INVALID_PARAM;
 223:../../peripheral_library/drv/drvMBX.c ****   }
 906              		.loc 1 223 12 is_stmt 0 view .LVU184
 907 0062 0724     		movs	r4, #7	@ <retval>,
 908 0064 DCE7     		b	.L79		@
 909              	.L97:
 222:../../peripheral_library/drv/drvMBX.c ****     return E_MBX_ERR_INVALID_PARAM;
 910              		.loc 1 222 5 is_stmt 1 discriminator 1 view .LVU185
 911 0066 0548     		ldr	r0, .L98+12	@,
 912              	.LVL69:
 222:../../peripheral_library/drv/drvMBX.c ****     return E_MBX_ERR_INVALID_PARAM;
 913              		.loc 1 222 5 is_stmt 0 discriminator 1 view .LVU186
 914 0068 FFF7FEFF 		bl	UartSendTrace		@
 915              	.LVL70:
 916              	@ ../../peripheral_library/drv/drvMBX.c:223:     return E_MBX_ERR_INVALID_PARAM;
 223:../../peripheral_library/drv/drvMBX.c ****   }
 917              		.loc 1 223 12 discriminator 1 view .LVU187
 918 006c 0724     		movs	r4, #7	@ <retval>,
 919 006e D7E7     		b	.L79		@
 920              	.L99:
 921              		.align	2
 922              	.L98:
 923 0070 00000000 		.word	.LANCHOR0
 924 0074 00000000 		.word	gu32MosDbgLevel
 925 0078 38000000 		.word	.LC8
 926 007c 00000000 		.word	.LC7
 927              		.cfi_endproc
 928              	.LFE138:
 929              		.size	MDrv_MBX_RecvMsg, .-MDrv_MBX_RecvMsg
 930              		.section	.text.MDrv_MBX_RecvMsgEnd,"ax",%progbits
 931              		.align	1
 932              		.p2align 2,,3
 933              		.global	MDrv_MBX_RecvMsgEnd
 934              		.syntax unified
 935              		.thumb
ARM GAS  /tmp/ccmKmm9N.s 			page 27


 936              		.thumb_func
 937              		.fpu fpv4-sp-d16
 938              		.type	MDrv_MBX_RecvMsgEnd, %function
 939              	MDrv_MBX_RecvMsgEnd:
 940              	.LVL71:
 941              	.LFB139:
 247:../../peripheral_library/drv/drvMBX.c **** 
 248:../../peripheral_library/drv/drvMBX.c **** 
 249:../../peripheral_library/drv/drvMBX.c **** MBX_Result MDrv_MBX_RecvMsgEnd(MBX_Msg *pMsg)
 250:../../peripheral_library/drv/drvMBX.c **** {
 942              		.loc 1 250 1 is_stmt 1 view -0
 943              		.cfi_startproc
 944              		@ args = 0, pretend = 0, frame = 0
 945              		@ frame_needed = 0, uses_anonymous_args = 0
 946              		@ link register save eliminated.
 251:../../peripheral_library/drv/drvMBX.c ****   MBX_Result mbxResult = E_MBX_SUCCESS;
 947              		.loc 1 251 3 view .LVU189
 252:../../peripheral_library/drv/drvMBX.c **** 
 253:../../peripheral_library/drv/drvMBX.c ****   mbxResult = MHAL_MBX_RecvEnd(pMsg->eRoleID, _mgrMBX.eMbxHostRole, E_MBXHAL_RECV_SUCCESS);
 948              		.loc 1 253 3 view .LVU190
 949              	@ ../../peripheral_library/drv/drvMBX.c:253:   mbxResult = MHAL_MBX_RecvEnd(pMsg->eRoleID, _mgrMBX.
 950              		.loc 1 253 15 is_stmt 0 view .LVU191
 951 0000 024B     		ldr	r3, .L101	@ tmp114,
 952 0002 0078     		ldrb	r0, [r0]	@ zero_extendqisi2	@, pMsg_4(D)->eRoleID
 953              	.LVL72:
 954              		.loc 1 253 15 view .LVU192
 955 0004 1978     		ldrb	r1, [r3]	@ zero_extendqisi2	@, _mgrMBX.eMbxHostRole
 956 0006 0022     		movs	r2, #0	@,
 957 0008 FFF7FEBF 		b	MHAL_MBX_RecvEnd		@
 958              	.LVL73:
 959              	.L102:
 960              		.align	2
 961              	.L101:
 962 000c 00000000 		.word	.LANCHOR0
 963              		.cfi_endproc
 964              	.LFE139:
 965              		.size	MDrv_MBX_RecvMsgEnd, .-MDrv_MBX_RecvMsgEnd
 966              		.section	.text.MDrv_MBX_RecvMsgEndExt,"ax",%progbits
 967              		.align	1
 968              		.p2align 2,,3
 969              		.global	MDrv_MBX_RecvMsgEndExt
 970              		.syntax unified
 971              		.thumb
 972              		.thumb_func
 973              		.fpu fpv4-sp-d16
 974              		.type	MDrv_MBX_RecvMsgEndExt, %function
 975              	MDrv_MBX_RecvMsgEndExt:
 976              	.LVL74:
 977              	.LFB140:
 254:../../peripheral_library/drv/drvMBX.c **** 
 255:../../peripheral_library/drv/drvMBX.c ****   return mbxResult;
 256:../../peripheral_library/drv/drvMBX.c **** }
 257:../../peripheral_library/drv/drvMBX.c **** 
 258:../../peripheral_library/drv/drvMBX.c **** MBX_Result MDrv_MBX_RecvMsgEndExt(MBX_Msg *pMsg, BOOL bSuccess)
 259:../../peripheral_library/drv/drvMBX.c **** {
 978              		.loc 1 259 1 is_stmt 1 view -0
 979              		.cfi_startproc
ARM GAS  /tmp/ccmKmm9N.s 			page 28


 980              		@ args = 0, pretend = 0, frame = 0
 981              		@ frame_needed = 0, uses_anonymous_args = 0
 982              		@ link register save eliminated.
 260:../../peripheral_library/drv/drvMBX.c ****   MBX_Result mbxResult;
 983              		.loc 1 260 3 view .LVU194
 261:../../peripheral_library/drv/drvMBX.c **** 
 262:../../peripheral_library/drv/drvMBX.c ****   mbxResult = MHAL_MBX_RecvEndExt(pMsg->eRoleID, _mgrMBX.eMbxHostRole, bSuccess);
 984              		.loc 1 262 3 view .LVU195
 985              	@ ../../peripheral_library/drv/drvMBX.c:262:   mbxResult = MHAL_MBX_RecvEndExt(pMsg->eRoleID, _mgrM
 986              		.loc 1 262 15 is_stmt 0 view .LVU196
 987 0000 024B     		ldr	r3, .L104	@ tmp115,
 988 0002 0078     		ldrb	r0, [r0]	@ zero_extendqisi2	@, pMsg_4(D)->eRoleID
 989              	.LVL75:
 990              		.loc 1 262 15 view .LVU197
 991 0004 0A46     		mov	r2, r1	@, bSuccess
 992 0006 1978     		ldrb	r1, [r3]	@ zero_extendqisi2	@, _mgrMBX.eMbxHostRole
 993              	.LVL76:
 994              		.loc 1 262 15 view .LVU198
 995 0008 FFF7FEBF 		b	MHAL_MBX_RecvEndExt		@
 996              	.LVL77:
 997              	.L105:
 998              		.align	2
 999              	.L104:
 1000 000c 00000000 		.word	.LANCHOR0
 1001              		.cfi_endproc
 1002              	.LFE140:
 1003              		.size	MDrv_MBX_RecvMsgEndExt, .-MDrv_MBX_RecvMsgEndExt
 1004              		.section	.text.MDrv_MBX_RecvMsgISR,"ax",%progbits
 1005              		.align	1
 1006              		.p2align 2,,3
 1007              		.global	MDrv_MBX_RecvMsgISR
 1008              		.syntax unified
 1009              		.thumb
 1010              		.thumb_func
 1011              		.fpu fpv4-sp-d16
 1012              		.type	MDrv_MBX_RecvMsgISR, %function
 1013              	MDrv_MBX_RecvMsgISR:
 1014              	.LVL78:
 1015              	.LFB141:
 263:../../peripheral_library/drv/drvMBX.c **** 
 264:../../peripheral_library/drv/drvMBX.c ****   return mbxResult;
 265:../../peripheral_library/drv/drvMBX.c **** }
 266:../../peripheral_library/drv/drvMBX.c **** 
 267:../../peripheral_library/drv/drvMBX.c **** MBX_Result MDrv_MBX_RecvMsgISR(MBX_Msg *pMsg)
 268:../../peripheral_library/drv/drvMBX.c **** {
 1016              		.loc 1 268 1 is_stmt 1 view -0
 1017              		.cfi_startproc
 1018              		@ args = 0, pretend = 0, frame = 0
 1019              		@ frame_needed = 0, uses_anonymous_args = 0
 269:../../peripheral_library/drv/drvMBX.c ****   MBX_Result mbxResult = E_MBX_SUCCESS;
 1020              		.loc 1 269 3 view .LVU200
 270:../../peripheral_library/drv/drvMBX.c **** 
 271:../../peripheral_library/drv/drvMBX.c ****   //parameter check:
 272:../../peripheral_library/drv/drvMBX.c ****   if((pMsg == NULL))
 1021              		.loc 1 272 3 view .LVU201
 1022              	@ ../../peripheral_library/drv/drvMBX.c:268: {
 268:../../peripheral_library/drv/drvMBX.c ****   MBX_Result mbxResult = E_MBX_SUCCESS;
ARM GAS  /tmp/ccmKmm9N.s 			page 29


 1023              		.loc 1 268 1 is_stmt 0 view .LVU202
 1024 0000 10B5     		push	{r4, lr}	@
 1025              		.cfi_def_cfa_offset 8
 1026              		.cfi_offset 4, -8
 1027              		.cfi_offset 14, -4
 1028              	@ ../../peripheral_library/drv/drvMBX.c:272:   if((pMsg == NULL))
 1029              		.loc 1 272 5 view .LVU203
 1030 0002 90B1     		cbz	r0, .L120	@ pMsg,
 273:../../peripheral_library/drv/drvMBX.c ****   {
 274:../../peripheral_library/drv/drvMBX.c ****     MBX_ERROR("MDrv_MBX_RecvMsg: E_MBX_ERR_INVALID_PARAM!\r\n");
 275:../../peripheral_library/drv/drvMBX.c ****     return E_MBX_ERR_INVALID_PARAM;
 276:../../peripheral_library/drv/drvMBX.c ****   }
 277:../../peripheral_library/drv/drvMBX.c **** 
 278:../../peripheral_library/drv/drvMBX.c ****   mbxResult = MHAL_MBX_Recv(pMsg,  _mgrMBX.eMbxHostRole);
 1031              		.loc 1 278 3 is_stmt 1 view .LVU204
 1032              	@ ../../peripheral_library/drv/drvMBX.c:278:   mbxResult = MHAL_MBX_Recv(pMsg,  _mgrMBX.eMbxHostRol
 1033              		.loc 1 278 15 is_stmt 0 view .LVU205
 1034 0004 0F4B     		ldr	r3, .L123	@ tmp122,
 1035 0006 1978     		ldrb	r1, [r3]	@ zero_extendqisi2	@, _mgrMBX.eMbxHostRole
 1036 0008 FFF7FEFF 		bl	MHAL_MBX_Recv		@
 1037              	.LVL79:
 279:../../peripheral_library/drv/drvMBX.c **** 
 280:../../peripheral_library/drv/drvMBX.c ****   if((E_MBX_SUCCESS != mbxResult) && (E_MBX_ERR_NO_MORE_MSG != mbxResult))
 1038              		.loc 1 280 3 is_stmt 1 view .LVU206
 1039              	@ ../../peripheral_library/drv/drvMBX.c:280:   if((E_MBX_SUCCESS != mbxResult) && (E_MBX_ERR_NO_MOR
 1040              		.loc 1 280 5 is_stmt 0 view .LVU207
 1041 000c 0446     		mov	r4, r0	@ <retval>,
 1042 000e 28B1     		cbz	r0, .L108	@ <retval>,
 1043              	@ ../../peripheral_library/drv/drvMBX.c:280:   if((E_MBX_SUCCESS != mbxResult) && (E_MBX_ERR_NO_MOR
 1044              		.loc 1 280 35 discriminator 1 view .LVU208
 1045 0010 0E28     		cmp	r0, #14	@ <retval>,
 1046 0012 03D0     		beq	.L108		@,
 281:../../peripheral_library/drv/drvMBX.c ****   {
 282:../../peripheral_library/drv/drvMBX.c ****     MBX_ERROR("MDrv_MBX_SendMsgISR: MDrv_MBX_RecvMsg Failed! Result=%d\r\n", mbxResult);
 1047              		.loc 1 282 5 is_stmt 1 view .LVU209
 1048 0014 0C4B     		ldr	r3, .L123+4	@ tmp125,
 1049 0016 1B68     		ldr	r3, [r3]	@ gu32MosDbgLevel, gu32MosDbgLevel
 1050 0018 DB07     		lsls	r3, r3, #31	@, gu32MosDbgLevel,
 1051 001a 01D4     		bmi	.L121		@,
 1052              	.LVL80:
 1053              	.L108:
 1054              	@ ../../peripheral_library/drv/drvMBX.c:286: }
 283:../../peripheral_library/drv/drvMBX.c ****   }
 284:../../peripheral_library/drv/drvMBX.c **** 
 285:../../peripheral_library/drv/drvMBX.c ****   return mbxResult;
 286:../../peripheral_library/drv/drvMBX.c **** }
 1055              		.loc 1 286 1 is_stmt 0 view .LVU210
 1056 001c 2046     		mov	r0, r4	@, <retval>
 1057 001e 10BD     		pop	{r4, pc}	@
 1058              	.LVL81:
 1059              	.L121:
 282:../../peripheral_library/drv/drvMBX.c ****   }
 1060              		.loc 1 282 5 is_stmt 1 discriminator 1 view .LVU211
 1061 0020 0146     		mov	r1, r0	@, <retval>
 1062 0022 0A48     		ldr	r0, .L123+8	@,
 1063              	.LVL82:
 282:../../peripheral_library/drv/drvMBX.c ****   }
ARM GAS  /tmp/ccmKmm9N.s 			page 30


 1064              		.loc 1 282 5 is_stmt 0 discriminator 1 view .LVU212
 1065 0024 FFF7FEFF 		bl	UartSendTrace		@
 1066              	.LVL83:
 1067 0028 F8E7     		b	.L108		@
 1068              	.LVL84:
 1069              	.L120:
 274:../../peripheral_library/drv/drvMBX.c ****     return E_MBX_ERR_INVALID_PARAM;
 1070              		.loc 1 274 5 is_stmt 1 view .LVU213
 1071 002a 074B     		ldr	r3, .L123+4	@ tmp118,
 1072 002c 1B68     		ldr	r3, [r3]	@ gu32MosDbgLevel, gu32MosDbgLevel
 1073 002e DA07     		lsls	r2, r3, #31	@, gu32MosDbgLevel,
 1074 0030 02D4     		bmi	.L122		@,
 1075              	@ ../../peripheral_library/drv/drvMBX.c:275:     return E_MBX_ERR_INVALID_PARAM;
 275:../../peripheral_library/drv/drvMBX.c ****   }
 1076              		.loc 1 275 12 is_stmt 0 view .LVU214
 1077 0032 0724     		movs	r4, #7	@ <retval>,
 1078              	@ ../../peripheral_library/drv/drvMBX.c:286: }
 1079              		.loc 1 286 1 view .LVU215
 1080 0034 2046     		mov	r0, r4	@, <retval>
 1081              	.LVL85:
 1082              		.loc 1 286 1 view .LVU216
 1083 0036 10BD     		pop	{r4, pc}	@
 1084              	.LVL86:
 1085              	.L122:
 274:../../peripheral_library/drv/drvMBX.c ****     return E_MBX_ERR_INVALID_PARAM;
 1086              		.loc 1 274 5 is_stmt 1 discriminator 1 view .LVU217
 1087 0038 0548     		ldr	r0, .L123+12	@,
 1088              	.LVL87:
 274:../../peripheral_library/drv/drvMBX.c ****     return E_MBX_ERR_INVALID_PARAM;
 1089              		.loc 1 274 5 is_stmt 0 discriminator 1 view .LVU218
 1090 003a FFF7FEFF 		bl	UartSendTrace		@
 1091              	.LVL88:
 1092              	@ ../../peripheral_library/drv/drvMBX.c:275:     return E_MBX_ERR_INVALID_PARAM;
 275:../../peripheral_library/drv/drvMBX.c ****   }
 1093              		.loc 1 275 12 discriminator 1 view .LVU219
 1094 003e 0724     		movs	r4, #7	@ <retval>,
 1095 0040 ECE7     		b	.L108		@
 1096              	.L124:
 1097 0042 00BF     		.align	2
 1098              	.L123:
 1099 0044 00000000 		.word	.LANCHOR0
 1100 0048 00000000 		.word	gu32MosDbgLevel
 1101 004c 00000000 		.word	.LC9
 1102 0050 00000000 		.word	.LC7
 1103              		.cfi_endproc
 1104              	.LFE141:
 1105              		.size	MDrv_MBX_RecvMsgISR, .-MDrv_MBX_RecvMsgISR
 1106              		.section	.data._mgrMBX,"aw"
 1107              		.align	2
 1108              		.set	.LANCHOR0,. + 0
 1109              		.type	_mgrMBX, %object
 1110              		.size	_mgrMBX, 44
 1111              	_mgrMBX:
 1112              	@ eMbxHostRole:
 1113 0000 02       		.byte	2
 1114              	@ s32RefCnt:
 1115 0001 00000000 		.space	7
ARM GAS  /tmp/ccmKmm9N.s 			page 31


 1115      000000
 1116 0008 00000000 		.word	0
 1117              	@ bMsgRecvEnable:
 1118 000c 00       		.byte	0
 1119              	@ bInInterruptHandler:
 1120 000d 00       		.byte	0
 1121              	@ s32SendMutexMBX:
 1122 000e 00000000 		.space	6
 1122      0000
 1123 0014 FFFFFFFF 		.word	-1
 1124              	@ s32RecvMutexMBX:
 1125 0018 FFFFFFFF 		.word	-1
 1126              	@ u8DbgLevel:
 1127 001c 00       		.byte	0
 1128              	@ tMbxIntSem:
 1129 001d 000000   		.space	3
 1130 0020 00000000 		.word	0
 1131              	@ tMbxMutex:
 1132 0024 00000000 		.word	0
 1133 0028 00000000 		.space	4
 1134              		.section	.rodata.MDrv_MBX_RecvMsg.str1.4,"aMS",%progbits,1
 1135              		.align	2
 1136              	.LC7:
 1137 0000 5B4D4258 		.ascii	"[MBX ERR] MDrv_MBX_RecvMsg: E_MBX_ERR_INVALID_PARAM"
 1137      20455252 
 1137      5D204D44 
 1137      72765F4D 
 1137      42585F52 
 1138 0033 210D0A00 		.ascii	"!\015\012\000"
 1139 0037 00       		.space	1
 1140              	.LC8:
 1141 0038 5B4D4258 		.ascii	"[MBX ERR] MDrv_MBX_RecvMsg: Failed! Result=%d\015\012"
 1141      20455252 
 1141      5D204D44 
 1141      72765F4D 
 1141      42585F52 
 1142 0067 00       		.ascii	"\000"
 1143              		.section	.rodata.MDrv_MBX_RecvMsgISR.str1.4,"aMS",%progbits,1
 1144              		.align	2
 1145              	.LC9:
 1146 0000 5B4D4258 		.ascii	"[MBX ERR] MDrv_MBX_SendMsgISR: MDrv_MBX_RecvMsg Fai"
 1146      20455252 
 1146      5D204D44 
 1146      72765F4D 
 1146      42585F53 
 1147 0033 6C656421 		.ascii	"led! Result=%d\015\012\000"
 1147      20526573 
 1147      756C743D 
 1147      25640D0A 
 1147      00
 1148              		.section	.rodata.MDrv_MBX_SendMsg.str1.4,"aMS",%progbits,1
 1149              		.align	2
 1150              	.LC1:
 1151 0000 5B4D4258 		.ascii	"[MBX ERR] MDrv_MBX_SendMsg: E_MBX_ERR_INVALID_PARAM"
 1151      20455252 
 1151      5D204D44 
 1151      72765F4D 
ARM GAS  /tmp/ccmKmm9N.s 			page 32


 1151      42585F53 
 1152 0033 210D0A00 		.ascii	"!\015\012\000"
 1153 0037 00       		.space	1
 1154              	.LC2:
 1155 0038 5B4D4258 		.ascii	"[MBX ERR] MDrv_MBX_SendMsg: MHAL_MBX_GetFireStatus "
 1155      20455252 
 1155      5D204D44 
 1155      72765F4D 
 1155      42585F53 
 1156 006b 6661696C 		.ascii	"failed = %d\015\012 \000"
 1156      6564203D 
 1156      2025640D 
 1156      0A2000
 1157 007a 0000     		.space	2
 1158              	.LC3:
 1159 007c 5B4D4258 		.ascii	"[MBX ERR] MDrv_MBX_SendMsg: MHAL_MBX_Fire Failed! R"
 1159      20455252 
 1159      5D204D44 
 1159      72765F4D 
 1159      42585F53 
 1160 00af 6573756C 		.ascii	"esult=%d\015\012\000"
 1160      743D2564 
 1160      0D0A00
 1161              		.section	.rodata.MDrv_MBX_SendMsgExt.str1.4,"aMS",%progbits,1
 1162              		.align	2
 1163              	.LC4:
 1164 0000 5B4D4258 		.ascii	"[MBX ERR] MDrv_MBX_SendMsgExt: E_MBX_ERR_INVALID_PA"
 1164      20455252 
 1164      5D204D44 
 1164      72765F4D 
 1164      42585F53 
 1165 0033 52414D21 		.ascii	"RAM!\015\012\000"
 1165      0D0A00
 1166 003a 0000     		.space	2
 1167              	.LC5:
 1168 003c 5B4D4258 		.ascii	"[MBX ERR] MDrv_MBX_SendMsgExt: MHAL_MBX_GetFireStat"
 1168      20455252 
 1168      5D204D44 
 1168      72765F4D 
 1168      42585F53 
 1169 006f 75732066 		.ascii	"us failed = %d\015\012 \000"
 1169      61696C65 
 1169      64203D20 
 1169      25640D0A 
 1169      2000
 1170 0081 000000   		.space	3
 1171              	.LC6:
 1172 0084 5B4D4258 		.ascii	"[MBX ERR] MDrv_MBX_SendMsg: MDrv_MBX_SendMsgExt Fai"
 1172      20455252 
 1172      5D204D44 
 1172      72765F4D 
 1172      42585F53 
 1173 00b7 6C656421 		.ascii	"led! Result=%d\015\012\000"
 1173      20526573 
 1173      756C743D 
 1173      25640D0A 
 1173      00
ARM GAS  /tmp/ccmKmm9N.s 			page 33


 1174              		.section	.rodata.NVIC_Handler_MBX.str1.4,"aMS",%progbits,1
 1175              		.align	2
 1176              	.LC0:
 1177 0000 5B4D4258 		.ascii	"[MBX] NVIC_Handler_MBX ms = %d\015\012\000"
 1177      5D204E56 
 1177      49435F48 
 1177      616E646C 
 1177      65725F4D 
 1178              		.text
 1179              	.Letext0:
 1180              		.file 3 "/home/gu/code/freeRTOS10/vendor/mstar/CM4/tools/gcc-arm-none-eabi-8-2018-q4-major/arm-non
 1181              		.file 4 "/home/gu/code/freeRTOS10/vendor/mstar/CM4/tools/gcc-arm-none-eabi-8-2018-q4-major/arm-non
 1182              		.file 5 "/home/gu/code/freeRTOS10/vendor/mstar/CM4/tools/gcc-arm-none-eabi-8-2018-q4-major/arm-non
 1183              		.file 6 "/home/gu/code/freeRTOS10/vendor/mstar/CM4/tools/gcc-arm-none-eabi-8-2018-q4-major/lib/gcc
 1184              		.file 7 "/home/gu/code/freeRTOS10/vendor/mstar/CM4/tools/gcc-arm-none-eabi-8-2018-q4-major/arm-non
 1185              		.file 8 "/home/gu/code/freeRTOS10/vendor/mstar/CM4/tools/gcc-arm-none-eabi-8-2018-q4-major/arm-non
 1186              		.file 9 "/home/gu/code/freeRTOS10/vendor/mstar/CM4/tools/gcc-arm-none-eabi-8-2018-q4-major/arm-non
 1187              		.file 10 "/home/gu/code/freeRTOS10/vendor/mstar/CM4/tools/gcc-arm-none-eabi-8-2018-q4-major/arm-no
 1188              		.file 11 "../../kernel/FreeRTOS/Source/include/queue.h"
 1189              		.file 12 "../../kernel/FreeRTOS/Source/include/semphr.h"
 1190              		.file 13 "../../peripheral_library/hal/m7221/inc/irq.h"
 1191              		.file 14 "../../CMSIS/core_cm4.h"
 1192              		.file 15 "../../peripheral_library/inc/mosWrapper.h"
 1193              		.file 16 "../../peripheral_library/inc/drvMBX.h"
 1194              		.file 17 "../../peripheral_library/hal/m7221/inc/halMBX.h"
 1195              		.file 18 "../../peripheral_library/hal/m7221/inc/halCPUINT.h"
 1196              		.file 19 "../../peripheral_library/hal/m7221/inc/halUART.h"
 1197              		.file 20 "../../kernel/FreeRTOS/Source/include/task.h"