ARM GAS  /tmp/cc3nwSiR.s 			page 1


   1              		.cpu cortex-m4
   2              		.eabi_attribute 27, 1	@ Tag_ABI_HardFP_use
   3              		.eabi_attribute 20, 1	@ Tag_ABI_FP_denormal
   4              		.eabi_attribute 21, 1	@ Tag_ABI_FP_exceptions
   5              		.eabi_attribute 23, 3	@ Tag_ABI_FP_number_model
   6              		.eabi_attribute 24, 1	@ Tag_ABI_align8_needed
   7              		.eabi_attribute 25, 1	@ Tag_ABI_align8_preserved
   8              		.eabi_attribute 26, 1	@ Tag_ABI_enum_size
   9              		.eabi_attribute 30, 4	@ Tag_ABI_optimization_goals
  10              		.eabi_attribute 34, 1	@ Tag_CPU_unaligned_access
  11              		.eabi_attribute 18, 4	@ Tag_ABI_PCS_wchar_t
  12              		.file	"drvUART.c"
  13              	@ GNU C89 (GNU Tools for Arm Embedded Processors 8-2018-q4-major) version 8.2.1 20181213 (release) 
  14              	@	compiled by GNU C version 4.8.4, GMP version 6.1.0, MPFR version 3.1.4, MPC version 1.0.3, isl ve
  15              	
  16              	@ GGC heuristics: --param ggc-min-expand=96 --param ggc-min-heapsize=125422
  17              	@ options passed:  -isystem =/include/newlib-nano -I . -I .
  18              	@ -I ../../kernel/FreeRTOS/Source/include
  19              	@ -I ../../kernel/FreeRTOS/Source/portable/GCC/ARM_CM4F
  20              	@ -I ../../kernel/FreeRTOS/Demo/Common/include
  21              	@ -I ../../kernel/FreeRTOS-Plus/Source/FreeRTOS-Plus-CLI
  22              	@ -I ../../peripheral_library/inc -I ../../peripheral_library/hal/m7221/inc
  23              	@ -I ../../CMSIS -I ../../main_full -I ../../3rd/rokid/./ -I /.
  24              	@ -I /../../kernel/FreeRTOS/Source/include
  25              	@ -I /../../kernel/FreeRTOS/Source/portable/GCC/ARM_CM4F
  26              	@ -I /../../kernel/FreeRTOS/Demo/Common/include
  27              	@ -I /../../kernel/FreeRTOS-Plus/Source/FreeRTOS-Plus-CLI
  28              	@ -I /../../peripheral_library/inc
  29              	@ -I /../../peripheral_library/hal/m7221/inc -I /../../CMSIS
  30              	@ -I /../../main_full -I /../../3rd/rokid/./
  31              	@ -imultilib thumb/v7e-m+fp/softfp
  32              	@ -iprefix /home/gu/code/freeRTOS10/vendor/mstar/CM4/tools/gcc-arm-none-eabi-8-2018-q4-major/bin/..
  33              	@ -isysroot /home/gu/code/freeRTOS10/vendor/mstar/CM4/tools/gcc-arm-none-eabi-8-2018-q4-major/bin/.
  34              	@ -MD out/drvUART.d -MF out/drvUART.d -MP -MQ out/drvUART.o
  35              	@ -D__USES_INITFINI__ -D CONFIG_BENCH=0 -D CONFIG_SYS_DBG_LEVEL=0xFFFFFFFF
  36              	@ -D CONFIG_VOC_MIC=6 -D CONFIG_AUD_I2S -D CONFIG_AUD_AEC
  37              	@ -D CONFIG_VOC_MIC_MAPPING -D CONFIG_VOC_SWHPF -D CONFIG_VOC_SW_SRC48K
  38              	@ -D ARM_MATH_CM4 -D BOOTROM_VERSION_ASIC
  39              	@ ../../peripheral_library/drv/drvUART.c -mcpu=cortex-m4 -mthumb
  40              	@ -mthumb-interwork -mfloat-abi=softfp -mfpu=fpv4-sp-d16 -march=armv7e-m+fp
  41              	@ -auxbase-strip out/drvUART.o -g -ggdb3 -Os -Wall -Wstrict-prototypes
  42              	@ -Wextra -std=gnu90 -ffunction-sections -fdata-sections
  43              	@ -fno-builtin-printf -fverbose-asm
  44              	@ options enabled:  -faggressive-loop-optimizations -falign-jumps
  45              	@ -falign-labels -falign-loops -fauto-inc-dec -fbranch-count-reg
  46              	@ -fcaller-saves -fchkp-check-incomplete-type -fchkp-check-read
  47              	@ -fchkp-check-write -fchkp-instrument-calls -fchkp-narrow-bounds
  48              	@ -fchkp-optimize -fchkp-store-bounds -fchkp-use-static-bounds
  49              	@ -fchkp-use-static-const-bounds -fchkp-use-wrappers -fcode-hoisting
  50              	@ -fcombine-stack-adjustments -fcommon -fcompare-elim -fcprop-registers
  51              	@ -fcrossjumping -fcse-follow-jumps -fdata-sections -fdefer-pop
  52              	@ -fdelete-null-pointer-checks -fdevirtualize -fdevirtualize-speculatively
  53              	@ -fdwarf2-cfi-asm -fearly-inlining -feliminate-unused-debug-types
  54              	@ -fexpensive-optimizations -fforward-propagate -ffp-int-builtin-inexact
  55              	@ -ffunction-cse -ffunction-sections -fgcse -fgcse-lm -fgnu-runtime
  56              	@ -fgnu-unique -fguess-branch-probability -fhoist-adjacent-loads -fident
  57              	@ -fif-conversion -fif-conversion2 -findirect-inlining -finline
ARM GAS  /tmp/cc3nwSiR.s 			page 2


  58              	@ -finline-atomics -finline-functions -finline-functions-called-once
  59              	@ -finline-small-functions -fipa-bit-cp -fipa-cp -fipa-icf
  60              	@ -fipa-icf-functions -fipa-icf-variables -fipa-profile -fipa-pure-const
  61              	@ -fipa-ra -fipa-reference -fipa-sra -fipa-vrp -fira-hoist-pressure
  62              	@ -fira-share-save-slots -fira-share-spill-slots
  63              	@ -fisolate-erroneous-paths-dereference -fivopts -fkeep-static-consts
  64              	@ -fleading-underscore -flifetime-dse -flra-remat -flto-odr-type-merging
  65              	@ -fmath-errno -fmerge-constants -fmerge-debug-strings
  66              	@ -fmove-loop-invariants -fomit-frame-pointer -foptimize-sibling-calls
  67              	@ -fpartial-inlining -fpeephole -fpeephole2 -fplt -fprefetch-loop-arrays
  68              	@ -freg-struct-return -freorder-blocks -freorder-functions
  69              	@ -frerun-cse-after-loop -fsched-critical-path-heuristic
  70              	@ -fsched-dep-count-heuristic -fsched-group-heuristic -fsched-interblock
  71              	@ -fsched-last-insn-heuristic -fsched-pressure -fsched-rank-heuristic
  72              	@ -fsched-spec -fsched-spec-insn-heuristic -fsched-stalled-insns-dep
  73              	@ -fschedule-insns2 -fsection-anchors -fsemantic-interposition
  74              	@ -fshow-column -fshrink-wrap-separate -fsigned-zeros
  75              	@ -fsplit-ivs-in-unroller -fsplit-wide-types -fssa-backprop -fssa-phiopt
  76              	@ -fstdarg-opt -fstore-merging -fstrict-aliasing
  77              	@ -fstrict-volatile-bitfields -fsync-libcalls -fthread-jumps
  78              	@ -ftoplevel-reorder -ftrapping-math -ftree-bit-ccp -ftree-builtin-call-dce
  79              	@ -ftree-ccp -ftree-ch -ftree-coalesce-vars -ftree-copy-prop -ftree-cselim
  80              	@ -ftree-dce -ftree-dominator-opts -ftree-dse -ftree-forwprop -ftree-fre
  81              	@ -ftree-loop-if-convert -ftree-loop-im -ftree-loop-ivcanon
  82              	@ -ftree-loop-optimize -ftree-parallelize-loops= -ftree-phiprop -ftree-pre
  83              	@ -ftree-pta -ftree-reassoc -ftree-scev-cprop -ftree-sink -ftree-slsr
  84              	@ -ftree-sra -ftree-switch-conversion -ftree-tail-merge -ftree-ter
  85              	@ -ftree-vrp -funit-at-a-time -fvar-tracking -fvar-tracking-assignments
  86              	@ -fverbose-asm -fzero-initialized-in-bss -masm-syntax-unified -mbe32
  87              	@ -mlittle-endian -mpic-data-is-text-relative -msched-prolog -mthumb
  88              	@ -munaligned-access -mvectorize-with-neon-quad
  89              	
  90              		.text
  91              	.Ltext0:
  92              		.cfi_sections	.debug_frame
  93              		.section	.text.printchar,"ax",%progbits
  94              		.align	1
  95              		.arch armv7e-m
  96              		.syntax unified
  97              		.thumb
  98              		.thumb_func
  99              		.fpu fpv4-sp-d16
 100              		.type	printchar, %function
 101              	printchar:
 102              	.LVL0:
 103              	.LFB0:
 104              		.file 1 "../../peripheral_library/drv/drvUART.c"
   1:../../peripheral_library/drv/drvUART.c **** //<MStar Software>
   2:../../peripheral_library/drv/drvUART.c **** //******************************************************************************
   3:../../peripheral_library/drv/drvUART.c **** // MStar Software
   4:../../peripheral_library/drv/drvUART.c **** // Copyright (c) 2010 - 2012 MStar Semiconductor, Inc. All rights reserved.
   5:../../peripheral_library/drv/drvUART.c **** // All software, firmware and related documentation herein ("MStar Software") are
   6:../../peripheral_library/drv/drvUART.c **** // intellectual property of MStar Semiconductor, Inc. ("MStar") and protected by
   7:../../peripheral_library/drv/drvUART.c **** // law, including, but not limited to, copyright law and international treaties.
   8:../../peripheral_library/drv/drvUART.c **** // Any use, modification, reproduction, retransmission, or republication of all
   9:../../peripheral_library/drv/drvUART.c **** // or part of MStar Software is expressly prohibited, unless prior written
  10:../../peripheral_library/drv/drvUART.c **** // permission has been granted by MStar.
ARM GAS  /tmp/cc3nwSiR.s 			page 3


  11:../../peripheral_library/drv/drvUART.c **** //
  12:../../peripheral_library/drv/drvUART.c **** // By accessing, browsing and/or using MStar Software, you acknowledge that you
  13:../../peripheral_library/drv/drvUART.c **** // have read, understood, and agree, to be bound by below terms ("Terms") and to
  14:../../peripheral_library/drv/drvUART.c **** // comply with all applicable laws and regulations:
  15:../../peripheral_library/drv/drvUART.c **** //
  16:../../peripheral_library/drv/drvUART.c **** // 1. MStar shall retain any and all right, ownership and interest to MStar
  17:../../peripheral_library/drv/drvUART.c **** //    Software and any modification/derivatives thereof.
  18:../../peripheral_library/drv/drvUART.c **** //    No right, ownership, or interest to MStar Software and any
  19:../../peripheral_library/drv/drvUART.c **** //    modification/derivatives thereof is transferred to you under Terms.
  20:../../peripheral_library/drv/drvUART.c **** //
  21:../../peripheral_library/drv/drvUART.c **** // 2. You understand that MStar Software might include, incorporate or be
  22:../../peripheral_library/drv/drvUART.c **** //    supplied together with third party`s software and the use of MStar
  23:../../peripheral_library/drv/drvUART.c **** //    Software may require additional licenses from third parties.
  24:../../peripheral_library/drv/drvUART.c **** //    Therefore, you hereby agree it is your sole responsibility to separately
  25:../../peripheral_library/drv/drvUART.c **** //    obtain any and all third party right and license necessary for your use of
  26:../../peripheral_library/drv/drvUART.c **** //    such third party`s software.
  27:../../peripheral_library/drv/drvUART.c **** //
  28:../../peripheral_library/drv/drvUART.c **** // 3. MStar Software and any modification/derivatives thereof shall be deemed as
  29:../../peripheral_library/drv/drvUART.c **** //    MStar`s confidential information and you agree to keep MStar`s
  30:../../peripheral_library/drv/drvUART.c **** //    confidential information in strictest confidence and not disclose to any
  31:../../peripheral_library/drv/drvUART.c **** //    third party.
  32:../../peripheral_library/drv/drvUART.c **** //
  33:../../peripheral_library/drv/drvUART.c **** // 4. MStar Software is provided on an "AS IS" basis without warranties of any
  34:../../peripheral_library/drv/drvUART.c **** //    kind. Any warranties are hereby expressly disclaimed by MStar, including
  35:../../peripheral_library/drv/drvUART.c **** //    without limitation, any warranties of merchantability, non-infringement of
  36:../../peripheral_library/drv/drvUART.c **** //    intellectual property rights, fitness for a particular purpose, error free
  37:../../peripheral_library/drv/drvUART.c **** //    and in conformity with any international standard.  You agree to waive any
  38:../../peripheral_library/drv/drvUART.c **** //    claim against MStar for any loss, damage, cost or expense that you may
  39:../../peripheral_library/drv/drvUART.c **** //    incur related to your use of MStar Software.
  40:../../peripheral_library/drv/drvUART.c **** //    In no event shall MStar be liable for any direct, indirect, incidental or
  41:../../peripheral_library/drv/drvUART.c **** //    consequential damages, including without limitation, lost of profit or
  42:../../peripheral_library/drv/drvUART.c **** //    revenues, lost or damage of data, and unauthorized system use.
  43:../../peripheral_library/drv/drvUART.c **** //    You agree that this Section 4 shall still apply without being affected
  44:../../peripheral_library/drv/drvUART.c **** //    even if MStar Software has been modified by MStar in accordance with your
  45:../../peripheral_library/drv/drvUART.c **** //    request or instruction for your use, except otherwise agreed by both
  46:../../peripheral_library/drv/drvUART.c **** //    parties in writing.
  47:../../peripheral_library/drv/drvUART.c **** //
  48:../../peripheral_library/drv/drvUART.c **** // 5. If requested, MStar may from time to time provide technical supports or
  49:../../peripheral_library/drv/drvUART.c **** //    services in relation with MStar Software to you for your use of
  50:../../peripheral_library/drv/drvUART.c **** //    MStar Software in conjunction with your or your customer`s product
  51:../../peripheral_library/drv/drvUART.c **** //    ("Services").
  52:../../peripheral_library/drv/drvUART.c **** //    You understand and agree that, except otherwise agreed by both parties in
  53:../../peripheral_library/drv/drvUART.c **** //    writing, Services are provided on an "AS IS" basis and the warranty
  54:../../peripheral_library/drv/drvUART.c **** //    disclaimer set forth in Section 4 above shall apply.
  55:../../peripheral_library/drv/drvUART.c **** //
  56:../../peripheral_library/drv/drvUART.c **** // 6. Nothing contained herein shall be construed as by implication, estoppels
  57:../../peripheral_library/drv/drvUART.c **** //    or otherwise:
  58:../../peripheral_library/drv/drvUART.c **** //    (a) conferring any license or right to use MStar name, trademark, service
  59:../../peripheral_library/drv/drvUART.c **** //        mark, symbol or any other identification;
  60:../../peripheral_library/drv/drvUART.c **** //    (b) obligating MStar or any of its affiliates to furnish any person,
  61:../../peripheral_library/drv/drvUART.c **** //        including without limitation, you and your customers, any assistance
  62:../../peripheral_library/drv/drvUART.c **** //        of any kind whatsoever, or any information; or
  63:../../peripheral_library/drv/drvUART.c **** //    (c) conferring any license or right under any intellectual property right.
  64:../../peripheral_library/drv/drvUART.c **** //
  65:../../peripheral_library/drv/drvUART.c **** // 7. These terms shall be governed by and construed in accordance with the laws
  66:../../peripheral_library/drv/drvUART.c **** //    of Taiwan, R.O.C., excluding its conflict of law rules.
  67:../../peripheral_library/drv/drvUART.c **** //    Any and all dispute arising out hereof or related hereto shall be finally
ARM GAS  /tmp/cc3nwSiR.s 			page 4


  68:../../peripheral_library/drv/drvUART.c **** //    settled by arbitration referred to the Chinese Arbitration Association,
  69:../../peripheral_library/drv/drvUART.c **** //    Taipei in accordance with the ROC Arbitration Law and the Arbitration
  70:../../peripheral_library/drv/drvUART.c **** //    Rules of the Association by three (3) arbitrators appointed in accordance
  71:../../peripheral_library/drv/drvUART.c **** //    with the said Rules.
  72:../../peripheral_library/drv/drvUART.c **** //    The place of arbitration shall be in Taipei, Taiwan and the language shall
  73:../../peripheral_library/drv/drvUART.c **** //    be English.
  74:../../peripheral_library/drv/drvUART.c **** //    The arbitration award shall be final and binding to both parties.
  75:../../peripheral_library/drv/drvUART.c **** //
  76:../../peripheral_library/drv/drvUART.c **** //******************************************************************************
  77:../../peripheral_library/drv/drvUART.c **** //<MStar Software>
  78:../../peripheral_library/drv/drvUART.c **** ////////////////////////////////////////////////////////////////////////////////
  79:../../peripheral_library/drv/drvUART.c **** //
  80:../../peripheral_library/drv/drvUART.c **** // Copyright (c) 2008-2009 MStar Semiconductor, Inc.
  81:../../peripheral_library/drv/drvUART.c **** // All rights reserved.
  82:../../peripheral_library/drv/drvUART.c **** //
  83:../../peripheral_library/drv/drvUART.c **** // Unless otherwise stipulated in writing, any and all information contained
  84:../../peripheral_library/drv/drvUART.c **** // herein regardless in any format shall remain the sole proprietary of
  85:../../peripheral_library/drv/drvUART.c **** // MStar Semiconductor Inc. and be kept in strict confidence
  86:../../peripheral_library/drv/drvUART.c **** // ("MStar Confidential Information") by the recipient.
  87:../../peripheral_library/drv/drvUART.c **** // Any unauthorized act including without limitation unauthorized disclosure,
  88:../../peripheral_library/drv/drvUART.c **** // copying, use, reproduction, sale, distribution, modification, disassembling,
  89:../../peripheral_library/drv/drvUART.c **** // reverse engineering and compiling of the contents of MStar Confidential
  90:../../peripheral_library/drv/drvUART.c **** // Information is unlawful and strictly prohibited. MStar hereby reserves the
  91:../../peripheral_library/drv/drvUART.c **** // rights to any and all damages, losses, costs and expenses resulting therefrom.
  92:../../peripheral_library/drv/drvUART.c **** //
  93:../../peripheral_library/drv/drvUART.c **** ////////////////////////////////////////////////////////////////////////////////
  94:../../peripheral_library/drv/drvUART.c **** 
  95:../../peripheral_library/drv/drvUART.c **** ///////////////////////////////////////////////////////////////////////////////////////////////////
  96:../../peripheral_library/drv/drvUART.c **** ///
  97:../../peripheral_library/drv/drvUART.c **** /// file    drvUART.c
  98:../../peripheral_library/drv/drvUART.c **** /// @brief  MStar UART HAL level DDI
  99:../../peripheral_library/drv/drvUART.c **** /// @author MStar Semiconductor Inc.
 100:../../peripheral_library/drv/drvUART.c **** ///////////////////////////////////////////////////////////////////////////////////////////////////
 101:../../peripheral_library/drv/drvUART.c **** 
 102:../../peripheral_library/drv/drvUART.c **** #include <stdarg.h>
 103:../../peripheral_library/drv/drvUART.c **** 
 104:../../peripheral_library/drv/drvUART.c **** #include "halUART.h"
 105:../../peripheral_library/drv/drvUART.c **** 
 106:../../peripheral_library/drv/drvUART.c **** //#define putchar(c) c
 107:../../peripheral_library/drv/drvUART.c **** 
 108:../../peripheral_library/drv/drvUART.c **** #if !defined(CONFIG_SYS_UART_DISABLE)
 109:../../peripheral_library/drv/drvUART.c **** static void printchar(char **str, int c)
 110:../../peripheral_library/drv/drvUART.c **** {
 105              		.loc 1 110 1 view -0
 106              		.cfi_startproc
 107              		@ args = 0, pretend = 0, frame = 0
 108              		@ frame_needed = 0, uses_anonymous_args = 0
 109              		@ link register save eliminated.
 111:../../peripheral_library/drv/drvUART.c **** 	//extern int putchar(int c);
 112:../../peripheral_library/drv/drvUART.c **** 	extern void uart_write_byte(unsigned char c);
 110              		.loc 1 112 2 view .LVU1
 113:../../peripheral_library/drv/drvUART.c **** 
 114:../../peripheral_library/drv/drvUART.c **** 	if (str) {
 111              		.loc 1 114 2 view .LVU2
 112 0000 C9B2     		uxtb	r1, r1	@ _13, c
 113              	.LVL1:
 114              	@ ../../peripheral_library/drv/drvUART.c:114: 	if (str) {
ARM GAS  /tmp/cc3nwSiR.s 			page 5


 115              		.loc 1 114 5 is_stmt 0 view .LVU3
 116 0002 28B1     		cbz	r0, .L2	@ str,
 115:../../peripheral_library/drv/drvUART.c **** 		**str = (char)c;
 117              		.loc 1 115 3 is_stmt 1 view .LVU4
 118              	@ ../../peripheral_library/drv/drvUART.c:115: 		**str = (char)c;
 119              		.loc 1 115 4 is_stmt 0 view .LVU5
 120 0004 0368     		ldr	r3, [r0]	@ _1, *str_7(D)
 121              	@ ../../peripheral_library/drv/drvUART.c:115: 		**str = (char)c;
 122              		.loc 1 115 9 view .LVU6
 123 0006 1970     		strb	r1, [r3]	@ _13, *_1
 116:../../peripheral_library/drv/drvUART.c **** 		++(*str);
 124              		.loc 1 116 3 is_stmt 1 view .LVU7
 125 0008 0368     		ldr	r3, [r0]	@ *str_7(D), *str_7(D)
 126 000a 0133     		adds	r3, r3, #1	@ tmp117, *str_7(D),
 127 000c 0360     		str	r3, [r0]	@ tmp117, *str_7(D)
 128              	@ ../../peripheral_library/drv/drvUART.c:123: }
 117:../../peripheral_library/drv/drvUART.c **** 	}
 118:../../peripheral_library/drv/drvUART.c **** 	else
 119:../../peripheral_library/drv/drvUART.c **** 	{
 120:../../peripheral_library/drv/drvUART.c **** 		(void)uart_write_byte(c);
 121:../../peripheral_library/drv/drvUART.c **** 		//(void)putchar(c);
 122:../../peripheral_library/drv/drvUART.c **** 	}
 123:../../peripheral_library/drv/drvUART.c **** }
 129              		.loc 1 123 1 is_stmt 0 view .LVU8
 130 000e 7047     		bx	lr	@
 131              	.L2:
 120:../../peripheral_library/drv/drvUART.c **** 		//(void)putchar(c);
 132              		.loc 1 120 3 is_stmt 1 view .LVU9
 133 0010 0846     		mov	r0, r1	@, _13
 134              	.LVL2:
 120:../../peripheral_library/drv/drvUART.c **** 		//(void)putchar(c);
 135              		.loc 1 120 3 is_stmt 0 view .LVU10
 136 0012 FFF7FEBF 		b	uart_write_byte		@
 137              	.LVL3:
 138              		.cfi_endproc
 139              	.LFE0:
 140              		.size	printchar, .-printchar
 141              		.section	.text.prints,"ax",%progbits
 142              		.align	1
 143              		.syntax unified
 144              		.thumb
 145              		.thumb_func
 146              		.fpu fpv4-sp-d16
 147              		.type	prints, %function
 148              	prints:
 149              	.LVL4:
 150              	.LFB1:
 124:../../peripheral_library/drv/drvUART.c **** #else
 125:../../peripheral_library/drv/drvUART.c **** static void printchar(char **str, int c) {}
 126:../../peripheral_library/drv/drvUART.c **** #endif
 127:../../peripheral_library/drv/drvUART.c **** 
 128:../../peripheral_library/drv/drvUART.c **** #define PAD_RIGHT 1
 129:../../peripheral_library/drv/drvUART.c **** #define PAD_ZERO 2
 130:../../peripheral_library/drv/drvUART.c **** 
 131:../../peripheral_library/drv/drvUART.c **** static int prints(char **out, const char *string, int width, int pad)
 132:../../peripheral_library/drv/drvUART.c **** {
 151              		.loc 1 132 1 is_stmt 1 view -0
ARM GAS  /tmp/cc3nwSiR.s 			page 6


 152              		.cfi_startproc
 153              		@ args = 0, pretend = 0, frame = 0
 154              		@ frame_needed = 0, uses_anonymous_args = 0
 155              		.loc 1 132 1 is_stmt 0 view .LVU12
 156 0000 2DE9F843 		push	{r3, r4, r5, r6, r7, r8, r9, lr}	@
 157              		.cfi_def_cfa_offset 32
 158              		.cfi_offset 3, -32
 159              		.cfi_offset 4, -28
 160              		.cfi_offset 5, -24
 161              		.cfi_offset 6, -20
 162              		.cfi_offset 7, -16
 163              		.cfi_offset 8, -12
 164              		.cfi_offset 9, -8
 165              		.cfi_offset 14, -4
 166              	@ ../../peripheral_library/drv/drvUART.c:135: 	if (width > 0) {
 133:../../peripheral_library/drv/drvUART.c **** 	register int pc = 0, padchar = ' ';
 134:../../peripheral_library/drv/drvUART.c **** 
 135:../../peripheral_library/drv/drvUART.c **** 	if (width > 0) {
 167              		.loc 1 135 5 view .LVU13
 168 0004 141E     		subs	r4, r2, #0	@ width, width
 169              	@ ../../peripheral_library/drv/drvUART.c:132: {
 132:../../peripheral_library/drv/drvUART.c **** 	register int pc = 0, padchar = ' ';
 170              		.loc 1 132 1 view .LVU14
 171 0006 0746     		mov	r7, r0	@ out, out
 133:../../peripheral_library/drv/drvUART.c **** 	register int pc = 0, padchar = ' ';
 172              		.loc 1 133 2 is_stmt 1 view .LVU15
 173              	.LVL5:
 174              		.loc 1 135 2 view .LVU16
 175              	@ ../../peripheral_library/drv/drvUART.c:132: {
 132:../../peripheral_library/drv/drvUART.c **** 	register int pc = 0, padchar = ' ';
 176              		.loc 1 132 1 is_stmt 0 view .LVU17
 177 0008 0D46     		mov	r5, r1	@ string, string
 178              	@ ../../peripheral_library/drv/drvUART.c:135: 	if (width > 0) {
 179              		.loc 1 135 5 view .LVU18
 180 000a 16DC     		bgt	.L17		@,
 181              	@ ../../peripheral_library/drv/drvUART.c:133: 	register int pc = 0, padchar = ' ';
 133:../../peripheral_library/drv/drvUART.c **** 	register int pc = 0, padchar = ' ';
 182              		.loc 1 133 23 view .LVU19
 183 000c 4FF02008 		mov	r8, #32	@ padchar,
 184              	.LVL6:
 185              	.L7:
 136:../../peripheral_library/drv/drvUART.c **** 		register int len = 0;
 137:../../peripheral_library/drv/drvUART.c **** 		register const char *ptr;
 138:../../peripheral_library/drv/drvUART.c **** 		for (ptr = string; *ptr; ++ptr) ++len;
 139:../../peripheral_library/drv/drvUART.c **** 		if (len >= width) width = 0;
 140:../../peripheral_library/drv/drvUART.c **** 		else width -= len;
 141:../../peripheral_library/drv/drvUART.c **** 		if (pad & PAD_ZERO) padchar = '0';
 142:../../peripheral_library/drv/drvUART.c **** 	}
 143:../../peripheral_library/drv/drvUART.c **** 	if (!(pad & PAD_RIGHT)) {
 186              		.loc 1 143 2 is_stmt 1 view .LVU20
 187              	@ ../../peripheral_library/drv/drvUART.c:143: 	if (!(pad & PAD_RIGHT)) {
 188              		.loc 1 143 5 is_stmt 0 view .LVU21
 189 0010 DB07     		lsls	r3, r3, #31	@, pad,
 190              	.LVL7:
 191              		.loc 1 143 5 view .LVU22
 192 0012 1FD5     		bpl	.L20		@,
 193              	@ ../../peripheral_library/drv/drvUART.c:133: 	register int pc = 0, padchar = ' ';
ARM GAS  /tmp/cc3nwSiR.s 			page 7


 133:../../peripheral_library/drv/drvUART.c **** 
 194              		.loc 1 133 15 view .LVU23
 195 0014 0023     		movs	r3, #0	@ pc,
 196              	.LVL8:
 197              	.L11:
 133:../../peripheral_library/drv/drvUART.c **** 
 198              		.loc 1 133 15 view .LVU24
 199 0016 5E1B     		subs	r6, r3, r5	@ tmp137, pc, ivtmp.23
 200 0018 21E0     		b	.L13		@
 201              	.LVL9:
 202              	.L8:
 203              	.LBB2:
 138:../../peripheral_library/drv/drvUART.c **** 		if (len >= width) width = 0;
 204              		.loc 1 138 35 is_stmt 1 discriminator 3 view .LVU25
 205 001a 0132     		adds	r2, r2, #1	@ len, len,
 206              	.LVL10:
 207              	.L6:
 208              	@ ../../peripheral_library/drv/drvUART.c:138: 		for (ptr = string; *ptr; ++ptr) ++len;
 138:../../peripheral_library/drv/drvUART.c **** 		if (len >= width) width = 0;
 209              		.loc 1 138 3 is_stmt 0 discriminator 1 view .LVU26
 210 001c A95C     		ldrb	r1, [r5, r2]	@ zero_extendqisi2	@ MEM[base: string_22(D), index: _49, offset: 0B], MEM[base: 
 211 001e 0029     		cmp	r1, #0	@ MEM[base: string_22(D), index: _49, offset: 0B]
 212 0020 FBD1     		bne	.L8	@
 139:../../peripheral_library/drv/drvUART.c **** 		else width -= len;
 213              		.loc 1 139 3 is_stmt 1 view .LVU27
 214              	@ ../../peripheral_library/drv/drvUART.c:139: 		if (len >= width) width = 0;
 139:../../peripheral_library/drv/drvUART.c **** 		else width -= len;
 215              		.loc 1 139 6 is_stmt 0 view .LVU28
 216 0022 A242     		cmp	r2, r4	@ len, width
 140:../../peripheral_library/drv/drvUART.c **** 		if (pad & PAD_ZERO) padchar = '0';
 217              		.loc 1 140 8 is_stmt 1 view .LVU29
 218              	@ ../../peripheral_library/drv/drvUART.c:140: 		else width -= len;
 140:../../peripheral_library/drv/drvUART.c **** 		if (pad & PAD_ZERO) padchar = '0';
 219              		.loc 1 140 14 is_stmt 0 view .LVU30
 220 0024 B4BF     		ite	lt
 221 0026 A41A     		sublt	r4, r4, r2	@ width, width, len
 222              	.LVL11:
 223              	@ ../../peripheral_library/drv/drvUART.c:139: 		if (len >= width) width = 0;
 139:../../peripheral_library/drv/drvUART.c **** 		else width -= len;
 224              		.loc 1 139 27 view .LVU31
 225 0028 0C46     		movge	r4, r1	@ width, MEM[base: string_22(D), index: _49, offset: 0B]
 226              	.LVL12:
 141:../../peripheral_library/drv/drvUART.c **** 	}
 227              		.loc 1 141 3 is_stmt 1 view .LVU32
 228              	@ ../../peripheral_library/drv/drvUART.c:141: 		if (pad & PAD_ZERO) padchar = '0';
 141:../../peripheral_library/drv/drvUART.c **** 	}
 229              		.loc 1 141 31 is_stmt 0 view .LVU33
 230 002a 13F0020F 		tst	r3, #2	@ pad,
 231 002e 0CBF     		ite	eq
 232 0030 4FF02008 		moveq	r8, #32	@ padchar,
 233 0034 4FF03008 		movne	r8, #48	@ padchar,
 234 0038 EAE7     		b	.L7		@
 235              	.LVL13:
 236              	.L17:
 237              	@ ../../peripheral_library/drv/drvUART.c:136: 		register int len = 0;
 136:../../peripheral_library/drv/drvUART.c **** 		register const char *ptr;
 238              		.loc 1 136 16 view .LVU34
ARM GAS  /tmp/cc3nwSiR.s 			page 8


 239 003a 0022     		movs	r2, #0	@ len,
 240              	.LVL14:
 136:../../peripheral_library/drv/drvUART.c **** 		register const char *ptr;
 241              		.loc 1 136 16 view .LVU35
 242 003c EEE7     		b	.L6		@
 243              	.LVL15:
 244              	.L12:
 136:../../peripheral_library/drv/drvUART.c **** 		register const char *ptr;
 245              		.loc 1 136 16 view .LVU36
 246              	.LBE2:
 144:../../peripheral_library/drv/drvUART.c **** 		for ( ; width > 0; --width) {
 145:../../peripheral_library/drv/drvUART.c **** 			printchar (out, padchar);
 247              		.loc 1 145 4 is_stmt 1 discriminator 2 view .LVU37
 248 003e 4146     		mov	r1, r8	@, padchar
 249 0040 3846     		mov	r0, r7	@, out
 250 0042 FFF7FEFF 		bl	printchar		@
 251              	.LVL16:
 146:../../peripheral_library/drv/drvUART.c **** 			++pc;
 252              		.loc 1 146 4 discriminator 2 view .LVU38
 253              	@ ../../peripheral_library/drv/drvUART.c:144: 		for ( ; width > 0; --width) {
 144:../../peripheral_library/drv/drvUART.c **** 		for ( ; width > 0; --width) {
 254              		.loc 1 144 22 is_stmt 0 discriminator 2 view .LVU39
 255 0046 013E     		subs	r6, r6, #1	@ width, width,
 256              	.LVL17:
 257              	.L10:
 258              	@ ../../peripheral_library/drv/drvUART.c:144: 		for ( ; width > 0; --width) {
 144:../../peripheral_library/drv/drvUART.c **** 		for ( ; width > 0; --width) {
 259              		.loc 1 144 3 discriminator 1 view .LVU40
 260 0048 002E     		cmp	r6, #0	@ width,
 261 004a F8DC     		bgt	.L12		@,
 144:../../peripheral_library/drv/drvUART.c **** 		for ( ; width > 0; --width) {
 262              		.loc 1 144 3 discriminator 1 view .LVU41
 263 004c 24EAE473 		bic	r3, r4, r4, asr #31	@ pc, width
 264 0050 E41A     		subs	r4, r4, r3	@ width, width, pc
 265 0052 E0E7     		b	.L11		@
 266              	.LVL18:
 267              	.L20:
 144:../../peripheral_library/drv/drvUART.c **** 		for ( ; width > 0; --width) {
 268              		.loc 1 144 3 discriminator 1 view .LVU42
 269 0054 2646     		mov	r6, r4	@ width, width
 270 0056 F7E7     		b	.L10		@
 271              	.LVL19:
 272              	.L14:
 147:../../peripheral_library/drv/drvUART.c **** 		}
 148:../../peripheral_library/drv/drvUART.c **** 	}
 149:../../peripheral_library/drv/drvUART.c **** 	for ( ; *string ; ++string) {
 150:../../peripheral_library/drv/drvUART.c **** 		printchar (out, *string);
 273              		.loc 1 150 3 is_stmt 1 discriminator 2 view .LVU43
 274 0058 3846     		mov	r0, r7	@, out
 275 005a FFF7FEFF 		bl	printchar		@
 276              	.LVL20:
 151:../../peripheral_library/drv/drvUART.c **** 		++pc;
 277              		.loc 1 151 3 discriminator 2 view .LVU44
 278              	.L13:
 279              		.loc 1 151 3 is_stmt 0 discriminator 2 view .LVU45
 280 005e 06EB0509 		add	r9, r6, r5	@ _55, tmp137, ivtmp.23
 281              	.LVL21:
ARM GAS  /tmp/cc3nwSiR.s 			page 9


 282              	@ ../../peripheral_library/drv/drvUART.c:149: 	for ( ; *string ; ++string) {
 149:../../peripheral_library/drv/drvUART.c **** 		printchar (out, *string);
 283              		.loc 1 149 10 discriminator 1 view .LVU46
 284 0062 15F8011B 		ldrb	r1, [r5], #1	@ zero_extendqisi2	@ _5, MEM[base: _56, offset: 0B]
 285              	.LVL22:
 286              	@ ../../peripheral_library/drv/drvUART.c:149: 	for ( ; *string ; ++string) {
 149:../../peripheral_library/drv/drvUART.c **** 		printchar (out, *string);
 287              		.loc 1 149 2 discriminator 1 view .LVU47
 288 0066 0029     		cmp	r1, #0	@ _5
 289 0068 F6D1     		bne	.L14	@
 290 006a 2546     		mov	r5, r4	@ width, width
 291              	.LVL23:
 292              	.L15:
 293              	@ ../../peripheral_library/drv/drvUART.c:153: 	for ( ; width > 0; --width) {
 152:../../peripheral_library/drv/drvUART.c **** 	}
 153:../../peripheral_library/drv/drvUART.c **** 	for ( ; width > 0; --width) {
 294              		.loc 1 153 2 discriminator 1 view .LVU48
 295 006c 002D     		cmp	r5, #0	@ width,
 296 006e 07DC     		bgt	.L16		@,
 154:../../peripheral_library/drv/drvUART.c **** 		printchar (out, padchar);
 155:../../peripheral_library/drv/drvUART.c **** 		++pc;
 156:../../peripheral_library/drv/drvUART.c **** 	}
 157:../../peripheral_library/drv/drvUART.c **** 
 158:../../peripheral_library/drv/drvUART.c **** 	return pc;
 297              		.loc 1 158 2 is_stmt 1 view .LVU49
 298              	@ ../../peripheral_library/drv/drvUART.c:159: }
 159:../../peripheral_library/drv/drvUART.c **** }
 299              		.loc 1 159 1 is_stmt 0 view .LVU50
 300 0070 002C     		cmp	r4, #0	@ width,
 301 0072 ACBF     		ite	ge		@
 302 0074 09EB0400 		addge	r0, r9, r4	@,,, _55, width
 303 0078 09F10000 		addlt	r0, r9, #0	@,,, _55,
 304 007c BDE8F883 		pop	{r3, r4, r5, r6, r7, r8, r9, pc}	@
 305              	.LVL24:
 306              	.L16:
 154:../../peripheral_library/drv/drvUART.c **** 		printchar (out, padchar);
 307              		.loc 1 154 3 is_stmt 1 discriminator 2 view .LVU51
 308 0080 4146     		mov	r1, r8	@, padchar
 309 0082 3846     		mov	r0, r7	@, out
 310 0084 FFF7FEFF 		bl	printchar		@
 311              	.LVL25:
 155:../../peripheral_library/drv/drvUART.c **** 	}
 312              		.loc 1 155 3 discriminator 2 view .LVU52
 313              	@ ../../peripheral_library/drv/drvUART.c:153: 	for ( ; width > 0; --width) {
 153:../../peripheral_library/drv/drvUART.c **** 		printchar (out, padchar);
 314              		.loc 1 153 21 is_stmt 0 discriminator 2 view .LVU53
 315 0088 013D     		subs	r5, r5, #1	@ width, width,
 316              	.LVL26:
 153:../../peripheral_library/drv/drvUART.c **** 		printchar (out, padchar);
 317              		.loc 1 153 21 discriminator 2 view .LVU54
 318 008a EFE7     		b	.L15		@
 319              		.cfi_endproc
 320              	.LFE1:
 321              		.size	prints, .-prints
 322              		.section	.text.printi,"ax",%progbits
 323              		.align	1
 324              		.syntax unified
ARM GAS  /tmp/cc3nwSiR.s 			page 10


 325              		.thumb
 326              		.thumb_func
 327              		.fpu fpv4-sp-d16
 328              		.type	printi, %function
 329              	printi:
 330              	.LVL27:
 331              	.LFB2:
 160:../../peripheral_library/drv/drvUART.c **** 
 161:../../peripheral_library/drv/drvUART.c **** /* the following should be enough for 32 bit int */
 162:../../peripheral_library/drv/drvUART.c **** #define PRINT_BUF_LEN 12
 163:../../peripheral_library/drv/drvUART.c **** 
 164:../../peripheral_library/drv/drvUART.c **** static int printi(char **out, int i, int b, int sg, int width, int pad, int letbase)
 165:../../peripheral_library/drv/drvUART.c **** {
 332              		.loc 1 165 1 is_stmt 1 view -0
 333              		.cfi_startproc
 334              		@ args = 12, pretend = 0, frame = 16
 335              		@ frame_needed = 0, uses_anonymous_args = 0
 166:../../peripheral_library/drv/drvUART.c **** 	char print_buf[PRINT_BUF_LEN];
 336              		.loc 1 166 2 view .LVU56
 167:../../peripheral_library/drv/drvUART.c **** 	register char *s;
 337              		.loc 1 167 2 view .LVU57
 168:../../peripheral_library/drv/drvUART.c **** 	register int t, neg = 0, pc = 0;
 338              		.loc 1 168 2 view .LVU58
 169:../../peripheral_library/drv/drvUART.c **** 	register unsigned int u = (unsigned int)i;
 339              		.loc 1 169 2 view .LVU59
 170:../../peripheral_library/drv/drvUART.c **** 
 171:../../peripheral_library/drv/drvUART.c **** 	if (i == 0) {
 340              		.loc 1 171 2 view .LVU60
 341              	@ ../../peripheral_library/drv/drvUART.c:165: {
 165:../../peripheral_library/drv/drvUART.c **** 	char print_buf[PRINT_BUF_LEN];
 342              		.loc 1 165 1 is_stmt 0 view .LVU61
 343 0000 2DE9F043 		push	{r4, r5, r6, r7, r8, r9, lr}	@
 344              		.cfi_def_cfa_offset 28
 345              		.cfi_offset 4, -28
 346              		.cfi_offset 5, -24
 347              		.cfi_offset 6, -20
 348              		.cfi_offset 7, -16
 349              		.cfi_offset 8, -12
 350              		.cfi_offset 9, -8
 351              		.cfi_offset 14, -4
 352 0004 85B0     		sub	sp, sp, #20	@,,
 353              		.cfi_def_cfa_offset 48
 354              	@ ../../peripheral_library/drv/drvUART.c:165: {
 165:../../peripheral_library/drv/drvUART.c **** 	char print_buf[PRINT_BUF_LEN];
 355              		.loc 1 165 1 view .LVU62
 356 0006 8046     		mov	r8, r0	@ out, out
 357 0008 1C46     		mov	r4, r3	@ sg, sg
 358 000a DDE90C59 		ldrd	r5, r9, [sp, #48]	@ width, pad,,
 359              	@ ../../peripheral_library/drv/drvUART.c:171: 	if (i == 0) {
 360              		.loc 1 171 5 view .LVU63
 361 000e 51B9     		cbnz	r1, .L22	@ u,
 172:../../peripheral_library/drv/drvUART.c **** 		print_buf[0] = '0';
 362              		.loc 1 172 3 is_stmt 1 view .LVU64
 173:../../peripheral_library/drv/drvUART.c **** 		print_buf[1] = '\0';
 363              		.loc 1 173 3 view .LVU65
 364              	@ ../../peripheral_library/drv/drvUART.c:172: 		print_buf[0] = '0';
 172:../../peripheral_library/drv/drvUART.c **** 		print_buf[0] = '0';
ARM GAS  /tmp/cc3nwSiR.s 			page 11


 365              		.loc 1 172 16 is_stmt 0 view .LVU66
 366 0010 3023     		movs	r3, #48	@ tmp134,
 367              	.LVL28:
 172:../../peripheral_library/drv/drvUART.c **** 		print_buf[0] = '0';
 368              		.loc 1 172 16 view .LVU67
 369 0012 ADF80430 		strh	r3, [sp, #4]	@ movhi	@ tmp134, MEM[(char[12] *)&print_buf]
 174:../../peripheral_library/drv/drvUART.c **** 		return prints (out, print_buf, width, pad);
 370              		.loc 1 174 3 is_stmt 1 view .LVU68
 371              	@ ../../peripheral_library/drv/drvUART.c:174: 		return prints (out, print_buf, width, pad);
 372              		.loc 1 174 10 is_stmt 0 view .LVU69
 373 0016 2A46     		mov	r2, r5	@, width
 374              	.LVL29:
 375              		.loc 1 174 10 view .LVU70
 376 0018 4B46     		mov	r3, r9	@, pad
 377 001a 01A9     		add	r1, sp, #4	@,,
 378              	.LVL30:
 379              		.loc 1 174 10 view .LVU71
 380 001c FFF7FEFF 		bl	prints		@
 381              	.LVL31:
 382              	.L21:
 383              	@ ../../peripheral_library/drv/drvUART.c:205: }
 175:../../peripheral_library/drv/drvUART.c **** 	}
 176:../../peripheral_library/drv/drvUART.c **** 
 177:../../peripheral_library/drv/drvUART.c **** 	if (sg && b == 10 && i < 0) {
 178:../../peripheral_library/drv/drvUART.c **** 		neg = 1;
 179:../../peripheral_library/drv/drvUART.c **** 		u = (unsigned int)-i;
 180:../../peripheral_library/drv/drvUART.c **** 	}
 181:../../peripheral_library/drv/drvUART.c **** 
 182:../../peripheral_library/drv/drvUART.c **** 	s = print_buf + PRINT_BUF_LEN-1;
 183:../../peripheral_library/drv/drvUART.c **** 	*s = '\0';
 184:../../peripheral_library/drv/drvUART.c **** 
 185:../../peripheral_library/drv/drvUART.c **** 	while (u) {
 186:../../peripheral_library/drv/drvUART.c **** 		t = (unsigned int)u % b;
 187:../../peripheral_library/drv/drvUART.c **** 		if( t >= 10 )
 188:../../peripheral_library/drv/drvUART.c **** 			t += letbase - '0' - 10;
 189:../../peripheral_library/drv/drvUART.c **** 		*--s = (char)(t + '0');
 190:../../peripheral_library/drv/drvUART.c **** 		u /= b;
 191:../../peripheral_library/drv/drvUART.c **** 	}
 192:../../peripheral_library/drv/drvUART.c **** 
 193:../../peripheral_library/drv/drvUART.c **** 	if (neg) {
 194:../../peripheral_library/drv/drvUART.c **** 		if( width && (pad & PAD_ZERO) ) {
 195:../../peripheral_library/drv/drvUART.c **** 			printchar (out, '-');
 196:../../peripheral_library/drv/drvUART.c **** 			++pc;
 197:../../peripheral_library/drv/drvUART.c **** 			--width;
 198:../../peripheral_library/drv/drvUART.c **** 		}
 199:../../peripheral_library/drv/drvUART.c **** 		else {
 200:../../peripheral_library/drv/drvUART.c **** 			*--s = '-';
 201:../../peripheral_library/drv/drvUART.c **** 		}
 202:../../peripheral_library/drv/drvUART.c **** 	}
 203:../../peripheral_library/drv/drvUART.c **** 
 204:../../peripheral_library/drv/drvUART.c **** 	return pc + prints (out, s, width, pad);
 205:../../peripheral_library/drv/drvUART.c **** }
 384              		.loc 1 205 1 view .LVU72
 385 0020 05B0     		add	sp, sp, #20	@,,
 386              		.cfi_remember_state
 387              		.cfi_def_cfa_offset 28
 388              		@ sp needed	@
ARM GAS  /tmp/cc3nwSiR.s 			page 12


 389 0022 BDE8F083 		pop	{r4, r5, r6, r7, r8, r9, pc}	@
 390              	.LVL32:
 391              	.L22:
 392              		.cfi_restore_state
 177:../../peripheral_library/drv/drvUART.c **** 		neg = 1;
 393              		.loc 1 177 2 is_stmt 1 view .LVU73
 394              	@ ../../peripheral_library/drv/drvUART.c:177: 	if (sg && b == 10 && i < 0) {
 177:../../peripheral_library/drv/drvUART.c **** 		neg = 1;
 395              		.loc 1 177 5 is_stmt 0 view .LVU74
 396 0026 23B1     		cbz	r3, .L24	@ sg,
 397              	@ ../../peripheral_library/drv/drvUART.c:177: 	if (sg && b == 10 && i < 0) {
 177:../../peripheral_library/drv/drvUART.c **** 		neg = 1;
 398              		.loc 1 177 9 discriminator 1 view .LVU75
 399 0028 0A2A     		cmp	r2, #10	@ b,
 400 002a 29D1     		bne	.L30		@,
 401              	@ ../../peripheral_library/drv/drvUART.c:177: 	if (sg && b == 10 && i < 0) {
 177:../../peripheral_library/drv/drvUART.c **** 		neg = 1;
 402              		.loc 1 177 20 discriminator 2 view .LVU76
 403 002c 0029     		cmp	r1, #0	@ u,
 404 002e 27DA     		bge	.L30		@,
 178:../../peripheral_library/drv/drvUART.c **** 		u = (unsigned int)-i;
 405              		.loc 1 178 3 is_stmt 1 view .LVU77
 406              	.LVL33:
 179:../../peripheral_library/drv/drvUART.c **** 	}
 407              		.loc 1 179 3 view .LVU78
 408              	@ ../../peripheral_library/drv/drvUART.c:179: 		u = (unsigned int)-i;
 179:../../peripheral_library/drv/drvUART.c **** 	}
 409              		.loc 1 179 21 is_stmt 0 view .LVU79
 410 0030 4942     		rsbs	r1, r1, #0	@ u, u
 411              	.LVL34:
 412              	.L24:
 182:../../peripheral_library/drv/drvUART.c **** 	*s = '\0';
 413              		.loc 1 182 2 is_stmt 1 view .LVU80
 183:../../peripheral_library/drv/drvUART.c **** 
 414              		.loc 1 183 2 view .LVU81
 415              	@ ../../peripheral_library/drv/drvUART.c:183: 	*s = '\0';
 183:../../peripheral_library/drv/drvUART.c **** 
 416              		.loc 1 183 5 is_stmt 0 view .LVU82
 417 0032 0023     		movs	r3, #0	@ tmp136,
 418              	.LVL35:
 183:../../peripheral_library/drv/drvUART.c **** 
 419              		.loc 1 183 5 view .LVU83
 420 0034 8DF80F30 		strb	r3, [sp, #15]	@ tmp136, MEM[(char *)&print_buf + 11B]
 185:../../peripheral_library/drv/drvUART.c **** 		t = (unsigned int)u % b;
 421              		.loc 1 185 2 is_stmt 1 view .LVU84
 422              	@ ../../peripheral_library/drv/drvUART.c:188: 			t += letbase - '0' - 10;
 188:../../peripheral_library/drv/drvUART.c **** 		*--s = (char)(t + '0');
 423              		.loc 1 188 23 is_stmt 0 view .LVU85
 424 0038 0E9B     		ldr	r3, [sp, #56]	@ letbase, letbase
 425              	@ ../../peripheral_library/drv/drvUART.c:182: 	s = print_buf + PRINT_BUF_LEN-1;
 182:../../peripheral_library/drv/drvUART.c **** 	*s = '\0';
 426              		.loc 1 182 4 view .LVU86
 427 003a 0DF10F07 		add	r7, sp, #15	@ s,,
 428              	.LVL36:
 429              	@ ../../peripheral_library/drv/drvUART.c:188: 			t += letbase - '0' - 10;
 188:../../peripheral_library/drv/drvUART.c **** 		*--s = (char)(t + '0');
 430              		.loc 1 188 23 view .LVU87
ARM GAS  /tmp/cc3nwSiR.s 			page 13


 431 003e 3A3B     		subs	r3, r3, #58	@ tmp152, letbase,
 432              	.LVL37:
 433              	.L26:
 186:../../peripheral_library/drv/drvUART.c **** 		if( t >= 10 )
 434              		.loc 1 186 3 is_stmt 1 view .LVU88
 435              	@ ../../peripheral_library/drv/drvUART.c:186: 		t = (unsigned int)u % b;
 186:../../peripheral_library/drv/drvUART.c **** 		if( t >= 10 )
 436              		.loc 1 186 23 is_stmt 0 view .LVU89
 437 0040 B1FBF2FC 		udiv	ip, r1, r2	@ tmp140, u, b
 438 0044 02FB1C10 		mls	r0, r2, ip, r1	@ t, b, tmp140, u
 439              	.LVL38:
 187:../../peripheral_library/drv/drvUART.c **** 			t += letbase - '0' - 10;
 440              		.loc 1 187 3 is_stmt 1 view .LVU90
 441              	@ ../../peripheral_library/drv/drvUART.c:187: 		if( t >= 10 )
 187:../../peripheral_library/drv/drvUART.c **** 			t += letbase - '0' - 10;
 442              		.loc 1 187 5 is_stmt 0 view .LVU91
 443 0048 0928     		cmp	r0, #9	@ t,
 188:../../peripheral_library/drv/drvUART.c **** 		*--s = (char)(t + '0');
 444              		.loc 1 188 4 is_stmt 1 view .LVU92
 445              	@ ../../peripheral_library/drv/drvUART.c:188: 			t += letbase - '0' - 10;
 188:../../peripheral_library/drv/drvUART.c **** 		*--s = (char)(t + '0');
 446              		.loc 1 188 6 is_stmt 0 view .LVU93
 447 004a 88BF     		it	hi
 448 004c C018     		addhi	r0, r0, r3	@ t, tmp152
 449              	.LVL39:
 189:../../peripheral_library/drv/drvUART.c **** 		u /= b;
 450              		.loc 1 189 3 is_stmt 1 view .LVU94
 451              	@ ../../peripheral_library/drv/drvUART.c:189: 		*--s = (char)(t + '0');
 189:../../peripheral_library/drv/drvUART.c **** 		u /= b;
 452              		.loc 1 189 10 is_stmt 0 view .LVU95
 453 004e 3030     		adds	r0, r0, #48	@ tmp144, t,
 454              	.LVL40:
 455              	@ ../../peripheral_library/drv/drvUART.c:185: 	while (u) {
 185:../../peripheral_library/drv/drvUART.c **** 		t = (unsigned int)u % b;
 456              		.loc 1 185 8 view .LVU96
 457 0050 8A42     		cmp	r2, r1	@ b, u
 458              	@ ../../peripheral_library/drv/drvUART.c:189: 		*--s = (char)(t + '0');
 189:../../peripheral_library/drv/drvUART.c **** 		u /= b;
 459              		.loc 1 189 8 view .LVU97
 460 0052 07F1FF36 		add	r6, r7, #-1	@ s, s,
 461              	.LVL41:
 189:../../peripheral_library/drv/drvUART.c **** 		u /= b;
 462              		.loc 1 189 8 view .LVU98
 463 0056 07F8010C 		strb	r0, [r7, #-1]	@ tmp144, MEM[base: s_39, offset: 0B]
 190:../../peripheral_library/drv/drvUART.c **** 	}
 464              		.loc 1 190 3 is_stmt 1 view .LVU99
 465              	.LVL42:
 466              	@ ../../peripheral_library/drv/drvUART.c:185: 	while (u) {
 185:../../peripheral_library/drv/drvUART.c **** 		t = (unsigned int)u % b;
 467              		.loc 1 185 8 is_stmt 0 view .LVU100
 468 005a 13D9     		bls	.L31		@,
 193:../../peripheral_library/drv/drvUART.c **** 		if( width && (pad & PAD_ZERO) ) {
 469              		.loc 1 193 2 is_stmt 1 view .LVU101
 470              	@ ../../peripheral_library/drv/drvUART.c:193: 	if (neg) {
 193:../../peripheral_library/drv/drvUART.c **** 		if( width && (pad & PAD_ZERO) ) {
 471              		.loc 1 193 5 is_stmt 0 view .LVU102
 472 005c 44B1     		cbz	r4, .L27	@ sg,
ARM GAS  /tmp/cc3nwSiR.s 			page 14


 194:../../peripheral_library/drv/drvUART.c **** 			printchar (out, '-');
 473              		.loc 1 194 3 is_stmt 1 view .LVU103
 474              	@ ../../peripheral_library/drv/drvUART.c:194: 		if( width && (pad & PAD_ZERO) ) {
 194:../../peripheral_library/drv/drvUART.c **** 			printchar (out, '-');
 475              		.loc 1 194 5 is_stmt 0 view .LVU104
 476 005e A5B1     		cbz	r5, .L28	@ width,
 477              	@ ../../peripheral_library/drv/drvUART.c:194: 		if( width && (pad & PAD_ZERO) ) {
 194:../../peripheral_library/drv/drvUART.c **** 			printchar (out, '-');
 478              		.loc 1 194 13 discriminator 1 view .LVU105
 479 0060 19F0020F 		tst	r9, #2	@ pad,
 480 0064 11D0     		beq	.L28		@,
 195:../../peripheral_library/drv/drvUART.c **** 			++pc;
 481              		.loc 1 195 4 is_stmt 1 view .LVU106
 482 0066 2D21     		movs	r1, #45	@,
 483              	.LVL43:
 195:../../peripheral_library/drv/drvUART.c **** 			++pc;
 484              		.loc 1 195 4 is_stmt 0 view .LVU107
 485 0068 4046     		mov	r0, r8	@, out
 486              	.LVL44:
 195:../../peripheral_library/drv/drvUART.c **** 			++pc;
 487              		.loc 1 195 4 view .LVU108
 488 006a FFF7FEFF 		bl	printchar		@
 489              	.LVL45:
 196:../../peripheral_library/drv/drvUART.c **** 			--width;
 490              		.loc 1 196 4 is_stmt 1 view .LVU109
 197:../../peripheral_library/drv/drvUART.c **** 		}
 491              		.loc 1 197 4 view .LVU110
 492 006e 013D     		subs	r5, r5, #1	@ width, width,
 493              	.LVL46:
 494              	.L27:
 204:../../peripheral_library/drv/drvUART.c **** }
 495              		.loc 1 204 2 view .LVU111
 496              	@ ../../peripheral_library/drv/drvUART.c:204: 	return pc + prints (out, s, width, pad);
 204:../../peripheral_library/drv/drvUART.c **** }
 497              		.loc 1 204 14 is_stmt 0 view .LVU112
 498 0070 4B46     		mov	r3, r9	@, pad
 499 0072 2A46     		mov	r2, r5	@, width
 500 0074 3146     		mov	r1, r6	@, s
 501 0076 4046     		mov	r0, r8	@, out
 502 0078 FFF7FEFF 		bl	prints		@
 503              	.LVL47:
 504              	@ ../../peripheral_library/drv/drvUART.c:204: 	return pc + prints (out, s, width, pad);
 204:../../peripheral_library/drv/drvUART.c **** }
 505              		.loc 1 204 12 view .LVU113
 506 007c 2044     		add	r0, r0, r4	@ <retval>, sg
 507 007e CFE7     		b	.L21		@
 508              	.LVL48:
 509              	.L30:
 510              	@ ../../peripheral_library/drv/drvUART.c:168: 	register int t, neg = 0, pc = 0;
 168:../../peripheral_library/drv/drvUART.c **** 	register unsigned int u = (unsigned int)i;
 511              		.loc 1 168 18 view .LVU114
 512 0080 0024     		movs	r4, #0	@ sg,
 513 0082 D6E7     		b	.L24		@
 514              	.LVL49:
 515              	.L31:
 516              	@ ../../peripheral_library/drv/drvUART.c:190: 		u /= b;
 190:../../peripheral_library/drv/drvUART.c **** 	}
ARM GAS  /tmp/cc3nwSiR.s 			page 15


 517              		.loc 1 190 5 view .LVU115
 518 0084 6146     		mov	r1, ip	@ u, tmp140
 519              	.LVL50:
 190:../../peripheral_library/drv/drvUART.c **** 	}
 520              		.loc 1 190 5 view .LVU116
 521 0086 3746     		mov	r7, r6	@ s, s
 522 0088 DAE7     		b	.L26		@
 523              	.LVL51:
 524              	.L28:
 200:../../peripheral_library/drv/drvUART.c **** 		}
 525              		.loc 1 200 4 is_stmt 1 view .LVU117
 526              	@ ../../peripheral_library/drv/drvUART.c:200: 			*--s = '-';
 200:../../peripheral_library/drv/drvUART.c **** 		}
 527              		.loc 1 200 9 is_stmt 0 view .LVU118
 528 008a 2D23     		movs	r3, #45	@ tmp147,
 529 008c 06F8013C 		strb	r3, [r6, #-1]	@ tmp147, MEM[(char *)s_39 + 4294967295B]
 530              	@ ../../peripheral_library/drv/drvUART.c:168: 	register int t, neg = 0, pc = 0;
 168:../../peripheral_library/drv/drvUART.c **** 	register unsigned int u = (unsigned int)i;
 531              		.loc 1 168 27 view .LVU119
 532 0090 0024     		movs	r4, #0	@ sg,
 533              	.LVL52:
 534              	@ ../../peripheral_library/drv/drvUART.c:200: 			*--s = '-';
 200:../../peripheral_library/drv/drvUART.c **** 		}
 535              		.loc 1 200 9 view .LVU120
 536 0092 BE1E     		subs	r6, r7, #2	@ s, s,
 537              	.LVL53:
 200:../../peripheral_library/drv/drvUART.c **** 		}
 538              		.loc 1 200 9 view .LVU121
 539 0094 ECE7     		b	.L27		@
 540              		.cfi_endproc
 541              	.LFE2:
 542              		.size	printi, .-printi
 543              		.section	.text.print,"ax",%progbits
 544              		.align	1
 545              		.global	print
 546              		.syntax unified
 547              		.thumb
 548              		.thumb_func
 549              		.fpu fpv4-sp-d16
 550              		.type	print, %function
 551              	print:
 552              	.LVL54:
 553              	.LFB3:
 206:../../peripheral_library/drv/drvUART.c **** 
 207:../../peripheral_library/drv/drvUART.c **** int print( char **out, const char *format, va_list args )
 208:../../peripheral_library/drv/drvUART.c **** {
 554              		.loc 1 208 1 is_stmt 1 view -0
 555              		.cfi_startproc
 556              		@ args = 0, pretend = 0, frame = 8
 557              		@ frame_needed = 0, uses_anonymous_args = 0
 558              		.loc 1 208 1 is_stmt 0 view .LVU123
 559 0000 2DE9F043 		push	{r4, r5, r6, r7, r8, r9, lr}	@
 560              		.cfi_def_cfa_offset 28
 561              		.cfi_offset 4, -28
 562              		.cfi_offset 5, -24
 563              		.cfi_offset 6, -20
 564              		.cfi_offset 7, -16
ARM GAS  /tmp/cc3nwSiR.s 			page 16


 565              		.cfi_offset 8, -12
 566              		.cfi_offset 9, -8
 567              		.cfi_offset 14, -4
 568              	.LBB3:
 569              	@ ../../peripheral_library/drv/drvUART.c:232: 				register char *s = (char *)va_arg( args, int );
 209:../../peripheral_library/drv/drvUART.c **** 	register int width, pad;
 210:../../peripheral_library/drv/drvUART.c **** 	register int pc = 0;
 211:../../peripheral_library/drv/drvUART.c **** 	char scr[2];
 212:../../peripheral_library/drv/drvUART.c **** 
 213:../../peripheral_library/drv/drvUART.c **** 	for (; *format != 0; ++format) {
 214:../../peripheral_library/drv/drvUART.c **** 		if (*format == '%') {
 215:../../peripheral_library/drv/drvUART.c **** 			++format;
 216:../../peripheral_library/drv/drvUART.c **** 			width = pad = 0;
 217:../../peripheral_library/drv/drvUART.c **** 			if (*format == '\0') break;
 218:../../peripheral_library/drv/drvUART.c **** 			if (*format == '%') goto out;
 219:../../peripheral_library/drv/drvUART.c **** 			if (*format == '-') {
 220:../../peripheral_library/drv/drvUART.c **** 				++format;
 221:../../peripheral_library/drv/drvUART.c **** 				pad = PAD_RIGHT;
 222:../../peripheral_library/drv/drvUART.c **** 			}
 223:../../peripheral_library/drv/drvUART.c **** 			while (*format == '0') {
 224:../../peripheral_library/drv/drvUART.c **** 				++format;
 225:../../peripheral_library/drv/drvUART.c **** 				pad |= PAD_ZERO;
 226:../../peripheral_library/drv/drvUART.c **** 			}
 227:../../peripheral_library/drv/drvUART.c **** 			for ( ; *format >= '0' && *format <= '9'; ++format) {
 228:../../peripheral_library/drv/drvUART.c **** 				width *= 10;
 229:../../peripheral_library/drv/drvUART.c **** 				width += *format - '0';
 230:../../peripheral_library/drv/drvUART.c **** 			}
 231:../../peripheral_library/drv/drvUART.c **** 			if( *format == 's' ) {
 232:../../peripheral_library/drv/drvUART.c **** 				register char *s = (char *)va_arg( args, int );
 570              		.loc 1 232 20 view .LVU124
 571 0004 DFF80891 		ldr	r9, .L78	@ tmp185,
 572              	.LBE3:
 573              	@ ../../peripheral_library/drv/drvUART.c:208: {
 208:../../peripheral_library/drv/drvUART.c **** 	register int width, pad;
 574              		.loc 1 208 1 view .LVU125
 575 0008 87B0     		sub	sp, sp, #28	@,,
 576              		.cfi_def_cfa_offset 56
 577              	@ ../../peripheral_library/drv/drvUART.c:208: {
 208:../../peripheral_library/drv/drvUART.c **** 	register int width, pad;
 578              		.loc 1 208 1 view .LVU126
 579 000a 0746     		mov	r7, r0	@ out, out
 209:../../peripheral_library/drv/drvUART.c **** 	register int width, pad;
 580              		.loc 1 209 2 is_stmt 1 view .LVU127
 210:../../peripheral_library/drv/drvUART.c **** 	char scr[2];
 581              		.loc 1 210 2 view .LVU128
 582              	.LVL55:
 211:../../peripheral_library/drv/drvUART.c **** 
 583              		.loc 1 211 2 view .LVU129
 213:../../peripheral_library/drv/drvUART.c **** 		if (*format == '%') {
 584              		.loc 1 213 2 view .LVU130
 585              	@ ../../peripheral_library/drv/drvUART.c:208: {
 208:../../peripheral_library/drv/drvUART.c **** 	register int width, pad;
 586              		.loc 1 208 1 is_stmt 0 view .LVU131
 587 000c 0E46     		mov	r6, r1	@ format, format
 588 000e 1446     		mov	r4, r2	@ args, args
 589              	@ ../../peripheral_library/drv/drvUART.c:210: 	register int pc = 0;
 210:../../peripheral_library/drv/drvUART.c **** 	char scr[2];
ARM GAS  /tmp/cc3nwSiR.s 			page 17


 590              		.loc 1 210 15 view .LVU132
 591 0010 0025     		movs	r5, #0	@ <retval>,
 592              	@ ../../peripheral_library/drv/drvUART.c:228: 				width *= 10;
 228:../../peripheral_library/drv/drvUART.c **** 				width += *format - '0';
 593              		.loc 1 228 11 view .LVU133
 594 0012 4FF00A08 		mov	r8, #10	@ tmp184,
 595              	.LVL56:
 596              	.L45:
 597              	@ ../../peripheral_library/drv/drvUART.c:213: 	for (; *format != 0; ++format) {
 213:../../peripheral_library/drv/drvUART.c **** 		if (*format == '%') {
 598              		.loc 1 213 9 discriminator 1 view .LVU134
 599 0016 3378     		ldrb	r3, [r6]	@ zero_extendqisi2	@ _23, *format_29
 600              	@ ../../peripheral_library/drv/drvUART.c:213: 	for (; *format != 0; ++format) {
 213:../../peripheral_library/drv/drvUART.c **** 		if (*format == '%') {
 601              		.loc 1 213 2 discriminator 1 view .LVU135
 602 0018 3BB9     		cbnz	r3, .L61	@ _23,
 603              	.LVL57:
 604              	.L47:
 233:../../peripheral_library/drv/drvUART.c **** 				pc += prints (out, s?s:"(null)", width, pad);
 234:../../peripheral_library/drv/drvUART.c **** 				continue;
 235:../../peripheral_library/drv/drvUART.c **** 			}
 236:../../peripheral_library/drv/drvUART.c **** 			if( *format == 'd' ) {
 237:../../peripheral_library/drv/drvUART.c **** 				pc += printi (out, va_arg( args, int ), 10, 1, width, pad, 'a');
 238:../../peripheral_library/drv/drvUART.c **** 				continue;
 239:../../peripheral_library/drv/drvUART.c **** 			}
 240:../../peripheral_library/drv/drvUART.c **** 			if( *format == 'x' ) {
 241:../../peripheral_library/drv/drvUART.c **** 				pc += printi (out, va_arg( args, int ), 16, 0, width, pad, 'a');
 242:../../peripheral_library/drv/drvUART.c **** 				continue;
 243:../../peripheral_library/drv/drvUART.c **** 			}
 244:../../peripheral_library/drv/drvUART.c **** 			if( *format == 'X' ) {
 245:../../peripheral_library/drv/drvUART.c **** 				pc += printi (out, va_arg( args, int ), 16, 0, width, pad, 'A');
 246:../../peripheral_library/drv/drvUART.c **** 				continue;
 247:../../peripheral_library/drv/drvUART.c **** 			}
 248:../../peripheral_library/drv/drvUART.c **** 			if( *format == 'u' ) {
 249:../../peripheral_library/drv/drvUART.c **** 				pc += printi (out, va_arg( args, int ), 10, 0, width, pad, 'a');
 250:../../peripheral_library/drv/drvUART.c **** 				continue;
 251:../../peripheral_library/drv/drvUART.c **** 			}
 252:../../peripheral_library/drv/drvUART.c **** 			if( *format == 'c' ) {
 253:../../peripheral_library/drv/drvUART.c **** 				/* char are converted to int then pushed on the stack */
 254:../../peripheral_library/drv/drvUART.c **** 				scr[0] = (char)va_arg( args, int );
 255:../../peripheral_library/drv/drvUART.c **** 				scr[1] = '\0';
 256:../../peripheral_library/drv/drvUART.c **** 				pc += prints (out, scr, width, pad);
 257:../../peripheral_library/drv/drvUART.c **** 				continue;
 258:../../peripheral_library/drv/drvUART.c **** 			}
 259:../../peripheral_library/drv/drvUART.c **** 		}
 260:../../peripheral_library/drv/drvUART.c **** 		else {
 261:../../peripheral_library/drv/drvUART.c **** 		out:
 262:../../peripheral_library/drv/drvUART.c **** 		  if (*format == '\n')
 263:../../peripheral_library/drv/drvUART.c **** 		    printchar (out, '\r');
 264:../../peripheral_library/drv/drvUART.c **** 		  printchar (out, *format);
 265:../../peripheral_library/drv/drvUART.c **** 		  ++pc;
 266:../../peripheral_library/drv/drvUART.c **** 		}
 267:../../peripheral_library/drv/drvUART.c **** 	}
 268:../../peripheral_library/drv/drvUART.c **** 	if (out) **out = '\0';
 605              		.loc 1 268 2 is_stmt 1 view .LVU136
 606              	@ ../../peripheral_library/drv/drvUART.c:268: 	if (out) **out = '\0';
 607              		.loc 1 268 5 is_stmt 0 view .LVU137
ARM GAS  /tmp/cc3nwSiR.s 			page 18


 608 001a 17B1     		cbz	r7, .L44	@ out,
 609              		.loc 1 268 11 is_stmt 1 discriminator 1 view .LVU138
 610              	@ ../../peripheral_library/drv/drvUART.c:268: 	if (out) **out = '\0';
 611              		.loc 1 268 12 is_stmt 0 discriminator 1 view .LVU139
 612 001c 3B68     		ldr	r3, [r7]	@ _24, *out_50(D)
 613              	@ ../../peripheral_library/drv/drvUART.c:268: 	if (out) **out = '\0';
 614              		.loc 1 268 17 discriminator 1 view .LVU140
 615 001e 0022     		movs	r2, #0	@ tmp179,
 616              	.LVL58:
 617              		.loc 1 268 17 discriminator 1 view .LVU141
 618 0020 1A70     		strb	r2, [r3]	@ tmp179, *_24
 269:../../peripheral_library/drv/drvUART.c **** 	va_end( args );
 619              		.loc 1 269 2 is_stmt 1 discriminator 1 view .LVU142
 270:../../peripheral_library/drv/drvUART.c **** 	return pc;
 620              		.loc 1 270 2 discriminator 1 view .LVU143
 621              	.LVL59:
 622              	.L44:
 623              	@ ../../peripheral_library/drv/drvUART.c:271: }
 271:../../peripheral_library/drv/drvUART.c **** }
 624              		.loc 1 271 1 is_stmt 0 view .LVU144
 625 0022 2846     		mov	r0, r5	@, <retval>
 626 0024 07B0     		add	sp, sp, #28	@,,
 627              		.cfi_remember_state
 628              		.cfi_def_cfa_offset 28
 629              		@ sp needed	@
 630 0026 BDE8F083 		pop	{r4, r5, r6, r7, r8, r9, pc}	@
 631              	.LVL60:
 632              	.L61:
 633              		.cfi_restore_state
 214:../../peripheral_library/drv/drvUART.c **** 			++format;
 634              		.loc 1 214 3 is_stmt 1 view .LVU145
 635              	@ ../../peripheral_library/drv/drvUART.c:214: 		if (*format == '%') {
 214:../../peripheral_library/drv/drvUART.c **** 			++format;
 636              		.loc 1 214 6 is_stmt 0 view .LVU146
 637 002a 252B     		cmp	r3, #37	@ _23,
 638 002c 62D1     		bne	.L46		@,
 215:../../peripheral_library/drv/drvUART.c **** 			width = pad = 0;
 639              		.loc 1 215 4 is_stmt 1 view .LVU147
 640              	.LVL61:
 216:../../peripheral_library/drv/drvUART.c **** 			if (*format == '\0') break;
 641              		.loc 1 216 4 view .LVU148
 217:../../peripheral_library/drv/drvUART.c **** 			if (*format == '%') goto out;
 642              		.loc 1 217 4 view .LVU149
 643              	@ ../../peripheral_library/drv/drvUART.c:217: 			if (*format == '\0') break;
 217:../../peripheral_library/drv/drvUART.c **** 			if (*format == '%') goto out;
 644              		.loc 1 217 8 is_stmt 0 view .LVU150
 645 002e 7378     		ldrb	r3, [r6, #1]	@ zero_extendqisi2	@ _2, MEM[(const char *)format_29 + 1B]
 646              	@ ../../peripheral_library/drv/drvUART.c:217: 			if (*format == '\0') break;
 217:../../peripheral_library/drv/drvUART.c **** 			if (*format == '%') goto out;
 647              		.loc 1 217 7 view .LVU151
 648 0030 002B     		cmp	r3, #0	@ _2
 649 0032 F2D0     		beq	.L47	@
 650              	@ ../../peripheral_library/drv/drvUART.c:218: 			if (*format == '%') goto out;
 218:../../peripheral_library/drv/drvUART.c **** 			if (*format == '-') {
 651              		.loc 1 218 7 view .LVU152
 652 0034 252B     		cmp	r3, #37	@ _2,
 653 0036 06F10102 		add	r2, r6, #1	@ _1, format,
ARM GAS  /tmp/cc3nwSiR.s 			page 19


 654              	.LVL62:
 218:../../peripheral_library/drv/drvUART.c **** 			if (*format == '-') {
 655              		.loc 1 218 4 is_stmt 1 view .LVU153
 656              	@ ../../peripheral_library/drv/drvUART.c:218: 			if (*format == '%') goto out;
 218:../../peripheral_library/drv/drvUART.c **** 			if (*format == '-') {
 657              		.loc 1 218 7 is_stmt 0 view .LVU154
 658 003a 5AD0     		beq	.L63		@,
 219:../../peripheral_library/drv/drvUART.c **** 				++format;
 659              		.loc 1 219 4 is_stmt 1 view .LVU155
 660              	@ ../../peripheral_library/drv/drvUART.c:219: 			if (*format == '-') {
 219:../../peripheral_library/drv/drvUART.c **** 				++format;
 661              		.loc 1 219 7 is_stmt 0 view .LVU156
 662 003c 2D2B     		cmp	r3, #45	@ _2,
 220:../../peripheral_library/drv/drvUART.c **** 				pad = PAD_RIGHT;
 663              		.loc 1 220 5 is_stmt 1 view .LVU157
 664 003e 06BF     		itte	eq
 665 0040 B21C     		addeq	r2, r6, #2	@ _1, format,
 666              	.LVL63:
 221:../../peripheral_library/drv/drvUART.c **** 			}
 667              		.loc 1 221 5 view .LVU158
 668              	@ ../../peripheral_library/drv/drvUART.c:221: 				pad = PAD_RIGHT;
 221:../../peripheral_library/drv/drvUART.c **** 			}
 669              		.loc 1 221 9 is_stmt 0 view .LVU159
 670 0042 0123     		moveq	r3, #1	@ pad,
 671              	@ ../../peripheral_library/drv/drvUART.c:216: 			width = pad = 0;
 216:../../peripheral_library/drv/drvUART.c **** 			if (*format == '\0') break;
 672              		.loc 1 216 16 view .LVU160
 673 0044 0023     		movne	r3, #0	@ pad,
 674              	.LVL64:
 675              	.L72:
 676              	@ ../../peripheral_library/drv/drvUART.c:224: 				++format;
 224:../../peripheral_library/drv/drvUART.c **** 				pad |= PAD_ZERO;
 677              		.loc 1 224 5 view .LVU161
 678 0046 1646     		mov	r6, r2	@ format, _70
 679              	.LVL65:
 680              	@ ../../peripheral_library/drv/drvUART.c:223: 			while (*format == '0') {
 223:../../peripheral_library/drv/drvUART.c **** 				++format;
 681              		.loc 1 223 10 view .LVU162
 682 0048 12F8011B 		ldrb	r1, [r2], #1	@ zero_extendqisi2	@ MEM[base: format_25, offset: 0B], MEM[base: format_25, offs
 683              	.LVL66:
 223:../../peripheral_library/drv/drvUART.c **** 				++format;
 684              		.loc 1 223 10 view .LVU163
 685 004c 3029     		cmp	r1, #48	@ MEM[base: format_25, offset: 0B],
 686 004e 15D0     		beq	.L50		@,
 687              	@ ../../peripheral_library/drv/drvUART.c:216: 			width = pad = 0;
 216:../../peripheral_library/drv/drvUART.c **** 			if (*format == '\0') break;
 688              		.loc 1 216 10 view .LVU164
 689 0050 0022     		movs	r2, #0	@ width,
 690              	.LVL67:
 691              	.L51:
 692              	@ ../../peripheral_library/drv/drvUART.c:227: 			for ( ; *format >= '0' && *format <= '9'; ++format
 227:../../peripheral_library/drv/drvUART.c **** 				width *= 10;
 693              		.loc 1 227 12 discriminator 1 view .LVU165
 694 0052 3046     		mov	r0, r6	@ _66, format
 695 0054 10F8011B 		ldrb	r1, [r0], #1	@ zero_extendqisi2	@ _8, MEM[base: format_26, offset: 0B]
 696              	@ ../../peripheral_library/drv/drvUART.c:227: 			for ( ; *format >= '0' && *format <= '9'; ++format
 227:../../peripheral_library/drv/drvUART.c **** 				width *= 10;
ARM GAS  /tmp/cc3nwSiR.s 			page 20


 697              		.loc 1 227 27 discriminator 1 view .LVU166
 698 0058 A1F1300C 		sub	ip, r1, #48	@ tmp160, _8,
 699              	@ ../../peripheral_library/drv/drvUART.c:227: 			for ( ; *format >= '0' && *format <= '9'; ++format
 227:../../peripheral_library/drv/drvUART.c **** 				width *= 10;
 700              		.loc 1 227 4 discriminator 1 view .LVU167
 701 005c 5FFA8CFE 		uxtb	lr, ip	@ tmp161, tmp160
 702 0060 BEF1090F 		cmp	lr, #9	@ tmp161,
 703 0064 0DD9     		bls	.L52		@,
 231:../../peripheral_library/drv/drvUART.c **** 				register char *s = (char *)va_arg( args, int );
 704              		.loc 1 231 4 is_stmt 1 view .LVU168
 705              	@ ../../peripheral_library/drv/drvUART.c:231: 			if( *format == 's' ) {
 231:../../peripheral_library/drv/drvUART.c **** 				register char *s = (char *)va_arg( args, int );
 706              		.loc 1 231 6 is_stmt 0 view .LVU169
 707 0066 7329     		cmp	r1, #115	@ _8,
 708 0068 0FD1     		bne	.L53		@,
 709              	.LBB4:
 232:../../peripheral_library/drv/drvUART.c **** 				pc += prints (out, s?s:"(null)", width, pad);
 710              		.loc 1 232 5 is_stmt 1 view .LVU170
 711              	@ ../../peripheral_library/drv/drvUART.c:232: 				register char *s = (char *)va_arg( args, int );
 232:../../peripheral_library/drv/drvUART.c **** 				pc += prints (out, s?s:"(null)", width, pad);
 712              		.loc 1 232 32 is_stmt 0 view .LVU171
 713 006a 2168     		ldr	r1, [r4]	@ _11, MEM[(int *)_101]
 714              	.LVL68:
 232:../../peripheral_library/drv/drvUART.c **** 				pc += prints (out, s?s:"(null)", width, pad);
 715              		.loc 1 232 32 view .LVU172
 716 006c 0434     		adds	r4, r4, #4	@ args, args,
 717              	.LVL69:
 233:../../peripheral_library/drv/drvUART.c **** 				continue;
 718              		.loc 1 233 5 is_stmt 1 view .LVU173
 719              	@ ../../peripheral_library/drv/drvUART.c:233: 				pc += prints (out, s?s:"(null)", width, pad);
 233:../../peripheral_library/drv/drvUART.c **** 				continue;
 720              		.loc 1 233 11 is_stmt 0 view .LVU174
 721 006e 0029     		cmp	r1, #0	@ _11,
 722 0070 08BF     		it	eq		@
 723 0072 4946     		moveq	r1, r9	@,, tmp185
 724              	.LVL70:
 725              	.L77:
 233:../../peripheral_library/drv/drvUART.c **** 				continue;
 726              		.loc 1 233 11 view .LVU175
 727              	.LBE4:
 728              	@ ../../peripheral_library/drv/drvUART.c:256: 				pc += prints (out, scr, width, pad);
 256:../../peripheral_library/drv/drvUART.c **** 				continue;
 729              		.loc 1 256 11 view .LVU176
 730 0074 3846     		mov	r0, r7	@, out
 731 0076 FFF7FEFF 		bl	prints		@
 732              	.LVL71:
 256:../../peripheral_library/drv/drvUART.c **** 				continue;
 733              		.loc 1 256 11 view .LVU177
 734 007a 14E0     		b	.L73		@
 735              	.LVL72:
 736              	.L50:
 224:../../peripheral_library/drv/drvUART.c **** 				pad |= PAD_ZERO;
 737              		.loc 1 224 5 is_stmt 1 view .LVU178
 225:../../peripheral_library/drv/drvUART.c **** 			}
 738              		.loc 1 225 5 view .LVU179
 739              	@ ../../peripheral_library/drv/drvUART.c:225: 				pad |= PAD_ZERO;
 225:../../peripheral_library/drv/drvUART.c **** 			}
ARM GAS  /tmp/cc3nwSiR.s 			page 21


 740              		.loc 1 225 9 is_stmt 0 view .LVU180
 741 007c 43F00203 		orr	r3, r3, #2	@ pad, pad,
 742              	.LVL73:
 225:../../peripheral_library/drv/drvUART.c **** 			}
 743              		.loc 1 225 9 view .LVU181
 744 0080 E1E7     		b	.L72		@
 745              	.LVL74:
 746              	.L52:
 228:../../peripheral_library/drv/drvUART.c **** 				width += *format - '0';
 747              		.loc 1 228 5 is_stmt 1 discriminator 2 view .LVU182
 229:../../peripheral_library/drv/drvUART.c **** 			}
 748              		.loc 1 229 5 discriminator 2 view .LVU183
 749              	@ ../../peripheral_library/drv/drvUART.c:229: 				width += *format - '0';
 229:../../peripheral_library/drv/drvUART.c **** 			}
 750              		.loc 1 229 11 is_stmt 0 discriminator 2 view .LVU184
 751 0082 08FB02C2 		mla	r2, r8, r2, ip	@ width, tmp184, width, tmp160
 752              	.LVL75:
 753              	@ ../../peripheral_library/drv/drvUART.c:227: 			for ( ; *format >= '0' && *format <= '9'; ++format
 227:../../peripheral_library/drv/drvUART.c **** 				width *= 10;
 754              		.loc 1 227 46 discriminator 2 view .LVU185
 755 0086 0646     		mov	r6, r0	@ format, _66
 756 0088 E3E7     		b	.L51		@
 757              	.LVL76:
 758              	.L53:
 236:../../peripheral_library/drv/drvUART.c **** 				pc += printi (out, va_arg( args, int ), 10, 1, width, pad, 'a');
 759              		.loc 1 236 4 is_stmt 1 view .LVU186
 760              	@ ../../peripheral_library/drv/drvUART.c:236: 			if( *format == 'd' ) {
 236:../../peripheral_library/drv/drvUART.c **** 				pc += printi (out, va_arg( args, int ), 10, 1, width, pad, 'a');
 761              		.loc 1 236 6 is_stmt 0 view .LVU187
 762 008a 6429     		cmp	r1, #100	@ _8,
 763 008c 0ED1     		bne	.L56		@,
 237:../../peripheral_library/drv/drvUART.c **** 				continue;
 764              		.loc 1 237 5 is_stmt 1 view .LVU188
 765              	@ ../../peripheral_library/drv/drvUART.c:237: 				pc += printi (out, va_arg( args, int ), 10, 1, wi
 237:../../peripheral_library/drv/drvUART.c **** 				continue;
 766              		.loc 1 237 11 is_stmt 0 view .LVU189
 767 008e 6120     		movs	r0, #97	@ tmp164,
 768 0090 CDE90130 		strd	r3, r0, [sp, #4]	@ pad, tmp164,,
 769              	.LVL77:
 237:../../peripheral_library/drv/drvUART.c **** 				continue;
 770              		.loc 1 237 11 view .LVU190
 771 0094 2146     		mov	r1, r4	@ D.5808, args
 772 0096 0092     		str	r2, [sp]	@ width,
 773 0098 0123     		movs	r3, #1	@,
 774              	.LVL78:
 775              	.L75:
 237:../../peripheral_library/drv/drvUART.c **** 				continue;
 776              		.loc 1 237 11 view .LVU191
 777 009a 0A22     		movs	r2, #10	@,
 778              	.LVL79:
 779              	.L74:
 237:../../peripheral_library/drv/drvUART.c **** 				continue;
 780              		.loc 1 237 11 view .LVU192
 781 009c 0968     		ldr	r1, [r1]	@,* D.5808
 782 009e 3846     		mov	r0, r7	@, out
 783 00a0 0434     		adds	r4, r4, #4	@ args, args,
 784              	.LVL80:
ARM GAS  /tmp/cc3nwSiR.s 			page 22


 237:../../peripheral_library/drv/drvUART.c **** 				continue;
 785              		.loc 1 237 11 view .LVU193
 786 00a2 FFF7FEFF 		bl	printi		@
 787              	.LVL81:
 788              	.L73:
 789              	@ ../../peripheral_library/drv/drvUART.c:237: 				pc += printi (out, va_arg( args, int ), 10, 1, wi
 237:../../peripheral_library/drv/drvUART.c **** 				continue;
 790              		.loc 1 237 8 view .LVU194
 791 00a6 0544     		add	r5, r5, r0	@ <retval>,
 792              	.LVL82:
 238:../../peripheral_library/drv/drvUART.c **** 			}
 793              		.loc 1 238 5 is_stmt 1 view .LVU195
 794              	.L55:
 795              	@ ../../peripheral_library/drv/drvUART.c:213: 	for (; *format != 0; ++format) {
 213:../../peripheral_library/drv/drvUART.c **** 		if (*format == '%') {
 796              		.loc 1 213 23 is_stmt 0 view .LVU196
 797 00a8 0136     		adds	r6, r6, #1	@ format, format,
 798              	.LVL83:
 213:../../peripheral_library/drv/drvUART.c **** 		if (*format == '%') {
 799              		.loc 1 213 23 view .LVU197
 800 00aa B4E7     		b	.L45		@
 801              	.LVL84:
 802              	.L56:
 240:../../peripheral_library/drv/drvUART.c **** 				pc += printi (out, va_arg( args, int ), 16, 0, width, pad, 'a');
 803              		.loc 1 240 4 is_stmt 1 view .LVU198
 804              	@ ../../peripheral_library/drv/drvUART.c:240: 			if( *format == 'x' ) {
 240:../../peripheral_library/drv/drvUART.c **** 				pc += printi (out, va_arg( args, int ), 16, 0, width, pad, 'a');
 805              		.loc 1 240 6 is_stmt 0 view .LVU199
 806 00ac 7829     		cmp	r1, #120	@ _8,
 807 00ae 07D1     		bne	.L57		@,
 241:../../peripheral_library/drv/drvUART.c **** 				continue;
 808              		.loc 1 241 5 is_stmt 1 view .LVU200
 809              	.LVL85:
 810              	@ ../../peripheral_library/drv/drvUART.c:241: 				pc += printi (out, va_arg( args, int ), 16, 0, wi
 241:../../peripheral_library/drv/drvUART.c **** 				continue;
 811              		.loc 1 241 11 is_stmt 0 view .LVU201
 812 00b0 2146     		mov	r1, r4	@ D.5810, args
 813 00b2 6120     		movs	r0, #97	@ tmp166,
 814              	.L76:
 815              	@ ../../peripheral_library/drv/drvUART.c:245: 				pc += printi (out, va_arg( args, int ), 16, 0, wi
 245:../../peripheral_library/drv/drvUART.c **** 				continue;
 816              		.loc 1 245 11 view .LVU202
 817 00b4 CDE90130 		strd	r3, r0, [sp, #4]	@ pad, tmp168,,
 818 00b8 0092     		str	r2, [sp]	@ width,
 819 00ba 0023     		movs	r3, #0	@,
 820              	.LVL86:
 245:../../peripheral_library/drv/drvUART.c **** 				continue;
 821              		.loc 1 245 11 view .LVU203
 822 00bc 1022     		movs	r2, #16	@,
 823              	.LVL87:
 245:../../peripheral_library/drv/drvUART.c **** 				continue;
 824              		.loc 1 245 11 view .LVU204
 825 00be EDE7     		b	.L74		@
 826              	.LVL88:
 827              	.L57:
 244:../../peripheral_library/drv/drvUART.c **** 				pc += printi (out, va_arg( args, int ), 16, 0, width, pad, 'A');
 828              		.loc 1 244 4 is_stmt 1 view .LVU205
ARM GAS  /tmp/cc3nwSiR.s 			page 23


 829              	@ ../../peripheral_library/drv/drvUART.c:244: 			if( *format == 'X' ) {
 244:../../peripheral_library/drv/drvUART.c **** 				pc += printi (out, va_arg( args, int ), 16, 0, width, pad, 'A');
 830              		.loc 1 244 6 is_stmt 0 view .LVU206
 831 00c0 5829     		cmp	r1, #88	@ _8,
 832 00c2 02D1     		bne	.L58		@,
 245:../../peripheral_library/drv/drvUART.c **** 				continue;
 833              		.loc 1 245 5 is_stmt 1 view .LVU207
 834              	.LVL89:
 835              	@ ../../peripheral_library/drv/drvUART.c:245: 				pc += printi (out, va_arg( args, int ), 16, 0, wi
 245:../../peripheral_library/drv/drvUART.c **** 				continue;
 836              		.loc 1 245 11 is_stmt 0 view .LVU208
 837 00c4 2146     		mov	r1, r4	@ D.5812, args
 838 00c6 4120     		movs	r0, #65	@ tmp168,
 839 00c8 F4E7     		b	.L76		@
 840              	.LVL90:
 841              	.L58:
 248:../../peripheral_library/drv/drvUART.c **** 				pc += printi (out, va_arg( args, int ), 10, 0, width, pad, 'a');
 842              		.loc 1 248 4 is_stmt 1 view .LVU209
 843              	@ ../../peripheral_library/drv/drvUART.c:248: 			if( *format == 'u' ) {
 248:../../peripheral_library/drv/drvUART.c **** 				pc += printi (out, va_arg( args, int ), 10, 0, width, pad, 'a');
 844              		.loc 1 248 6 is_stmt 0 view .LVU210
 845 00ca 7529     		cmp	r1, #117	@ _8,
 846 00cc 06D1     		bne	.L59		@,
 249:../../peripheral_library/drv/drvUART.c **** 				continue;
 847              		.loc 1 249 5 is_stmt 1 view .LVU211
 848              	@ ../../peripheral_library/drv/drvUART.c:249: 				pc += printi (out, va_arg( args, int ), 10, 0, wi
 249:../../peripheral_library/drv/drvUART.c **** 				continue;
 849              		.loc 1 249 11 is_stmt 0 view .LVU212
 850 00ce 6120     		movs	r0, #97	@ tmp170,
 851 00d0 CDE90130 		strd	r3, r0, [sp, #4]	@ pad, tmp170,,
 852              	.LVL91:
 249:../../peripheral_library/drv/drvUART.c **** 				continue;
 853              		.loc 1 249 11 view .LVU213
 854 00d4 2146     		mov	r1, r4	@ D.5814, args
 855 00d6 0092     		str	r2, [sp]	@ width,
 856 00d8 0023     		movs	r3, #0	@,
 857              	.LVL92:
 249:../../peripheral_library/drv/drvUART.c **** 				continue;
 858              		.loc 1 249 11 view .LVU214
 859 00da DEE7     		b	.L75		@
 860              	.LVL93:
 861              	.L59:
 252:../../peripheral_library/drv/drvUART.c **** 				/* char are converted to int then pushed on the stack */
 862              		.loc 1 252 4 is_stmt 1 view .LVU215
 863              	@ ../../peripheral_library/drv/drvUART.c:252: 			if( *format == 'c' ) {
 252:../../peripheral_library/drv/drvUART.c **** 				/* char are converted to int then pushed on the stack */
 864              		.loc 1 252 6 is_stmt 0 view .LVU216
 865 00dc 6329     		cmp	r1, #99	@ _8,
 866 00de E3D1     		bne	.L55		@,
 254:../../peripheral_library/drv/drvUART.c **** 				scr[1] = '\0';
 867              		.loc 1 254 5 is_stmt 1 view .LVU217
 868              	@ ../../peripheral_library/drv/drvUART.c:254: 				scr[0] = (char)va_arg( args, int );
 254:../../peripheral_library/drv/drvUART.c **** 				scr[1] = '\0';
 869              		.loc 1 254 14 is_stmt 0 view .LVU218
 870 00e0 2168     		ldr	r1, [r4]	@ MEM[(int *)_85], MEM[(int *)_85]
 871 00e2 8DF81410 		strb	r1, [sp, #20]	@ MEM[(int *)_85], scr
 255:../../peripheral_library/drv/drvUART.c **** 				pc += prints (out, scr, width, pad);
ARM GAS  /tmp/cc3nwSiR.s 			page 24


 872              		.loc 1 255 5 is_stmt 1 view .LVU219
 873              	@ ../../peripheral_library/drv/drvUART.c:255: 				scr[1] = '\0';
 255:../../peripheral_library/drv/drvUART.c **** 				pc += prints (out, scr, width, pad);
 874              		.loc 1 255 12 is_stmt 0 view .LVU220
 875 00e6 0021     		movs	r1, #0	@ tmp174,
 876 00e8 8DF81510 		strb	r1, [sp, #21]	@ tmp174, scr
 256:../../peripheral_library/drv/drvUART.c **** 				continue;
 877              		.loc 1 256 5 is_stmt 1 view .LVU221
 878              	.LVL94:
 879              	@ ../../peripheral_library/drv/drvUART.c:254: 				scr[0] = (char)va_arg( args, int );
 254:../../peripheral_library/drv/drvUART.c **** 				scr[1] = '\0';
 880              		.loc 1 254 14 is_stmt 0 view .LVU222
 881 00ec 0434     		adds	r4, r4, #4	@ args, args,
 882              	.LVL95:
 883              	@ ../../peripheral_library/drv/drvUART.c:256: 				pc += prints (out, scr, width, pad);
 256:../../peripheral_library/drv/drvUART.c **** 				continue;
 884              		.loc 1 256 11 view .LVU223
 885 00ee 05A9     		add	r1, sp, #20	@,,
 886 00f0 C0E7     		b	.L77		@
 887              	.LVL96:
 888              	.L63:
 889              	@ ../../peripheral_library/drv/drvUART.c:215: 			++format;
 215:../../peripheral_library/drv/drvUART.c **** 			width = pad = 0;
 890              		.loc 1 215 4 view .LVU224
 891 00f2 1646     		mov	r6, r2	@ format, _1
 892              	.LVL97:
 893              	.L46:
 262:../../peripheral_library/drv/drvUART.c **** 		    printchar (out, '\r');
 894              		.loc 1 262 5 is_stmt 1 view .LVU225
 895              	@ ../../peripheral_library/drv/drvUART.c:262: 		  if (*format == '\n')
 262:../../peripheral_library/drv/drvUART.c **** 		    printchar (out, '\r');
 896              		.loc 1 262 8 is_stmt 0 view .LVU226
 897 00f4 3378     		ldrb	r3, [r6]	@ zero_extendqisi2	@ *format_27, *format_27
 898 00f6 0A2B     		cmp	r3, #10	@ *format_27,
 899 00f8 03D1     		bne	.L60		@,
 263:../../peripheral_library/drv/drvUART.c **** 		  printchar (out, *format);
 900              		.loc 1 263 7 is_stmt 1 view .LVU227
 901 00fa 0D21     		movs	r1, #13	@,
 902 00fc 3846     		mov	r0, r7	@, out
 903 00fe FFF7FEFF 		bl	printchar		@
 904              	.LVL98:
 905              	.L60:
 264:../../peripheral_library/drv/drvUART.c **** 		  ++pc;
 906              		.loc 1 264 5 view .LVU228
 907 0102 3178     		ldrb	r1, [r6]	@ zero_extendqisi2	@, *format_27
 908 0104 3846     		mov	r0, r7	@, out
 909 0106 FFF7FEFF 		bl	printchar		@
 910              	.LVL99:
 265:../../peripheral_library/drv/drvUART.c **** 		}
 911              		.loc 1 265 5 view .LVU229
 912 010a 0135     		adds	r5, r5, #1	@ <retval>, <retval>,
 913              	.LVL100:
 265:../../peripheral_library/drv/drvUART.c **** 		}
 914              		.loc 1 265 5 is_stmt 0 view .LVU230
 915 010c CCE7     		b	.L55		@
 916              	.L79:
 917 010e 00BF     		.align	2
ARM GAS  /tmp/cc3nwSiR.s 			page 25


 918              	.L78:
 919 0110 00000000 		.word	.LC0
 920              		.cfi_endproc
 921              	.LFE3:
 922              		.size	print, .-print
 923              		.section	.text.UartSendTrace,"ax",%progbits
 924              		.align	1
 925              		.global	UartSendTrace
 926              		.syntax unified
 927              		.thumb
 928              		.thumb_func
 929              		.fpu fpv4-sp-d16
 930              		.type	UartSendTrace, %function
 931              	UartSendTrace:
 932              	.LVL101:
 933              	.LFB4:
 272:../../peripheral_library/drv/drvUART.c **** 
 273:../../peripheral_library/drv/drvUART.c **** int UartSendTrace(const char *format, ...)
 274:../../peripheral_library/drv/drvUART.c **** {
 934              		.loc 1 274 1 is_stmt 1 view -0
 935              		.cfi_startproc
 936              		@ args = 4, pretend = 16, frame = 8
 937              		@ frame_needed = 0, uses_anonymous_args = 1
 275:../../peripheral_library/drv/drvUART.c ****         va_list args;
 938              		.loc 1 275 9 view .LVU232
 276:../../peripheral_library/drv/drvUART.c **** 
 277:../../peripheral_library/drv/drvUART.c ****         va_start( args, format );
 939              		.loc 1 277 9 view .LVU233
 940              	@ ../../peripheral_library/drv/drvUART.c:274: {
 274:../../peripheral_library/drv/drvUART.c ****         va_list args;
 941              		.loc 1 274 1 is_stmt 0 view .LVU234
 942 0000 0FB4     		push	{r0, r1, r2, r3}	@
 943              		.cfi_def_cfa_offset 16
 944              		.cfi_offset 0, -16
 945              		.cfi_offset 1, -12
 946              		.cfi_offset 2, -8
 947              		.cfi_offset 3, -4
 948 0002 07B5     		push	{r0, r1, r2, lr}	@
 949              		.cfi_def_cfa_offset 32
 950              		.cfi_offset 14, -20
 951              	@ ../../peripheral_library/drv/drvUART.c:274: {
 274:../../peripheral_library/drv/drvUART.c ****         va_list args;
 952              		.loc 1 274 1 view .LVU235
 953 0004 04AA     		add	r2, sp, #16	@ tmp112,,
 954              	@ ../../peripheral_library/drv/drvUART.c:278:         return print( 0, format, args );
 278:../../peripheral_library/drv/drvUART.c ****         return print( 0, format, args );
 955              		.loc 1 278 16 view .LVU236
 956 0006 0020     		movs	r0, #0	@,
 957              	@ ../../peripheral_library/drv/drvUART.c:274: {
 274:../../peripheral_library/drv/drvUART.c ****         va_list args;
 958              		.loc 1 274 1 view .LVU237
 959 0008 52F8041B 		ldr	r1, [r2], #4	@ format, format
 960              	@ ../../peripheral_library/drv/drvUART.c:277:         va_start( args, format );
 277:../../peripheral_library/drv/drvUART.c ****         return print( 0, format, args );
 961              		.loc 1 277 9 view .LVU238
 962 000c 0192     		str	r2, [sp, #4]	@ tmp112, MEM[(struct  *)&args].__ap
 963              		.loc 1 278 9 is_stmt 1 view .LVU239
ARM GAS  /tmp/cc3nwSiR.s 			page 26


 964              	@ ../../peripheral_library/drv/drvUART.c:278:         return print( 0, format, args );
 965              		.loc 1 278 16 is_stmt 0 view .LVU240
 966 000e FFF7FEFF 		bl	print		@
 967              	.LVL102:
 968              	@ ../../peripheral_library/drv/drvUART.c:279: }
 279:../../peripheral_library/drv/drvUART.c **** }
 969              		.loc 1 279 1 view .LVU241
 970 0012 03B0     		add	sp, sp, #12	@,,
 971              		.cfi_def_cfa_offset 20
 972              		@ sp needed	@
 973 0014 5DF804EB 		ldr	lr, [sp], #4	@,
 974              		.cfi_restore 14
 975              		.cfi_def_cfa_offset 16
 976 0018 04B0     		add	sp, sp, #16	@,,
 977              		.cfi_restore 3
 978              		.cfi_restore 2
 979              		.cfi_restore 1
 980              		.cfi_restore 0
 981              		.cfi_def_cfa_offset 0
 982 001a 7047     		bx	lr	@
 983              		.cfi_endproc
 984              	.LFE4:
 985              		.size	UartSendTrace, .-UartSendTrace
 986              		.section	.text.printf,"ax",%progbits
 987              		.align	1
 988              		.global	printf
 989              		.syntax unified
 990              		.thumb
 991              		.thumb_func
 992              		.fpu fpv4-sp-d16
 993              		.type	printf, %function
 994              	printf:
 995              	.LVL103:
 996              	.LFB5:
 280:../../peripheral_library/drv/drvUART.c **** 
 281:../../peripheral_library/drv/drvUART.c **** int printf(const char *format, ...)
 282:../../peripheral_library/drv/drvUART.c **** {
 997              		.loc 1 282 1 is_stmt 1 view -0
 998              		.cfi_startproc
 999              		@ args = 4, pretend = 16, frame = 8
 1000              		@ frame_needed = 0, uses_anonymous_args = 1
 283:../../peripheral_library/drv/drvUART.c ****         va_list args;
 1001              		.loc 1 283 9 view .LVU243
 284:../../peripheral_library/drv/drvUART.c **** 
 285:../../peripheral_library/drv/drvUART.c ****         va_start( args, format );
 1002              		.loc 1 285 9 view .LVU244
 1003              	@ ../../peripheral_library/drv/drvUART.c:282: {
 282:../../peripheral_library/drv/drvUART.c ****         va_list args;
 1004              		.loc 1 282 1 is_stmt 0 view .LVU245
 1005 0000 0FB4     		push	{r0, r1, r2, r3}	@
 1006              		.cfi_def_cfa_offset 16
 1007              		.cfi_offset 0, -16
 1008              		.cfi_offset 1, -12
 1009              		.cfi_offset 2, -8
 1010              		.cfi_offset 3, -4
 1011 0002 07B5     		push	{r0, r1, r2, lr}	@
 1012              		.cfi_def_cfa_offset 32
ARM GAS  /tmp/cc3nwSiR.s 			page 27


 1013              		.cfi_offset 14, -20
 1014              	@ ../../peripheral_library/drv/drvUART.c:282: {
 282:../../peripheral_library/drv/drvUART.c ****         va_list args;
 1015              		.loc 1 282 1 view .LVU246
 1016 0004 04AA     		add	r2, sp, #16	@ tmp112,,
 1017              	@ ../../peripheral_library/drv/drvUART.c:286:         return print( 0, format, args );
 286:../../peripheral_library/drv/drvUART.c ****         return print( 0, format, args );
 1018              		.loc 1 286 16 view .LVU247
 1019 0006 0020     		movs	r0, #0	@,
 1020              	@ ../../peripheral_library/drv/drvUART.c:282: {
 282:../../peripheral_library/drv/drvUART.c ****         va_list args;
 1021              		.loc 1 282 1 view .LVU248
 1022 0008 52F8041B 		ldr	r1, [r2], #4	@ format, format
 1023              	@ ../../peripheral_library/drv/drvUART.c:285:         va_start( args, format );
 285:../../peripheral_library/drv/drvUART.c ****         return print( 0, format, args );
 1024              		.loc 1 285 9 view .LVU249
 1025 000c 0192     		str	r2, [sp, #4]	@ tmp112, MEM[(struct  *)&args].__ap
 1026              		.loc 1 286 9 is_stmt 1 view .LVU250
 1027              	@ ../../peripheral_library/drv/drvUART.c:286:         return print( 0, format, args );
 1028              		.loc 1 286 16 is_stmt 0 view .LVU251
 1029 000e FFF7FEFF 		bl	print		@
 1030              	.LVL104:
 1031              	@ ../../peripheral_library/drv/drvUART.c:287: }
 287:../../peripheral_library/drv/drvUART.c **** }
 1032              		.loc 1 287 1 view .LVU252
 1033 0012 03B0     		add	sp, sp, #12	@,,
 1034              		.cfi_def_cfa_offset 20
 1035              		@ sp needed	@
 1036 0014 5DF804EB 		ldr	lr, [sp], #4	@,
 1037              		.cfi_restore 14
 1038              		.cfi_def_cfa_offset 16
 1039 0018 04B0     		add	sp, sp, #16	@,,
 1040              		.cfi_restore 3
 1041              		.cfi_restore 2
 1042              		.cfi_restore 1
 1043              		.cfi_restore 0
 1044              		.cfi_def_cfa_offset 0
 1045 001a 7047     		bx	lr	@
 1046              		.cfi_endproc
 1047              	.LFE5:
 1048              		.size	printf, .-printf
 1049              		.section	.rodata.print.str1.1,"aMS",%progbits,1
 1050              	.LC0:
 1051 0000 286E756C 		.ascii	"(null)\000"
 1051      6C2900
 1052              		.text
 1053              	.Letext0:
 1054              		.file 2 "/home/gu/code/freeRTOS10/vendor/mstar/CM4/tools/gcc-arm-none-eabi-8-2018-q4-major/lib/gcc
 1055              		.file 3 "<built-in>"