ARM GAS  /tmp/cc8ZN7Gj.s 			page 1


   1              		.cpu cortex-m4
   2              		.eabi_attribute 27, 1	@ Tag_ABI_HardFP_use
   3              		.eabi_attribute 20, 1	@ Tag_ABI_FP_denormal
   4              		.eabi_attribute 21, 1	@ Tag_ABI_FP_exceptions
   5              		.eabi_attribute 23, 3	@ Tag_ABI_FP_number_model
   6              		.eabi_attribute 24, 1	@ Tag_ABI_align8_needed
   7              		.eabi_attribute 25, 1	@ Tag_ABI_align8_preserved
   8              		.eabi_attribute 26, 1	@ Tag_ABI_enum_size
   9              		.eabi_attribute 30, 2	@ Tag_ABI_optimization_goals
  10              		.eabi_attribute 34, 1	@ Tag_CPU_unaligned_access
  11              		.eabi_attribute 18, 4	@ Tag_ABI_PCS_wchar_t
  12              		.file	"FreeRTOS_CLI.c"
  13              	@ GNU C89 (GNU Tools for Arm Embedded Processors 8-2018-q4-major) version 8.2.1 20181213 (release) 
  14              	@	compiled by GNU C version 4.8.4, GMP version 6.1.0, MPFR version 3.1.4, MPC version 1.0.3, isl ve
  15              	
  16              	@ GGC heuristics: --param ggc-min-expand=96 --param ggc-min-heapsize=125422
  17              	@ options passed:  -isystem =/include/newlib-nano -I . -I .
  18              	@ -I ../../kernel/FreeRTOS/Source/include
  19              	@ -I ../../kernel/FreeRTOS/Source/portable/GCC/ARM_CM4F
  20              	@ -I ../../kernel/FreeRTOS/Demo/Common/include
  21              	@ -I ../../kernel/FreeRTOS-Plus/Source/FreeRTOS-Plus-CLI
  22              	@ -I ../../peripheral_library/inc -I ../../peripheral_library/hal/m7221/inc
  23              	@ -I ../../CMSIS -I ../../main_full -I ../../3rd/rokid/./ -I /.
  24              	@ -I /../../kernel/FreeRTOS/Source/include
  25              	@ -I /../../kernel/FreeRTOS/Source/portable/GCC/ARM_CM4F
  26              	@ -I /../../kernel/FreeRTOS/Demo/Common/include
  27              	@ -I /../../kernel/FreeRTOS-Plus/Source/FreeRTOS-Plus-CLI
  28              	@ -I /../../peripheral_library/inc
  29              	@ -I /../../peripheral_library/hal/m7221/inc -I /../../CMSIS
  30              	@ -I /../../main_full -I /../../3rd/rokid/./
  31              	@ -imultilib thumb/v7e-m+fp/softfp
  32              	@ -iprefix /home/gu/code/freeRTOS10/vendor/mstar/CM4/tools/gcc-arm-none-eabi-8-2018-q4-major/bin/..
  33              	@ -isysroot /home/gu/code/freeRTOS10/vendor/mstar/CM4/tools/gcc-arm-none-eabi-8-2018-q4-major/bin/.
  34              	@ -MD out/FreeRTOS_CLI.d -MF out/FreeRTOS_CLI.d -MP -MQ out/FreeRTOS_CLI.o
  35              	@ -D__USES_INITFINI__ -D CONFIG_BENCH=0 -D CONFIG_SYS_DBG_LEVEL=0xFFFFFFFF
  36              	@ -D CONFIG_VOC_MIC=6 -D CONFIG_AUD_I2S -D CONFIG_AUD_AEC
  37              	@ -D CONFIG_VOC_MIC_MAPPING -D CONFIG_VOC_SWHPF -D CONFIG_VOC_SW_SRC48K
  38              	@ -D ARM_MATH_CM4 -D BOOTROM_VERSION_ASIC
  39              	@ ../../kernel/FreeRTOS-Plus/Source/FreeRTOS-Plus-CLI/FreeRTOS_CLI.c
  40              	@ -mcpu=cortex-m4 -mthumb -mthumb-interwork -mfloat-abi=softfp
  41              	@ -mfpu=fpv4-sp-d16 -march=armv7e-m+fp -auxbase-strip out/FreeRTOS_CLI.o -g
  42              	@ -ggdb3 -O3 -Wall -Wstrict-prototypes -Wextra -std=gnu90
  43              	@ -ffunction-sections -fdata-sections -fno-builtin-printf -fverbose-asm
  44              	@ options enabled:  -faggressive-loop-optimizations -falign-jumps
  45              	@ -falign-labels -falign-loops -fauto-inc-dec -fbranch-count-reg
  46              	@ -fcaller-saves -fchkp-check-incomplete-type -fchkp-check-read
  47              	@ -fchkp-check-write -fchkp-instrument-calls -fchkp-narrow-bounds
  48              	@ -fchkp-optimize -fchkp-store-bounds -fchkp-use-static-bounds
  49              	@ -fchkp-use-static-const-bounds -fchkp-use-wrappers -fcode-hoisting
  50              	@ -fcombine-stack-adjustments -fcommon -fcompare-elim -fcprop-registers
  51              	@ -fcrossjumping -fcse-follow-jumps -fdata-sections -fdefer-pop
  52              	@ -fdelete-null-pointer-checks -fdevirtualize -fdevirtualize-speculatively
  53              	@ -fdwarf2-cfi-asm -fearly-inlining -feliminate-unused-debug-types
  54              	@ -fexpensive-optimizations -fforward-propagate -ffp-int-builtin-inexact
  55              	@ -ffunction-cse -ffunction-sections -fgcse -fgcse-after-reload -fgcse-lm
  56              	@ -fgnu-runtime -fgnu-unique -fguess-branch-probability
  57              	@ -fhoist-adjacent-loads -fident -fif-conversion -fif-conversion2
ARM GAS  /tmp/cc8ZN7Gj.s 			page 2


  58              	@ -findirect-inlining -finline -finline-atomics -finline-functions
  59              	@ -finline-functions-called-once -finline-small-functions -fipa-bit-cp
  60              	@ -fipa-cp -fipa-cp-clone -fipa-icf -fipa-icf-functions -fipa-icf-variables
  61              	@ -fipa-profile -fipa-pure-const -fipa-ra -fipa-reference -fipa-sra
  62              	@ -fipa-vrp -fira-hoist-pressure -fira-share-save-slots
  63              	@ -fira-share-spill-slots -fisolate-erroneous-paths-dereference -fivopts
  64              	@ -fkeep-static-consts -fleading-underscore -flifetime-dse
  65              	@ -floop-interchange -floop-unroll-and-jam -flra-remat
  66              	@ -flto-odr-type-merging -fmath-errno -fmerge-constants
  67              	@ -fmerge-debug-strings -fmove-loop-invariants -fomit-frame-pointer
  68              	@ -foptimize-sibling-calls -foptimize-strlen -fpartial-inlining
  69              	@ -fpeel-loops -fpeephole -fpeephole2 -fplt -fpredictive-commoning
  70              	@ -fprefetch-loop-arrays -freg-struct-return -freorder-blocks
  71              	@ -freorder-functions -frerun-cse-after-loop
  72              	@ -fsched-critical-path-heuristic -fsched-dep-count-heuristic
  73              	@ -fsched-group-heuristic -fsched-interblock -fsched-last-insn-heuristic
  74              	@ -fsched-pressure -fsched-rank-heuristic -fsched-spec
  75              	@ -fsched-spec-insn-heuristic -fsched-stalled-insns-dep -fschedule-insns
  76              	@ -fschedule-insns2 -fsection-anchors -fsemantic-interposition
  77              	@ -fshow-column -fshrink-wrap -fshrink-wrap-separate -fsigned-zeros
  78              	@ -fsplit-ivs-in-unroller -fsplit-loops -fsplit-paths -fsplit-wide-types
  79              	@ -fssa-backprop -fssa-phiopt -fstdarg-opt -fstore-merging
  80              	@ -fstrict-aliasing -fstrict-volatile-bitfields -fsync-libcalls
  81              	@ -fthread-jumps -ftoplevel-reorder -ftrapping-math -ftree-bit-ccp
  82              	@ -ftree-builtin-call-dce -ftree-ccp -ftree-ch -ftree-coalesce-vars
  83              	@ -ftree-copy-prop -ftree-cselim -ftree-dce -ftree-dominator-opts
  84              	@ -ftree-dse -ftree-forwprop -ftree-fre -ftree-loop-distribute-patterns
  85              	@ -ftree-loop-distribution -ftree-loop-if-convert -ftree-loop-im
  86              	@ -ftree-loop-ivcanon -ftree-loop-optimize -ftree-loop-vectorize
  87              	@ -ftree-parallelize-loops= -ftree-partial-pre -ftree-phiprop -ftree-pre
  88              	@ -ftree-pta -ftree-reassoc -ftree-scev-cprop -ftree-sink
  89              	@ -ftree-slp-vectorize -ftree-slsr -ftree-sra -ftree-switch-conversion
  90              	@ -ftree-tail-merge -ftree-ter -ftree-vrp -funit-at-a-time -funswitch-loops
  91              	@ -fvar-tracking -fvar-tracking-assignments -fverbose-asm
  92              	@ -fzero-initialized-in-bss -masm-syntax-unified -mbe32 -mlittle-endian
  93              	@ -mpic-data-is-text-relative -msched-prolog -mthumb -munaligned-access
  94              	@ -mvectorize-with-neon-quad
  95              	
  96              		.text
  97              	.Ltext0:
  98              		.cfi_sections	.debug_frame
  99              		.section	.text.prvHelpCommand,"ax",%progbits
 100              		.align	1
 101              		.p2align 2,,3
 102              		.arch armv7e-m
 103              		.syntax unified
 104              		.thumb
 105              		.thumb_func
 106              		.fpu fpv4-sp-d16
 107              		.type	prvHelpCommand, %function
 108              	prvHelpCommand:
 109              	.LVL0:
 110              	.LFB8:
 111              		.file 1 "../../kernel/FreeRTOS-Plus/Source/FreeRTOS-Plus-CLI/FreeRTOS_CLI.c"
   1:../../kernel/FreeRTOS-Plus/Source/FreeRTOS-Plus-CLI/FreeRTOS_CLI.c **** /*
   2:../../kernel/FreeRTOS-Plus/Source/FreeRTOS-Plus-CLI/FreeRTOS_CLI.c ****  * FreeRTOS+CLI V1.0.4
   3:../../kernel/FreeRTOS-Plus/Source/FreeRTOS-Plus-CLI/FreeRTOS_CLI.c ****  * Copyright (C) 2017 Amazon.com, Inc. or its affiliates.  All Rights Reserved.
ARM GAS  /tmp/cc8ZN7Gj.s 			page 3


   4:../../kernel/FreeRTOS-Plus/Source/FreeRTOS-Plus-CLI/FreeRTOS_CLI.c ****  *
   5:../../kernel/FreeRTOS-Plus/Source/FreeRTOS-Plus-CLI/FreeRTOS_CLI.c ****  * Permission is hereby granted, free of charge, to any person obtaining a copy of
   6:../../kernel/FreeRTOS-Plus/Source/FreeRTOS-Plus-CLI/FreeRTOS_CLI.c ****  * this software and associated documentation files (the "Software"), to deal in
   7:../../kernel/FreeRTOS-Plus/Source/FreeRTOS-Plus-CLI/FreeRTOS_CLI.c ****  * the Software without restriction, including without limitation the rights to
   8:../../kernel/FreeRTOS-Plus/Source/FreeRTOS-Plus-CLI/FreeRTOS_CLI.c ****  * use, copy, modify, merge, publish, distribute, sublicense, and/or sell copies of
   9:../../kernel/FreeRTOS-Plus/Source/FreeRTOS-Plus-CLI/FreeRTOS_CLI.c ****  * the Software, and to permit persons to whom the Software is furnished to do so,
  10:../../kernel/FreeRTOS-Plus/Source/FreeRTOS-Plus-CLI/FreeRTOS_CLI.c ****  * subject to the following conditions:
  11:../../kernel/FreeRTOS-Plus/Source/FreeRTOS-Plus-CLI/FreeRTOS_CLI.c ****  *
  12:../../kernel/FreeRTOS-Plus/Source/FreeRTOS-Plus-CLI/FreeRTOS_CLI.c ****  * The above copyright notice and this permission notice shall be included in all
  13:../../kernel/FreeRTOS-Plus/Source/FreeRTOS-Plus-CLI/FreeRTOS_CLI.c ****  * copies or substantial portions of the Software.
  14:../../kernel/FreeRTOS-Plus/Source/FreeRTOS-Plus-CLI/FreeRTOS_CLI.c ****  *
  15:../../kernel/FreeRTOS-Plus/Source/FreeRTOS-Plus-CLI/FreeRTOS_CLI.c ****  * THE SOFTWARE IS PROVIDED "AS IS", WITHOUT WARRANTY OF ANY KIND, EXPRESS OR
  16:../../kernel/FreeRTOS-Plus/Source/FreeRTOS-Plus-CLI/FreeRTOS_CLI.c ****  * IMPLIED, INCLUDING BUT NOT LIMITED TO THE WARRANTIES OF MERCHANTABILITY, FITNESS
  17:../../kernel/FreeRTOS-Plus/Source/FreeRTOS-Plus-CLI/FreeRTOS_CLI.c ****  * FOR A PARTICULAR PURPOSE AND NONINFRINGEMENT. IN NO EVENT SHALL THE AUTHORS OR
  18:../../kernel/FreeRTOS-Plus/Source/FreeRTOS-Plus-CLI/FreeRTOS_CLI.c ****  * COPYRIGHT HOLDERS BE LIABLE FOR ANY CLAIM, DAMAGES OR OTHER LIABILITY, WHETHER
  19:../../kernel/FreeRTOS-Plus/Source/FreeRTOS-Plus-CLI/FreeRTOS_CLI.c ****  * IN AN ACTION OF CONTRACT, TORT OR OTHERWISE, ARISING FROM, OUT OF OR IN
  20:../../kernel/FreeRTOS-Plus/Source/FreeRTOS-Plus-CLI/FreeRTOS_CLI.c ****  * CONNECTION WITH THE SOFTWARE OR THE USE OR OTHER DEALINGS IN THE SOFTWARE.
  21:../../kernel/FreeRTOS-Plus/Source/FreeRTOS-Plus-CLI/FreeRTOS_CLI.c ****  *
  22:../../kernel/FreeRTOS-Plus/Source/FreeRTOS-Plus-CLI/FreeRTOS_CLI.c ****  * http://www.FreeRTOS.org
  23:../../kernel/FreeRTOS-Plus/Source/FreeRTOS-Plus-CLI/FreeRTOS_CLI.c ****  * http://aws.amazon.com/freertos
  24:../../kernel/FreeRTOS-Plus/Source/FreeRTOS-Plus-CLI/FreeRTOS_CLI.c ****  *
  25:../../kernel/FreeRTOS-Plus/Source/FreeRTOS-Plus-CLI/FreeRTOS_CLI.c ****  * 1 tab == 4 spaces!
  26:../../kernel/FreeRTOS-Plus/Source/FreeRTOS-Plus-CLI/FreeRTOS_CLI.c ****  */
  27:../../kernel/FreeRTOS-Plus/Source/FreeRTOS-Plus-CLI/FreeRTOS_CLI.c **** 
  28:../../kernel/FreeRTOS-Plus/Source/FreeRTOS-Plus-CLI/FreeRTOS_CLI.c **** /* Standard includes. */
  29:../../kernel/FreeRTOS-Plus/Source/FreeRTOS-Plus-CLI/FreeRTOS_CLI.c **** #include <string.h>
  30:../../kernel/FreeRTOS-Plus/Source/FreeRTOS-Plus-CLI/FreeRTOS_CLI.c **** #include <stdint.h>
  31:../../kernel/FreeRTOS-Plus/Source/FreeRTOS-Plus-CLI/FreeRTOS_CLI.c **** 
  32:../../kernel/FreeRTOS-Plus/Source/FreeRTOS-Plus-CLI/FreeRTOS_CLI.c **** /* FreeRTOS includes. */
  33:../../kernel/FreeRTOS-Plus/Source/FreeRTOS-Plus-CLI/FreeRTOS_CLI.c **** #include "FreeRTOS.h"
  34:../../kernel/FreeRTOS-Plus/Source/FreeRTOS-Plus-CLI/FreeRTOS_CLI.c **** #include "task.h"
  35:../../kernel/FreeRTOS-Plus/Source/FreeRTOS-Plus-CLI/FreeRTOS_CLI.c **** 
  36:../../kernel/FreeRTOS-Plus/Source/FreeRTOS-Plus-CLI/FreeRTOS_CLI.c **** /* Utils includes. */
  37:../../kernel/FreeRTOS-Plus/Source/FreeRTOS-Plus-CLI/FreeRTOS_CLI.c **** #include "FreeRTOS_CLI.h"
  38:../../kernel/FreeRTOS-Plus/Source/FreeRTOS-Plus-CLI/FreeRTOS_CLI.c **** 
  39:../../kernel/FreeRTOS-Plus/Source/FreeRTOS-Plus-CLI/FreeRTOS_CLI.c **** /* If the application writer needs to place the buffer used by the CLI at a
  40:../../kernel/FreeRTOS-Plus/Source/FreeRTOS-Plus-CLI/FreeRTOS_CLI.c **** fixed address then set configAPPLICATION_PROVIDES_cOutputBuffer to 1 in
  41:../../kernel/FreeRTOS-Plus/Source/FreeRTOS-Plus-CLI/FreeRTOS_CLI.c **** FreeRTOSConfig.h, then declare an array with the following name and size in 
  42:../../kernel/FreeRTOS-Plus/Source/FreeRTOS-Plus-CLI/FreeRTOS_CLI.c **** one of the application files:
  43:../../kernel/FreeRTOS-Plus/Source/FreeRTOS-Plus-CLI/FreeRTOS_CLI.c **** 	char cOutputBuffer[ configCOMMAND_INT_MAX_OUTPUT_SIZE ];
  44:../../kernel/FreeRTOS-Plus/Source/FreeRTOS-Plus-CLI/FreeRTOS_CLI.c **** */
  45:../../kernel/FreeRTOS-Plus/Source/FreeRTOS-Plus-CLI/FreeRTOS_CLI.c **** #ifndef configAPPLICATION_PROVIDES_cOutputBuffer
  46:../../kernel/FreeRTOS-Plus/Source/FreeRTOS-Plus-CLI/FreeRTOS_CLI.c **** 	#define configAPPLICATION_PROVIDES_cOutputBuffer 0
  47:../../kernel/FreeRTOS-Plus/Source/FreeRTOS-Plus-CLI/FreeRTOS_CLI.c **** #endif
  48:../../kernel/FreeRTOS-Plus/Source/FreeRTOS-Plus-CLI/FreeRTOS_CLI.c **** 
  49:../../kernel/FreeRTOS-Plus/Source/FreeRTOS-Plus-CLI/FreeRTOS_CLI.c **** typedef struct xCOMMAND_INPUT_LIST
  50:../../kernel/FreeRTOS-Plus/Source/FreeRTOS-Plus-CLI/FreeRTOS_CLI.c **** {
  51:../../kernel/FreeRTOS-Plus/Source/FreeRTOS-Plus-CLI/FreeRTOS_CLI.c **** 	const CLI_Command_Definition_t *pxCommandLineDefinition;
  52:../../kernel/FreeRTOS-Plus/Source/FreeRTOS-Plus-CLI/FreeRTOS_CLI.c **** 	struct xCOMMAND_INPUT_LIST *pxNext;
  53:../../kernel/FreeRTOS-Plus/Source/FreeRTOS-Plus-CLI/FreeRTOS_CLI.c **** } CLI_Definition_List_Item_t;
  54:../../kernel/FreeRTOS-Plus/Source/FreeRTOS-Plus-CLI/FreeRTOS_CLI.c **** 
  55:../../kernel/FreeRTOS-Plus/Source/FreeRTOS-Plus-CLI/FreeRTOS_CLI.c **** /*
  56:../../kernel/FreeRTOS-Plus/Source/FreeRTOS-Plus-CLI/FreeRTOS_CLI.c ****  * The callback function that is executed when "help" is entered.  This is the
  57:../../kernel/FreeRTOS-Plus/Source/FreeRTOS-Plus-CLI/FreeRTOS_CLI.c ****  * only default command that is always present.
  58:../../kernel/FreeRTOS-Plus/Source/FreeRTOS-Plus-CLI/FreeRTOS_CLI.c ****  */
  59:../../kernel/FreeRTOS-Plus/Source/FreeRTOS-Plus-CLI/FreeRTOS_CLI.c **** static BaseType_t prvHelpCommand( char *pcWriteBuffer, size_t xWriteBufferLen, const char *pcComman
  60:../../kernel/FreeRTOS-Plus/Source/FreeRTOS-Plus-CLI/FreeRTOS_CLI.c **** 
ARM GAS  /tmp/cc8ZN7Gj.s 			page 4


  61:../../kernel/FreeRTOS-Plus/Source/FreeRTOS-Plus-CLI/FreeRTOS_CLI.c **** /*
  62:../../kernel/FreeRTOS-Plus/Source/FreeRTOS-Plus-CLI/FreeRTOS_CLI.c ****  * Return the number of parameters that follow the command name.
  63:../../kernel/FreeRTOS-Plus/Source/FreeRTOS-Plus-CLI/FreeRTOS_CLI.c ****  */
  64:../../kernel/FreeRTOS-Plus/Source/FreeRTOS-Plus-CLI/FreeRTOS_CLI.c **** static int8_t prvGetNumberOfParameters( const char *pcCommandString );
  65:../../kernel/FreeRTOS-Plus/Source/FreeRTOS-Plus-CLI/FreeRTOS_CLI.c **** 
  66:../../kernel/FreeRTOS-Plus/Source/FreeRTOS-Plus-CLI/FreeRTOS_CLI.c **** /* The definition of the "help" command.  This command is always at the front
  67:../../kernel/FreeRTOS-Plus/Source/FreeRTOS-Plus-CLI/FreeRTOS_CLI.c **** of the list of registered commands. */
  68:../../kernel/FreeRTOS-Plus/Source/FreeRTOS-Plus-CLI/FreeRTOS_CLI.c **** static const CLI_Command_Definition_t xHelpCommand =
  69:../../kernel/FreeRTOS-Plus/Source/FreeRTOS-Plus-CLI/FreeRTOS_CLI.c **** {
  70:../../kernel/FreeRTOS-Plus/Source/FreeRTOS-Plus-CLI/FreeRTOS_CLI.c **** 	"help",
  71:../../kernel/FreeRTOS-Plus/Source/FreeRTOS-Plus-CLI/FreeRTOS_CLI.c **** 	"\r\nhelp:\r\n Lists all the registered commands\r\n\r\n",
  72:../../kernel/FreeRTOS-Plus/Source/FreeRTOS-Plus-CLI/FreeRTOS_CLI.c **** 	prvHelpCommand,
  73:../../kernel/FreeRTOS-Plus/Source/FreeRTOS-Plus-CLI/FreeRTOS_CLI.c **** 	0
  74:../../kernel/FreeRTOS-Plus/Source/FreeRTOS-Plus-CLI/FreeRTOS_CLI.c **** };
  75:../../kernel/FreeRTOS-Plus/Source/FreeRTOS-Plus-CLI/FreeRTOS_CLI.c **** 
  76:../../kernel/FreeRTOS-Plus/Source/FreeRTOS-Plus-CLI/FreeRTOS_CLI.c **** /* The definition of the list of commands.  Commands that are registered are
  77:../../kernel/FreeRTOS-Plus/Source/FreeRTOS-Plus-CLI/FreeRTOS_CLI.c **** added to this list. */
  78:../../kernel/FreeRTOS-Plus/Source/FreeRTOS-Plus-CLI/FreeRTOS_CLI.c **** static CLI_Definition_List_Item_t xRegisteredCommands =
  79:../../kernel/FreeRTOS-Plus/Source/FreeRTOS-Plus-CLI/FreeRTOS_CLI.c **** {
  80:../../kernel/FreeRTOS-Plus/Source/FreeRTOS-Plus-CLI/FreeRTOS_CLI.c **** 	&xHelpCommand,	/* The first command in the list is always the help command, defined in this file. 
  81:../../kernel/FreeRTOS-Plus/Source/FreeRTOS-Plus-CLI/FreeRTOS_CLI.c **** 	NULL			/* The next pointer is initialised to NULL, as there are no other registered commands yet. 
  82:../../kernel/FreeRTOS-Plus/Source/FreeRTOS-Plus-CLI/FreeRTOS_CLI.c **** };
  83:../../kernel/FreeRTOS-Plus/Source/FreeRTOS-Plus-CLI/FreeRTOS_CLI.c **** 
  84:../../kernel/FreeRTOS-Plus/Source/FreeRTOS-Plus-CLI/FreeRTOS_CLI.c **** /* A buffer into which command outputs can be written is declared here, rather
  85:../../kernel/FreeRTOS-Plus/Source/FreeRTOS-Plus-CLI/FreeRTOS_CLI.c **** than in the command console implementation, to allow multiple command consoles
  86:../../kernel/FreeRTOS-Plus/Source/FreeRTOS-Plus-CLI/FreeRTOS_CLI.c **** to share the same buffer.  For example, an application may allow access to the
  87:../../kernel/FreeRTOS-Plus/Source/FreeRTOS-Plus-CLI/FreeRTOS_CLI.c **** command interpreter by UART and by Ethernet.  Sharing a buffer is done purely
  88:../../kernel/FreeRTOS-Plus/Source/FreeRTOS-Plus-CLI/FreeRTOS_CLI.c **** to save RAM.  Note, however, that the command console itself is not re-entrant,
  89:../../kernel/FreeRTOS-Plus/Source/FreeRTOS-Plus-CLI/FreeRTOS_CLI.c **** so only one command interpreter interface can be used at any one time.  For that
  90:../../kernel/FreeRTOS-Plus/Source/FreeRTOS-Plus-CLI/FreeRTOS_CLI.c **** reason, no attempt at providing mutual exclusion to the cOutputBuffer array is
  91:../../kernel/FreeRTOS-Plus/Source/FreeRTOS-Plus-CLI/FreeRTOS_CLI.c **** attempted.
  92:../../kernel/FreeRTOS-Plus/Source/FreeRTOS-Plus-CLI/FreeRTOS_CLI.c **** 
  93:../../kernel/FreeRTOS-Plus/Source/FreeRTOS-Plus-CLI/FreeRTOS_CLI.c **** configAPPLICATION_PROVIDES_cOutputBuffer is provided to allow the application
  94:../../kernel/FreeRTOS-Plus/Source/FreeRTOS-Plus-CLI/FreeRTOS_CLI.c **** writer to provide their own cOutputBuffer declaration in cases where the
  95:../../kernel/FreeRTOS-Plus/Source/FreeRTOS-Plus-CLI/FreeRTOS_CLI.c **** buffer needs to be placed at a fixed address (rather than by the linker). */
  96:../../kernel/FreeRTOS-Plus/Source/FreeRTOS-Plus-CLI/FreeRTOS_CLI.c **** #if( configAPPLICATION_PROVIDES_cOutputBuffer == 0 )
  97:../../kernel/FreeRTOS-Plus/Source/FreeRTOS-Plus-CLI/FreeRTOS_CLI.c **** 	static char cOutputBuffer[ configCOMMAND_INT_MAX_OUTPUT_SIZE ];
  98:../../kernel/FreeRTOS-Plus/Source/FreeRTOS-Plus-CLI/FreeRTOS_CLI.c **** #else
  99:../../kernel/FreeRTOS-Plus/Source/FreeRTOS-Plus-CLI/FreeRTOS_CLI.c **** 	extern char cOutputBuffer[ configCOMMAND_INT_MAX_OUTPUT_SIZE ];
 100:../../kernel/FreeRTOS-Plus/Source/FreeRTOS-Plus-CLI/FreeRTOS_CLI.c **** #endif
 101:../../kernel/FreeRTOS-Plus/Source/FreeRTOS-Plus-CLI/FreeRTOS_CLI.c **** 
 102:../../kernel/FreeRTOS-Plus/Source/FreeRTOS-Plus-CLI/FreeRTOS_CLI.c **** 
 103:../../kernel/FreeRTOS-Plus/Source/FreeRTOS-Plus-CLI/FreeRTOS_CLI.c **** /*-----------------------------------------------------------*/
 104:../../kernel/FreeRTOS-Plus/Source/FreeRTOS-Plus-CLI/FreeRTOS_CLI.c **** 
 105:../../kernel/FreeRTOS-Plus/Source/FreeRTOS-Plus-CLI/FreeRTOS_CLI.c **** BaseType_t FreeRTOS_CLIRegisterCommand( const CLI_Command_Definition_t * const pxCommandToRegister 
 106:../../kernel/FreeRTOS-Plus/Source/FreeRTOS-Plus-CLI/FreeRTOS_CLI.c **** {
 107:../../kernel/FreeRTOS-Plus/Source/FreeRTOS-Plus-CLI/FreeRTOS_CLI.c **** static CLI_Definition_List_Item_t *pxLastCommandInList = &xRegisteredCommands;
 108:../../kernel/FreeRTOS-Plus/Source/FreeRTOS-Plus-CLI/FreeRTOS_CLI.c **** CLI_Definition_List_Item_t *pxNewListItem;
 109:../../kernel/FreeRTOS-Plus/Source/FreeRTOS-Plus-CLI/FreeRTOS_CLI.c **** BaseType_t xReturn = pdFAIL;
 110:../../kernel/FreeRTOS-Plus/Source/FreeRTOS-Plus-CLI/FreeRTOS_CLI.c **** 
 111:../../kernel/FreeRTOS-Plus/Source/FreeRTOS-Plus-CLI/FreeRTOS_CLI.c **** 	/* Check the parameter is not NULL. */
 112:../../kernel/FreeRTOS-Plus/Source/FreeRTOS-Plus-CLI/FreeRTOS_CLI.c **** 	configASSERT( pxCommandToRegister );
 113:../../kernel/FreeRTOS-Plus/Source/FreeRTOS-Plus-CLI/FreeRTOS_CLI.c **** 
 114:../../kernel/FreeRTOS-Plus/Source/FreeRTOS-Plus-CLI/FreeRTOS_CLI.c **** 	/* Create a new list item that will reference the command being registered. */
 115:../../kernel/FreeRTOS-Plus/Source/FreeRTOS-Plus-CLI/FreeRTOS_CLI.c **** 	pxNewListItem = ( CLI_Definition_List_Item_t * ) pvPortMalloc( sizeof( CLI_Definition_List_Item_t 
 116:../../kernel/FreeRTOS-Plus/Source/FreeRTOS-Plus-CLI/FreeRTOS_CLI.c **** 	configASSERT( pxNewListItem );
 117:../../kernel/FreeRTOS-Plus/Source/FreeRTOS-Plus-CLI/FreeRTOS_CLI.c **** 
ARM GAS  /tmp/cc8ZN7Gj.s 			page 5


 118:../../kernel/FreeRTOS-Plus/Source/FreeRTOS-Plus-CLI/FreeRTOS_CLI.c **** 	if( pxNewListItem != NULL )
 119:../../kernel/FreeRTOS-Plus/Source/FreeRTOS-Plus-CLI/FreeRTOS_CLI.c **** 	{
 120:../../kernel/FreeRTOS-Plus/Source/FreeRTOS-Plus-CLI/FreeRTOS_CLI.c **** 		taskENTER_CRITICAL();
 121:../../kernel/FreeRTOS-Plus/Source/FreeRTOS-Plus-CLI/FreeRTOS_CLI.c **** 		{
 122:../../kernel/FreeRTOS-Plus/Source/FreeRTOS-Plus-CLI/FreeRTOS_CLI.c **** 			/* Reference the command being registered from the newly created
 123:../../kernel/FreeRTOS-Plus/Source/FreeRTOS-Plus-CLI/FreeRTOS_CLI.c **** 			list item. */
 124:../../kernel/FreeRTOS-Plus/Source/FreeRTOS-Plus-CLI/FreeRTOS_CLI.c **** 			pxNewListItem->pxCommandLineDefinition = pxCommandToRegister;
 125:../../kernel/FreeRTOS-Plus/Source/FreeRTOS-Plus-CLI/FreeRTOS_CLI.c **** 
 126:../../kernel/FreeRTOS-Plus/Source/FreeRTOS-Plus-CLI/FreeRTOS_CLI.c **** 			/* The new list item will get added to the end of the list, so
 127:../../kernel/FreeRTOS-Plus/Source/FreeRTOS-Plus-CLI/FreeRTOS_CLI.c **** 			pxNext has nowhere to point. */
 128:../../kernel/FreeRTOS-Plus/Source/FreeRTOS-Plus-CLI/FreeRTOS_CLI.c **** 			pxNewListItem->pxNext = NULL;
 129:../../kernel/FreeRTOS-Plus/Source/FreeRTOS-Plus-CLI/FreeRTOS_CLI.c **** 
 130:../../kernel/FreeRTOS-Plus/Source/FreeRTOS-Plus-CLI/FreeRTOS_CLI.c **** 			/* Add the newly created list item to the end of the already existing
 131:../../kernel/FreeRTOS-Plus/Source/FreeRTOS-Plus-CLI/FreeRTOS_CLI.c **** 			list. */
 132:../../kernel/FreeRTOS-Plus/Source/FreeRTOS-Plus-CLI/FreeRTOS_CLI.c **** 			pxLastCommandInList->pxNext = pxNewListItem;
 133:../../kernel/FreeRTOS-Plus/Source/FreeRTOS-Plus-CLI/FreeRTOS_CLI.c **** 
 134:../../kernel/FreeRTOS-Plus/Source/FreeRTOS-Plus-CLI/FreeRTOS_CLI.c **** 			/* Set the end of list marker to the new list item. */
 135:../../kernel/FreeRTOS-Plus/Source/FreeRTOS-Plus-CLI/FreeRTOS_CLI.c **** 			pxLastCommandInList = pxNewListItem;
 136:../../kernel/FreeRTOS-Plus/Source/FreeRTOS-Plus-CLI/FreeRTOS_CLI.c **** 		}
 137:../../kernel/FreeRTOS-Plus/Source/FreeRTOS-Plus-CLI/FreeRTOS_CLI.c **** 		taskEXIT_CRITICAL();
 138:../../kernel/FreeRTOS-Plus/Source/FreeRTOS-Plus-CLI/FreeRTOS_CLI.c **** 
 139:../../kernel/FreeRTOS-Plus/Source/FreeRTOS-Plus-CLI/FreeRTOS_CLI.c **** 		xReturn = pdPASS;
 140:../../kernel/FreeRTOS-Plus/Source/FreeRTOS-Plus-CLI/FreeRTOS_CLI.c **** 	}
 141:../../kernel/FreeRTOS-Plus/Source/FreeRTOS-Plus-CLI/FreeRTOS_CLI.c **** 
 142:../../kernel/FreeRTOS-Plus/Source/FreeRTOS-Plus-CLI/FreeRTOS_CLI.c **** 	return xReturn;
 143:../../kernel/FreeRTOS-Plus/Source/FreeRTOS-Plus-CLI/FreeRTOS_CLI.c **** }
 144:../../kernel/FreeRTOS-Plus/Source/FreeRTOS-Plus-CLI/FreeRTOS_CLI.c **** /*-----------------------------------------------------------*/
 145:../../kernel/FreeRTOS-Plus/Source/FreeRTOS-Plus-CLI/FreeRTOS_CLI.c **** 
 146:../../kernel/FreeRTOS-Plus/Source/FreeRTOS-Plus-CLI/FreeRTOS_CLI.c **** BaseType_t FreeRTOS_CLIProcessCommand( const char * const pcCommandInput, char * pcWriteBuffer, siz
 147:../../kernel/FreeRTOS-Plus/Source/FreeRTOS-Plus-CLI/FreeRTOS_CLI.c **** {
 148:../../kernel/FreeRTOS-Plus/Source/FreeRTOS-Plus-CLI/FreeRTOS_CLI.c **** static const CLI_Definition_List_Item_t *pxCommand = NULL;
 149:../../kernel/FreeRTOS-Plus/Source/FreeRTOS-Plus-CLI/FreeRTOS_CLI.c **** BaseType_t xReturn = pdTRUE;
 150:../../kernel/FreeRTOS-Plus/Source/FreeRTOS-Plus-CLI/FreeRTOS_CLI.c **** const char *pcRegisteredCommandString;
 151:../../kernel/FreeRTOS-Plus/Source/FreeRTOS-Plus-CLI/FreeRTOS_CLI.c **** size_t xCommandStringLength;
 152:../../kernel/FreeRTOS-Plus/Source/FreeRTOS-Plus-CLI/FreeRTOS_CLI.c **** 
 153:../../kernel/FreeRTOS-Plus/Source/FreeRTOS-Plus-CLI/FreeRTOS_CLI.c **** 	/* Note:  This function is not re-entrant.  It must not be called from more
 154:../../kernel/FreeRTOS-Plus/Source/FreeRTOS-Plus-CLI/FreeRTOS_CLI.c **** 	thank one task. */
 155:../../kernel/FreeRTOS-Plus/Source/FreeRTOS-Plus-CLI/FreeRTOS_CLI.c **** 
 156:../../kernel/FreeRTOS-Plus/Source/FreeRTOS-Plus-CLI/FreeRTOS_CLI.c **** 	if( pxCommand == NULL )
 157:../../kernel/FreeRTOS-Plus/Source/FreeRTOS-Plus-CLI/FreeRTOS_CLI.c **** 	{
 158:../../kernel/FreeRTOS-Plus/Source/FreeRTOS-Plus-CLI/FreeRTOS_CLI.c **** 		/* Search for the command string in the list of registered commands. */
 159:../../kernel/FreeRTOS-Plus/Source/FreeRTOS-Plus-CLI/FreeRTOS_CLI.c **** 		for( pxCommand = &xRegisteredCommands; pxCommand != NULL; pxCommand = pxCommand->pxNext )
 160:../../kernel/FreeRTOS-Plus/Source/FreeRTOS-Plus-CLI/FreeRTOS_CLI.c **** 		{
 161:../../kernel/FreeRTOS-Plus/Source/FreeRTOS-Plus-CLI/FreeRTOS_CLI.c **** 			pcRegisteredCommandString = pxCommand->pxCommandLineDefinition->pcCommand;
 162:../../kernel/FreeRTOS-Plus/Source/FreeRTOS-Plus-CLI/FreeRTOS_CLI.c **** 			xCommandStringLength = strlen( pcRegisteredCommandString );
 163:../../kernel/FreeRTOS-Plus/Source/FreeRTOS-Plus-CLI/FreeRTOS_CLI.c **** 
 164:../../kernel/FreeRTOS-Plus/Source/FreeRTOS-Plus-CLI/FreeRTOS_CLI.c **** 			/* To ensure the string lengths match exactly, so as not to pick up
 165:../../kernel/FreeRTOS-Plus/Source/FreeRTOS-Plus-CLI/FreeRTOS_CLI.c **** 			a sub-string of a longer command, check the byte after the expected
 166:../../kernel/FreeRTOS-Plus/Source/FreeRTOS-Plus-CLI/FreeRTOS_CLI.c **** 			end of the string is either the end of the string or a space before
 167:../../kernel/FreeRTOS-Plus/Source/FreeRTOS-Plus-CLI/FreeRTOS_CLI.c **** 			a parameter. */
 168:../../kernel/FreeRTOS-Plus/Source/FreeRTOS-Plus-CLI/FreeRTOS_CLI.c **** 			if( ( pcCommandInput[ xCommandStringLength ] == ' ' ) || ( pcCommandInput[ xCommandStringLength 
 169:../../kernel/FreeRTOS-Plus/Source/FreeRTOS-Plus-CLI/FreeRTOS_CLI.c **** 			{
 170:../../kernel/FreeRTOS-Plus/Source/FreeRTOS-Plus-CLI/FreeRTOS_CLI.c **** 				if( strncmp( pcCommandInput, pcRegisteredCommandString, xCommandStringLength ) == 0 )
 171:../../kernel/FreeRTOS-Plus/Source/FreeRTOS-Plus-CLI/FreeRTOS_CLI.c **** 				{
 172:../../kernel/FreeRTOS-Plus/Source/FreeRTOS-Plus-CLI/FreeRTOS_CLI.c **** 					/* The command has been found.  Check it has the expected
 173:../../kernel/FreeRTOS-Plus/Source/FreeRTOS-Plus-CLI/FreeRTOS_CLI.c **** 					number of parameters.  If cExpectedNumberOfParameters is -1,
 174:../../kernel/FreeRTOS-Plus/Source/FreeRTOS-Plus-CLI/FreeRTOS_CLI.c **** 					then there could be a variable number of parameters and no
ARM GAS  /tmp/cc8ZN7Gj.s 			page 6


 175:../../kernel/FreeRTOS-Plus/Source/FreeRTOS-Plus-CLI/FreeRTOS_CLI.c **** 					check is made. */
 176:../../kernel/FreeRTOS-Plus/Source/FreeRTOS-Plus-CLI/FreeRTOS_CLI.c **** 					if( pxCommand->pxCommandLineDefinition->cExpectedNumberOfParameters >= 0 )
 177:../../kernel/FreeRTOS-Plus/Source/FreeRTOS-Plus-CLI/FreeRTOS_CLI.c **** 					{
 178:../../kernel/FreeRTOS-Plus/Source/FreeRTOS-Plus-CLI/FreeRTOS_CLI.c **** 						if( prvGetNumberOfParameters( pcCommandInput ) != pxCommand->pxCommandLineDefinition->cExpect
 179:../../kernel/FreeRTOS-Plus/Source/FreeRTOS-Plus-CLI/FreeRTOS_CLI.c **** 						{
 180:../../kernel/FreeRTOS-Plus/Source/FreeRTOS-Plus-CLI/FreeRTOS_CLI.c **** 							xReturn = pdFALSE;
 181:../../kernel/FreeRTOS-Plus/Source/FreeRTOS-Plus-CLI/FreeRTOS_CLI.c **** 						}
 182:../../kernel/FreeRTOS-Plus/Source/FreeRTOS-Plus-CLI/FreeRTOS_CLI.c **** 					}
 183:../../kernel/FreeRTOS-Plus/Source/FreeRTOS-Plus-CLI/FreeRTOS_CLI.c **** 
 184:../../kernel/FreeRTOS-Plus/Source/FreeRTOS-Plus-CLI/FreeRTOS_CLI.c **** 					break;
 185:../../kernel/FreeRTOS-Plus/Source/FreeRTOS-Plus-CLI/FreeRTOS_CLI.c **** 				}
 186:../../kernel/FreeRTOS-Plus/Source/FreeRTOS-Plus-CLI/FreeRTOS_CLI.c **** 			}
 187:../../kernel/FreeRTOS-Plus/Source/FreeRTOS-Plus-CLI/FreeRTOS_CLI.c **** 		}
 188:../../kernel/FreeRTOS-Plus/Source/FreeRTOS-Plus-CLI/FreeRTOS_CLI.c **** 	}
 189:../../kernel/FreeRTOS-Plus/Source/FreeRTOS-Plus-CLI/FreeRTOS_CLI.c **** 
 190:../../kernel/FreeRTOS-Plus/Source/FreeRTOS-Plus-CLI/FreeRTOS_CLI.c **** 	if( ( pxCommand != NULL ) && ( xReturn == pdFALSE ) )
 191:../../kernel/FreeRTOS-Plus/Source/FreeRTOS-Plus-CLI/FreeRTOS_CLI.c **** 	{
 192:../../kernel/FreeRTOS-Plus/Source/FreeRTOS-Plus-CLI/FreeRTOS_CLI.c **** 		/* The command was found, but the number of parameters with the command
 193:../../kernel/FreeRTOS-Plus/Source/FreeRTOS-Plus-CLI/FreeRTOS_CLI.c **** 		was incorrect. */
 194:../../kernel/FreeRTOS-Plus/Source/FreeRTOS-Plus-CLI/FreeRTOS_CLI.c **** 		strncpy( pcWriteBuffer, "Incorrect command parameter(s).  Enter \"help\" to view a list of availa
 195:../../kernel/FreeRTOS-Plus/Source/FreeRTOS-Plus-CLI/FreeRTOS_CLI.c **** 		pxCommand = NULL;
 196:../../kernel/FreeRTOS-Plus/Source/FreeRTOS-Plus-CLI/FreeRTOS_CLI.c **** 	}
 197:../../kernel/FreeRTOS-Plus/Source/FreeRTOS-Plus-CLI/FreeRTOS_CLI.c **** 	else if( pxCommand != NULL )
 198:../../kernel/FreeRTOS-Plus/Source/FreeRTOS-Plus-CLI/FreeRTOS_CLI.c **** 	{
 199:../../kernel/FreeRTOS-Plus/Source/FreeRTOS-Plus-CLI/FreeRTOS_CLI.c **** 		/* Call the callback function that is registered to this command. */
 200:../../kernel/FreeRTOS-Plus/Source/FreeRTOS-Plus-CLI/FreeRTOS_CLI.c **** 		xReturn = pxCommand->pxCommandLineDefinition->pxCommandInterpreter( pcWriteBuffer, xWriteBufferLe
 201:../../kernel/FreeRTOS-Plus/Source/FreeRTOS-Plus-CLI/FreeRTOS_CLI.c **** 
 202:../../kernel/FreeRTOS-Plus/Source/FreeRTOS-Plus-CLI/FreeRTOS_CLI.c **** 		/* If xReturn is pdFALSE, then no further strings will be returned
 203:../../kernel/FreeRTOS-Plus/Source/FreeRTOS-Plus-CLI/FreeRTOS_CLI.c **** 		after this one, and	pxCommand can be reset to NULL ready to search
 204:../../kernel/FreeRTOS-Plus/Source/FreeRTOS-Plus-CLI/FreeRTOS_CLI.c **** 		for the next entered command. */
 205:../../kernel/FreeRTOS-Plus/Source/FreeRTOS-Plus-CLI/FreeRTOS_CLI.c **** 		if( xReturn == pdFALSE )
 206:../../kernel/FreeRTOS-Plus/Source/FreeRTOS-Plus-CLI/FreeRTOS_CLI.c **** 		{
 207:../../kernel/FreeRTOS-Plus/Source/FreeRTOS-Plus-CLI/FreeRTOS_CLI.c **** 			pxCommand = NULL;
 208:../../kernel/FreeRTOS-Plus/Source/FreeRTOS-Plus-CLI/FreeRTOS_CLI.c **** 		}
 209:../../kernel/FreeRTOS-Plus/Source/FreeRTOS-Plus-CLI/FreeRTOS_CLI.c **** 	}
 210:../../kernel/FreeRTOS-Plus/Source/FreeRTOS-Plus-CLI/FreeRTOS_CLI.c **** 	else
 211:../../kernel/FreeRTOS-Plus/Source/FreeRTOS-Plus-CLI/FreeRTOS_CLI.c **** 	{
 212:../../kernel/FreeRTOS-Plus/Source/FreeRTOS-Plus-CLI/FreeRTOS_CLI.c **** 		/* pxCommand was NULL, the command was not found. */
 213:../../kernel/FreeRTOS-Plus/Source/FreeRTOS-Plus-CLI/FreeRTOS_CLI.c **** 		strncpy( pcWriteBuffer, "Command not recognised.  Enter 'help' to view a list of available comman
 214:../../kernel/FreeRTOS-Plus/Source/FreeRTOS-Plus-CLI/FreeRTOS_CLI.c **** 		xReturn = pdFALSE;
 215:../../kernel/FreeRTOS-Plus/Source/FreeRTOS-Plus-CLI/FreeRTOS_CLI.c **** 	}
 216:../../kernel/FreeRTOS-Plus/Source/FreeRTOS-Plus-CLI/FreeRTOS_CLI.c **** 
 217:../../kernel/FreeRTOS-Plus/Source/FreeRTOS-Plus-CLI/FreeRTOS_CLI.c **** 	return xReturn;
 218:../../kernel/FreeRTOS-Plus/Source/FreeRTOS-Plus-CLI/FreeRTOS_CLI.c **** }
 219:../../kernel/FreeRTOS-Plus/Source/FreeRTOS-Plus-CLI/FreeRTOS_CLI.c **** /*-----------------------------------------------------------*/
 220:../../kernel/FreeRTOS-Plus/Source/FreeRTOS-Plus-CLI/FreeRTOS_CLI.c **** 
 221:../../kernel/FreeRTOS-Plus/Source/FreeRTOS-Plus-CLI/FreeRTOS_CLI.c **** char *FreeRTOS_CLIGetOutputBuffer( void )
 222:../../kernel/FreeRTOS-Plus/Source/FreeRTOS-Plus-CLI/FreeRTOS_CLI.c **** {
 223:../../kernel/FreeRTOS-Plus/Source/FreeRTOS-Plus-CLI/FreeRTOS_CLI.c **** 	return cOutputBuffer;
 224:../../kernel/FreeRTOS-Plus/Source/FreeRTOS-Plus-CLI/FreeRTOS_CLI.c **** }
 225:../../kernel/FreeRTOS-Plus/Source/FreeRTOS-Plus-CLI/FreeRTOS_CLI.c **** /*-----------------------------------------------------------*/
 226:../../kernel/FreeRTOS-Plus/Source/FreeRTOS-Plus-CLI/FreeRTOS_CLI.c **** 
 227:../../kernel/FreeRTOS-Plus/Source/FreeRTOS-Plus-CLI/FreeRTOS_CLI.c **** const char *FreeRTOS_CLIGetParameter( const char *pcCommandString, UBaseType_t uxWantedParameter, B
 228:../../kernel/FreeRTOS-Plus/Source/FreeRTOS-Plus-CLI/FreeRTOS_CLI.c **** {
 229:../../kernel/FreeRTOS-Plus/Source/FreeRTOS-Plus-CLI/FreeRTOS_CLI.c **** UBaseType_t uxParametersFound = 0;
 230:../../kernel/FreeRTOS-Plus/Source/FreeRTOS-Plus-CLI/FreeRTOS_CLI.c **** const char *pcReturn = NULL;
 231:../../kernel/FreeRTOS-Plus/Source/FreeRTOS-Plus-CLI/FreeRTOS_CLI.c **** 
ARM GAS  /tmp/cc8ZN7Gj.s 			page 7


 232:../../kernel/FreeRTOS-Plus/Source/FreeRTOS-Plus-CLI/FreeRTOS_CLI.c **** 	*pxParameterStringLength = 0;
 233:../../kernel/FreeRTOS-Plus/Source/FreeRTOS-Plus-CLI/FreeRTOS_CLI.c **** 
 234:../../kernel/FreeRTOS-Plus/Source/FreeRTOS-Plus-CLI/FreeRTOS_CLI.c **** 	while( uxParametersFound < uxWantedParameter )
 235:../../kernel/FreeRTOS-Plus/Source/FreeRTOS-Plus-CLI/FreeRTOS_CLI.c **** 	{
 236:../../kernel/FreeRTOS-Plus/Source/FreeRTOS-Plus-CLI/FreeRTOS_CLI.c **** 		/* Index the character pointer past the current word.  If this is the start
 237:../../kernel/FreeRTOS-Plus/Source/FreeRTOS-Plus-CLI/FreeRTOS_CLI.c **** 		of the command string then the first word is the command itself. */
 238:../../kernel/FreeRTOS-Plus/Source/FreeRTOS-Plus-CLI/FreeRTOS_CLI.c **** 		while( ( ( *pcCommandString ) != 0x00 ) && ( ( *pcCommandString ) != ' ' ) )
 239:../../kernel/FreeRTOS-Plus/Source/FreeRTOS-Plus-CLI/FreeRTOS_CLI.c **** 		{
 240:../../kernel/FreeRTOS-Plus/Source/FreeRTOS-Plus-CLI/FreeRTOS_CLI.c **** 			pcCommandString++;
 241:../../kernel/FreeRTOS-Plus/Source/FreeRTOS-Plus-CLI/FreeRTOS_CLI.c **** 		}
 242:../../kernel/FreeRTOS-Plus/Source/FreeRTOS-Plus-CLI/FreeRTOS_CLI.c **** 
 243:../../kernel/FreeRTOS-Plus/Source/FreeRTOS-Plus-CLI/FreeRTOS_CLI.c **** 		/* Find the start of the next string. */
 244:../../kernel/FreeRTOS-Plus/Source/FreeRTOS-Plus-CLI/FreeRTOS_CLI.c **** 		while( ( ( *pcCommandString ) != 0x00 ) && ( ( *pcCommandString ) == ' ' ) )
 245:../../kernel/FreeRTOS-Plus/Source/FreeRTOS-Plus-CLI/FreeRTOS_CLI.c **** 		{
 246:../../kernel/FreeRTOS-Plus/Source/FreeRTOS-Plus-CLI/FreeRTOS_CLI.c **** 			pcCommandString++;
 247:../../kernel/FreeRTOS-Plus/Source/FreeRTOS-Plus-CLI/FreeRTOS_CLI.c **** 		}
 248:../../kernel/FreeRTOS-Plus/Source/FreeRTOS-Plus-CLI/FreeRTOS_CLI.c **** 
 249:../../kernel/FreeRTOS-Plus/Source/FreeRTOS-Plus-CLI/FreeRTOS_CLI.c **** 		/* Was a string found? */
 250:../../kernel/FreeRTOS-Plus/Source/FreeRTOS-Plus-CLI/FreeRTOS_CLI.c **** 		if( *pcCommandString != 0x00 )
 251:../../kernel/FreeRTOS-Plus/Source/FreeRTOS-Plus-CLI/FreeRTOS_CLI.c **** 		{
 252:../../kernel/FreeRTOS-Plus/Source/FreeRTOS-Plus-CLI/FreeRTOS_CLI.c **** 			/* Is this the start of the required parameter? */
 253:../../kernel/FreeRTOS-Plus/Source/FreeRTOS-Plus-CLI/FreeRTOS_CLI.c **** 			uxParametersFound++;
 254:../../kernel/FreeRTOS-Plus/Source/FreeRTOS-Plus-CLI/FreeRTOS_CLI.c **** 
 255:../../kernel/FreeRTOS-Plus/Source/FreeRTOS-Plus-CLI/FreeRTOS_CLI.c **** 			if( uxParametersFound == uxWantedParameter )
 256:../../kernel/FreeRTOS-Plus/Source/FreeRTOS-Plus-CLI/FreeRTOS_CLI.c **** 			{
 257:../../kernel/FreeRTOS-Plus/Source/FreeRTOS-Plus-CLI/FreeRTOS_CLI.c **** 				/* How long is the parameter? */
 258:../../kernel/FreeRTOS-Plus/Source/FreeRTOS-Plus-CLI/FreeRTOS_CLI.c **** 				pcReturn = pcCommandString;
 259:../../kernel/FreeRTOS-Plus/Source/FreeRTOS-Plus-CLI/FreeRTOS_CLI.c **** 				while( ( ( *pcCommandString ) != 0x00 ) && ( ( *pcCommandString ) != ' ' ) )
 260:../../kernel/FreeRTOS-Plus/Source/FreeRTOS-Plus-CLI/FreeRTOS_CLI.c **** 				{
 261:../../kernel/FreeRTOS-Plus/Source/FreeRTOS-Plus-CLI/FreeRTOS_CLI.c **** 					( *pxParameterStringLength )++;
 262:../../kernel/FreeRTOS-Plus/Source/FreeRTOS-Plus-CLI/FreeRTOS_CLI.c **** 					pcCommandString++;
 263:../../kernel/FreeRTOS-Plus/Source/FreeRTOS-Plus-CLI/FreeRTOS_CLI.c **** 				}
 264:../../kernel/FreeRTOS-Plus/Source/FreeRTOS-Plus-CLI/FreeRTOS_CLI.c **** 
 265:../../kernel/FreeRTOS-Plus/Source/FreeRTOS-Plus-CLI/FreeRTOS_CLI.c **** 				if( *pxParameterStringLength == 0 )
 266:../../kernel/FreeRTOS-Plus/Source/FreeRTOS-Plus-CLI/FreeRTOS_CLI.c **** 				{
 267:../../kernel/FreeRTOS-Plus/Source/FreeRTOS-Plus-CLI/FreeRTOS_CLI.c **** 					pcReturn = NULL;
 268:../../kernel/FreeRTOS-Plus/Source/FreeRTOS-Plus-CLI/FreeRTOS_CLI.c **** 				}
 269:../../kernel/FreeRTOS-Plus/Source/FreeRTOS-Plus-CLI/FreeRTOS_CLI.c **** 
 270:../../kernel/FreeRTOS-Plus/Source/FreeRTOS-Plus-CLI/FreeRTOS_CLI.c **** 				break;
 271:../../kernel/FreeRTOS-Plus/Source/FreeRTOS-Plus-CLI/FreeRTOS_CLI.c **** 			}
 272:../../kernel/FreeRTOS-Plus/Source/FreeRTOS-Plus-CLI/FreeRTOS_CLI.c **** 		}
 273:../../kernel/FreeRTOS-Plus/Source/FreeRTOS-Plus-CLI/FreeRTOS_CLI.c **** 		else
 274:../../kernel/FreeRTOS-Plus/Source/FreeRTOS-Plus-CLI/FreeRTOS_CLI.c **** 		{
 275:../../kernel/FreeRTOS-Plus/Source/FreeRTOS-Plus-CLI/FreeRTOS_CLI.c **** 			break;
 276:../../kernel/FreeRTOS-Plus/Source/FreeRTOS-Plus-CLI/FreeRTOS_CLI.c **** 		}
 277:../../kernel/FreeRTOS-Plus/Source/FreeRTOS-Plus-CLI/FreeRTOS_CLI.c **** 	}
 278:../../kernel/FreeRTOS-Plus/Source/FreeRTOS-Plus-CLI/FreeRTOS_CLI.c **** 
 279:../../kernel/FreeRTOS-Plus/Source/FreeRTOS-Plus-CLI/FreeRTOS_CLI.c **** 	return pcReturn;
 280:../../kernel/FreeRTOS-Plus/Source/FreeRTOS-Plus-CLI/FreeRTOS_CLI.c **** }
 281:../../kernel/FreeRTOS-Plus/Source/FreeRTOS-Plus-CLI/FreeRTOS_CLI.c **** /*-----------------------------------------------------------*/
 282:../../kernel/FreeRTOS-Plus/Source/FreeRTOS-Plus-CLI/FreeRTOS_CLI.c **** 
 283:../../kernel/FreeRTOS-Plus/Source/FreeRTOS-Plus-CLI/FreeRTOS_CLI.c **** static BaseType_t prvHelpCommand( char *pcWriteBuffer, size_t xWriteBufferLen, const char *pcComman
 284:../../kernel/FreeRTOS-Plus/Source/FreeRTOS-Plus-CLI/FreeRTOS_CLI.c **** {
 112              		.loc 1 284 1 view -0
 113              		.cfi_startproc
 114              		@ args = 0, pretend = 0, frame = 0
 115              		@ frame_needed = 0, uses_anonymous_args = 0
ARM GAS  /tmp/cc8ZN7Gj.s 			page 8


 285:../../kernel/FreeRTOS-Plus/Source/FreeRTOS-Plus-CLI/FreeRTOS_CLI.c **** static const CLI_Definition_List_Item_t * pxCommand = NULL;
 116              		.loc 1 285 1 view .LVU1
 286:../../kernel/FreeRTOS-Plus/Source/FreeRTOS-Plus-CLI/FreeRTOS_CLI.c **** BaseType_t xReturn;
 117              		.loc 1 286 1 view .LVU2
 287:../../kernel/FreeRTOS-Plus/Source/FreeRTOS-Plus-CLI/FreeRTOS_CLI.c **** 
 288:../../kernel/FreeRTOS-Plus/Source/FreeRTOS-Plus-CLI/FreeRTOS_CLI.c **** 	( void ) pcCommandString;
 118              		.loc 1 288 2 view .LVU3
 289:../../kernel/FreeRTOS-Plus/Source/FreeRTOS-Plus-CLI/FreeRTOS_CLI.c **** 
 290:../../kernel/FreeRTOS-Plus/Source/FreeRTOS-Plus-CLI/FreeRTOS_CLI.c **** 	if( pxCommand == NULL )
 119              		.loc 1 290 2 view .LVU4
 120              	@ ../../kernel/FreeRTOS-Plus/Source/FreeRTOS-Plus-CLI/FreeRTOS_CLI.c:284: {
 284:../../kernel/FreeRTOS-Plus/Source/FreeRTOS-Plus-CLI/FreeRTOS_CLI.c **** static const CLI_Definition_List_Item_t * pxCommand = NULL;
 121              		.loc 1 284 1 is_stmt 0 view .LVU5
 122 0000 38B5     		push	{r3, r4, r5, lr}	@
 123              		.cfi_def_cfa_offset 16
 124              		.cfi_offset 3, -16
 125              		.cfi_offset 4, -12
 126              		.cfi_offset 5, -8
 127              		.cfi_offset 14, -4
 128              	@ ../../kernel/FreeRTOS-Plus/Source/FreeRTOS-Plus-CLI/FreeRTOS_CLI.c:290: 	if( pxCommand == NULL )
 129              		.loc 1 290 16 view .LVU6
 130 0002 084D     		ldr	r5, .L6	@ tmp127,
 131 0004 084B     		ldr	r3, .L6+4	@ tmp128,
 132 0006 2C68     		ldr	r4, [r5]	@ pxCommand.1_1, pxCommand
 133 0008 002C     		cmp	r4, #0	@ pxCommand.1_1,
 134 000a 08BF     		it	eq		@
 135 000c 1C46     		moveq	r4, r3	@, pxCommand.1_1, tmp128
 291:../../kernel/FreeRTOS-Plus/Source/FreeRTOS-Plus-CLI/FreeRTOS_CLI.c **** 	{
 292:../../kernel/FreeRTOS-Plus/Source/FreeRTOS-Plus-CLI/FreeRTOS_CLI.c **** 		/* Reset the pxCommand pointer back to the start of the list. */
 293:../../kernel/FreeRTOS-Plus/Source/FreeRTOS-Plus-CLI/FreeRTOS_CLI.c **** 		pxCommand = &xRegisteredCommands;
 294:../../kernel/FreeRTOS-Plus/Source/FreeRTOS-Plus-CLI/FreeRTOS_CLI.c **** 	}
 295:../../kernel/FreeRTOS-Plus/Source/FreeRTOS-Plus-CLI/FreeRTOS_CLI.c **** 
 296:../../kernel/FreeRTOS-Plus/Source/FreeRTOS-Plus-CLI/FreeRTOS_CLI.c **** 	/* Return the next command help string, before moving the pointer on to
 297:../../kernel/FreeRTOS-Plus/Source/FreeRTOS-Plus-CLI/FreeRTOS_CLI.c **** 	the next command in the list. */
 298:../../kernel/FreeRTOS-Plus/Source/FreeRTOS-Plus-CLI/FreeRTOS_CLI.c **** 	strncpy( pcWriteBuffer, pxCommand->pxCommandLineDefinition->pcHelpString, xWriteBufferLen );
 136              		.loc 1 298 2 is_stmt 1 view .LVU7
 137 000e 0A46     		mov	r2, r1	@, xWriteBufferLen
 138              	.LVL1:
 139              		.loc 1 298 2 is_stmt 0 view .LVU8
 140 0010 2368     		ldr	r3, [r4]	@ prephitmp_17->pxCommandLineDefinition, prephitmp_17->pxCommandLineDefinition
 141 0012 5968     		ldr	r1, [r3, #4]	@, _3->pcHelpString
 142              	.LVL2:
 143              		.loc 1 298 2 view .LVU9
 144 0014 FFF7FEFF 		bl	strncpy		@
 145              	.LVL3:
 299:../../kernel/FreeRTOS-Plus/Source/FreeRTOS-Plus-CLI/FreeRTOS_CLI.c **** 	pxCommand = pxCommand->pxNext;
 146              		.loc 1 299 2 is_stmt 1 view .LVU10
 147              	@ ../../kernel/FreeRTOS-Plus/Source/FreeRTOS-Plus-CLI/FreeRTOS_CLI.c:299: 	pxCommand = pxCommand->p
 148              		.loc 1 299 23 is_stmt 0 view .LVU11
 149 0018 6068     		ldr	r0, [r4, #4]	@ _5, prephitmp_17->pxNext
 150              	@ ../../kernel/FreeRTOS-Plus/Source/FreeRTOS-Plus-CLI/FreeRTOS_CLI.c:299: 	pxCommand = pxCommand->p
 151              		.loc 1 299 12 view .LVU12
 152 001a 2860     		str	r0, [r5]	@ _5, pxCommand
 300:../../kernel/FreeRTOS-Plus/Source/FreeRTOS-Plus-CLI/FreeRTOS_CLI.c **** 
 301:../../kernel/FreeRTOS-Plus/Source/FreeRTOS-Plus-CLI/FreeRTOS_CLI.c **** 	if( pxCommand == NULL )
 153              		.loc 1 301 2 is_stmt 1 view .LVU13
 154              	.LVL4:
ARM GAS  /tmp/cc8ZN7Gj.s 			page 9


 302:../../kernel/FreeRTOS-Plus/Source/FreeRTOS-Plus-CLI/FreeRTOS_CLI.c **** 	{
 303:../../kernel/FreeRTOS-Plus/Source/FreeRTOS-Plus-CLI/FreeRTOS_CLI.c **** 		/* There are no more commands in the list, so there will be no more
 304:../../kernel/FreeRTOS-Plus/Source/FreeRTOS-Plus-CLI/FreeRTOS_CLI.c **** 		strings to return after this one and pdFALSE should be returned. */
 305:../../kernel/FreeRTOS-Plus/Source/FreeRTOS-Plus-CLI/FreeRTOS_CLI.c **** 		xReturn = pdFALSE;
 306:../../kernel/FreeRTOS-Plus/Source/FreeRTOS-Plus-CLI/FreeRTOS_CLI.c **** 	}
 307:../../kernel/FreeRTOS-Plus/Source/FreeRTOS-Plus-CLI/FreeRTOS_CLI.c **** 	else
 308:../../kernel/FreeRTOS-Plus/Source/FreeRTOS-Plus-CLI/FreeRTOS_CLI.c **** 	{
 309:../../kernel/FreeRTOS-Plus/Source/FreeRTOS-Plus-CLI/FreeRTOS_CLI.c **** 		xReturn = pdTRUE;
 310:../../kernel/FreeRTOS-Plus/Source/FreeRTOS-Plus-CLI/FreeRTOS_CLI.c **** 	}
 311:../../kernel/FreeRTOS-Plus/Source/FreeRTOS-Plus-CLI/FreeRTOS_CLI.c **** 
 312:../../kernel/FreeRTOS-Plus/Source/FreeRTOS-Plus-CLI/FreeRTOS_CLI.c **** 	return xReturn;
 155              		.loc 1 312 2 view .LVU14
 156              	@ ../../kernel/FreeRTOS-Plus/Source/FreeRTOS-Plus-CLI/FreeRTOS_CLI.c:313: }
 313:../../kernel/FreeRTOS-Plus/Source/FreeRTOS-Plus-CLI/FreeRTOS_CLI.c **** }
 157              		.loc 1 313 1 is_stmt 0 view .LVU15
 158 001c 0030     		adds	r0, r0, #0	@, _5,
 159              	.LVL5:
 160              		.loc 1 313 1 view .LVU16
 161 001e 18BF     		it	ne
 162 0020 0120     		movne	r0, #1	@,
 163 0022 38BD     		pop	{r3, r4, r5, pc}	@
 164              	.LVL6:
 165              	.L7:
 166              		.loc 1 313 1 view .LVU17
 167              		.align	2
 168              	.L6:
 169 0024 00000000 		.word	.LANCHOR1
 170 0028 00000000 		.word	.LANCHOR0
 171              		.cfi_endproc
 172              	.LFE8:
 173              		.size	prvHelpCommand, .-prvHelpCommand
 174              		.section	.text.FreeRTOS_CLIRegisterCommand,"ax",%progbits
 175              		.align	1
 176              		.p2align 2,,3
 177              		.global	FreeRTOS_CLIRegisterCommand
 178              		.syntax unified
 179              		.thumb
 180              		.thumb_func
 181              		.fpu fpv4-sp-d16
 182              		.type	FreeRTOS_CLIRegisterCommand, %function
 183              	FreeRTOS_CLIRegisterCommand:
 184              	.LVL7:
 185              	.LFB4:
 106:../../kernel/FreeRTOS-Plus/Source/FreeRTOS-Plus-CLI/FreeRTOS_CLI.c **** static CLI_Definition_List_Item_t *pxLastCommandInList = &xRegisteredCommands;
 186              		.loc 1 106 1 is_stmt 1 view -0
 187              		.cfi_startproc
 188              		@ args = 0, pretend = 0, frame = 0
 189              		@ frame_needed = 0, uses_anonymous_args = 0
 107:../../kernel/FreeRTOS-Plus/Source/FreeRTOS-Plus-CLI/FreeRTOS_CLI.c **** CLI_Definition_List_Item_t *pxNewListItem;
 190              		.loc 1 107 1 view .LVU19
 108:../../kernel/FreeRTOS-Plus/Source/FreeRTOS-Plus-CLI/FreeRTOS_CLI.c **** BaseType_t xReturn = pdFAIL;
 191              		.loc 1 108 1 view .LVU20
 109:../../kernel/FreeRTOS-Plus/Source/FreeRTOS-Plus-CLI/FreeRTOS_CLI.c **** 
 192              		.loc 1 109 1 view .LVU21
 112:../../kernel/FreeRTOS-Plus/Source/FreeRTOS-Plus-CLI/FreeRTOS_CLI.c **** 
 193              		.loc 1 112 2 view .LVU22
 194              	@ ../../kernel/FreeRTOS-Plus/Source/FreeRTOS-Plus-CLI/FreeRTOS_CLI.c:106: {
ARM GAS  /tmp/cc8ZN7Gj.s 			page 10


 106:../../kernel/FreeRTOS-Plus/Source/FreeRTOS-Plus-CLI/FreeRTOS_CLI.c **** static CLI_Definition_List_Item_t *pxLastCommandInList = &xRegisteredCommands;
 195              		.loc 1 106 1 is_stmt 0 view .LVU23
 196 0000 38B5     		push	{r3, r4, r5, lr}	@
 197              		.cfi_def_cfa_offset 16
 198              		.cfi_offset 3, -16
 199              		.cfi_offset 4, -12
 200              		.cfi_offset 5, -8
 201              		.cfi_offset 14, -4
 202              	@ ../../kernel/FreeRTOS-Plus/Source/FreeRTOS-Plus-CLI/FreeRTOS_CLI.c:112: 	configASSERT( pxCommandT
 112:../../kernel/FreeRTOS-Plus/Source/FreeRTOS-Plus-CLI/FreeRTOS_CLI.c **** 
 203              		.loc 1 112 2 view .LVU24
 204 0002 D8B1     		cbz	r0, .L14	@ pxCommandToRegister,
 112:../../kernel/FreeRTOS-Plus/Source/FreeRTOS-Plus-CLI/FreeRTOS_CLI.c **** 
 205              		.loc 1 112 37 is_stmt 1 discriminator 2 view .LVU25
 115:../../kernel/FreeRTOS-Plus/Source/FreeRTOS-Plus-CLI/FreeRTOS_CLI.c **** 	configASSERT( pxNewListItem );
 206              		.loc 1 115 2 discriminator 2 view .LVU26
 207 0004 0546     		mov	r5, r0	@ pxCommandToRegister, pxCommandToRegister
 208              	@ ../../kernel/FreeRTOS-Plus/Source/FreeRTOS-Plus-CLI/FreeRTOS_CLI.c:115: 	pxNewListItem = ( CLI_De
 115:../../kernel/FreeRTOS-Plus/Source/FreeRTOS-Plus-CLI/FreeRTOS_CLI.c **** 	configASSERT( pxNewListItem );
 209              		.loc 1 115 51 is_stmt 0 discriminator 2 view .LVU27
 210 0006 0820     		movs	r0, #8	@,
 211              	.LVL8:
 115:../../kernel/FreeRTOS-Plus/Source/FreeRTOS-Plus-CLI/FreeRTOS_CLI.c **** 	configASSERT( pxNewListItem );
 212              		.loc 1 115 51 discriminator 2 view .LVU28
 213 0008 FFF7FEFF 		bl	pvPortMalloc		@
 214              	.LVL9:
 116:../../kernel/FreeRTOS-Plus/Source/FreeRTOS-Plus-CLI/FreeRTOS_CLI.c **** 
 215              		.loc 1 116 2 is_stmt 1 discriminator 2 view .LVU29
 216 000c 0446     		mov	r4, r0	@ pxNewListItem,
 217 000e 60B1     		cbz	r0, .L15	@ pxNewListItem,
 116:../../kernel/FreeRTOS-Plus/Source/FreeRTOS-Plus-CLI/FreeRTOS_CLI.c **** 
 218              		.loc 1 116 31 view .LVU30
 118:../../kernel/FreeRTOS-Plus/Source/FreeRTOS-Plus-CLI/FreeRTOS_CLI.c **** 	{
 219              		.loc 1 118 2 view .LVU31
 120:../../kernel/FreeRTOS-Plus/Source/FreeRTOS-Plus-CLI/FreeRTOS_CLI.c **** 		{
 220              		.loc 1 120 3 view .LVU32
 221 0010 FFF7FEFF 		bl	vPortEnterCritical		@
 222              	.LVL10:
 124:../../kernel/FreeRTOS-Plus/Source/FreeRTOS-Plus-CLI/FreeRTOS_CLI.c **** 
 223              		.loc 1 124 4 view .LVU33
 224              	@ ../../kernel/FreeRTOS-Plus/Source/FreeRTOS-Plus-CLI/FreeRTOS_CLI.c:132: 			pxLastCommandInList->p
 132:../../kernel/FreeRTOS-Plus/Source/FreeRTOS-Plus-CLI/FreeRTOS_CLI.c **** 
 225              		.loc 1 132 23 is_stmt 0 view .LVU34
 226 0014 0E4B     		ldr	r3, .L16	@ tmp119,
 227              	@ ../../kernel/FreeRTOS-Plus/Source/FreeRTOS-Plus-CLI/FreeRTOS_CLI.c:124: 			pxNewListItem->pxComma
 124:../../kernel/FreeRTOS-Plus/Source/FreeRTOS-Plus-CLI/FreeRTOS_CLI.c **** 
 228              		.loc 1 124 43 view .LVU35
 229 0016 2560     		str	r5, [r4]	@ pxCommandToRegister, pxNewListItem_5->pxCommandLineDefinition
 128:../../kernel/FreeRTOS-Plus/Source/FreeRTOS-Plus-CLI/FreeRTOS_CLI.c **** 
 230              		.loc 1 128 4 is_stmt 1 view .LVU36
 231              	@ ../../kernel/FreeRTOS-Plus/Source/FreeRTOS-Plus-CLI/FreeRTOS_CLI.c:132: 			pxLastCommandInList->p
 132:../../kernel/FreeRTOS-Plus/Source/FreeRTOS-Plus-CLI/FreeRTOS_CLI.c **** 
 232              		.loc 1 132 32 is_stmt 0 view .LVU37
 233 0018 1A68     		ldr	r2, [r3]	@ pxLastCommandInList, pxLastCommandInList
 234              	@ ../../kernel/FreeRTOS-Plus/Source/FreeRTOS-Plus-CLI/FreeRTOS_CLI.c:135: 			pxLastCommandInList = 
 135:../../kernel/FreeRTOS-Plus/Source/FreeRTOS-Plus-CLI/FreeRTOS_CLI.c **** 		}
 235              		.loc 1 135 24 view .LVU38
ARM GAS  /tmp/cc8ZN7Gj.s 			page 11


 236 001a 1C60     		str	r4, [r3]	@ pxNewListItem, pxLastCommandInList
 237              	@ ../../kernel/FreeRTOS-Plus/Source/FreeRTOS-Plus-CLI/FreeRTOS_CLI.c:128: 			pxNewListItem->pxNext 
 128:../../kernel/FreeRTOS-Plus/Source/FreeRTOS-Plus-CLI/FreeRTOS_CLI.c **** 
 238              		.loc 1 128 26 view .LVU39
 239 001c 0023     		movs	r3, #0	@ tmp118,
 240 001e 6360     		str	r3, [r4, #4]	@ tmp118, pxNewListItem_5->pxNext
 132:../../kernel/FreeRTOS-Plus/Source/FreeRTOS-Plus-CLI/FreeRTOS_CLI.c **** 
 241              		.loc 1 132 4 is_stmt 1 view .LVU40
 242              	@ ../../kernel/FreeRTOS-Plus/Source/FreeRTOS-Plus-CLI/FreeRTOS_CLI.c:132: 			pxLastCommandInList->p
 132:../../kernel/FreeRTOS-Plus/Source/FreeRTOS-Plus-CLI/FreeRTOS_CLI.c **** 
 243              		.loc 1 132 32 is_stmt 0 view .LVU41
 244 0020 5460     		str	r4, [r2, #4]	@ pxNewListItem, pxLastCommandInList.0_1->pxNext
 135:../../kernel/FreeRTOS-Plus/Source/FreeRTOS-Plus-CLI/FreeRTOS_CLI.c **** 		}
 245              		.loc 1 135 4 is_stmt 1 view .LVU42
 137:../../kernel/FreeRTOS-Plus/Source/FreeRTOS-Plus-CLI/FreeRTOS_CLI.c **** 
 246              		.loc 1 137 3 view .LVU43
 247 0022 FFF7FEFF 		bl	vPortExitCritical		@
 248              	.LVL11:
 139:../../kernel/FreeRTOS-Plus/Source/FreeRTOS-Plus-CLI/FreeRTOS_CLI.c **** 	}
 249              		.loc 1 139 3 view .LVU44
 142:../../kernel/FreeRTOS-Plus/Source/FreeRTOS-Plus-CLI/FreeRTOS_CLI.c **** }
 250              		.loc 1 142 2 view .LVU45
 251              	@ ../../kernel/FreeRTOS-Plus/Source/FreeRTOS-Plus-CLI/FreeRTOS_CLI.c:143: }
 143:../../kernel/FreeRTOS-Plus/Source/FreeRTOS-Plus-CLI/FreeRTOS_CLI.c **** /*-----------------------------------------------------------*/
 252              		.loc 1 143 1 is_stmt 0 view .LVU46
 253 0026 0120     		movs	r0, #1	@,
 254 0028 38BD     		pop	{r3, r4, r5, pc}	@
 255              	.LVL12:
 256              	.L15:
 116:../../kernel/FreeRTOS-Plus/Source/FreeRTOS-Plus-CLI/FreeRTOS_CLI.c **** 
 257              		.loc 1 116 2 is_stmt 1 view .LVU47
 258              	.LBB8:
 259              	.LBI8:
 260              		.file 2 "../../kernel/FreeRTOS/Source/portable/GCC/ARM_CM4F/portmacro.h"
   1:../../kernel/FreeRTOS/Source/portable/GCC/ARM_CM4F/portmacro.h **** /*
   2:../../kernel/FreeRTOS/Source/portable/GCC/ARM_CM4F/portmacro.h ****  * FreeRTOS Kernel V10.0.1
   3:../../kernel/FreeRTOS/Source/portable/GCC/ARM_CM4F/portmacro.h ****  * Copyright (C) 2017 Amazon.com, Inc. or its affiliates.  All Rights Reserved.
   4:../../kernel/FreeRTOS/Source/portable/GCC/ARM_CM4F/portmacro.h ****  *
   5:../../kernel/FreeRTOS/Source/portable/GCC/ARM_CM4F/portmacro.h ****  * Permission is hereby granted, free of charge, to any person obtaining a copy of
   6:../../kernel/FreeRTOS/Source/portable/GCC/ARM_CM4F/portmacro.h ****  * this software and associated documentation files (the "Software"), to deal in
   7:../../kernel/FreeRTOS/Source/portable/GCC/ARM_CM4F/portmacro.h ****  * the Software without restriction, including without limitation the rights to
   8:../../kernel/FreeRTOS/Source/portable/GCC/ARM_CM4F/portmacro.h ****  * use, copy, modify, merge, publish, distribute, sublicense, and/or sell copies of
   9:../../kernel/FreeRTOS/Source/portable/GCC/ARM_CM4F/portmacro.h ****  * the Software, and to permit persons to whom the Software is furnished to do so,
  10:../../kernel/FreeRTOS/Source/portable/GCC/ARM_CM4F/portmacro.h ****  * subject to the following conditions:
  11:../../kernel/FreeRTOS/Source/portable/GCC/ARM_CM4F/portmacro.h ****  *
  12:../../kernel/FreeRTOS/Source/portable/GCC/ARM_CM4F/portmacro.h ****  * The above copyright notice and this permission notice shall be included in all
  13:../../kernel/FreeRTOS/Source/portable/GCC/ARM_CM4F/portmacro.h ****  * copies or substantial portions of the Software.
  14:../../kernel/FreeRTOS/Source/portable/GCC/ARM_CM4F/portmacro.h ****  *
  15:../../kernel/FreeRTOS/Source/portable/GCC/ARM_CM4F/portmacro.h ****  * THE SOFTWARE IS PROVIDED "AS IS", WITHOUT WARRANTY OF ANY KIND, EXPRESS OR
  16:../../kernel/FreeRTOS/Source/portable/GCC/ARM_CM4F/portmacro.h ****  * IMPLIED, INCLUDING BUT NOT LIMITED TO THE WARRANTIES OF MERCHANTABILITY, FITNESS
  17:../../kernel/FreeRTOS/Source/portable/GCC/ARM_CM4F/portmacro.h ****  * FOR A PARTICULAR PURPOSE AND NONINFRINGEMENT. IN NO EVENT SHALL THE AUTHORS OR
  18:../../kernel/FreeRTOS/Source/portable/GCC/ARM_CM4F/portmacro.h ****  * COPYRIGHT HOLDERS BE LIABLE FOR ANY CLAIM, DAMAGES OR OTHER LIABILITY, WHETHER
  19:../../kernel/FreeRTOS/Source/portable/GCC/ARM_CM4F/portmacro.h ****  * IN AN ACTION OF CONTRACT, TORT OR OTHERWISE, ARISING FROM, OUT OF OR IN
  20:../../kernel/FreeRTOS/Source/portable/GCC/ARM_CM4F/portmacro.h ****  * CONNECTION WITH THE SOFTWARE OR THE USE OR OTHER DEALINGS IN THE SOFTWARE.
  21:../../kernel/FreeRTOS/Source/portable/GCC/ARM_CM4F/portmacro.h ****  *
  22:../../kernel/FreeRTOS/Source/portable/GCC/ARM_CM4F/portmacro.h ****  * http://www.FreeRTOS.org
  23:../../kernel/FreeRTOS/Source/portable/GCC/ARM_CM4F/portmacro.h ****  * http://aws.amazon.com/freertos
ARM GAS  /tmp/cc8ZN7Gj.s 			page 12


  24:../../kernel/FreeRTOS/Source/portable/GCC/ARM_CM4F/portmacro.h ****  *
  25:../../kernel/FreeRTOS/Source/portable/GCC/ARM_CM4F/portmacro.h ****  * 1 tab == 4 spaces!
  26:../../kernel/FreeRTOS/Source/portable/GCC/ARM_CM4F/portmacro.h ****  */
  27:../../kernel/FreeRTOS/Source/portable/GCC/ARM_CM4F/portmacro.h **** 
  28:../../kernel/FreeRTOS/Source/portable/GCC/ARM_CM4F/portmacro.h **** 
  29:../../kernel/FreeRTOS/Source/portable/GCC/ARM_CM4F/portmacro.h **** #ifndef PORTMACRO_H
  30:../../kernel/FreeRTOS/Source/portable/GCC/ARM_CM4F/portmacro.h **** #define PORTMACRO_H
  31:../../kernel/FreeRTOS/Source/portable/GCC/ARM_CM4F/portmacro.h **** 
  32:../../kernel/FreeRTOS/Source/portable/GCC/ARM_CM4F/portmacro.h **** #ifdef __cplusplus
  33:../../kernel/FreeRTOS/Source/portable/GCC/ARM_CM4F/portmacro.h **** extern "C" {
  34:../../kernel/FreeRTOS/Source/portable/GCC/ARM_CM4F/portmacro.h **** #endif
  35:../../kernel/FreeRTOS/Source/portable/GCC/ARM_CM4F/portmacro.h **** 
  36:../../kernel/FreeRTOS/Source/portable/GCC/ARM_CM4F/portmacro.h **** /*-----------------------------------------------------------
  37:../../kernel/FreeRTOS/Source/portable/GCC/ARM_CM4F/portmacro.h ****  * Port specific definitions.
  38:../../kernel/FreeRTOS/Source/portable/GCC/ARM_CM4F/portmacro.h ****  *
  39:../../kernel/FreeRTOS/Source/portable/GCC/ARM_CM4F/portmacro.h ****  * The settings in this file configure FreeRTOS correctly for the
  40:../../kernel/FreeRTOS/Source/portable/GCC/ARM_CM4F/portmacro.h ****  * given hardware and compiler.
  41:../../kernel/FreeRTOS/Source/portable/GCC/ARM_CM4F/portmacro.h ****  *
  42:../../kernel/FreeRTOS/Source/portable/GCC/ARM_CM4F/portmacro.h ****  * These settings should not be altered.
  43:../../kernel/FreeRTOS/Source/portable/GCC/ARM_CM4F/portmacro.h ****  *-----------------------------------------------------------
  44:../../kernel/FreeRTOS/Source/portable/GCC/ARM_CM4F/portmacro.h ****  */
  45:../../kernel/FreeRTOS/Source/portable/GCC/ARM_CM4F/portmacro.h **** 
  46:../../kernel/FreeRTOS/Source/portable/GCC/ARM_CM4F/portmacro.h **** /* Type definitions. */
  47:../../kernel/FreeRTOS/Source/portable/GCC/ARM_CM4F/portmacro.h **** #define portCHAR		char
  48:../../kernel/FreeRTOS/Source/portable/GCC/ARM_CM4F/portmacro.h **** #define portFLOAT		float
  49:../../kernel/FreeRTOS/Source/portable/GCC/ARM_CM4F/portmacro.h **** #define portDOUBLE		double
  50:../../kernel/FreeRTOS/Source/portable/GCC/ARM_CM4F/portmacro.h **** #define portLONG		long
  51:../../kernel/FreeRTOS/Source/portable/GCC/ARM_CM4F/portmacro.h **** #define portSHORT		short
  52:../../kernel/FreeRTOS/Source/portable/GCC/ARM_CM4F/portmacro.h **** #define portSTACK_TYPE	uint32_t
  53:../../kernel/FreeRTOS/Source/portable/GCC/ARM_CM4F/portmacro.h **** #define portBASE_TYPE	long
  54:../../kernel/FreeRTOS/Source/portable/GCC/ARM_CM4F/portmacro.h **** 
  55:../../kernel/FreeRTOS/Source/portable/GCC/ARM_CM4F/portmacro.h **** typedef portSTACK_TYPE StackType_t;
  56:../../kernel/FreeRTOS/Source/portable/GCC/ARM_CM4F/portmacro.h **** typedef long BaseType_t;
  57:../../kernel/FreeRTOS/Source/portable/GCC/ARM_CM4F/portmacro.h **** typedef unsigned long UBaseType_t;
  58:../../kernel/FreeRTOS/Source/portable/GCC/ARM_CM4F/portmacro.h **** 
  59:../../kernel/FreeRTOS/Source/portable/GCC/ARM_CM4F/portmacro.h **** #if( configUSE_16_BIT_TICKS == 1 )
  60:../../kernel/FreeRTOS/Source/portable/GCC/ARM_CM4F/portmacro.h **** 	typedef uint16_t TickType_t;
  61:../../kernel/FreeRTOS/Source/portable/GCC/ARM_CM4F/portmacro.h **** 	#define portMAX_DELAY ( TickType_t ) 0xffff
  62:../../kernel/FreeRTOS/Source/portable/GCC/ARM_CM4F/portmacro.h **** #else
  63:../../kernel/FreeRTOS/Source/portable/GCC/ARM_CM4F/portmacro.h **** 	typedef uint32_t TickType_t;
  64:../../kernel/FreeRTOS/Source/portable/GCC/ARM_CM4F/portmacro.h **** 	#define portMAX_DELAY ( TickType_t ) 0xffffffffUL
  65:../../kernel/FreeRTOS/Source/portable/GCC/ARM_CM4F/portmacro.h **** 
  66:../../kernel/FreeRTOS/Source/portable/GCC/ARM_CM4F/portmacro.h **** 	/* 32-bit tick type on a 32-bit architecture, so reads of the tick count do
  67:../../kernel/FreeRTOS/Source/portable/GCC/ARM_CM4F/portmacro.h **** 	not need to be guarded with a critical section. */
  68:../../kernel/FreeRTOS/Source/portable/GCC/ARM_CM4F/portmacro.h **** 	#define portTICK_TYPE_IS_ATOMIC 1
  69:../../kernel/FreeRTOS/Source/portable/GCC/ARM_CM4F/portmacro.h **** #endif
  70:../../kernel/FreeRTOS/Source/portable/GCC/ARM_CM4F/portmacro.h **** /*-----------------------------------------------------------*/
  71:../../kernel/FreeRTOS/Source/portable/GCC/ARM_CM4F/portmacro.h **** 
  72:../../kernel/FreeRTOS/Source/portable/GCC/ARM_CM4F/portmacro.h **** /* Architecture specifics. */
  73:../../kernel/FreeRTOS/Source/portable/GCC/ARM_CM4F/portmacro.h **** #define portSTACK_GROWTH			( -1 )
  74:../../kernel/FreeRTOS/Source/portable/GCC/ARM_CM4F/portmacro.h **** #define portTICK_PERIOD_MS			( ( TickType_t ) 1000 / configTICK_RATE_HZ )
  75:../../kernel/FreeRTOS/Source/portable/GCC/ARM_CM4F/portmacro.h **** #define portBYTE_ALIGNMENT			8
  76:../../kernel/FreeRTOS/Source/portable/GCC/ARM_CM4F/portmacro.h **** /*-----------------------------------------------------------*/
  77:../../kernel/FreeRTOS/Source/portable/GCC/ARM_CM4F/portmacro.h **** 
  78:../../kernel/FreeRTOS/Source/portable/GCC/ARM_CM4F/portmacro.h **** /* Scheduler utilities. */
  79:../../kernel/FreeRTOS/Source/portable/GCC/ARM_CM4F/portmacro.h **** #define portYIELD() 															\
  80:../../kernel/FreeRTOS/Source/portable/GCC/ARM_CM4F/portmacro.h **** {																				\
ARM GAS  /tmp/cc8ZN7Gj.s 			page 13


  81:../../kernel/FreeRTOS/Source/portable/GCC/ARM_CM4F/portmacro.h **** 	/* Set a PendSV to request a context switch. */								\
  82:../../kernel/FreeRTOS/Source/portable/GCC/ARM_CM4F/portmacro.h **** 	portNVIC_INT_CTRL_REG = portNVIC_PENDSVSET_BIT;								\
  83:../../kernel/FreeRTOS/Source/portable/GCC/ARM_CM4F/portmacro.h **** 																				\
  84:../../kernel/FreeRTOS/Source/portable/GCC/ARM_CM4F/portmacro.h **** 	/* Barriers are normally not required but do ensure the code is completely	\
  85:../../kernel/FreeRTOS/Source/portable/GCC/ARM_CM4F/portmacro.h **** 	within the specified behaviour for the architecture. */						\
  86:../../kernel/FreeRTOS/Source/portable/GCC/ARM_CM4F/portmacro.h **** 	__asm volatile( "dsb" ::: "memory" );										\
  87:../../kernel/FreeRTOS/Source/portable/GCC/ARM_CM4F/portmacro.h **** 	__asm volatile( "isb" );													\
  88:../../kernel/FreeRTOS/Source/portable/GCC/ARM_CM4F/portmacro.h **** }
  89:../../kernel/FreeRTOS/Source/portable/GCC/ARM_CM4F/portmacro.h **** 
  90:../../kernel/FreeRTOS/Source/portable/GCC/ARM_CM4F/portmacro.h **** #define portNVIC_INT_CTRL_REG		( * ( ( volatile uint32_t * ) 0xe000ed04 ) )
  91:../../kernel/FreeRTOS/Source/portable/GCC/ARM_CM4F/portmacro.h **** #define portNVIC_PENDSVSET_BIT		( 1UL << 28UL )
  92:../../kernel/FreeRTOS/Source/portable/GCC/ARM_CM4F/portmacro.h **** #define portEND_SWITCHING_ISR( xSwitchRequired ) if( xSwitchRequired != pdFALSE ) portYIELD()
  93:../../kernel/FreeRTOS/Source/portable/GCC/ARM_CM4F/portmacro.h **** #define portYIELD_FROM_ISR( x ) portEND_SWITCHING_ISR( x )
  94:../../kernel/FreeRTOS/Source/portable/GCC/ARM_CM4F/portmacro.h **** /*-----------------------------------------------------------*/
  95:../../kernel/FreeRTOS/Source/portable/GCC/ARM_CM4F/portmacro.h **** 
  96:../../kernel/FreeRTOS/Source/portable/GCC/ARM_CM4F/portmacro.h **** /* Critical section management. */
  97:../../kernel/FreeRTOS/Source/portable/GCC/ARM_CM4F/portmacro.h **** extern void vPortEnterCritical( void );
  98:../../kernel/FreeRTOS/Source/portable/GCC/ARM_CM4F/portmacro.h **** extern void vPortExitCritical( void );
  99:../../kernel/FreeRTOS/Source/portable/GCC/ARM_CM4F/portmacro.h **** #define portSET_INTERRUPT_MASK_FROM_ISR()		ulPortRaiseBASEPRI()
 100:../../kernel/FreeRTOS/Source/portable/GCC/ARM_CM4F/portmacro.h **** #define portCLEAR_INTERRUPT_MASK_FROM_ISR(x)	vPortSetBASEPRI(x)
 101:../../kernel/FreeRTOS/Source/portable/GCC/ARM_CM4F/portmacro.h **** #define portDISABLE_INTERRUPTS()				vPortRaiseBASEPRI()
 102:../../kernel/FreeRTOS/Source/portable/GCC/ARM_CM4F/portmacro.h **** #define portENABLE_INTERRUPTS()					vPortSetBASEPRI(0)
 103:../../kernel/FreeRTOS/Source/portable/GCC/ARM_CM4F/portmacro.h **** #define portENTER_CRITICAL()					vPortEnterCritical()
 104:../../kernel/FreeRTOS/Source/portable/GCC/ARM_CM4F/portmacro.h **** #define portEXIT_CRITICAL()						vPortExitCritical()
 105:../../kernel/FreeRTOS/Source/portable/GCC/ARM_CM4F/portmacro.h **** 
 106:../../kernel/FreeRTOS/Source/portable/GCC/ARM_CM4F/portmacro.h **** /*-----------------------------------------------------------*/
 107:../../kernel/FreeRTOS/Source/portable/GCC/ARM_CM4F/portmacro.h **** 
 108:../../kernel/FreeRTOS/Source/portable/GCC/ARM_CM4F/portmacro.h **** /* Task function macros as described on the FreeRTOS.org WEB site.  These are
 109:../../kernel/FreeRTOS/Source/portable/GCC/ARM_CM4F/portmacro.h **** not necessary for to use this port.  They are defined so the common demo files
 110:../../kernel/FreeRTOS/Source/portable/GCC/ARM_CM4F/portmacro.h **** (which build with all the ports) will build. */
 111:../../kernel/FreeRTOS/Source/portable/GCC/ARM_CM4F/portmacro.h **** #define portTASK_FUNCTION_PROTO( vFunction, pvParameters ) void vFunction( void *pvParameters )
 112:../../kernel/FreeRTOS/Source/portable/GCC/ARM_CM4F/portmacro.h **** #define portTASK_FUNCTION( vFunction, pvParameters ) void vFunction( void *pvParameters )
 113:../../kernel/FreeRTOS/Source/portable/GCC/ARM_CM4F/portmacro.h **** /*-----------------------------------------------------------*/
 114:../../kernel/FreeRTOS/Source/portable/GCC/ARM_CM4F/portmacro.h **** 
 115:../../kernel/FreeRTOS/Source/portable/GCC/ARM_CM4F/portmacro.h **** /* Tickless idle/low power functionality. */
 116:../../kernel/FreeRTOS/Source/portable/GCC/ARM_CM4F/portmacro.h **** #ifndef portSUPPRESS_TICKS_AND_SLEEP
 117:../../kernel/FreeRTOS/Source/portable/GCC/ARM_CM4F/portmacro.h **** 	extern void vPortSuppressTicksAndSleep( TickType_t xExpectedIdleTime );
 118:../../kernel/FreeRTOS/Source/portable/GCC/ARM_CM4F/portmacro.h **** 	#define portSUPPRESS_TICKS_AND_SLEEP( xExpectedIdleTime ) vPortSuppressTicksAndSleep( xExpectedIdl
 119:../../kernel/FreeRTOS/Source/portable/GCC/ARM_CM4F/portmacro.h **** #endif
 120:../../kernel/FreeRTOS/Source/portable/GCC/ARM_CM4F/portmacro.h **** /*-----------------------------------------------------------*/
 121:../../kernel/FreeRTOS/Source/portable/GCC/ARM_CM4F/portmacro.h **** 
 122:../../kernel/FreeRTOS/Source/portable/GCC/ARM_CM4F/portmacro.h **** /* Architecture specific optimisations. */
 123:../../kernel/FreeRTOS/Source/portable/GCC/ARM_CM4F/portmacro.h **** #ifndef configUSE_PORT_OPTIMISED_TASK_SELECTION
 124:../../kernel/FreeRTOS/Source/portable/GCC/ARM_CM4F/portmacro.h **** 	#define configUSE_PORT_OPTIMISED_TASK_SELECTION 1
 125:../../kernel/FreeRTOS/Source/portable/GCC/ARM_CM4F/portmacro.h **** #endif
 126:../../kernel/FreeRTOS/Source/portable/GCC/ARM_CM4F/portmacro.h **** 
 127:../../kernel/FreeRTOS/Source/portable/GCC/ARM_CM4F/portmacro.h **** #if configUSE_PORT_OPTIMISED_TASK_SELECTION == 1
 128:../../kernel/FreeRTOS/Source/portable/GCC/ARM_CM4F/portmacro.h **** 
 129:../../kernel/FreeRTOS/Source/portable/GCC/ARM_CM4F/portmacro.h **** 	/* Generic helper function. */
 130:../../kernel/FreeRTOS/Source/portable/GCC/ARM_CM4F/portmacro.h **** 	__attribute__( ( always_inline ) ) static inline uint8_t ucPortCountLeadingZeros( uint32_t ulBitma
 131:../../kernel/FreeRTOS/Source/portable/GCC/ARM_CM4F/portmacro.h **** 	{
 132:../../kernel/FreeRTOS/Source/portable/GCC/ARM_CM4F/portmacro.h **** 	uint8_t ucReturn;
 133:../../kernel/FreeRTOS/Source/portable/GCC/ARM_CM4F/portmacro.h **** 
 134:../../kernel/FreeRTOS/Source/portable/GCC/ARM_CM4F/portmacro.h **** 		__asm volatile ( "clz %0, %1" : "=r" ( ucReturn ) : "r" ( ulBitmap ) : "memory" );
 135:../../kernel/FreeRTOS/Source/portable/GCC/ARM_CM4F/portmacro.h **** 		return ucReturn;
 136:../../kernel/FreeRTOS/Source/portable/GCC/ARM_CM4F/portmacro.h **** 	}
 137:../../kernel/FreeRTOS/Source/portable/GCC/ARM_CM4F/portmacro.h **** 
ARM GAS  /tmp/cc8ZN7Gj.s 			page 14


 138:../../kernel/FreeRTOS/Source/portable/GCC/ARM_CM4F/portmacro.h **** 	/* Check the configuration. */
 139:../../kernel/FreeRTOS/Source/portable/GCC/ARM_CM4F/portmacro.h **** 	#if( configMAX_PRIORITIES > 32 )
 140:../../kernel/FreeRTOS/Source/portable/GCC/ARM_CM4F/portmacro.h **** 		#error configUSE_PORT_OPTIMISED_TASK_SELECTION can only be set to 1 when configMAX_PRIORITIES is 
 141:../../kernel/FreeRTOS/Source/portable/GCC/ARM_CM4F/portmacro.h **** 	#endif
 142:../../kernel/FreeRTOS/Source/portable/GCC/ARM_CM4F/portmacro.h **** 
 143:../../kernel/FreeRTOS/Source/portable/GCC/ARM_CM4F/portmacro.h **** 	/* Store/clear the ready priorities in a bit map. */
 144:../../kernel/FreeRTOS/Source/portable/GCC/ARM_CM4F/portmacro.h **** 	#define portRECORD_READY_PRIORITY( uxPriority, uxReadyPriorities ) ( uxReadyPriorities ) |= ( 1UL 
 145:../../kernel/FreeRTOS/Source/portable/GCC/ARM_CM4F/portmacro.h **** 	#define portRESET_READY_PRIORITY( uxPriority, uxReadyPriorities ) ( uxReadyPriorities ) &= ~( 1UL 
 146:../../kernel/FreeRTOS/Source/portable/GCC/ARM_CM4F/portmacro.h **** 
 147:../../kernel/FreeRTOS/Source/portable/GCC/ARM_CM4F/portmacro.h **** 	/*-----------------------------------------------------------*/
 148:../../kernel/FreeRTOS/Source/portable/GCC/ARM_CM4F/portmacro.h **** 
 149:../../kernel/FreeRTOS/Source/portable/GCC/ARM_CM4F/portmacro.h **** 	#define portGET_HIGHEST_PRIORITY( uxTopPriority, uxReadyPriorities ) uxTopPriority = ( 31UL - ( ui
 150:../../kernel/FreeRTOS/Source/portable/GCC/ARM_CM4F/portmacro.h **** 
 151:../../kernel/FreeRTOS/Source/portable/GCC/ARM_CM4F/portmacro.h **** #endif /* configUSE_PORT_OPTIMISED_TASK_SELECTION */
 152:../../kernel/FreeRTOS/Source/portable/GCC/ARM_CM4F/portmacro.h **** 
 153:../../kernel/FreeRTOS/Source/portable/GCC/ARM_CM4F/portmacro.h **** /*-----------------------------------------------------------*/
 154:../../kernel/FreeRTOS/Source/portable/GCC/ARM_CM4F/portmacro.h **** 
 155:../../kernel/FreeRTOS/Source/portable/GCC/ARM_CM4F/portmacro.h **** #ifdef configASSERT
 156:../../kernel/FreeRTOS/Source/portable/GCC/ARM_CM4F/portmacro.h **** 	void vPortValidateInterruptPriority( void );
 157:../../kernel/FreeRTOS/Source/portable/GCC/ARM_CM4F/portmacro.h **** 	#define portASSERT_IF_INTERRUPT_PRIORITY_INVALID() 	vPortValidateInterruptPriority()
 158:../../kernel/FreeRTOS/Source/portable/GCC/ARM_CM4F/portmacro.h **** #endif
 159:../../kernel/FreeRTOS/Source/portable/GCC/ARM_CM4F/portmacro.h **** 
 160:../../kernel/FreeRTOS/Source/portable/GCC/ARM_CM4F/portmacro.h **** /* portNOP() is not required by this port. */
 161:../../kernel/FreeRTOS/Source/portable/GCC/ARM_CM4F/portmacro.h **** #define portNOP()
 162:../../kernel/FreeRTOS/Source/portable/GCC/ARM_CM4F/portmacro.h **** 
 163:../../kernel/FreeRTOS/Source/portable/GCC/ARM_CM4F/portmacro.h **** #define portINLINE	__inline
 164:../../kernel/FreeRTOS/Source/portable/GCC/ARM_CM4F/portmacro.h **** 
 165:../../kernel/FreeRTOS/Source/portable/GCC/ARM_CM4F/portmacro.h **** #ifndef portFORCE_INLINE
 166:../../kernel/FreeRTOS/Source/portable/GCC/ARM_CM4F/portmacro.h **** 	#define portFORCE_INLINE inline __attribute__(( always_inline))
 167:../../kernel/FreeRTOS/Source/portable/GCC/ARM_CM4F/portmacro.h **** #endif
 168:../../kernel/FreeRTOS/Source/portable/GCC/ARM_CM4F/portmacro.h **** 
 169:../../kernel/FreeRTOS/Source/portable/GCC/ARM_CM4F/portmacro.h **** portFORCE_INLINE static BaseType_t xPortIsInsideInterrupt( void )
 170:../../kernel/FreeRTOS/Source/portable/GCC/ARM_CM4F/portmacro.h **** {
 171:../../kernel/FreeRTOS/Source/portable/GCC/ARM_CM4F/portmacro.h **** uint32_t ulCurrentInterrupt;
 172:../../kernel/FreeRTOS/Source/portable/GCC/ARM_CM4F/portmacro.h **** BaseType_t xReturn;
 173:../../kernel/FreeRTOS/Source/portable/GCC/ARM_CM4F/portmacro.h **** 
 174:../../kernel/FreeRTOS/Source/portable/GCC/ARM_CM4F/portmacro.h **** 	/* Obtain the number of the currently executing interrupt. */
 175:../../kernel/FreeRTOS/Source/portable/GCC/ARM_CM4F/portmacro.h **** 	__asm volatile( "mrs %0, ipsr" : "=r"( ulCurrentInterrupt ) :: "memory" );
 176:../../kernel/FreeRTOS/Source/portable/GCC/ARM_CM4F/portmacro.h **** 
 177:../../kernel/FreeRTOS/Source/portable/GCC/ARM_CM4F/portmacro.h **** 	if( ulCurrentInterrupt == 0 )
 178:../../kernel/FreeRTOS/Source/portable/GCC/ARM_CM4F/portmacro.h **** 	{
 179:../../kernel/FreeRTOS/Source/portable/GCC/ARM_CM4F/portmacro.h **** 		xReturn = pdFALSE;
 180:../../kernel/FreeRTOS/Source/portable/GCC/ARM_CM4F/portmacro.h **** 	}
 181:../../kernel/FreeRTOS/Source/portable/GCC/ARM_CM4F/portmacro.h **** 	else
 182:../../kernel/FreeRTOS/Source/portable/GCC/ARM_CM4F/portmacro.h **** 	{
 183:../../kernel/FreeRTOS/Source/portable/GCC/ARM_CM4F/portmacro.h **** 		xReturn = pdTRUE;
 184:../../kernel/FreeRTOS/Source/portable/GCC/ARM_CM4F/portmacro.h **** 	}
 185:../../kernel/FreeRTOS/Source/portable/GCC/ARM_CM4F/portmacro.h **** 
 186:../../kernel/FreeRTOS/Source/portable/GCC/ARM_CM4F/portmacro.h **** 	return xReturn;
 187:../../kernel/FreeRTOS/Source/portable/GCC/ARM_CM4F/portmacro.h **** }
 188:../../kernel/FreeRTOS/Source/portable/GCC/ARM_CM4F/portmacro.h **** 
 189:../../kernel/FreeRTOS/Source/portable/GCC/ARM_CM4F/portmacro.h **** /*-----------------------------------------------------------*/
 190:../../kernel/FreeRTOS/Source/portable/GCC/ARM_CM4F/portmacro.h **** 
 191:../../kernel/FreeRTOS/Source/portable/GCC/ARM_CM4F/portmacro.h **** portFORCE_INLINE static void vPortRaiseBASEPRI( void )
 261              		.loc 2 191 30 view .LVU48
 262              	.LBB9:
 192:../../kernel/FreeRTOS/Source/portable/GCC/ARM_CM4F/portmacro.h **** {
ARM GAS  /tmp/cc8ZN7Gj.s 			page 15


 193:../../kernel/FreeRTOS/Source/portable/GCC/ARM_CM4F/portmacro.h **** uint32_t ulNewBASEPRI;
 263              		.loc 2 193 1 view .LVU49
 194:../../kernel/FreeRTOS/Source/portable/GCC/ARM_CM4F/portmacro.h **** 
 195:../../kernel/FreeRTOS/Source/portable/GCC/ARM_CM4F/portmacro.h **** 	__asm volatile
 264              		.loc 2 195 2 view .LVU50
 265              		.syntax unified
 266              	@ 195 "../../kernel/FreeRTOS/Source/portable/GCC/ARM_CM4F/portmacro.h" 1
 267 002a 4FF0A003 			mov r3, #160													@ ulNewBASEPRI,
 268 002e 83F31188 		msr basepri, r3												@ ulNewBASEPRI
 269 0032 BFF36F8F 		isb														
 270 0036 BFF34F8F 		dsb														
 271              	
 272              	@ 0 "" 2
 273              	.LVL13:
 274              		.thumb
 275              		.syntax unified
 276              	.L12:
 277              		.loc 2 195 2 is_stmt 0 view .LVU51
 278              	.LBE9:
 279              	.LBE8:
 116:../../kernel/FreeRTOS-Plus/Source/FreeRTOS-Plus-CLI/FreeRTOS_CLI.c **** 
 280              		.loc 1 116 2 is_stmt 1 discriminator 2 view .LVU52
 116:../../kernel/FreeRTOS-Plus/Source/FreeRTOS-Plus-CLI/FreeRTOS_CLI.c **** 
 281              		.loc 1 116 2 discriminator 2 view .LVU53
 116:../../kernel/FreeRTOS-Plus/Source/FreeRTOS-Plus-CLI/FreeRTOS_CLI.c **** 
 282              		.loc 1 116 2 discriminator 2 view .LVU54
 116:../../kernel/FreeRTOS-Plus/Source/FreeRTOS-Plus-CLI/FreeRTOS_CLI.c **** 
 283              		.loc 1 116 2 discriminator 2 view .LVU55
 284 003a FEE7     		b	.L12		@
 285              	.LVL14:
 286              	.L14:
 112:../../kernel/FreeRTOS-Plus/Source/FreeRTOS-Plus-CLI/FreeRTOS_CLI.c **** 
 287              		.loc 1 112 2 view .LVU56
 288              	.LBB10:
 289              	.LBI10:
 191:../../kernel/FreeRTOS/Source/portable/GCC/ARM_CM4F/portmacro.h **** {
 290              		.loc 2 191 30 view .LVU57
 291              	.LBB11:
 193:../../kernel/FreeRTOS/Source/portable/GCC/ARM_CM4F/portmacro.h **** 
 292              		.loc 2 193 1 view .LVU58
 293              		.loc 2 195 2 view .LVU59
 294              		.syntax unified
 295              	@ 195 "../../kernel/FreeRTOS/Source/portable/GCC/ARM_CM4F/portmacro.h" 1
 296 003c 4FF0A003 			mov r3, #160													@ ulNewBASEPRI,
 297 0040 83F31188 		msr basepri, r3												@ ulNewBASEPRI
 298 0044 BFF36F8F 		isb														
 299 0048 BFF34F8F 		dsb														
 300              	
 301              	@ 0 "" 2
 302              	.LVL15:
 303              		.thumb
 304              		.syntax unified
 305              	.L10:
 306              		.loc 2 195 2 is_stmt 0 view .LVU60
 307              	.LBE11:
 308              	.LBE10:
 112:../../kernel/FreeRTOS-Plus/Source/FreeRTOS-Plus-CLI/FreeRTOS_CLI.c **** 
ARM GAS  /tmp/cc8ZN7Gj.s 			page 16


 309              		.loc 1 112 2 is_stmt 1 discriminator 1 view .LVU61
 112:../../kernel/FreeRTOS-Plus/Source/FreeRTOS-Plus-CLI/FreeRTOS_CLI.c **** 
 310              		.loc 1 112 2 discriminator 1 view .LVU62
 112:../../kernel/FreeRTOS-Plus/Source/FreeRTOS-Plus-CLI/FreeRTOS_CLI.c **** 
 311              		.loc 1 112 2 discriminator 1 view .LVU63
 112:../../kernel/FreeRTOS-Plus/Source/FreeRTOS-Plus-CLI/FreeRTOS_CLI.c **** 
 312              		.loc 1 112 2 discriminator 1 view .LVU64
 313 004c FEE7     		b	.L10		@
 314              	.L17:
 315 004e 00BF     		.align	2
 316              	.L16:
 317 0050 00000000 		.word	.LANCHOR2
 318              		.cfi_endproc
 319              	.LFE4:
 320              		.size	FreeRTOS_CLIRegisterCommand, .-FreeRTOS_CLIRegisterCommand
 321              		.section	.text.FreeRTOS_CLIProcessCommand,"ax",%progbits
 322              		.align	1
 323              		.p2align 2,,3
 324              		.global	FreeRTOS_CLIProcessCommand
 325              		.syntax unified
 326              		.thumb
 327              		.thumb_func
 328              		.fpu fpv4-sp-d16
 329              		.type	FreeRTOS_CLIProcessCommand, %function
 330              	FreeRTOS_CLIProcessCommand:
 331              	.LVL16:
 332              	.LFB5:
 147:../../kernel/FreeRTOS-Plus/Source/FreeRTOS-Plus-CLI/FreeRTOS_CLI.c **** static const CLI_Definition_List_Item_t *pxCommand = NULL;
 333              		.loc 1 147 1 view -0
 334              		.cfi_startproc
 335              		@ args = 0, pretend = 0, frame = 0
 336              		@ frame_needed = 0, uses_anonymous_args = 0
 148:../../kernel/FreeRTOS-Plus/Source/FreeRTOS-Plus-CLI/FreeRTOS_CLI.c **** BaseType_t xReturn = pdTRUE;
 337              		.loc 1 148 1 view .LVU66
 149:../../kernel/FreeRTOS-Plus/Source/FreeRTOS-Plus-CLI/FreeRTOS_CLI.c **** const char *pcRegisteredCommandString;
 338              		.loc 1 149 1 view .LVU67
 150:../../kernel/FreeRTOS-Plus/Source/FreeRTOS-Plus-CLI/FreeRTOS_CLI.c **** size_t xCommandStringLength;
 339              		.loc 1 150 1 view .LVU68
 151:../../kernel/FreeRTOS-Plus/Source/FreeRTOS-Plus-CLI/FreeRTOS_CLI.c **** 
 340              		.loc 1 151 1 view .LVU69
 156:../../kernel/FreeRTOS-Plus/Source/FreeRTOS-Plus-CLI/FreeRTOS_CLI.c **** 	{
 341              		.loc 1 156 2 view .LVU70
 342              	@ ../../kernel/FreeRTOS-Plus/Source/FreeRTOS-Plus-CLI/FreeRTOS_CLI.c:147: {
 147:../../kernel/FreeRTOS-Plus/Source/FreeRTOS-Plus-CLI/FreeRTOS_CLI.c **** static const CLI_Definition_List_Item_t *pxCommand = NULL;
 343              		.loc 1 147 1 is_stmt 0 view .LVU71
 344 0000 2DE9F047 		push	{r4, r5, r6, r7, r8, r9, r10, lr}	@
 345              		.cfi_def_cfa_offset 32
 346              		.cfi_offset 4, -32
 347              		.cfi_offset 5, -28
 348              		.cfi_offset 6, -24
 349              		.cfi_offset 7, -20
 350              		.cfi_offset 8, -16
 351              		.cfi_offset 9, -12
 352              		.cfi_offset 10, -8
 353              		.cfi_offset 14, -4
 354              	@ ../../kernel/FreeRTOS-Plus/Source/FreeRTOS-Plus-CLI/FreeRTOS_CLI.c:156: 	if( pxCommand == NULL )
 156:../../kernel/FreeRTOS-Plus/Source/FreeRTOS-Plus-CLI/FreeRTOS_CLI.c **** 	{
ARM GAS  /tmp/cc8ZN7Gj.s 			page 17


 355              		.loc 1 156 16 view .LVU72
 356 0004 DFF8BC80 		ldr	r8, .L41+12	@ tmp158,
 357 0008 D8F80040 		ldr	r4, [r8]	@ _10, pxCommand
 358              	@ ../../kernel/FreeRTOS-Plus/Source/FreeRTOS-Plus-CLI/FreeRTOS_CLI.c:147: {
 147:../../kernel/FreeRTOS-Plus/Source/FreeRTOS-Plus-CLI/FreeRTOS_CLI.c **** static const CLI_Definition_List_Item_t *pxCommand = NULL;
 359              		.loc 1 147 1 view .LVU73
 360 000c 0646     		mov	r6, r0	@ pcCommandInput, pcCommandInput
 361 000e 8946     		mov	r9, r1	@ pcWriteBuffer, pcWriteBuffer
 362 0010 9246     		mov	r10, r2	@ xWriteBufferLen, xWriteBufferLen
 363              	@ ../../kernel/FreeRTOS-Plus/Source/FreeRTOS-Plus-CLI/FreeRTOS_CLI.c:156: 	if( pxCommand == NULL )
 156:../../kernel/FreeRTOS-Plus/Source/FreeRTOS-Plus-CLI/FreeRTOS_CLI.c **** 	{
 364              		.loc 1 156 4 view .LVU74
 365 0012 54B1     		cbz	r4, .L37	@ _10,
 366              	.LVL17:
 367              	.L19:
 200:../../kernel/FreeRTOS-Plus/Source/FreeRTOS-Plus-CLI/FreeRTOS_CLI.c **** 
 368              		.loc 1 200 3 is_stmt 1 view .LVU75
 369              	@ ../../kernel/FreeRTOS-Plus/Source/FreeRTOS-Plus-CLI/FreeRTOS_CLI.c:200: 		xReturn = pxCommand->px
 200:../../kernel/FreeRTOS-Plus/Source/FreeRTOS-Plus-CLI/FreeRTOS_CLI.c **** 
 370              		.loc 1 200 47 is_stmt 0 view .LVU76
 371 0014 2368     		ldr	r3, [r4]	@ pxCommand.11_83->pxCommandLineDefinition, pxCommand.11_83->pxCommandLineDefinition
 372              	@ ../../kernel/FreeRTOS-Plus/Source/FreeRTOS-Plus-CLI/FreeRTOS_CLI.c:200: 		xReturn = pxCommand->px
 200:../../kernel/FreeRTOS-Plus/Source/FreeRTOS-Plus-CLI/FreeRTOS_CLI.c **** 
 373              		.loc 1 200 13 view .LVU77
 374 0016 3246     		mov	r2, r6	@, pcCommandInput
 375 0018 9B68     		ldr	r3, [r3, #8]	@ _13->pxCommandInterpreter, _13->pxCommandInterpreter
 376 001a 5146     		mov	r1, r10	@, xWriteBufferLen
 377 001c 4846     		mov	r0, r9	@, pcWriteBuffer
 378 001e 9847     		blx	r3		@ _13->pxCommandInterpreter
 379              	.LVL18:
 205:../../kernel/FreeRTOS-Plus/Source/FreeRTOS-Plus-CLI/FreeRTOS_CLI.c **** 		{
 380              		.loc 1 205 3 is_stmt 1 view .LVU78
 381              	@ ../../kernel/FreeRTOS-Plus/Source/FreeRTOS-Plus-CLI/FreeRTOS_CLI.c:205: 		if( xReturn == pdFALSE 
 205:../../kernel/FreeRTOS-Plus/Source/FreeRTOS-Plus-CLI/FreeRTOS_CLI.c **** 		{
 382              		.loc 1 205 5 is_stmt 0 view .LVU79
 383 0020 08B9     		cbnz	r0, .L18	@ <retval>,
 207:../../kernel/FreeRTOS-Plus/Source/FreeRTOS-Plus-CLI/FreeRTOS_CLI.c **** 		}
 384              		.loc 1 207 4 is_stmt 1 view .LVU80
 385              	@ ../../kernel/FreeRTOS-Plus/Source/FreeRTOS-Plus-CLI/FreeRTOS_CLI.c:207: 			pxCommand = NULL;
 207:../../kernel/FreeRTOS-Plus/Source/FreeRTOS-Plus-CLI/FreeRTOS_CLI.c **** 		}
 386              		.loc 1 207 14 is_stmt 0 view .LVU81
 387 0022 C8F80000 		str	r0, [r8]	@ <retval>, pxCommand
 388              	.L18:
 389              	@ ../../kernel/FreeRTOS-Plus/Source/FreeRTOS-Plus-CLI/FreeRTOS_CLI.c:218: }
 218:../../kernel/FreeRTOS-Plus/Source/FreeRTOS-Plus-CLI/FreeRTOS_CLI.c **** /*-----------------------------------------------------------*/
 390              		.loc 1 218 1 view .LVU82
 391 0026 BDE8F087 		pop	{r4, r5, r6, r7, r8, r9, r10, pc}	@
 392              	.LVL19:
 393              	.L37:
 159:../../kernel/FreeRTOS-Plus/Source/FreeRTOS-Plus-CLI/FreeRTOS_CLI.c **** 		{
 394              		.loc 1 159 3 is_stmt 1 view .LVU83
 395              	@ ../../kernel/FreeRTOS-Plus/Source/FreeRTOS-Plus-CLI/FreeRTOS_CLI.c:159: 		for( pxCommand = &xRegi
 159:../../kernel/FreeRTOS-Plus/Source/FreeRTOS-Plus-CLI/FreeRTOS_CLI.c **** 		{
 396              		.loc 1 159 18 is_stmt 0 view .LVU84
 397 002a 234C     		ldr	r4, .L41	@ tmp136,
 398 002c C8F80040 		str	r4, [r8]	@ tmp136, pxCommand
 399              	.LVL20:
ARM GAS  /tmp/cc8ZN7Gj.s 			page 18


 400              	.L25:
 161:../../kernel/FreeRTOS-Plus/Source/FreeRTOS-Plus-CLI/FreeRTOS_CLI.c **** 			xCommandStringLength = strlen( pcRegisteredCommandString );
 401              		.loc 1 161 4 is_stmt 1 view .LVU85
 402              	@ ../../kernel/FreeRTOS-Plus/Source/FreeRTOS-Plus-CLI/FreeRTOS_CLI.c:161: 			pcRegisteredCommandStr
 161:../../kernel/FreeRTOS-Plus/Source/FreeRTOS-Plus-CLI/FreeRTOS_CLI.c **** 			xCommandStringLength = strlen( pcRegisteredCommandString );
 403              		.loc 1 161 41 is_stmt 0 view .LVU86
 404 0030 2768     		ldr	r7, [r4]	@ _3, pxCommand.10_79->pxCommandLineDefinition
 405              	@ ../../kernel/FreeRTOS-Plus/Source/FreeRTOS-Plus-CLI/FreeRTOS_CLI.c:161: 			pcRegisteredCommandStr
 161:../../kernel/FreeRTOS-Plus/Source/FreeRTOS-Plus-CLI/FreeRTOS_CLI.c **** 			xCommandStringLength = strlen( pcRegisteredCommandString );
 406              		.loc 1 161 30 view .LVU87
 407 0032 3D68     		ldr	r5, [r7]	@ pcRegisteredCommandString, _3->pcCommand
 408              	.LVL21:
 162:../../kernel/FreeRTOS-Plus/Source/FreeRTOS-Plus-CLI/FreeRTOS_CLI.c **** 
 409              		.loc 1 162 4 is_stmt 1 view .LVU88
 410              	@ ../../kernel/FreeRTOS-Plus/Source/FreeRTOS-Plus-CLI/FreeRTOS_CLI.c:162: 			xCommandStringLength =
 162:../../kernel/FreeRTOS-Plus/Source/FreeRTOS-Plus-CLI/FreeRTOS_CLI.c **** 
 411              		.loc 1 162 27 is_stmt 0 view .LVU89
 412 0034 2846     		mov	r0, r5	@, pcRegisteredCommandString
 413 0036 FFF7FEFF 		bl	strlen		@
 414              	.LVL22:
 170:../../kernel/FreeRTOS-Plus/Source/FreeRTOS-Plus-CLI/FreeRTOS_CLI.c **** 				{
 415              		.loc 1 170 5 is_stmt 1 view .LVU90
 416              	@ ../../kernel/FreeRTOS-Plus/Source/FreeRTOS-Plus-CLI/FreeRTOS_CLI.c:162: 			xCommandStringLength =
 162:../../kernel/FreeRTOS-Plus/Source/FreeRTOS-Plus-CLI/FreeRTOS_CLI.c **** 
 417              		.loc 1 162 27 is_stmt 0 view .LVU91
 418 003a 0346     		mov	r3, r0	@ tmp137,
 419              	.LVL23:
 168:../../kernel/FreeRTOS-Plus/Source/FreeRTOS-Plus-CLI/FreeRTOS_CLI.c **** 			{
 420              		.loc 1 168 4 is_stmt 1 view .LVU92
 421              	@ ../../kernel/FreeRTOS-Plus/Source/FreeRTOS-Plus-CLI/FreeRTOS_CLI.c:170: 				if( strncmp( pcComman
 170:../../kernel/FreeRTOS-Plus/Source/FreeRTOS-Plus-CLI/FreeRTOS_CLI.c **** 				{
 422              		.loc 1 170 9 is_stmt 0 view .LVU93
 423 003c 0246     		mov	r2, r0	@, tmp137
 424              	@ ../../kernel/FreeRTOS-Plus/Source/FreeRTOS-Plus-CLI/FreeRTOS_CLI.c:168: 			if( ( pcCommandInput[ 
 168:../../kernel/FreeRTOS-Plus/Source/FreeRTOS-Plus-CLI/FreeRTOS_CLI.c **** 			{
 425              		.loc 1 168 58 view .LVU94
 426 003e F35C     		ldrb	r3, [r6, r3]	@ zero_extendqisi2	@ *_4, *_4
 427 0040 13F0DF0F 		tst	r3, #223	@ *_4,
 428              	@ ../../kernel/FreeRTOS-Plus/Source/FreeRTOS-Plus-CLI/FreeRTOS_CLI.c:170: 				if( strncmp( pcComman
 170:../../kernel/FreeRTOS-Plus/Source/FreeRTOS-Plus-CLI/FreeRTOS_CLI.c **** 				{
 429              		.loc 1 170 9 view .LVU95
 430 0044 2946     		mov	r1, r5	@, pcRegisteredCommandString
 431 0046 3046     		mov	r0, r6	@, pcCommandInput
 432              	.LVL24:
 433              	@ ../../kernel/FreeRTOS-Plus/Source/FreeRTOS-Plus-CLI/FreeRTOS_CLI.c:168: 			if( ( pcCommandInput[ 
 168:../../kernel/FreeRTOS-Plus/Source/FreeRTOS-Plus-CLI/FreeRTOS_CLI.c **** 			{
 434              		.loc 1 168 58 view .LVU96
 435 0048 02D1     		bne	.L20		@,
 436              	.LVL25:
 437              	@ ../../kernel/FreeRTOS-Plus/Source/FreeRTOS-Plus-CLI/FreeRTOS_CLI.c:170: 				if( strncmp( pcComman
 170:../../kernel/FreeRTOS-Plus/Source/FreeRTOS-Plus-CLI/FreeRTOS_CLI.c **** 				{
 438              		.loc 1 170 9 view .LVU97
 439 004a FFF7FEFF 		bl	strncmp		@
 440              	.LVL26:
 441              	@ ../../kernel/FreeRTOS-Plus/Source/FreeRTOS-Plus-CLI/FreeRTOS_CLI.c:170: 				if( strncmp( pcComman
 170:../../kernel/FreeRTOS-Plus/Source/FreeRTOS-Plus-CLI/FreeRTOS_CLI.c **** 				{
 442              		.loc 1 170 7 view .LVU98
ARM GAS  /tmp/cc8ZN7Gj.s 			page 19


 443 004e 60B1     		cbz	r0, .L38	@ tmp143,
 444              	.L20:
 445              	@ ../../kernel/FreeRTOS-Plus/Source/FreeRTOS-Plus-CLI/FreeRTOS_CLI.c:159: 		for( pxCommand = &xRegi
 159:../../kernel/FreeRTOS-Plus/Source/FreeRTOS-Plus-CLI/FreeRTOS_CLI.c **** 		{
 446              		.loc 1 159 82 discriminator 2 view .LVU99
 447 0050 6468     		ldr	r4, [r4, #4]	@ _10, pxCommand.10_79->pxNext
 448              	@ ../../kernel/FreeRTOS-Plus/Source/FreeRTOS-Plus-CLI/FreeRTOS_CLI.c:159: 		for( pxCommand = &xRegi
 159:../../kernel/FreeRTOS-Plus/Source/FreeRTOS-Plus-CLI/FreeRTOS_CLI.c **** 		{
 449              		.loc 1 159 71 discriminator 2 view .LVU100
 450 0052 C8F80040 		str	r4, [r8]	@ _10, pxCommand
 451              	@ ../../kernel/FreeRTOS-Plus/Source/FreeRTOS-Plus-CLI/FreeRTOS_CLI.c:159: 		for( pxCommand = &xRegi
 159:../../kernel/FreeRTOS-Plus/Source/FreeRTOS-Plus-CLI/FreeRTOS_CLI.c **** 		{
 452              		.loc 1 159 3 discriminator 2 view .LVU101
 453 0056 002C     		cmp	r4, #0	@ _10
 454 0058 EAD1     		bne	.L25	@
 213:../../kernel/FreeRTOS-Plus/Source/FreeRTOS-Plus-CLI/FreeRTOS_CLI.c **** 		xReturn = pdFALSE;
 455              		.loc 1 213 3 is_stmt 1 view .LVU102
 456 005a 5246     		mov	r2, r10	@, xWriteBufferLen
 457 005c 4846     		mov	r0, r9	@, pcWriteBuffer
 458 005e 1749     		ldr	r1, .L41+4	@,
 459 0060 FFF7FEFF 		bl	strncpy		@
 460              	.LVL27:
 214:../../kernel/FreeRTOS-Plus/Source/FreeRTOS-Plus-CLI/FreeRTOS_CLI.c **** 	}
 461              		.loc 1 214 3 view .LVU103
 462              	@ ../../kernel/FreeRTOS-Plus/Source/FreeRTOS-Plus-CLI/FreeRTOS_CLI.c:214: 		xReturn = pdFALSE;
 214:../../kernel/FreeRTOS-Plus/Source/FreeRTOS-Plus-CLI/FreeRTOS_CLI.c **** 	}
 463              		.loc 1 214 11 is_stmt 0 view .LVU104
 464 0064 2046     		mov	r0, r4	@ <retval>, _10
 465              	.LVL28:
 217:../../kernel/FreeRTOS-Plus/Source/FreeRTOS-Plus-CLI/FreeRTOS_CLI.c **** }
 466              		.loc 1 217 2 is_stmt 1 view .LVU105
 467              	@ ../../kernel/FreeRTOS-Plus/Source/FreeRTOS-Plus-CLI/FreeRTOS_CLI.c:218: }
 218:../../kernel/FreeRTOS-Plus/Source/FreeRTOS-Plus-CLI/FreeRTOS_CLI.c **** /*-----------------------------------------------------------*/
 468              		.loc 1 218 1 is_stmt 0 view .LVU106
 469 0066 BDE8F087 		pop	{r4, r5, r6, r7, r8, r9, r10, pc}	@
 470              	.LVL29:
 471              	.L38:
 176:../../kernel/FreeRTOS-Plus/Source/FreeRTOS-Plus-CLI/FreeRTOS_CLI.c **** 					{
 472              		.loc 1 176 6 is_stmt 1 view .LVU107
 473              	@ ../../kernel/FreeRTOS-Plus/Source/FreeRTOS-Plus-CLI/FreeRTOS_CLI.c:176: 					if( pxCommand->pxCom
 176:../../kernel/FreeRTOS-Plus/Source/FreeRTOS-Plus-CLI/FreeRTOS_CLI.c **** 					{
 474              		.loc 1 176 44 is_stmt 0 view .LVU108
 475 006a 97F90C50 		ldrsb	r5, [r7, #12]	@ _9, _3->cExpectedNumberOfParameters
 476              	.LVL30:
 477              	@ ../../kernel/FreeRTOS-Plus/Source/FreeRTOS-Plus-CLI/FreeRTOS_CLI.c:176: 					if( pxCommand->pxCom
 176:../../kernel/FreeRTOS-Plus/Source/FreeRTOS-Plus-CLI/FreeRTOS_CLI.c **** 					{
 478              		.loc 1 176 8 view .LVU109
 479 006e 002D     		cmp	r5, #0	@ _9,
 480 0070 D0DB     		blt	.L19		@,
 481              	.LVL31:
 482              	.LBB12:
 483              	.LBB13:
 484              	@ ../../kernel/FreeRTOS-Plus/Source/FreeRTOS-Plus-CLI/FreeRTOS_CLI.c:322: 	while( *pcCommandString 
 314:../../kernel/FreeRTOS-Plus/Source/FreeRTOS-Plus-CLI/FreeRTOS_CLI.c **** /*-----------------------------------------------------------*/
 315:../../kernel/FreeRTOS-Plus/Source/FreeRTOS-Plus-CLI/FreeRTOS_CLI.c **** 
 316:../../kernel/FreeRTOS-Plus/Source/FreeRTOS-Plus-CLI/FreeRTOS_CLI.c **** static int8_t prvGetNumberOfParameters( const char *pcCommandString )
 317:../../kernel/FreeRTOS-Plus/Source/FreeRTOS-Plus-CLI/FreeRTOS_CLI.c **** {
ARM GAS  /tmp/cc8ZN7Gj.s 			page 20


 318:../../kernel/FreeRTOS-Plus/Source/FreeRTOS-Plus-CLI/FreeRTOS_CLI.c **** int8_t cParameters = 0;
 319:../../kernel/FreeRTOS-Plus/Source/FreeRTOS-Plus-CLI/FreeRTOS_CLI.c **** BaseType_t xLastCharacterWasSpace = pdFALSE;
 320:../../kernel/FreeRTOS-Plus/Source/FreeRTOS-Plus-CLI/FreeRTOS_CLI.c **** 
 321:../../kernel/FreeRTOS-Plus/Source/FreeRTOS-Plus-CLI/FreeRTOS_CLI.c **** 	/* Count the number of space delimited words in pcCommandString. */
 322:../../kernel/FreeRTOS-Plus/Source/FreeRTOS-Plus-CLI/FreeRTOS_CLI.c **** 	while( *pcCommandString != 0x00 )
 485              		.loc 1 322 9 view .LVU110
 486 0072 3378     		ldrb	r3, [r6]	@ zero_extendqisi2	@ _36, *pcCommandInput_24(D)
 487              	@ ../../kernel/FreeRTOS-Plus/Source/FreeRTOS-Plus-CLI/FreeRTOS_CLI.c:322: 	while( *pcCommandString 
 488              		.loc 1 322 7 view .LVU111
 489 0074 F3B1     		cbz	r3, .L28	@ _36,
 490              	@ ../../kernel/FreeRTOS-Plus/Source/FreeRTOS-Plus-CLI/FreeRTOS_CLI.c:319: BaseType_t xLastCharacter
 319:../../kernel/FreeRTOS-Plus/Source/FreeRTOS-Plus-CLI/FreeRTOS_CLI.c **** 
 491              		.loc 1 319 12 view .LVU112
 492 0076 0146     		mov	r1, r0	@ xLastCharacterWasSpace, cParameters
 493              	@ ../../kernel/FreeRTOS-Plus/Source/FreeRTOS-Plus-CLI/FreeRTOS_CLI.c:322: 	while( *pcCommandString 
 494              		.loc 1 322 7 view .LVU113
 495 0078 3246     		mov	r2, r6	@ pcCommandString, pcCommandInput
 496 007a 03E0     		b	.L23		@
 497              	.LVL32:
 498              	.L29:
 499              	@ ../../kernel/FreeRTOS-Plus/Source/FreeRTOS-Plus-CLI/FreeRTOS_CLI.c:334: 			xLastCharacterWasSpace
 323:../../kernel/FreeRTOS-Plus/Source/FreeRTOS-Plus-CLI/FreeRTOS_CLI.c **** 	{
 324:../../kernel/FreeRTOS-Plus/Source/FreeRTOS-Plus-CLI/FreeRTOS_CLI.c **** 		if( ( *pcCommandString ) == ' ' )
 325:../../kernel/FreeRTOS-Plus/Source/FreeRTOS-Plus-CLI/FreeRTOS_CLI.c **** 		{
 326:../../kernel/FreeRTOS-Plus/Source/FreeRTOS-Plus-CLI/FreeRTOS_CLI.c **** 			if( xLastCharacterWasSpace != pdTRUE )
 327:../../kernel/FreeRTOS-Plus/Source/FreeRTOS-Plus-CLI/FreeRTOS_CLI.c **** 			{
 328:../../kernel/FreeRTOS-Plus/Source/FreeRTOS-Plus-CLI/FreeRTOS_CLI.c **** 				cParameters++;
 329:../../kernel/FreeRTOS-Plus/Source/FreeRTOS-Plus-CLI/FreeRTOS_CLI.c **** 				xLastCharacterWasSpace = pdTRUE;
 330:../../kernel/FreeRTOS-Plus/Source/FreeRTOS-Plus-CLI/FreeRTOS_CLI.c **** 			}
 331:../../kernel/FreeRTOS-Plus/Source/FreeRTOS-Plus-CLI/FreeRTOS_CLI.c **** 		}
 332:../../kernel/FreeRTOS-Plus/Source/FreeRTOS-Plus-CLI/FreeRTOS_CLI.c **** 		else
 333:../../kernel/FreeRTOS-Plus/Source/FreeRTOS-Plus-CLI/FreeRTOS_CLI.c **** 		{
 334:../../kernel/FreeRTOS-Plus/Source/FreeRTOS-Plus-CLI/FreeRTOS_CLI.c **** 			xLastCharacterWasSpace = pdFALSE;
 500              		.loc 1 334 27 view .LVU114
 501 007c 0021     		movs	r1, #0	@ xLastCharacterWasSpace,
 502              	.LVL33:
 503              	.L22:
 335:../../kernel/FreeRTOS-Plus/Source/FreeRTOS-Plus-CLI/FreeRTOS_CLI.c **** 		}
 336:../../kernel/FreeRTOS-Plus/Source/FreeRTOS-Plus-CLI/FreeRTOS_CLI.c **** 
 337:../../kernel/FreeRTOS-Plus/Source/FreeRTOS-Plus-CLI/FreeRTOS_CLI.c **** 		pcCommandString++;
 504              		.loc 1 337 3 is_stmt 1 view .LVU115
 505              	@ ../../kernel/FreeRTOS-Plus/Source/FreeRTOS-Plus-CLI/FreeRTOS_CLI.c:322: 	while( *pcCommandString 
 322:../../kernel/FreeRTOS-Plus/Source/FreeRTOS-Plus-CLI/FreeRTOS_CLI.c **** 	{
 506              		.loc 1 322 9 is_stmt 0 view .LVU116
 507 007e 12F8013F 		ldrb	r3, [r2, #1]!	@ zero_extendqisi2	@ _36, MEM[base: pcCommandString_50, offset: 0B]
 508              	.LVL34:
 509              	@ ../../kernel/FreeRTOS-Plus/Source/FreeRTOS-Plus-CLI/FreeRTOS_CLI.c:322: 	while( *pcCommandString 
 322:../../kernel/FreeRTOS-Plus/Source/FreeRTOS-Plus-CLI/FreeRTOS_CLI.c **** 	{
 510              		.loc 1 322 7 view .LVU117
 511 0082 3BB1     		cbz	r3, .L39	@ _36,
 512              	.LVL35:
 513              	.L23:
 324:../../kernel/FreeRTOS-Plus/Source/FreeRTOS-Plus-CLI/FreeRTOS_CLI.c **** 		{
 514              		.loc 1 324 3 is_stmt 1 view .LVU118
 515              	@ ../../kernel/FreeRTOS-Plus/Source/FreeRTOS-Plus-CLI/FreeRTOS_CLI.c:324: 		if( ( *pcCommandString 
 324:../../kernel/FreeRTOS-Plus/Source/FreeRTOS-Plus-CLI/FreeRTOS_CLI.c **** 		{
 516              		.loc 1 324 5 is_stmt 0 view .LVU119
ARM GAS  /tmp/cc8ZN7Gj.s 			page 21


 517 0084 202B     		cmp	r3, #32	@ _36,
 518 0086 F9D1     		bne	.L29		@,
 326:../../kernel/FreeRTOS-Plus/Source/FreeRTOS-Plus-CLI/FreeRTOS_CLI.c **** 			{
 519              		.loc 1 326 4 is_stmt 1 view .LVU120
 328:../../kernel/FreeRTOS-Plus/Source/FreeRTOS-Plus-CLI/FreeRTOS_CLI.c **** 				xLastCharacterWasSpace = pdTRUE;
 520              		.loc 1 328 5 view .LVU121
 521              	@ ../../kernel/FreeRTOS-Plus/Source/FreeRTOS-Plus-CLI/FreeRTOS_CLI.c:328: 				cParameters++;
 328:../../kernel/FreeRTOS-Plus/Source/FreeRTOS-Plus-CLI/FreeRTOS_CLI.c **** 				xLastCharacterWasSpace = pdTRUE;
 522              		.loc 1 328 16 is_stmt 0 view .LVU122
 523 0088 431C     		adds	r3, r0, #1	@ tmp145, cParameters,
 524              	@ ../../kernel/FreeRTOS-Plus/Source/FreeRTOS-Plus-CLI/FreeRTOS_CLI.c:326: 			if( xLastCharacterWasS
 326:../../kernel/FreeRTOS-Plus/Source/FreeRTOS-Plus-CLI/FreeRTOS_CLI.c **** 			{
 525              		.loc 1 326 6 view .LVU123
 526 008a 0029     		cmp	r1, #0	@ xLastCharacterWasSpace
 527 008c F7D1     		bne	.L22	@
 528              	@ ../../kernel/FreeRTOS-Plus/Source/FreeRTOS-Plus-CLI/FreeRTOS_CLI.c:328: 				cParameters++;
 328:../../kernel/FreeRTOS-Plus/Source/FreeRTOS-Plus-CLI/FreeRTOS_CLI.c **** 				xLastCharacterWasSpace = pdTRUE;
 529              		.loc 1 328 16 view .LVU124
 530 008e 58B2     		sxtb	r0, r3	@ cParameters, tmp145
 531              	.LVL36:
 329:../../kernel/FreeRTOS-Plus/Source/FreeRTOS-Plus-CLI/FreeRTOS_CLI.c **** 			}
 532              		.loc 1 329 5 is_stmt 1 view .LVU125
 533              	@ ../../kernel/FreeRTOS-Plus/Source/FreeRTOS-Plus-CLI/FreeRTOS_CLI.c:329: 				xLastCharacterWasSpac
 329:../../kernel/FreeRTOS-Plus/Source/FreeRTOS-Plus-CLI/FreeRTOS_CLI.c **** 			}
 534              		.loc 1 329 28 is_stmt 0 view .LVU126
 535 0090 0121     		movs	r1, #1	@ xLastCharacterWasSpace,
 536 0092 F4E7     		b	.L22		@
 537              	.LVL37:
 538              	.L39:
 338:../../kernel/FreeRTOS-Plus/Source/FreeRTOS-Plus-CLI/FreeRTOS_CLI.c **** 	}
 339:../../kernel/FreeRTOS-Plus/Source/FreeRTOS-Plus-CLI/FreeRTOS_CLI.c **** 
 340:../../kernel/FreeRTOS-Plus/Source/FreeRTOS-Plus-CLI/FreeRTOS_CLI.c **** 	/* If the command string ended with spaces, then there will have been too
 341:../../kernel/FreeRTOS-Plus/Source/FreeRTOS-Plus-CLI/FreeRTOS_CLI.c **** 	many parameters counted. */
 342:../../kernel/FreeRTOS-Plus/Source/FreeRTOS-Plus-CLI/FreeRTOS_CLI.c **** 	if( xLastCharacterWasSpace == pdTRUE )
 539              		.loc 1 342 2 is_stmt 1 view .LVU127
 540              	@ ../../kernel/FreeRTOS-Plus/Source/FreeRTOS-Plus-CLI/FreeRTOS_CLI.c:342: 	if( xLastCharacterWasSpa
 541              		.loc 1 342 4 is_stmt 0 view .LVU128
 542 0094 59B9     		cbnz	r1, .L40	@ xLastCharacterWasSpace,
 543              	.LVL38:
 544              	.L21:
 343:../../kernel/FreeRTOS-Plus/Source/FreeRTOS-Plus-CLI/FreeRTOS_CLI.c **** 	{
 344:../../kernel/FreeRTOS-Plus/Source/FreeRTOS-Plus-CLI/FreeRTOS_CLI.c **** 		cParameters--;
 345:../../kernel/FreeRTOS-Plus/Source/FreeRTOS-Plus-CLI/FreeRTOS_CLI.c **** 	}
 346:../../kernel/FreeRTOS-Plus/Source/FreeRTOS-Plus-CLI/FreeRTOS_CLI.c **** 
 347:../../kernel/FreeRTOS-Plus/Source/FreeRTOS-Plus-CLI/FreeRTOS_CLI.c **** 	/* The value returned is one less than the number of space delimited words,
 348:../../kernel/FreeRTOS-Plus/Source/FreeRTOS-Plus-CLI/FreeRTOS_CLI.c **** 	as the first word should be the command itself. */
 349:../../kernel/FreeRTOS-Plus/Source/FreeRTOS-Plus-CLI/FreeRTOS_CLI.c **** 	return cParameters;
 545              		.loc 1 349 2 is_stmt 1 view .LVU129
 546              		.loc 1 349 2 is_stmt 0 view .LVU130
 547              	.LBE13:
 548              	.LBE12:
 549              	@ ../../kernel/FreeRTOS-Plus/Source/FreeRTOS-Plus-CLI/FreeRTOS_CLI.c:178: 						if( prvGetNumberOfP
 178:../../kernel/FreeRTOS-Plus/Source/FreeRTOS-Plus-CLI/FreeRTOS_CLI.c **** 						{
 550              		.loc 1 178 9 view .LVU131
 551 0096 8542     		cmp	r5, r0	@ _9, cParameters
 552 0098 BCD0     		beq	.L19		@,
 180:../../kernel/FreeRTOS-Plus/Source/FreeRTOS-Plus-CLI/FreeRTOS_CLI.c **** 						}
ARM GAS  /tmp/cc8ZN7Gj.s 			page 22


 553              		.loc 1 180 8 is_stmt 1 view .LVU132
 554              	.LVL39:
 190:../../kernel/FreeRTOS-Plus/Source/FreeRTOS-Plus-CLI/FreeRTOS_CLI.c **** 	{
 555              		.loc 1 190 2 view .LVU133
 194:../../kernel/FreeRTOS-Plus/Source/FreeRTOS-Plus-CLI/FreeRTOS_CLI.c **** 		pxCommand = NULL;
 556              		.loc 1 194 3 view .LVU134
 557 009a 5246     		mov	r2, r10	@, xWriteBufferLen
 558 009c 4846     		mov	r0, r9	@, pcWriteBuffer
 559 009e 0849     		ldr	r1, .L41+8	@,
 560 00a0 FFF7FEFF 		bl	strncpy		@
 561              	.LVL40:
 195:../../kernel/FreeRTOS-Plus/Source/FreeRTOS-Plus-CLI/FreeRTOS_CLI.c **** 	}
 562              		.loc 1 195 3 view .LVU135
 563              	@ ../../kernel/FreeRTOS-Plus/Source/FreeRTOS-Plus-CLI/FreeRTOS_CLI.c:195: 		pxCommand = NULL;
 195:../../kernel/FreeRTOS-Plus/Source/FreeRTOS-Plus-CLI/FreeRTOS_CLI.c **** 	}
 564              		.loc 1 195 13 is_stmt 0 view .LVU136
 565 00a4 0020     		movs	r0, #0	@ tmp151,
 566 00a6 C8F80000 		str	r0, [r8]	@ tmp151, pxCommand
 567              	@ ../../kernel/FreeRTOS-Plus/Source/FreeRTOS-Plus-CLI/FreeRTOS_CLI.c:218: }
 218:../../kernel/FreeRTOS-Plus/Source/FreeRTOS-Plus-CLI/FreeRTOS_CLI.c **** /*-----------------------------------------------------------*/
 568              		.loc 1 218 1 view .LVU137
 569 00aa BDE8F087 		pop	{r4, r5, r6, r7, r8, r9, r10, pc}	@
 570              	.LVL41:
 571              	.L40:
 572              	.LBB15:
 573              	.LBB14:
 344:../../kernel/FreeRTOS-Plus/Source/FreeRTOS-Plus-CLI/FreeRTOS_CLI.c **** 	}
 574              		.loc 1 344 3 is_stmt 1 view .LVU138
 575              	@ ../../kernel/FreeRTOS-Plus/Source/FreeRTOS-Plus-CLI/FreeRTOS_CLI.c:344: 		cParameters--;
 344:../../kernel/FreeRTOS-Plus/Source/FreeRTOS-Plus-CLI/FreeRTOS_CLI.c **** 	}
 576              		.loc 1 344 14 is_stmt 0 view .LVU139
 577 00ae 0138     		subs	r0, r0, #1	@ tmp147, cParameters,
 578              	.LVL42:
 344:../../kernel/FreeRTOS-Plus/Source/FreeRTOS-Plus-CLI/FreeRTOS_CLI.c **** 	}
 579              		.loc 1 344 14 view .LVU140
 580 00b0 40B2     		sxtb	r0, r0	@ cParameters, tmp147
 581              	.LVL43:
 344:../../kernel/FreeRTOS-Plus/Source/FreeRTOS-Plus-CLI/FreeRTOS_CLI.c **** 	}
 582              		.loc 1 344 14 view .LVU141
 583 00b2 F0E7     		b	.L21		@
 584              	.LVL44:
 585              	.L28:
 586              	@ ../../kernel/FreeRTOS-Plus/Source/FreeRTOS-Plus-CLI/FreeRTOS_CLI.c:318: int8_t cParameters = 0;
 318:../../kernel/FreeRTOS-Plus/Source/FreeRTOS-Plus-CLI/FreeRTOS_CLI.c **** BaseType_t xLastCharacterWasSpace = pdFALSE;
 587              		.loc 1 318 8 view .LVU142
 588 00b4 1846     		mov	r0, r3	@ cParameters, _36
 589 00b6 EEE7     		b	.L21		@
 590              	.L42:
 591              		.align	2
 592              	.L41:
 593 00b8 00000000 		.word	.LANCHOR0
 594 00bc 58000000 		.word	.LC1
 595 00c0 00000000 		.word	.LC0
 596 00c4 00000000 		.word	.LANCHOR3
 597              	.LBE14:
 598              	.LBE15:
 599              		.cfi_endproc
ARM GAS  /tmp/cc8ZN7Gj.s 			page 23


 600              	.LFE5:
 601              		.size	FreeRTOS_CLIProcessCommand, .-FreeRTOS_CLIProcessCommand
 602              		.section	.text.FreeRTOS_CLIGetOutputBuffer,"ax",%progbits
 603              		.align	1
 604              		.p2align 2,,3
 605              		.global	FreeRTOS_CLIGetOutputBuffer
 606              		.syntax unified
 607              		.thumb
 608              		.thumb_func
 609              		.fpu fpv4-sp-d16
 610              		.type	FreeRTOS_CLIGetOutputBuffer, %function
 611              	FreeRTOS_CLIGetOutputBuffer:
 612              	.LFB6:
 222:../../kernel/FreeRTOS-Plus/Source/FreeRTOS-Plus-CLI/FreeRTOS_CLI.c **** 	return cOutputBuffer;
 613              		.loc 1 222 1 is_stmt 1 view -0
 614              		.cfi_startproc
 615              		@ args = 0, pretend = 0, frame = 0
 616              		@ frame_needed = 0, uses_anonymous_args = 0
 617              		@ link register save eliminated.
 223:../../kernel/FreeRTOS-Plus/Source/FreeRTOS-Plus-CLI/FreeRTOS_CLI.c **** }
 618              		.loc 1 223 2 view .LVU144
 619              	@ ../../kernel/FreeRTOS-Plus/Source/FreeRTOS-Plus-CLI/FreeRTOS_CLI.c:224: }
 224:../../kernel/FreeRTOS-Plus/Source/FreeRTOS-Plus-CLI/FreeRTOS_CLI.c **** /*-----------------------------------------------------------*/
 620              		.loc 1 224 1 is_stmt 0 view .LVU145
 621 0000 0048     		ldr	r0, .L44	@,
 622 0002 7047     		bx	lr	@
 623              	.L45:
 624              		.align	2
 625              	.L44:
 626 0004 00000000 		.word	.LANCHOR4
 627              		.cfi_endproc
 628              	.LFE6:
 629              		.size	FreeRTOS_CLIGetOutputBuffer, .-FreeRTOS_CLIGetOutputBuffer
 630              		.section	.text.FreeRTOS_CLIGetParameter,"ax",%progbits
 631              		.align	1
 632              		.p2align 2,,3
 633              		.global	FreeRTOS_CLIGetParameter
 634              		.syntax unified
 635              		.thumb
 636              		.thumb_func
 637              		.fpu fpv4-sp-d16
 638              		.type	FreeRTOS_CLIGetParameter, %function
 639              	FreeRTOS_CLIGetParameter:
 640              	.LVL45:
 641              	.LFB7:
 228:../../kernel/FreeRTOS-Plus/Source/FreeRTOS-Plus-CLI/FreeRTOS_CLI.c **** UBaseType_t uxParametersFound = 0;
 642              		.loc 1 228 1 is_stmt 1 view -0
 643              		.cfi_startproc
 644              		@ args = 0, pretend = 0, frame = 0
 645              		@ frame_needed = 0, uses_anonymous_args = 0
 646              		@ link register save eliminated.
 229:../../kernel/FreeRTOS-Plus/Source/FreeRTOS-Plus-CLI/FreeRTOS_CLI.c **** const char *pcReturn = NULL;
 647              		.loc 1 229 1 view .LVU147
 230:../../kernel/FreeRTOS-Plus/Source/FreeRTOS-Plus-CLI/FreeRTOS_CLI.c **** 
 648              		.loc 1 230 1 view .LVU148
 232:../../kernel/FreeRTOS-Plus/Source/FreeRTOS-Plus-CLI/FreeRTOS_CLI.c **** 
 649              		.loc 1 232 2 view .LVU149
ARM GAS  /tmp/cc8ZN7Gj.s 			page 24


 650              	@ ../../kernel/FreeRTOS-Plus/Source/FreeRTOS-Plus-CLI/FreeRTOS_CLI.c:228: {
 228:../../kernel/FreeRTOS-Plus/Source/FreeRTOS-Plus-CLI/FreeRTOS_CLI.c **** UBaseType_t uxParametersFound = 0;
 651              		.loc 1 228 1 is_stmt 0 view .LVU150
 652 0000 30B4     		push	{r4, r5}	@
 653              		.cfi_def_cfa_offset 8
 654              		.cfi_offset 4, -8
 655              		.cfi_offset 5, -4
 656              	@ ../../kernel/FreeRTOS-Plus/Source/FreeRTOS-Plus-CLI/FreeRTOS_CLI.c:232: 	*pxParameterStringLength
 232:../../kernel/FreeRTOS-Plus/Source/FreeRTOS-Plus-CLI/FreeRTOS_CLI.c **** 
 657              		.loc 1 232 27 view .LVU151
 658 0002 0024     		movs	r4, #0	@ tmp126,
 659 0004 1460     		str	r4, [r2]	@ tmp126, *pxParameterStringLength_18(D)
 234:../../kernel/FreeRTOS-Plus/Source/FreeRTOS-Plus-CLI/FreeRTOS_CLI.c **** 	{
 660              		.loc 1 234 2 is_stmt 1 view .LVU152
 661              	@ ../../kernel/FreeRTOS-Plus/Source/FreeRTOS-Plus-CLI/FreeRTOS_CLI.c:234: 	while( uxParametersFound
 234:../../kernel/FreeRTOS-Plus/Source/FreeRTOS-Plus-CLI/FreeRTOS_CLI.c **** 	{
 662              		.loc 1 234 7 is_stmt 0 view .LVU153
 663 0006 E9B1     		cbz	r1, .L47	@ uxWantedParameter,
 664 0008 0378     		ldrb	r3, [r0]	@ zero_extendqisi2	@ _3, *pcCommandString_20(D)
 665              	.LVL46:
 666              	.L48:
 667              	@ ../../kernel/FreeRTOS-Plus/Source/FreeRTOS-Plus-CLI/FreeRTOS_CLI.c:238: 		while( ( ( *pcCommandSt
 238:../../kernel/FreeRTOS-Plus/Source/FreeRTOS-Plus-CLI/FreeRTOS_CLI.c **** 		{
 668              		.loc 1 238 8 view .LVU154
 669 000a 1BB9     		cbnz	r3, .L79	@ _3,
 670 000c 1AE0     		b	.L47		@
 671              	.LVL47:
 672              	.L49:
 240:../../kernel/FreeRTOS-Plus/Source/FreeRTOS-Plus-CLI/FreeRTOS_CLI.c **** 		}
 673              		.loc 1 240 4 is_stmt 1 view .LVU155
 674              	@ ../../kernel/FreeRTOS-Plus/Source/FreeRTOS-Plus-CLI/FreeRTOS_CLI.c:238: 		while( ( ( *pcCommandSt
 238:../../kernel/FreeRTOS-Plus/Source/FreeRTOS-Plus-CLI/FreeRTOS_CLI.c **** 		{
 675              		.loc 1 238 14 is_stmt 0 view .LVU156
 676 000e 10F8013F 		ldrb	r3, [r0, #1]!	@ zero_extendqisi2	@ _1, MEM[base: pcCommandString_22, offset: 0B]
 677              	.LVL48:
 678              	@ ../../kernel/FreeRTOS-Plus/Source/FreeRTOS-Plus-CLI/FreeRTOS_CLI.c:238: 		while( ( ( *pcCommandSt
 238:../../kernel/FreeRTOS-Plus/Source/FreeRTOS-Plus-CLI/FreeRTOS_CLI.c **** 		{
 679              		.loc 1 238 8 view .LVU157
 680 0012 BBB1     		cbz	r3, .L47	@ _1,
 681              	.LVL49:
 682              	.L79:
 683              	@ ../../kernel/FreeRTOS-Plus/Source/FreeRTOS-Plus-CLI/FreeRTOS_CLI.c:238: 		while( ( ( *pcCommandSt
 238:../../kernel/FreeRTOS-Plus/Source/FreeRTOS-Plus-CLI/FreeRTOS_CLI.c **** 		{
 684              		.loc 1 238 43 view .LVU158
 685 0014 202B     		cmp	r3, #32	@ _3,
 686 0016 FAD1     		bne	.L49		@,
 687              	.L51:
 688              	.LVL50:
 246:../../kernel/FreeRTOS-Plus/Source/FreeRTOS-Plus-CLI/FreeRTOS_CLI.c **** 		}
 689              		.loc 1 246 4 is_stmt 1 view .LVU159
 690              	@ ../../kernel/FreeRTOS-Plus/Source/FreeRTOS-Plus-CLI/FreeRTOS_CLI.c:244: 		while( ( ( *pcCommandSt
 244:../../kernel/FreeRTOS-Plus/Source/FreeRTOS-Plus-CLI/FreeRTOS_CLI.c **** 		{
 691              		.loc 1 244 14 is_stmt 0 view .LVU160
 692 0018 10F8013F 		ldrb	r3, [r0, #1]!	@ zero_extendqisi2	@ _3, MEM[base: pcCommandString_23, offset: 0B]
 693              	.LVL51:
 694              	@ ../../kernel/FreeRTOS-Plus/Source/FreeRTOS-Plus-CLI/FreeRTOS_CLI.c:244: 		while( ( ( *pcCommandSt
 244:../../kernel/FreeRTOS-Plus/Source/FreeRTOS-Plus-CLI/FreeRTOS_CLI.c **** 		{
ARM GAS  /tmp/cc8ZN7Gj.s 			page 25


 695              		.loc 1 244 8 view .LVU161
 696 001c 202B     		cmp	r3, #32	@ _3,
 697 001e FBD0     		beq	.L51		@,
 250:../../kernel/FreeRTOS-Plus/Source/FreeRTOS-Plus-CLI/FreeRTOS_CLI.c **** 		{
 698              		.loc 1 250 3 is_stmt 1 view .LVU162
 699              	@ ../../kernel/FreeRTOS-Plus/Source/FreeRTOS-Plus-CLI/FreeRTOS_CLI.c:250: 		if( *pcCommandString !=
 250:../../kernel/FreeRTOS-Plus/Source/FreeRTOS-Plus-CLI/FreeRTOS_CLI.c **** 		{
 700              		.loc 1 250 5 is_stmt 0 view .LVU163
 701 0020 83B1     		cbz	r3, .L47	@ _3,
 253:../../kernel/FreeRTOS-Plus/Source/FreeRTOS-Plus-CLI/FreeRTOS_CLI.c **** 
 702              		.loc 1 253 4 is_stmt 1 view .LVU164
 703              	@ ../../kernel/FreeRTOS-Plus/Source/FreeRTOS-Plus-CLI/FreeRTOS_CLI.c:253: 			uxParametersFound++;
 253:../../kernel/FreeRTOS-Plus/Source/FreeRTOS-Plus-CLI/FreeRTOS_CLI.c **** 
 704              		.loc 1 253 21 is_stmt 0 view .LVU165
 705 0022 0134     		adds	r4, r4, #1	@ uxParametersFound, uxParametersFound,
 706              	.LVL52:
 255:../../kernel/FreeRTOS-Plus/Source/FreeRTOS-Plus-CLI/FreeRTOS_CLI.c **** 			{
 707              		.loc 1 255 4 is_stmt 1 view .LVU166
 708              	@ ../../kernel/FreeRTOS-Plus/Source/FreeRTOS-Plus-CLI/FreeRTOS_CLI.c:255: 			if( uxParametersFound 
 255:../../kernel/FreeRTOS-Plus/Source/FreeRTOS-Plus-CLI/FreeRTOS_CLI.c **** 			{
 709              		.loc 1 255 6 is_stmt 0 view .LVU167
 710 0024 A142     		cmp	r1, r4	@ uxWantedParameter, uxParametersFound
 711 0026 F0D1     		bne	.L48		@,
 712              	.LVL53:
 713              	@ ../../kernel/FreeRTOS-Plus/Source/FreeRTOS-Plus-CLI/FreeRTOS_CLI.c:259: 				while( ( ( *pcCommand
 259:../../kernel/FreeRTOS-Plus/Source/FreeRTOS-Plus-CLI/FreeRTOS_CLI.c **** 				{
 714              		.loc 1 259 10 view .LVU168
 715 0028 13F0DF0F 		tst	r3, #223	@ _3,
 716 002c 0AD0     		beq	.L47		@,
 717              	@ ../../kernel/FreeRTOS-Plus/Source/FreeRTOS-Plus-CLI/FreeRTOS_CLI.c:246: 			pcCommandString++;
 246:../../kernel/FreeRTOS-Plus/Source/FreeRTOS-Plus-CLI/FreeRTOS_CLI.c **** 		}
 718              		.loc 1 246 19 view .LVU169
 719 002e 0346     		mov	r3, r0	@ pcCommandString, pcCommandString
 720 0030 C0F10105 		rsb	r5, r0, #1	@ tmp137, pcCommandString,
 721              	.LVL54:
 722              	.L52:
 261:../../kernel/FreeRTOS-Plus/Source/FreeRTOS-Plus-CLI/FreeRTOS_CLI.c **** 					pcCommandString++;
 723              		.loc 1 261 6 is_stmt 1 view .LVU170
 724 0034 5919     		adds	r1, r3, r5	@ _48, pcCommandString, tmp137
 725              	@ ../../kernel/FreeRTOS-Plus/Source/FreeRTOS-Plus-CLI/FreeRTOS_CLI.c:261: 					( *pxParameterString
 261:../../kernel/FreeRTOS-Plus/Source/FreeRTOS-Plus-CLI/FreeRTOS_CLI.c **** 					pcCommandString++;
 726              		.loc 1 261 34 is_stmt 0 view .LVU171
 727 0036 1160     		str	r1, [r2]	@ _48, *pxParameterStringLength_18(D)
 262:../../kernel/FreeRTOS-Plus/Source/FreeRTOS-Plus-CLI/FreeRTOS_CLI.c **** 				}
 728              		.loc 1 262 6 is_stmt 1 view .LVU172
 729              	@ ../../kernel/FreeRTOS-Plus/Source/FreeRTOS-Plus-CLI/FreeRTOS_CLI.c:259: 				while( ( ( *pcCommand
 259:../../kernel/FreeRTOS-Plus/Source/FreeRTOS-Plus-CLI/FreeRTOS_CLI.c **** 				{
 730              		.loc 1 259 10 is_stmt 0 view .LVU173
 731 0038 13F8014F 		ldrb	r4, [r3, #1]!	@ zero_extendqisi2	@ MEM[base: pcCommandString_27, offset: 0B], MEM[base: pcCom
 732              	.LVL55:
 259:../../kernel/FreeRTOS-Plus/Source/FreeRTOS-Plus-CLI/FreeRTOS_CLI.c **** 				{
 733              		.loc 1 259 10 view .LVU174
 734 003c 14F0DF0F 		tst	r4, #223	@ MEM[base: pcCommandString_27, offset: 0B],
 735 0040 F8D1     		bne	.L52		@,
 265:../../kernel/FreeRTOS-Plus/Source/FreeRTOS-Plus-CLI/FreeRTOS_CLI.c **** 				{
 736              		.loc 1 265 5 is_stmt 1 view .LVU175
 737              	@ ../../kernel/FreeRTOS-Plus/Source/FreeRTOS-Plus-CLI/FreeRTOS_CLI.c:265: 				if( *pxParameterStrin
ARM GAS  /tmp/cc8ZN7Gj.s 			page 26


 265:../../kernel/FreeRTOS-Plus/Source/FreeRTOS-Plus-CLI/FreeRTOS_CLI.c **** 				{
 738              		.loc 1 265 7 is_stmt 0 view .LVU176
 739 0042 01B9     		cbnz	r1, .L46	@ _48,
 740              	.LVL56:
 741              	.L47:
 742              	@ ../../kernel/FreeRTOS-Plus/Source/FreeRTOS-Plus-CLI/FreeRTOS_CLI.c:230: const char *pcReturn = NU
 230:../../kernel/FreeRTOS-Plus/Source/FreeRTOS-Plus-CLI/FreeRTOS_CLI.c **** 
 743              		.loc 1 230 13 view .LVU177
 744 0044 0020     		movs	r0, #0	@ <retval>,
 279:../../kernel/FreeRTOS-Plus/Source/FreeRTOS-Plus-CLI/FreeRTOS_CLI.c **** }
 745              		.loc 1 279 2 is_stmt 1 view .LVU178
 746              	.L46:
 747              	@ ../../kernel/FreeRTOS-Plus/Source/FreeRTOS-Plus-CLI/FreeRTOS_CLI.c:280: }
 280:../../kernel/FreeRTOS-Plus/Source/FreeRTOS-Plus-CLI/FreeRTOS_CLI.c **** /*-----------------------------------------------------------*/
 748              		.loc 1 280 1 is_stmt 0 view .LVU179
 749 0046 30BC     		pop	{r4, r5}	@
 750              		.cfi_restore 5
 751              		.cfi_restore 4
 752              		.cfi_def_cfa_offset 0
 753 0048 7047     		bx	lr	@
 754              		.cfi_endproc
 755              	.LFE7:
 756              		.size	FreeRTOS_CLIGetParameter, .-FreeRTOS_CLIGetParameter
 757 004a 00BF     		.section	.bss.cOutputBuffer,"aw",%nobits
 758              		.align	2
 759              		.set	.LANCHOR4,. + 0
 760              		.type	cOutputBuffer, %object
 761              		.size	cOutputBuffer, 1024
 762              	cOutputBuffer:
 763 0000 00000000 		.space	1024
 763      00000000 
 763      00000000 
 763      00000000 
 763      00000000 
 764              		.section	.bss.pxCommand.6359,"aw",%nobits
 765              		.align	2
 766              		.set	.LANCHOR3,. + 0
 767              		.type	pxCommand.6359, %object
 768              		.size	pxCommand.6359, 4
 769              	pxCommand.6359:
 770 0000 00000000 		.space	4
 771              		.section	.bss.pxCommand.6393,"aw",%nobits
 772              		.align	2
 773              		.set	.LANCHOR1,. + 0
 774              		.type	pxCommand.6393, %object
 775              		.size	pxCommand.6393, 4
 776              	pxCommand.6393:
 777 0000 00000000 		.space	4
 778              		.section	.data.pxLastCommandInList.6349,"aw"
 779              		.align	2
 780              		.set	.LANCHOR2,. + 0
 781              		.type	pxLastCommandInList.6349, %object
 782              		.size	pxLastCommandInList.6349, 4
 783              	pxLastCommandInList.6349:
 784 0000 00000000 		.word	xRegisteredCommands
 785              		.section	.data.xRegisteredCommands,"aw"
 786              		.align	2
ARM GAS  /tmp/cc8ZN7Gj.s 			page 27


 787              		.set	.LANCHOR0,. + 0
 788              		.type	xRegisteredCommands, %object
 789              		.size	xRegisteredCommands, 8
 790              	xRegisteredCommands:
 791              	@ pxCommandLineDefinition:
 792 0000 00000000 		.word	xHelpCommand
 793              	@ pxNext:
 794 0004 00000000 		.word	0
 795              		.section	.rodata.FreeRTOS_CLIProcessCommand.str1.4,"aMS",%progbits,1
 796              		.align	2
 797              	.LC0:
 798 0000 496E636F 		.ascii	"Incorrect command parameter(s).  Enter \"help\" to "
 798      72726563 
 798      7420636F 
 798      6D6D616E 
 798      64207061 
 799 0031 76696577 		.ascii	"view a list of available commands.\015\012\015\012\000"
 799      2061206C 
 799      69737420 
 799      6F662061 
 799      7661696C 
 800              	.LC1:
 801 0058 436F6D6D 		.ascii	"Command not recognised.  Enter 'help' to view a lis"
 801      616E6420 
 801      6E6F7420 
 801      7265636F 
 801      676E6973 
 802 008b 74206F66 		.ascii	"t of available commands.\015\012\015\012\000"
 802      20617661 
 802      696C6162 
 802      6C652063 
 802      6F6D6D61 
 803              		.section	.rodata.str1.4,"aMS",%progbits,1
 804              		.align	2
 805              	.LC2:
 806 0000 68656C70 		.ascii	"help\000"
 806      00
 807 0005 000000   		.space	3
 808              	.LC3:
 809 0008 0D0A6865 		.ascii	"\015\012help:\015\012 Lists all the registered comm"
 809      6C703A0D 
 809      0A204C69 
 809      73747320 
 809      616C6C20 
 810 002f 616E6473 		.ascii	"ands\015\012\015\012\000"
 810      0D0A0D0A 
 810      00
 811              		.section	.rodata.xHelpCommand,"a"
 812              		.align	2
 813              		.type	xHelpCommand, %object
 814              		.size	xHelpCommand, 16
 815              	xHelpCommand:
 816              	@ pcCommand:
 817 0000 00000000 		.word	.LC2
 818              	@ pcHelpString:
 819 0004 08000000 		.word	.LC3
 820              	@ pxCommandInterpreter:
ARM GAS  /tmp/cc8ZN7Gj.s 			page 28


 821 0008 00000000 		.word	prvHelpCommand
 822              	@ cExpectedNumberOfParameters:
 823 000c 00       		.byte	0
 824 000d 000000   		.space	3
 825              		.text
 826              	.Letext0:
 827              		.file 3 "/home/gu/code/freeRTOS10/vendor/mstar/CM4/tools/gcc-arm-none-eabi-8-2018-q4-major/lib/gcc
 828              		.file 4 "/home/gu/code/freeRTOS10/vendor/mstar/CM4/tools/gcc-arm-none-eabi-8-2018-q4-major/arm-non
 829              		.file 5 "/home/gu/code/freeRTOS10/vendor/mstar/CM4/tools/gcc-arm-none-eabi-8-2018-q4-major/arm-non
 830              		.file 6 "/home/gu/code/freeRTOS10/vendor/mstar/CM4/tools/gcc-arm-none-eabi-8-2018-q4-major/arm-non
 831              		.file 7 "/home/gu/code/freeRTOS10/vendor/mstar/CM4/tools/gcc-arm-none-eabi-8-2018-q4-major/arm-non
 832              		.file 8 "/home/gu/code/freeRTOS10/vendor/mstar/CM4/tools/gcc-arm-none-eabi-8-2018-q4-major/arm-non
 833              		.file 9 "../../kernel/FreeRTOS-Plus/Source/FreeRTOS-Plus-CLI/FreeRTOS_CLI.h"
 834              		.file 10 "/home/gu/code/freeRTOS10/vendor/mstar/CM4/tools/gcc-arm-none-eabi-8-2018-q4-major/arm-no
 835              		.file 11 "../../kernel/FreeRTOS/Source/include/portable.h"