ARM GAS  /tmp/cclAiInN.s 			page 1


   1              		.cpu cortex-m4
   2              		.eabi_attribute 27, 1	@ Tag_ABI_HardFP_use
   3              		.eabi_attribute 20, 1	@ Tag_ABI_FP_denormal
   4              		.eabi_attribute 21, 1	@ Tag_ABI_FP_exceptions
   5              		.eabi_attribute 23, 3	@ Tag_ABI_FP_number_model
   6              		.eabi_attribute 24, 1	@ Tag_ABI_align8_needed
   7              		.eabi_attribute 25, 1	@ Tag_ABI_align8_preserved
   8              		.eabi_attribute 26, 1	@ Tag_ABI_enum_size
   9              		.eabi_attribute 30, 4	@ Tag_ABI_optimization_goals
  10              		.eabi_attribute 34, 1	@ Tag_CPU_unaligned_access
  11              		.eabi_attribute 18, 4	@ Tag_ABI_PCS_wchar_t
  12              		.file	"halPM.c"
  13              	@ GNU C89 (GNU Tools for Arm Embedded Processors 8-2018-q4-major) version 8.2.1 20181213 (release) 
  14              	@	compiled by GNU C version 4.8.4, GMP version 6.1.0, MPFR version 3.1.4, MPC version 1.0.3, isl ve
  15              	
  16              	@ GGC heuristics: --param ggc-min-expand=96 --param ggc-min-heapsize=125422
  17              	@ options passed:  -isystem =/include/newlib-nano -I . -I .
  18              	@ -I ../../kernel/FreeRTOS/Source/include
  19              	@ -I ../../kernel/FreeRTOS/Source/portable/GCC/ARM_CM4F
  20              	@ -I ../../kernel/FreeRTOS/Demo/Common/include
  21              	@ -I ../../kernel/FreeRTOS-Plus/Source/FreeRTOS-Plus-CLI
  22              	@ -I ../../peripheral_library/inc -I ../../peripheral_library/hal/m7221/inc
  23              	@ -I ../../CMSIS -I ../../main_full -I ../../3rd/rokid/./ -I /.
  24              	@ -I /../../kernel/FreeRTOS/Source/include
  25              	@ -I /../../kernel/FreeRTOS/Source/portable/GCC/ARM_CM4F
  26              	@ -I /../../kernel/FreeRTOS/Demo/Common/include
  27              	@ -I /../../kernel/FreeRTOS-Plus/Source/FreeRTOS-Plus-CLI
  28              	@ -I /../../peripheral_library/inc
  29              	@ -I /../../peripheral_library/hal/m7221/inc -I /../../CMSIS
  30              	@ -I /../../main_full -I /../../3rd/rokid/./
  31              	@ -imultilib thumb/v7e-m+fp/softfp
  32              	@ -iprefix /home/gu/code/freeRTOS10/vendor/mstar/CM4/tools/gcc-arm-none-eabi-8-2018-q4-major/bin/..
  33              	@ -isysroot /home/gu/code/freeRTOS10/vendor/mstar/CM4/tools/gcc-arm-none-eabi-8-2018-q4-major/bin/.
  34              	@ -MD out/halPM.d -MF out/halPM.d -MP -MQ out/halPM.o -D__USES_INITFINI__
  35              	@ -D CONFIG_BENCH=0 -D CONFIG_SYS_DBG_LEVEL=0xFFFFFFFF -D CONFIG_VOC_MIC=6
  36              	@ -D CONFIG_AUD_I2S -D CONFIG_AUD_AEC -D CONFIG_VOC_MIC_MAPPING
  37              	@ -D CONFIG_VOC_SWHPF -D CONFIG_VOC_SW_SRC48K -D ARM_MATH_CM4
  38              	@ -D BOOTROM_VERSION_ASIC ../../peripheral_library/hal/m7221/src/halPM.c
  39              	@ -mcpu=cortex-m4 -mthumb -mthumb-interwork -mfloat-abi=softfp
  40              	@ -mfpu=fpv4-sp-d16 -march=armv7e-m+fp -auxbase-strip out/halPM.o -g -ggdb3
  41              	@ -Os -Wall -Wstrict-prototypes -Wextra -std=gnu90 -ffunction-sections
  42              	@ -fdata-sections -fno-builtin-printf -fverbose-asm
  43              	@ options enabled:  -faggressive-loop-optimizations -falign-jumps
  44              	@ -falign-labels -falign-loops -fauto-inc-dec -fbranch-count-reg
  45              	@ -fcaller-saves -fchkp-check-incomplete-type -fchkp-check-read
  46              	@ -fchkp-check-write -fchkp-instrument-calls -fchkp-narrow-bounds
  47              	@ -fchkp-optimize -fchkp-store-bounds -fchkp-use-static-bounds
  48              	@ -fchkp-use-static-const-bounds -fchkp-use-wrappers -fcode-hoisting
  49              	@ -fcombine-stack-adjustments -fcommon -fcompare-elim -fcprop-registers
  50              	@ -fcrossjumping -fcse-follow-jumps -fdata-sections -fdefer-pop
  51              	@ -fdelete-null-pointer-checks -fdevirtualize -fdevirtualize-speculatively
  52              	@ -fdwarf2-cfi-asm -fearly-inlining -feliminate-unused-debug-types
  53              	@ -fexpensive-optimizations -fforward-propagate -ffp-int-builtin-inexact
  54              	@ -ffunction-cse -ffunction-sections -fgcse -fgcse-lm -fgnu-runtime
  55              	@ -fgnu-unique -fguess-branch-probability -fhoist-adjacent-loads -fident
  56              	@ -fif-conversion -fif-conversion2 -findirect-inlining -finline
  57              	@ -finline-atomics -finline-functions -finline-functions-called-once
ARM GAS  /tmp/cclAiInN.s 			page 2


  58              	@ -finline-small-functions -fipa-bit-cp -fipa-cp -fipa-icf
  59              	@ -fipa-icf-functions -fipa-icf-variables -fipa-profile -fipa-pure-const
  60              	@ -fipa-ra -fipa-reference -fipa-sra -fipa-vrp -fira-hoist-pressure
  61              	@ -fira-share-save-slots -fira-share-spill-slots
  62              	@ -fisolate-erroneous-paths-dereference -fivopts -fkeep-static-consts
  63              	@ -fleading-underscore -flifetime-dse -flra-remat -flto-odr-type-merging
  64              	@ -fmath-errno -fmerge-constants -fmerge-debug-strings
  65              	@ -fmove-loop-invariants -fomit-frame-pointer -foptimize-sibling-calls
  66              	@ -fpartial-inlining -fpeephole -fpeephole2 -fplt -fprefetch-loop-arrays
  67              	@ -freg-struct-return -freorder-blocks -freorder-functions
  68              	@ -frerun-cse-after-loop -fsched-critical-path-heuristic
  69              	@ -fsched-dep-count-heuristic -fsched-group-heuristic -fsched-interblock
  70              	@ -fsched-last-insn-heuristic -fsched-pressure -fsched-rank-heuristic
  71              	@ -fsched-spec -fsched-spec-insn-heuristic -fsched-stalled-insns-dep
  72              	@ -fschedule-insns2 -fsection-anchors -fsemantic-interposition
  73              	@ -fshow-column -fshrink-wrap-separate -fsigned-zeros
  74              	@ -fsplit-ivs-in-unroller -fsplit-wide-types -fssa-backprop -fssa-phiopt
  75              	@ -fstdarg-opt -fstore-merging -fstrict-aliasing
  76              	@ -fstrict-volatile-bitfields -fsync-libcalls -fthread-jumps
  77              	@ -ftoplevel-reorder -ftrapping-math -ftree-bit-ccp -ftree-builtin-call-dce
  78              	@ -ftree-ccp -ftree-ch -ftree-coalesce-vars -ftree-copy-prop -ftree-cselim
  79              	@ -ftree-dce -ftree-dominator-opts -ftree-dse -ftree-forwprop -ftree-fre
  80              	@ -ftree-loop-if-convert -ftree-loop-im -ftree-loop-ivcanon
  81              	@ -ftree-loop-optimize -ftree-parallelize-loops= -ftree-phiprop -ftree-pre
  82              	@ -ftree-pta -ftree-reassoc -ftree-scev-cprop -ftree-sink -ftree-slsr
  83              	@ -ftree-sra -ftree-switch-conversion -ftree-tail-merge -ftree-ter
  84              	@ -ftree-vrp -funit-at-a-time -fvar-tracking -fvar-tracking-assignments
  85              	@ -fverbose-asm -fzero-initialized-in-bss -masm-syntax-unified -mbe32
  86              	@ -mlittle-endian -mpic-data-is-text-relative -msched-prolog -mthumb
  87              	@ -munaligned-access -mvectorize-with-neon-quad
  88              	
  89              		.text
  90              	.Ltext0:
  91              		.cfi_sections	.debug_frame
  92              		.section	.text.Mhal_PM_Suspend,"ax",%progbits
  93              		.align	1
  94              		.global	Mhal_PM_Suspend
  95              		.arch armv7e-m
  96              		.syntax unified
  97              		.thumb
  98              		.thumb_func
  99              		.fpu fpv4-sp-d16
 100              		.type	Mhal_PM_Suspend, %function
 101              	Mhal_PM_Suspend:
 102              	.LFB0:
 103              		.file 1 "../../peripheral_library/hal/m7221/src/halPM.c"
   1:../../peripheral_library/hal/m7221/src/halPM.c **** ////////////////////////////////////////////////////////////////////////////////
   2:../../peripheral_library/hal/m7221/src/halPM.c **** //
   3:../../peripheral_library/hal/m7221/src/halPM.c **** // Copyright (c) 2018 MStar Semiconductor, Inc.
   4:../../peripheral_library/hal/m7221/src/halPM.c **** // All rights reserved.
   5:../../peripheral_library/hal/m7221/src/halPM.c **** //
   6:../../peripheral_library/hal/m7221/src/halPM.c **** // Unless otherwise stipulated in writing, any and all information contained
   7:../../peripheral_library/hal/m7221/src/halPM.c **** // herein regardless in any format shall remain the sole proprietary of
   8:../../peripheral_library/hal/m7221/src/halPM.c **** // MStar Semiconductor Inc. and be kept in strict confidence
   9:../../peripheral_library/hal/m7221/src/halPM.c **** // ("MStar Confidential Information") by the recipient.
  10:../../peripheral_library/hal/m7221/src/halPM.c **** // Any unauthorized act including without limitation unauthorized disclosure,
  11:../../peripheral_library/hal/m7221/src/halPM.c **** // copying, use, reproduction, sale, distribution, modification, disassembling,
ARM GAS  /tmp/cclAiInN.s 			page 3


  12:../../peripheral_library/hal/m7221/src/halPM.c **** // reverse engineering and compiling of the contents of MStar Confidential
  13:../../peripheral_library/hal/m7221/src/halPM.c **** // Information is unlawful and strictly prohibited. MStar hereby reserves the
  14:../../peripheral_library/hal/m7221/src/halPM.c **** // rights to any and all damages, losses, costs and expenses resulting therefrom.
  15:../../peripheral_library/hal/m7221/src/halPM.c **** //
  16:../../peripheral_library/hal/m7221/src/halPM.c **** ////////////////////////////////////////////////////////////////////////////////
  17:../../peripheral_library/hal/m7221/src/halPM.c **** 
  18:../../peripheral_library/hal/m7221/src/halPM.c **** ///////////////////////////////////////////////////////////////////////////////////////////////////
  19:../../peripheral_library/hal/m7221/src/halPM.c **** /// @file   halPM.c
  20:../../peripheral_library/hal/m7221/src/halPM.c **** /// @brief  MStar Power Management HAL Driver DDI
  21:../../peripheral_library/hal/m7221/src/halPM.c **** /// @author MStar Semiconductor Inc.
  22:../../peripheral_library/hal/m7221/src/halPM.c **** /// @attention
  23:../../peripheral_library/hal/m7221/src/halPM.c **** /// <b><em></em></b>
  24:../../peripheral_library/hal/m7221/src/halPM.c **** ///////////////////////////////////////////////////////////////////////////////////////////////////
  25:../../peripheral_library/hal/m7221/src/halPM.c **** 
  26:../../peripheral_library/hal/m7221/src/halPM.c **** #define _HAL_PM_C
  27:../../peripheral_library/hal/m7221/src/halPM.c **** 
  28:../../peripheral_library/hal/m7221/src/halPM.c **** #include "halPM.h"
  29:../../peripheral_library/hal/m7221/src/halPM.c **** 
  30:../../peripheral_library/hal/m7221/src/halPM.c **** #define REG_WK_IRQ_MASK        GET_REG16_ADDR(REG_ADDR_BASE_PM_SLEEP, 0x08)
  31:../../peripheral_library/hal/m7221/src/halPM.c **** #define REG_WK_INT             GET_REG16_ADDR(REG_ADDR_BASE_PM_SLEEP, 0x73)
  32:../../peripheral_library/hal/m7221/src/halPM.c **** 
  33:../../peripheral_library/hal/m7221/src/halPM.c **** #if 0
  34:../../peripheral_library/hal/m7221/src/halPM.c **** static void _WriteReg(U32 nAddr, U16 nValue)
  35:../../peripheral_library/hal/m7221/src/halPM.c **** {
  36:../../peripheral_library/hal/m7221/src/halPM.c ****   volatile U16 *pnReg = (volatile U16*)(RIU_BASE_ADDR + (nAddr) * 2);
  37:../../peripheral_library/hal/m7221/src/halPM.c ****   *pnReg = nValue;
  38:../../peripheral_library/hal/m7221/src/halPM.c **** }
  39:../../peripheral_library/hal/m7221/src/halPM.c **** #endif
  40:../../peripheral_library/hal/m7221/src/halPM.c **** 
  41:../../peripheral_library/hal/m7221/src/halPM.c **** void Mhal_PM_Suspend (void)
  42:../../peripheral_library/hal/m7221/src/halPM.c **** {
 104              		.loc 1 42 1 view -0
 105              		.cfi_startproc
 106              		@ args = 0, pretend = 0, frame = 0
 107              		@ frame_needed = 0, uses_anonymous_args = 0
 108              		@ link register save eliminated.
  43:../../peripheral_library/hal/m7221/src/halPM.c **** #if 0
  44:../../peripheral_library/hal/m7221/src/halPM.c ****    // dc_off.txt
  45:../../peripheral_library/hal/m7221/src/halPM.c ****   _WriteReg(0x0325F4, 0x0199);
  46:../../peripheral_library/hal/m7221/src/halPM.c ****   _WriteReg(0x0325F4, 0x0189);
  47:../../peripheral_library/hal/m7221/src/halPM.c ****   _WriteReg(0x0325F4, 0x0198);
  48:../../peripheral_library/hal/m7221/src/halPM.c ****   _WriteReg(0x0325F4, 0x0198);
  49:../../peripheral_library/hal/m7221/src/halPM.c ****   _WriteReg(0x0325F4, 0x0398);
  50:../../peripheral_library/hal/m7221/src/halPM.c **** #endif
  51:../../peripheral_library/hal/m7221/src/halPM.c ****   return;
 109              		.loc 1 51 3 view .LVU1
 110              	@ ../../peripheral_library/hal/m7221/src/halPM.c:52: }
  52:../../peripheral_library/hal/m7221/src/halPM.c **** }
 111              		.loc 1 52 1 is_stmt 0 view .LVU2
 112 0000 7047     		bx	lr	@
 113              		.cfi_endproc
 114              	.LFE0:
 115              		.size	Mhal_PM_Suspend, .-Mhal_PM_Suspend
 116              		.section	.text.Mhal_PM_Resume,"ax",%progbits
 117              		.align	1
 118              		.global	Mhal_PM_Resume
 119              		.syntax unified
ARM GAS  /tmp/cclAiInN.s 			page 4


 120              		.thumb
 121              		.thumb_func
 122              		.fpu fpv4-sp-d16
 123              		.type	Mhal_PM_Resume, %function
 124              	Mhal_PM_Resume:
 125              	.LFB1:
  53:../../peripheral_library/hal/m7221/src/halPM.c **** 
  54:../../peripheral_library/hal/m7221/src/halPM.c **** 
  55:../../peripheral_library/hal/m7221/src/halPM.c **** void Mhal_PM_Resume (void)
  56:../../peripheral_library/hal/m7221/src/halPM.c **** {
 126              		.loc 1 56 1 is_stmt 1 view -0
 127              		.cfi_startproc
 128              		@ args = 0, pretend = 0, frame = 0
 129              		@ frame_needed = 0, uses_anonymous_args = 0
 130              		@ link register save eliminated.
  57:../../peripheral_library/hal/m7221/src/halPM.c **** #if 0
  58:../../peripheral_library/hal/m7221/src/halPM.c ****   _WriteReg(0x0325F4, 0x0198);
  59:../../peripheral_library/hal/m7221/src/halPM.c ****   _WriteReg(0x0325F4, 0x0188);
  60:../../peripheral_library/hal/m7221/src/halPM.c ****   _WriteReg(0x0325F4, 0x0189);
  61:../../peripheral_library/hal/m7221/src/halPM.c ****   _WriteReg(0x0325F4, 0x0199);
  62:../../peripheral_library/hal/m7221/src/halPM.c ****   _WriteReg(0x0325F4, 0x0399);
  63:../../peripheral_library/hal/m7221/src/halPM.c **** #endif
  64:../../peripheral_library/hal/m7221/src/halPM.c ****   //0x0E_08[6] = 1'b0 (16 bit address mode)
  65:../../peripheral_library/hal/m7221/src/halPM.c ****   //0x0E_73[15] = 1'b1(16 bit address mode)
  66:../../peripheral_library/hal/m7221/src/halPM.c ****   CLRREG16(REG_WK_IRQ_MASK, (1<<6));
 131              		.loc 1 66 3 view .LVU4
 132 0000 064A     		ldr	r2, .L3	@ tmp114,
 133 0002 1388     		ldrh	r3, [r2]	@, MEM[(volatile short unsigned int *)1073749024B]
 134 0004 23F04003 		bic	r3, r3, #64	@ _2, MEM[(volatile short unsigned int *)1073749024B],
 135 0008 1B04     		lsls	r3, r3, #16	@ _2, _2,
 136 000a 1B0C     		lsrs	r3, r3, #16	@ _2, _2,
 137 000c 1380     		strh	r3, [r2]	@ movhi	@ _2, MEM[(volatile short unsigned int *)1073749024B]
  67:../../peripheral_library/hal/m7221/src/halPM.c ****   SETREG16(REG_WK_INT, (1<<15));
 138              		.loc 1 67 3 view .LVU5
 139 000e B2F8AC31 		ldrh	r3, [r2, #428]	@, MEM[(volatile short unsigned int *)1073749452B]
 140 0012 43F40043 		orr	r3, r3, #32768	@ _4, MEM[(volatile short unsigned int *)1073749452B],
 141 0016 A2F8AC31 		strh	r3, [r2, #428]	@ movhi	@ _4, MEM[(volatile short unsigned int *)1073749452B]
  68:../../peripheral_library/hal/m7221/src/halPM.c ****   return;
 142              		.loc 1 68 3 view .LVU6
 143              	@ ../../peripheral_library/hal/m7221/src/halPM.c:69: }
  69:../../peripheral_library/hal/m7221/src/halPM.c **** }
 144              		.loc 1 69 1 is_stmt 0 view .LVU7
 145 001a 7047     		bx	lr	@
 146              	.L4:
 147              		.align	2
 148              	.L3:
 149 001c 201C0040 		.word	1073749024
 150              		.cfi_endproc
 151              	.LFE1:
 152              		.size	Mhal_PM_Resume, .-Mhal_PM_Resume
 153              		.section	.text.Mhal_PM_SelfReset,"ax",%progbits
 154              		.align	1
 155              		.global	Mhal_PM_SelfReset
 156              		.syntax unified
 157              		.thumb
 158              		.thumb_func
 159              		.fpu fpv4-sp-d16
ARM GAS  /tmp/cclAiInN.s 			page 5


 160              		.type	Mhal_PM_SelfReset, %function
 161              	Mhal_PM_SelfReset:
 162              	.LFB7:
 163              		.cfi_startproc
 164              		@ args = 0, pretend = 0, frame = 0
 165              		@ frame_needed = 0, uses_anonymous_args = 0
 166              		@ link register save eliminated.
 167 0000 7047     		bx	lr	@
 168              		.cfi_endproc
 169              	.LFE7:
 170              		.size	Mhal_PM_SelfReset, .-Mhal_PM_SelfReset
 171              		.section	.text.Mhal_PM_AutoReset,"ax",%progbits
 172              		.align	1
 173              		.global	Mhal_PM_AutoReset
 174              		.syntax unified
 175              		.thumb
 176              		.thumb_func
 177              		.fpu fpv4-sp-d16
 178              		.type	Mhal_PM_AutoReset, %function
 179              	Mhal_PM_AutoReset:
 180              	.LFB5:
 181              		.cfi_startproc
 182              		@ args = 0, pretend = 0, frame = 0
 183              		@ frame_needed = 0, uses_anonymous_args = 0
 184              		@ link register save eliminated.
 185 0000 7047     		bx	lr	@
 186              		.cfi_endproc
 187              	.LFE5:
 188              		.size	Mhal_PM_AutoReset, .-Mhal_PM_AutoReset
 189              		.text
 190              	.Letext0: