ARM GAS  /tmp/ccs4mGQv.s 			page 1


   1              		.cpu cortex-m4
   2              		.eabi_attribute 27, 1	@ Tag_ABI_HardFP_use
   3              		.eabi_attribute 20, 1	@ Tag_ABI_FP_denormal
   4              		.eabi_attribute 21, 1	@ Tag_ABI_FP_exceptions
   5              		.eabi_attribute 23, 3	@ Tag_ABI_FP_number_model
   6              		.eabi_attribute 24, 1	@ Tag_ABI_align8_needed
   7              		.eabi_attribute 25, 1	@ Tag_ABI_align8_preserved
   8              		.eabi_attribute 26, 1	@ Tag_ABI_enum_size
   9              		.eabi_attribute 30, 4	@ Tag_ABI_optimization_goals
  10              		.eabi_attribute 34, 1	@ Tag_CPU_unaligned_access
  11              		.eabi_attribute 18, 4	@ Tag_ABI_PCS_wchar_t
  12              		.file	"halUART.c"
  13              	@ GNU C89 (GNU Tools for Arm Embedded Processors 8-2018-q4-major) version 8.2.1 20181213 (release) 
  14              	@	compiled by GNU C version 4.8.4, GMP version 6.1.0, MPFR version 3.1.4, MPC version 1.0.3, isl ve
  15              	
  16              	@ GGC heuristics: --param ggc-min-expand=96 --param ggc-min-heapsize=125422
  17              	@ options passed:  -isystem =/include/newlib-nano -I . -I .
  18              	@ -I ../../kernel/FreeRTOS/Source/include
  19              	@ -I ../../kernel/FreeRTOS/Source/portable/GCC/ARM_CM4F
  20              	@ -I ../../kernel/FreeRTOS/Demo/Common/include
  21              	@ -I ../../kernel/FreeRTOS-Plus/Source/FreeRTOS-Plus-CLI
  22              	@ -I ../../peripheral_library/inc -I ../../peripheral_library/hal/m7221/inc
  23              	@ -I ../../CMSIS -I ../../main_full -I ../../3rd/rokid/./ -I /.
  24              	@ -I /../../kernel/FreeRTOS/Source/include
  25              	@ -I /../../kernel/FreeRTOS/Source/portable/GCC/ARM_CM4F
  26              	@ -I /../../kernel/FreeRTOS/Demo/Common/include
  27              	@ -I /../../kernel/FreeRTOS-Plus/Source/FreeRTOS-Plus-CLI
  28              	@ -I /../../peripheral_library/inc
  29              	@ -I /../../peripheral_library/hal/m7221/inc -I /../../CMSIS
  30              	@ -I /../../main_full -I /../../3rd/rokid/./
  31              	@ -imultilib thumb/v7e-m+fp/softfp
  32              	@ -iprefix /home/gu/code/freeRTOS10/vendor/mstar/CM4/tools/gcc-arm-none-eabi-8-2018-q4-major/bin/..
  33              	@ -isysroot /home/gu/code/freeRTOS10/vendor/mstar/CM4/tools/gcc-arm-none-eabi-8-2018-q4-major/bin/.
  34              	@ -MD out/halUART.d -MF out/halUART.d -MP -MQ out/halUART.o
  35              	@ -D__USES_INITFINI__ -D CONFIG_BENCH=0 -D CONFIG_SYS_DBG_LEVEL=0xFFFFFFFF
  36              	@ -D CONFIG_VOC_MIC=6 -D CONFIG_AUD_I2S -D CONFIG_AUD_AEC
  37              	@ -D CONFIG_VOC_MIC_MAPPING -D CONFIG_VOC_SWHPF -D CONFIG_VOC_SW_SRC48K
  38              	@ -D ARM_MATH_CM4 -D BOOTROM_VERSION_ASIC
  39              	@ ../../peripheral_library/hal/m7221/src/halUART.c -mcpu=cortex-m4 -mthumb
  40              	@ -mthumb-interwork -mfloat-abi=softfp -mfpu=fpv4-sp-d16 -march=armv7e-m+fp
  41              	@ -auxbase-strip out/halUART.o -g -ggdb3 -Os -Wall -Wstrict-prototypes
  42              	@ -Wextra -std=gnu90 -ffunction-sections -fdata-sections
  43              	@ -fno-builtin-printf -fverbose-asm
  44              	@ options enabled:  -faggressive-loop-optimizations -falign-jumps
  45              	@ -falign-labels -falign-loops -fauto-inc-dec -fbranch-count-reg
  46              	@ -fcaller-saves -fchkp-check-incomplete-type -fchkp-check-read
  47              	@ -fchkp-check-write -fchkp-instrument-calls -fchkp-narrow-bounds
  48              	@ -fchkp-optimize -fchkp-store-bounds -fchkp-use-static-bounds
  49              	@ -fchkp-use-static-const-bounds -fchkp-use-wrappers -fcode-hoisting
  50              	@ -fcombine-stack-adjustments -fcommon -fcompare-elim -fcprop-registers
  51              	@ -fcrossjumping -fcse-follow-jumps -fdata-sections -fdefer-pop
  52              	@ -fdelete-null-pointer-checks -fdevirtualize -fdevirtualize-speculatively
  53              	@ -fdwarf2-cfi-asm -fearly-inlining -feliminate-unused-debug-types
  54              	@ -fexpensive-optimizations -fforward-propagate -ffp-int-builtin-inexact
  55              	@ -ffunction-cse -ffunction-sections -fgcse -fgcse-lm -fgnu-runtime
  56              	@ -fgnu-unique -fguess-branch-probability -fhoist-adjacent-loads -fident
  57              	@ -fif-conversion -fif-conversion2 -findirect-inlining -finline
ARM GAS  /tmp/ccs4mGQv.s 			page 2


  58              	@ -finline-atomics -finline-functions -finline-functions-called-once
  59              	@ -finline-small-functions -fipa-bit-cp -fipa-cp -fipa-icf
  60              	@ -fipa-icf-functions -fipa-icf-variables -fipa-profile -fipa-pure-const
  61              	@ -fipa-ra -fipa-reference -fipa-sra -fipa-vrp -fira-hoist-pressure
  62              	@ -fira-share-save-slots -fira-share-spill-slots
  63              	@ -fisolate-erroneous-paths-dereference -fivopts -fkeep-static-consts
  64              	@ -fleading-underscore -flifetime-dse -flra-remat -flto-odr-type-merging
  65              	@ -fmath-errno -fmerge-constants -fmerge-debug-strings
  66              	@ -fmove-loop-invariants -fomit-frame-pointer -foptimize-sibling-calls
  67              	@ -fpartial-inlining -fpeephole -fpeephole2 -fplt -fprefetch-loop-arrays
  68              	@ -freg-struct-return -freorder-blocks -freorder-functions
  69              	@ -frerun-cse-after-loop -fsched-critical-path-heuristic
  70              	@ -fsched-dep-count-heuristic -fsched-group-heuristic -fsched-interblock
  71              	@ -fsched-last-insn-heuristic -fsched-pressure -fsched-rank-heuristic
  72              	@ -fsched-spec -fsched-spec-insn-heuristic -fsched-stalled-insns-dep
  73              	@ -fschedule-insns2 -fsection-anchors -fsemantic-interposition
  74              	@ -fshow-column -fshrink-wrap-separate -fsigned-zeros
  75              	@ -fsplit-ivs-in-unroller -fsplit-wide-types -fssa-backprop -fssa-phiopt
  76              	@ -fstdarg-opt -fstore-merging -fstrict-aliasing
  77              	@ -fstrict-volatile-bitfields -fsync-libcalls -fthread-jumps
  78              	@ -ftoplevel-reorder -ftrapping-math -ftree-bit-ccp -ftree-builtin-call-dce
  79              	@ -ftree-ccp -ftree-ch -ftree-coalesce-vars -ftree-copy-prop -ftree-cselim
  80              	@ -ftree-dce -ftree-dominator-opts -ftree-dse -ftree-forwprop -ftree-fre
  81              	@ -ftree-loop-if-convert -ftree-loop-im -ftree-loop-ivcanon
  82              	@ -ftree-loop-optimize -ftree-parallelize-loops= -ftree-phiprop -ftree-pre
  83              	@ -ftree-pta -ftree-reassoc -ftree-scev-cprop -ftree-sink -ftree-slsr
  84              	@ -ftree-sra -ftree-switch-conversion -ftree-tail-merge -ftree-ter
  85              	@ -ftree-vrp -funit-at-a-time -fvar-tracking -fvar-tracking-assignments
  86              	@ -fverbose-asm -fzero-initialized-in-bss -masm-syntax-unified -mbe32
  87              	@ -mlittle-endian -mpic-data-is-text-relative -msched-prolog -mthumb
  88              	@ -munaligned-access -mvectorize-with-neon-quad
  89              	
  90              		.text
  91              	.Ltext0:
  92              		.cfi_sections	.debug_frame
  93              		.section	.text.uart_id,"ax",%progbits
  94              		.align	1
  95              		.global	uart_id
  96              		.arch armv7e-m
  97              		.syntax unified
  98              		.thumb
  99              		.thumb_func
 100              		.fpu fpv4-sp-d16
 101              		.type	uart_id, %function
 102              	uart_id:
 103              	.LFB0:
 104              		.file 1 "../../peripheral_library/hal/m7221/src/halUART.c"
   1:../../peripheral_library/hal/m7221/src/halUART.c **** ////////////////////////////////////////////////////////////////////////////////
   2:../../peripheral_library/hal/m7221/src/halUART.c **** //
   3:../../peripheral_library/hal/m7221/src/halUART.c **** // Copyright (c) 2018 MStar Semiconductor, Inc.
   4:../../peripheral_library/hal/m7221/src/halUART.c **** // All rights reserved.
   5:../../peripheral_library/hal/m7221/src/halUART.c **** //
   6:../../peripheral_library/hal/m7221/src/halUART.c **** // Unless otherwise stipulated in writing, any and all information contained
   7:../../peripheral_library/hal/m7221/src/halUART.c **** // herein regardless in any format shall remain the sole proprietary of
   8:../../peripheral_library/hal/m7221/src/halUART.c **** // MStar Semiconductor Inc. and be kept in strict confidence
   9:../../peripheral_library/hal/m7221/src/halUART.c **** // ("MStar Confidential Information") by the recipient.
  10:../../peripheral_library/hal/m7221/src/halUART.c **** // Any unauthorized act including without limitation unauthorized disclosure,
ARM GAS  /tmp/ccs4mGQv.s 			page 3


  11:../../peripheral_library/hal/m7221/src/halUART.c **** // copying, use, reproduction, sale, distribution, modification, disassembling,
  12:../../peripheral_library/hal/m7221/src/halUART.c **** // reverse engineering and compiling of the contents of MStar Confidential
  13:../../peripheral_library/hal/m7221/src/halUART.c **** // Information is unlawful and strictly prohibited. MStar hereby reserves the
  14:../../peripheral_library/hal/m7221/src/halUART.c **** // rights to any and all damages, losses, costs and expenses resulting therefrom.
  15:../../peripheral_library/hal/m7221/src/halUART.c **** //
  16:../../peripheral_library/hal/m7221/src/halUART.c **** ////////////////////////////////////////////////////////////////////////////////
  17:../../peripheral_library/hal/m7221/src/halUART.c **** 
  18:../../peripheral_library/hal/m7221/src/halUART.c **** ///////////////////////////////////////////////////////////////////////////////////////////////////
  19:../../peripheral_library/hal/m7221/src/halUART.c **** /// @file   halUART.c
  20:../../peripheral_library/hal/m7221/src/halUART.c **** /// @brief  MStar UART HAL Driver DDI
  21:../../peripheral_library/hal/m7221/src/halUART.c **** /// @author MStar Semiconductor Inc.
  22:../../peripheral_library/hal/m7221/src/halUART.c **** /// @attention
  23:../../peripheral_library/hal/m7221/src/halUART.c **** /// <b><em></em></b>
  24:../../peripheral_library/hal/m7221/src/halUART.c **** ///////////////////////////////////////////////////////////////////////////////////////////////////
  25:../../peripheral_library/hal/m7221/src/halUART.c **** 
  26:../../peripheral_library/hal/m7221/src/halUART.c **** #define _HAL_UART_C
  27:../../peripheral_library/hal/m7221/src/halUART.c **** 
  28:../../peripheral_library/hal/m7221/src/halUART.c **** #include "halUART.h"
  29:../../peripheral_library/hal/m7221/src/halUART.c **** 
  30:../../peripheral_library/hal/m7221/src/halUART.c **** #define SetDebugFlag(x) (REG(REG_ADDR_DEBUG)=x)
  31:../../peripheral_library/hal/m7221/src/halUART.c **** 
  32:../../peripheral_library/hal/m7221/src/halUART.c **** #ifndef BOOTROM_VERSION_ZEBU
  33:../../peripheral_library/hal/m7221/src/halUART.c ****   //#define UART_BASE        REG_ADDR_BASE_UART0
  34:../../peripheral_library/hal/m7221/src/halUART.c ****   #define UART_BASE        REG_ADDR_BASE_PM_UART0
  35:../../peripheral_library/hal/m7221/src/halUART.c ****   #define UART_REG8(_x_)  ((U8 volatile *)(UART_BASE))[((_x_) * 4) - ((_x_) & 1)]
  36:../../peripheral_library/hal/m7221/src/halUART.c ****   //#define REG_UART_SEL3210    GET_REG16_ADDR(REG_ADDR_BASE_CHIPTOP, 0x53)
  37:../../peripheral_library/hal/m7221/src/halUART.c ****   //#define REG_RX_ENABLE       GET_REG16_ADDR(REG_ADDR_BASE_PM_SLEEP, 0x09)
  38:../../peripheral_library/hal/m7221/src/halUART.c ****   //#define REG_UART0_CLK       GET_REG16_ADDR(REG_ADDR_BASE_CLKGEN, 0x45)
  39:../../peripheral_library/hal/m7221/src/halUART.c ****   #define REG_PM_UART_MUX  GET_REG16_ADDR(REG_ADDR_BASE_PM_SLEEP, 0x7E)
  40:../../peripheral_library/hal/m7221/src/halUART.c ****   #define REG_PM_UART_PAD  GET_REG16_ADDR(REG_ADDR_BASE_PM_SLEEP, 0x76)
  41:../../peripheral_library/hal/m7221/src/halUART.c ****   #define REG_PM_UART_CLK  GET_REG16_ADDR(REG_ADDR_BASE_PM_SLEEP, 0x71)
  42:../../peripheral_library/hal/m7221/src/halUART.c **** #else
  43:../../peripheral_library/hal/m7221/src/halUART.c ****   #define UART_BASE        REG_ADDR_BASE_FUART
  44:../../peripheral_library/hal/m7221/src/halUART.c ****   #define UART_REG8(_x_)  ((U8 volatile *)(UART_BASE))[((_x_) * 4) - ((_x_) & 1)]
  45:../../peripheral_library/hal/m7221/src/halUART.c **** #endif
  46:../../peripheral_library/hal/m7221/src/halUART.c **** 
  47:../../peripheral_library/hal/m7221/src/halUART.c **** U8 uart_id(void)
  48:../../peripheral_library/hal/m7221/src/halUART.c **** {
 105              		.loc 1 48 1 view -0
 106              		.cfi_startproc
 107              		@ args = 0, pretend = 0, frame = 0
 108              		@ frame_needed = 0, uses_anonymous_args = 0
 109              		@ link register save eliminated.
  49:../../peripheral_library/hal/m7221/src/halUART.c **** #if ( UART_BASE == REG_ADDR_BASE_UART1 )
  50:../../peripheral_library/hal/m7221/src/halUART.c ****   return 1;
  51:../../peripheral_library/hal/m7221/src/halUART.c **** #else
  52:../../peripheral_library/hal/m7221/src/halUART.c ****   return 0;
 110              		.loc 1 52 3 view .LVU1
 111              	@ ../../peripheral_library/hal/m7221/src/halUART.c:54: }
  53:../../peripheral_library/hal/m7221/src/halUART.c **** #endif
  54:../../peripheral_library/hal/m7221/src/halUART.c **** }
 112              		.loc 1 54 1 is_stmt 0 view .LVU2
 113 0000 0020     		movs	r0, #0	@,
 114 0002 7047     		bx	lr	@
 115              		.cfi_endproc
 116              	.LFE0:
 117              		.size	uart_id, .-uart_id
ARM GAS  /tmp/ccs4mGQv.s 			page 4


 118              		.section	.text.uart_init,"ax",%progbits
 119              		.align	1
 120              		.global	uart_init
 121              		.syntax unified
 122              		.thumb
 123              		.thumb_func
 124              		.fpu fpv4-sp-d16
 125              		.type	uart_init, %function
 126              	uart_init:
 127              	.LFB1:
  55:../../peripheral_library/hal/m7221/src/halUART.c **** 
  56:../../peripheral_library/hal/m7221/src/halUART.c **** /*
  57:../../peripheral_library/hal/m7221/src/halUART.c **** //Clock
  58:../../peripheral_library/hal/m7221/src/halUART.c **** bank= 0x0e    addr16=0x71 B[12:8]
  59:../../peripheral_library/hal/m7221/src/halUART.c **** 
  60:../../peripheral_library/hal/m7221/src/halUART.c **** [12:10]
  61:../../peripheral_library/hal/m7221/src/halUART.c **** 000 : 192M
  62:../../peripheral_library/hal/m7221/src/halUART.c **** 001 : 160M
  63:../../peripheral_library/hal/m7221/src/halUART.c **** 010 : 144M
  64:../../peripheral_library/hal/m7221/src/halUART.c **** 011 : 123M
  65:../../peripheral_library/hal/m7221/src/halUART.c **** 100 : 108M
  66:../../peripheral_library/hal/m7221/src/halUART.c **** 101 : XTAL 24M
  67:../../peripheral_library/hal/m7221/src/halUART.c **** 110 : NA
  68:../../peripheral_library/hal/m7221/src/halUART.c **** 111 : 3M
  69:../../peripheral_library/hal/m7221/src/halUART.c **** [9] INV
  70:../../peripheral_library/hal/m7221/src/halUART.c **** [8] GATE
  71:../../peripheral_library/hal/m7221/src/halUART.c **** 
  72:../../peripheral_library/hal/m7221/src/halUART.c **** //MUX
  73:../../peripheral_library/hal/m7221/src/halUART.c **** select uart source via  PAD_DDCA
  74:../../peripheral_library/hal/m7221/src/halUART.c **** 1 => cm4 uart0
  75:../../peripheral_library/hal/m7221/src/halUART.c **** 0 => hk51_uart0 / DIE UART0
  76:../../peripheral_library/hal/m7221/src/halUART.c **** bank= 0x0e    addr16=0x7e B[2]= 1  //reg_cm4_uart0_en
  77:../../peripheral_library/hal/m7221/src/halUART.c **** 
  78:../../peripheral_library/hal/m7221/src/halUART.c **** //PAD MUX
  79:../../peripheral_library/hal/m7221/src/halUART.c **** bank= 0x0e    addr16=0x76 B[9:6]
  80:../../peripheral_library/hal/m7221/src/halUART.c **** [2:0]
  81:../../peripheral_library/hal/m7221/src/halUART.c **** 'd1: swtich gpio_pm[5] to cm4's uart_rx0 and gpio_pm[1] to cm4's uart_tx0
  82:../../peripheral_library/hal/m7221/src/halUART.c **** 'd2: swtich gpio_pm[3] to cm4's uart_rx0 and gpio_pm[8] to cm4's uart_tx0
  83:../../peripheral_library/hal/m7221/src/halUART.c **** 'd3: swtich gpio_pm[5] to cm4's uart_rx0 and gpio_pm[8] to cm4's uart_tx0
  84:../../peripheral_library/hal/m7221/src/halUART.c **** 'd4: swtich gpio_pm[11] to cm4's uart_rx0 and gpio_pm[12] to cm4's uart_tx0
  85:../../peripheral_library/hal/m7221/src/halUART.c **** [3]: switch cm4's uart_tx0 as open drain
  86:../../peripheral_library/hal/m7221/src/halUART.c **** */
  87:../../peripheral_library/hal/m7221/src/halUART.c **** 
  88:../../peripheral_library/hal/m7221/src/halUART.c **** void uart_init(void)
  89:../../peripheral_library/hal/m7221/src/halUART.c **** {
 128              		.loc 1 89 1 is_stmt 1 view -0
 129              		.cfi_startproc
 130              		@ args = 0, pretend = 0, frame = 0
 131              		@ frame_needed = 0, uses_anonymous_args = 0
 132              		@ link register save eliminated.
  90:../../peripheral_library/hal/m7221/src/halUART.c **** #ifndef BOOTROM_VERSION_ZEBU
  91:../../peripheral_library/hal/m7221/src/halUART.c ****     U8 count=0;
 133              		.loc 1 91 5 view .LVU4
 134              	.LVL0:
  92:../../peripheral_library/hal/m7221/src/halUART.c **** 
  93:../../peripheral_library/hal/m7221/src/halUART.c ****     U16 u16Val;
 135              		.loc 1 93 5 view .LVU5
ARM GAS  /tmp/ccs4mGQv.s 			page 5


  94:../../peripheral_library/hal/m7221/src/halUART.c **** 
  95:../../peripheral_library/hal/m7221/src/halUART.c ****     //SETREG16(REG_PM_UART_MUX, (0x1<<2));
  96:../../peripheral_library/hal/m7221/src/halUART.c **** 
  97:../../peripheral_library/hal/m7221/src/halUART.c ****     // default not set uart pad
  98:../../peripheral_library/hal/m7221/src/halUART.c **** //    u16Val = INREG16(REG_PM_UART_PAD);
  99:../../peripheral_library/hal/m7221/src/halUART.c **** //    u16Val &= ~(7<<6);
 100:../../peripheral_library/hal/m7221/src/halUART.c **** //    OUTREG16(REG_PM_UART_PAD, (u16Val |(0x1<<6)));
 101:../../peripheral_library/hal/m7221/src/halUART.c **** 
 102:../../peripheral_library/hal/m7221/src/halUART.c ****     // Enable uart clock
 103:../../peripheral_library/hal/m7221/src/halUART.c ****     u16Val = INREG16(REG_PM_UART_CLK);
 136              		.loc 1 103 5 view .LVU6
 137              	@ ../../peripheral_library/hal/m7221/src/halUART.c:103:     u16Val = INREG16(REG_PM_UART_CLK);
 138              		.loc 1 103 12 is_stmt 0 view .LVU7
 139 0000 204A     		ldr	r2, .L8	@ tmp128,
 140              	@ ../../peripheral_library/hal/m7221/src/halUART.c:121:     UART_REG8(UART_MCR) |= 0x10;
 104:../../peripheral_library/hal/m7221/src/halUART.c ****     u16Val &= ~(0x1f<<8);
 105:../../peripheral_library/hal/m7221/src/halUART.c ****     OUTREG16(REG_PM_UART_CLK, (u16Val | (0x14<<8)));
 106:../../peripheral_library/hal/m7221/src/halUART.c **** 
 107:../../peripheral_library/hal/m7221/src/halUART.c ****     // Reset RX_enable
 108:../../peripheral_library/hal/m7221/src/halUART.c ****     //CLRREG16(REG_RX_ENABLE, BIT11);
 109:../../peripheral_library/hal/m7221/src/halUART.c **** 
 110:../../peripheral_library/hal/m7221/src/halUART.c ****     // Reset PM uart pad digmux
 111:../../peripheral_library/hal/m7221/src/halUART.c ****     //OUTREG16(REG_UART_SEL3210, 0x3210);
 112:../../peripheral_library/hal/m7221/src/halUART.c **** 
 113:../../peripheral_library/hal/m7221/src/halUART.c ****     // Toggle SW reset
 114:../../peripheral_library/hal/m7221/src/halUART.c ****     UART_REG8(UART_RST) &= ~0x01;
 115:../../peripheral_library/hal/m7221/src/halUART.c ****     UART_REG8(UART_RST) |= 0x01;
 116:../../peripheral_library/hal/m7221/src/halUART.c **** 
 117:../../peripheral_library/hal/m7221/src/halUART.c ****     // Disable all interrupts
 118:../../peripheral_library/hal/m7221/src/halUART.c ****     UART_REG8(UART_IER) = 0x00;
 119:../../peripheral_library/hal/m7221/src/halUART.c **** 
 120:../../peripheral_library/hal/m7221/src/halUART.c ****     // Set "reg_mcr_loopback";
 121:../../peripheral_library/hal/m7221/src/halUART.c ****     UART_REG8(UART_MCR) |= 0x10;
 141              		.loc 1 121 25 view .LVU8
 142 0002 2148     		ldr	r0, .L8+4	@ tmp150,
 143              	@ ../../peripheral_library/hal/m7221/src/halUART.c:103:     u16Val = INREG16(REG_PM_UART_CLK);
 103:../../peripheral_library/hal/m7221/src/halUART.c ****     u16Val &= ~(0x1f<<8);
 144              		.loc 1 103 12 view .LVU9
 145 0004 1388     		ldrh	r3, [r2]	@, MEM[(volatile short unsigned int *)1073749444B]
 146 0006 9BB2     		uxth	r3, r3	@ u16Val, MEM[(volatile short unsigned int *)1073749444B]
 147              	.LVL1:
 104:../../peripheral_library/hal/m7221/src/halUART.c ****     u16Val &= ~(0x1f<<8);
 148              		.loc 1 104 5 is_stmt 1 view .LVU10
 105:../../peripheral_library/hal/m7221/src/halUART.c **** 
 149              		.loc 1 105 5 view .LVU11
 150              	@ ../../peripheral_library/hal/m7221/src/halUART.c:104:     u16Val &= ~(0x1f<<8);
 104:../../peripheral_library/hal/m7221/src/halUART.c ****     u16Val &= ~(0x1f<<8);
 151              		.loc 1 104 12 is_stmt 0 view .LVU12
 152 0008 23F4F853 		bic	r3, r3, #7936	@ tmp130, u16Val,
 153              	.LVL2:
 154              	@ ../../peripheral_library/hal/m7221/src/halUART.c:105:     OUTREG16(REG_PM_UART_CLK, (u16Val | (0x
 105:../../peripheral_library/hal/m7221/src/halUART.c **** 
 155              		.loc 1 105 5 view .LVU13
 156 000c 43F4A053 		orr	r3, r3, #5120	@ _1, tmp130,
 157 0010 1380     		strh	r3, [r2]	@ movhi	@ _1, MEM[(volatile short unsigned int *)1073749444B]
 114:../../peripheral_library/hal/m7221/src/halUART.c ****     UART_REG8(UART_RST) |= 0x01;
 158              		.loc 1 114 5 is_stmt 1 view .LVU14
ARM GAS  /tmp/ccs4mGQv.s 			page 6


 159              	@ ../../peripheral_library/hal/m7221/src/halUART.c:114:     UART_REG8(UART_RST) &= ~0x01;
 114:../../peripheral_library/hal/m7221/src/halUART.c ****     UART_REG8(UART_RST) |= 0x01;
 160              		.loc 1 114 25 is_stmt 0 view .LVU15
 161 0012 1E4B     		ldr	r3, .L8+8	@ tmp135,
 162 0014 1A78     		ldrb	r2, [r3]	@ zero_extendqisi2	@ MEM[(volatile unsigned char *)1073748080B], MEM[(volatile unsig
 163 0016 02F0FE02 		and	r2, r2, #254	@ _3, MEM[(volatile unsigned char *)1073748080B],
 164 001a 1A70     		strb	r2, [r3]	@ _3, MEM[(volatile unsigned char *)1073748080B]
 115:../../peripheral_library/hal/m7221/src/halUART.c **** 
 165              		.loc 1 115 5 is_stmt 1 view .LVU16
 166              	@ ../../peripheral_library/hal/m7221/src/halUART.c:115:     UART_REG8(UART_RST) |= 0x01;
 115:../../peripheral_library/hal/m7221/src/halUART.c **** 
 167              		.loc 1 115 25 is_stmt 0 view .LVU17
 168 001c 1A78     		ldrb	r2, [r3]	@ zero_extendqisi2	@ MEM[(volatile unsigned char *)1073748080B], MEM[(volatile unsig
 169 001e 42F00102 		orr	r2, r2, #1	@ _5, MEM[(volatile unsigned char *)1073748080B],
 170 0022 1A70     		strb	r2, [r3]	@ _5, MEM[(volatile unsigned char *)1073748080B]
 118:../../peripheral_library/hal/m7221/src/halUART.c **** 
 171              		.loc 1 118 5 is_stmt 1 view .LVU18
 172              	@ ../../peripheral_library/hal/m7221/src/halUART.c:118:     UART_REG8(UART_IER) = 0x00;
 118:../../peripheral_library/hal/m7221/src/halUART.c **** 
 173              		.loc 1 118 25 is_stmt 0 view .LVU19
 174 0024 1A4A     		ldr	r2, .L8+12	@ tmp147,
 175 0026 0023     		movs	r3, #0	@ tmp148,
 176 0028 1370     		strb	r3, [r2]	@ tmp148, MEM[(volatile unsigned char *)1073747976B]
 177              		.loc 1 121 5 is_stmt 1 view .LVU20
 178              	@ ../../peripheral_library/hal/m7221/src/halUART.c:121:     UART_REG8(UART_MCR) |= 0x10;
 179              		.loc 1 121 25 is_stmt 0 view .LVU21
 180 002a 0178     		ldrb	r1, [r0]	@ zero_extendqisi2	@ MEM[(volatile unsigned char *)1073748000B], MEM[(volatile unsig
 181 002c 41F01001 		orr	r1, r1, #16	@ _7, MEM[(volatile unsigned char *)1073748000B],
 182 0030 0170     		strb	r1, [r0]	@ _7, MEM[(volatile unsigned char *)1073748000B]
 122:../../peripheral_library/hal/m7221/src/halUART.c **** 
 123:../../peripheral_library/hal/m7221/src/halUART.c ****     // Poll "reg_usr_busy" till 0; (10 times)
 124:../../peripheral_library/hal/m7221/src/halUART.c ****     while(UART_REG8(UART_USR) & 0x01 && count++ < 10)
 183              		.loc 1 124 5 is_stmt 1 view .LVU22
 184              	@ ../../peripheral_library/hal/m7221/src/halUART.c:124:     while(UART_REG8(UART_USR) & 0x01 && cou
 185              		.loc 1 124 11 is_stmt 0 view .LVU23
 186 0032 1849     		ldr	r1, .L8+16	@ tmp156,
 187              	.LVL3:
 188              	.L4:
 125:../../peripheral_library/hal/m7221/src/halUART.c ****         ;
 189              		.loc 1 125 9 is_stmt 1 discriminator 2 view .LVU24
 190              	@ ../../peripheral_library/hal/m7221/src/halUART.c:124:     while(UART_REG8(UART_USR) & 0x01 && cou
 124:../../peripheral_library/hal/m7221/src/halUART.c ****         ;
 191              		.loc 1 124 11 is_stmt 0 discriminator 2 view .LVU25
 192 0034 0878     		ldrb	r0, [r1]	@ zero_extendqisi2	@ MEM[(volatile unsigned char *)1073748024B], MEM[(volatile unsig
 193              	@ ../../peripheral_library/hal/m7221/src/halUART.c:124:     while(UART_REG8(UART_USR) & 0x01 && cou
 124:../../peripheral_library/hal/m7221/src/halUART.c ****         ;
 194              		.loc 1 124 10 discriminator 2 view .LVU26
 195 0036 C007     		lsls	r0, r0, #31	@, MEM[(volatile unsigned char *)1073748024B],
 196 0038 12D5     		bpl	.L3		@,
 197              	@ ../../peripheral_library/hal/m7221/src/halUART.c:124:     while(UART_REG8(UART_USR) & 0x01 && cou
 124:../../peripheral_library/hal/m7221/src/halUART.c ****         ;
 198              		.loc 1 124 46 discriminator 1 view .LVU27
 199 003a 0133     		adds	r3, r3, #1	@ tmp162, count,
 200              	.LVL4:
 124:../../peripheral_library/hal/m7221/src/halUART.c ****         ;
 201              		.loc 1 124 46 discriminator 1 view .LVU28
 202 003c DBB2     		uxtb	r3, r3	@ count, tmp162
ARM GAS  /tmp/ccs4mGQv.s 			page 7


 203              	.LVL5:
 204              	@ ../../peripheral_library/hal/m7221/src/halUART.c:124:     while(UART_REG8(UART_USR) & 0x01 && cou
 124:../../peripheral_library/hal/m7221/src/halUART.c ****         ;
 205              		.loc 1 124 38 discriminator 1 view .LVU29
 206 003e 0B2B     		cmp	r3, #11	@ count,
 207 0040 F8D1     		bne	.L4		@,
 208              	.L5:
 209              	.LVL6:
 210              	.LBB2:
 126:../../peripheral_library/hal/m7221/src/halUART.c **** 
 127:../../peripheral_library/hal/m7221/src/halUART.c ****     if(count == 10)
 128:../../peripheral_library/hal/m7221/src/halUART.c ****     {
 129:../../peripheral_library/hal/m7221/src/halUART.c ****         SetDebugFlag(FLAG_INIT_UART_BUSY); /* 0x0BF1 */
 130:../../peripheral_library/hal/m7221/src/halUART.c ****     }
 131:../../peripheral_library/hal/m7221/src/halUART.c ****     else // Set divisor
 132:../../peripheral_library/hal/m7221/src/halUART.c ****     {
 133:../../peripheral_library/hal/m7221/src/halUART.c ****         //U16 DLR = ((UART_CLK+(8*UART_BAUDRATE)) / (16 * UART_BAUDRATE));
 134:../../peripheral_library/hal/m7221/src/halUART.c ****         U16 DLR = (UART_CLK / (16 * UART_BAUDRATE));
 211              		.loc 1 134 9 is_stmt 1 view .LVU30
 135:../../peripheral_library/hal/m7221/src/halUART.c ****         UART_REG8(UART_LCR) |= UART_LCR_DLAB;
 212              		.loc 1 135 9 view .LVU31
 213              	@ ../../peripheral_library/hal/m7221/src/halUART.c:135:         UART_REG8(UART_LCR) |= UART_LCR_DLA
 214              		.loc 1 135 29 is_stmt 0 view .LVU32
 215 0042 154B     		ldr	r3, .L8+20	@ tmp165,
 216 0044 1978     		ldrb	r1, [r3]	@ zero_extendqisi2	@ MEM[(volatile unsigned char *)1073747992B], MEM[(volatile unsig
 217 0046 41F08001 		orr	r1, r1, #128	@ _10, MEM[(volatile unsigned char *)1073747992B],
 218 004a 1970     		strb	r1, [r3]	@ _10, MEM[(volatile unsigned char *)1073747992B]
 136:../../peripheral_library/hal/m7221/src/halUART.c ****         UART_REG8(UART_DLL) = DLR & 0xFF;
 219              		.loc 1 136 9 is_stmt 1 view .LVU33
 220              	@ ../../peripheral_library/hal/m7221/src/halUART.c:136:         UART_REG8(UART_DLL) = DLR & 0xFF;
 221              		.loc 1 136 29 is_stmt 0 view .LVU34
 222 004c 1349     		ldr	r1, .L8+24	@ tmp171,
 223 004e 0D20     		movs	r0, #13	@ tmp172,
 224 0050 0870     		strb	r0, [r1]	@ tmp172, MEM[(volatile unsigned char *)1073747968B]
 137:../../peripheral_library/hal/m7221/src/halUART.c ****         UART_REG8(UART_DLM) = (DLR >> 8) & 0xFF;
 225              		.loc 1 137 9 is_stmt 1 view .LVU35
 226              	@ ../../peripheral_library/hal/m7221/src/halUART.c:137:         UART_REG8(UART_DLM) = (DLR >> 8) & 
 227              		.loc 1 137 29 is_stmt 0 view .LVU36
 228 0052 0021     		movs	r1, #0	@ tmp175,
 229 0054 1170     		strb	r1, [r2]	@ tmp175, MEM[(volatile unsigned char *)1073747976B]
 138:../../peripheral_library/hal/m7221/src/halUART.c ****         UART_REG8(UART_LCR) &= ~(UART_LCR_DLAB);
 230              		.loc 1 138 9 is_stmt 1 view .LVU37
 231              	@ ../../peripheral_library/hal/m7221/src/halUART.c:138:         UART_REG8(UART_LCR) &= ~(UART_LCR_D
 232              		.loc 1 138 29 is_stmt 0 view .LVU38
 233 0056 1A78     		ldrb	r2, [r3]	@ zero_extendqisi2	@ MEM[(volatile unsigned char *)1073747992B], MEM[(volatile unsig
 234 0058 02F07F02 		and	r2, r2, #127	@ _12, MEM[(volatile unsigned char *)1073747992B],
 235 005c 1A70     		strb	r2, [r3]	@ _12, MEM[(volatile unsigned char *)1073747992B]
 236 005e 05E0     		b	.L6		@
 237              	.LVL7:
 238              	.L3:
 239              		.loc 1 138 29 view .LVU39
 240              	.LBE2:
 127:../../peripheral_library/hal/m7221/src/halUART.c ****     {
 241              		.loc 1 127 5 is_stmt 1 view .LVU40
 242              	@ ../../peripheral_library/hal/m7221/src/halUART.c:127:     if(count == 10)
 127:../../peripheral_library/hal/m7221/src/halUART.c ****     {
 243              		.loc 1 127 7 is_stmt 0 view .LVU41
ARM GAS  /tmp/ccs4mGQv.s 			page 8


 244 0060 0A2B     		cmp	r3, #10	@ count,
 245 0062 EED1     		bne	.L5		@,
 129:../../peripheral_library/hal/m7221/src/halUART.c ****     }
 246              		.loc 1 129 9 is_stmt 1 view .LVU42
 247 0064 0E4B     		ldr	r3, .L8+28	@ tmp163,
 248              	.LVL8:
 129:../../peripheral_library/hal/m7221/src/halUART.c ****     }
 249              		.loc 1 129 9 is_stmt 0 view .LVU43
 250 0066 40F6F132 		movw	r2, #3057	@ tmp164,
 251 006a 1A60     		str	r2, [r3]	@ tmp164, MEM[(volatile long unsigned int *)1075865344B]
 252              	.L6:
 139:../../peripheral_library/hal/m7221/src/halUART.c ****     }
 140:../../peripheral_library/hal/m7221/src/halUART.c **** 
 141:../../peripheral_library/hal/m7221/src/halUART.c ****     // Set 8 bit char, 1 stop bit, no parity
 142:../../peripheral_library/hal/m7221/src/halUART.c ****     UART_REG8(UART_LCR) = UART_LCR_WLEN8 & ~(UART_LCR_STOP2 | UART_LCR_PARITY);
 253              		.loc 1 142 5 is_stmt 1 view .LVU44
 254              	@ ../../peripheral_library/hal/m7221/src/halUART.c:142:     UART_REG8(UART_LCR) = UART_LCR_WLEN8 & 
 255              		.loc 1 142 25 is_stmt 0 view .LVU45
 256 006c 0A4B     		ldr	r3, .L8+20	@ tmp183,
 257 006e 0322     		movs	r2, #3	@ tmp184,
 258 0070 1A70     		strb	r2, [r3]	@ tmp184, MEM[(volatile unsigned char *)1073747992B]
 143:../../peripheral_library/hal/m7221/src/halUART.c **** 
 144:../../peripheral_library/hal/m7221/src/halUART.c ****     // Unset loopback
 145:../../peripheral_library/hal/m7221/src/halUART.c ****     UART_REG8(UART_MCR) &= ~0x10;
 259              		.loc 1 145 5 is_stmt 1 view .LVU46
 260              	@ ../../peripheral_library/hal/m7221/src/halUART.c:145:     UART_REG8(UART_MCR) &= ~0x10;
 261              		.loc 1 145 25 is_stmt 0 view .LVU47
 262 0072 054A     		ldr	r2, .L8+4	@ tmp186,
 263 0074 1378     		ldrb	r3, [r2]	@ zero_extendqisi2	@ MEM[(volatile unsigned char *)1073748000B], MEM[(volatile unsig
 264 0076 03F0EF03 		and	r3, r3, #239	@ _14, MEM[(volatile unsigned char *)1073748000B],
 265 007a 1370     		strb	r3, [r2]	@ _14, MEM[(volatile unsigned char *)1073748000B]
 146:../../peripheral_library/hal/m7221/src/halUART.c **** 
 147:../../peripheral_library/hal/m7221/src/halUART.c ****     // Enable TX/RX fifo
 148:../../peripheral_library/hal/m7221/src/halUART.c ****     UART_REG8(UART_FCR) = UART_FCR_ENABLE_FIFO | UART_FCR_CLEAR_RCVR | UART_FCR_CLEAR_XMIT;
 266              		.loc 1 148 5 is_stmt 1 view .LVU48
 267              	@ ../../peripheral_library/hal/m7221/src/halUART.c:148:     UART_REG8(UART_FCR) = UART_FCR_ENABLE_F
 268              		.loc 1 148 25 is_stmt 0 view .LVU49
 269 007c 094B     		ldr	r3, .L8+32	@ tmp192,
 270 007e 0722     		movs	r2, #7	@ tmp193,
 271 0080 1A70     		strb	r2, [r3]	@ tmp193, MEM[(volatile unsigned char *)1073747984B]
 272              	@ ../../peripheral_library/hal/m7221/src/halUART.c:164: }
 149:../../peripheral_library/hal/m7221/src/halUART.c **** 
 150:../../peripheral_library/hal/m7221/src/halUART.c ****     // Set PM uart pad digmux to UART0
 151:../../peripheral_library/hal/m7221/src/halUART.c ****     //OUTREG16(REG_UART_SEL3210, 0x3012);
 152:../../peripheral_library/hal/m7221/src/halUART.c **** 
 153:../../peripheral_library/hal/m7221/src/halUART.c ****     // Set RX_enable
 154:../../peripheral_library/hal/m7221/src/halUART.c ****     //SETREG16(REG_RX_ENABLE, BIT11);
 155:../../peripheral_library/hal/m7221/src/halUART.c **** #else
 156:../../peripheral_library/hal/m7221/src/halUART.c ****     UART_REG8(UART_LCR) |= UART_LCR_DLAB;
 157:../../peripheral_library/hal/m7221/src/halUART.c ****     UART_REG8(UART_DLL) = 0x04;
 158:../../peripheral_library/hal/m7221/src/halUART.c ****     UART_REG8(UART_DLM) = 0;
 159:../../peripheral_library/hal/m7221/src/halUART.c ****     UART_REG8(UART_LCR) &= ~(UART_LCR_DLAB);
 160:../../peripheral_library/hal/m7221/src/halUART.c ****     UART_REG8(UART_LCR) = UART_LCR_WLEN8 & ~(UART_LCR_STOP2 | UART_LCR_PARITY);
 161:../../peripheral_library/hal/m7221/src/halUART.c ****     UART_REG8(UART_MCR) = UART_MCR_AFCE | UART_MCR_RTS;
 162:../../peripheral_library/hal/m7221/src/halUART.c ****     UART_REG8(UART_FCR) = UART_FCR_ENABLE_FIFO | UART_FCR_CLEAR_RCVR | UART_FCR_CLEAR_XMIT;
 163:../../peripheral_library/hal/m7221/src/halUART.c **** #endif
 164:../../peripheral_library/hal/m7221/src/halUART.c **** }
ARM GAS  /tmp/ccs4mGQv.s 			page 9


 273              		.loc 1 164 1 view .LVU50
 274 0082 7047     		bx	lr	@
 275              	.L9:
 276              		.align	2
 277              	.L8:
 278 0084 C41D0040 		.word	1073749444
 279 0088 20180040 		.word	1073748000
 280 008c 70180040 		.word	1073748080
 281 0090 08180040 		.word	1073747976
 282 0094 38180040 		.word	1073748024
 283 0098 18180040 		.word	1073747992
 284 009c 00180040 		.word	1073747968
 285 00a0 00672040 		.word	1075865344
 286 00a4 10180040 		.word	1073747984
 287              		.cfi_endproc
 288              	.LFE1:
 289              		.size	uart_init, .-uart_init
 290              		.section	.text.uart_mux,"ax",%progbits
 291              		.align	1
 292              		.global	uart_mux
 293              		.syntax unified
 294              		.thumb
 295              		.thumb_func
 296              		.fpu fpv4-sp-d16
 297              		.type	uart_mux, %function
 298              	uart_mux:
 299              	.LVL9:
 300              	.LFB2:
 165:../../peripheral_library/hal/m7221/src/halUART.c **** 
 166:../../peripheral_library/hal/m7221/src/halUART.c **** #if defined(__CONFIG_UART_MUX__)
 167:../../peripheral_library/hal/m7221/src/halUART.c **** void uart_mux(U8 en)
 168:../../peripheral_library/hal/m7221/src/halUART.c **** {
 301              		.loc 1 168 1 is_stmt 1 view -0
 302              		.cfi_startproc
 303              		@ args = 0, pretend = 0, frame = 0
 304              		@ frame_needed = 0, uses_anonymous_args = 0
 305              		@ link register save eliminated.
 169:../../peripheral_library/hal/m7221/src/halUART.c ****   if (en)
 306              		.loc 1 169 3 view .LVU52
 307 0000 054A     		ldr	r2, .L14	@ tmp125,
 308              	@ ../../peripheral_library/hal/m7221/src/halUART.c:170:     SETREG16(REG_PM_UART_MUX, (0x1<<2));
 170:../../peripheral_library/hal/m7221/src/halUART.c ****     SETREG16(REG_PM_UART_MUX, (0x1<<2));
 309              		.loc 1 170 5 is_stmt 0 view .LVU53
 310 0002 1388     		ldrh	r3, [r2]	@,
 311              	@ ../../peripheral_library/hal/m7221/src/halUART.c:169:   if (en)
 169:../../peripheral_library/hal/m7221/src/halUART.c ****   if (en)
 312              		.loc 1 169 6 view .LVU54
 313 0004 18B1     		cbz	r0, .L11	@ en,
 314              		.loc 1 170 5 is_stmt 1 view .LVU55
 315 0006 43F00403 		orr	r3, r3, #4	@ _2, MEM[(volatile short unsigned int *)1073749496B],
 316              	.L13:
 317              	@ ../../peripheral_library/hal/m7221/src/halUART.c:172:     CLRREG16(REG_PM_UART_MUX, (0x1<<2));
 171:../../peripheral_library/hal/m7221/src/halUART.c ****   else
 172:../../peripheral_library/hal/m7221/src/halUART.c ****     CLRREG16(REG_PM_UART_MUX, (0x1<<2));
 318              		.loc 1 172 5 is_stmt 0 view .LVU56
 319 000a 1380     		strh	r3, [r2]	@ movhi	@ _4,
 320              	@ ../../peripheral_library/hal/m7221/src/halUART.c:173: }
ARM GAS  /tmp/ccs4mGQv.s 			page 10


 173:../../peripheral_library/hal/m7221/src/halUART.c **** }
 321              		.loc 1 173 1 view .LVU57
 322 000c 7047     		bx	lr	@
 323              	.L11:
 172:../../peripheral_library/hal/m7221/src/halUART.c **** }
 324              		.loc 1 172 5 is_stmt 1 view .LVU58
 325 000e 23F00403 		bic	r3, r3, #4	@ _4, MEM[(volatile short unsigned int *)1073749496B],
 326 0012 1B04     		lsls	r3, r3, #16	@ _4, _4,
 327 0014 1B0C     		lsrs	r3, r3, #16	@ _4, _4,
 328 0016 F8E7     		b	.L13		@
 329              	.L15:
 330              		.align	2
 331              	.L14:
 332 0018 F81D0040 		.word	1073749496
 333              		.cfi_endproc
 334              	.LFE2:
 335              		.size	uart_mux, .-uart_mux
 336              		.section	.text.uart_int_enable,"ax",%progbits
 337              		.align	1
 338              		.global	uart_int_enable
 339              		.syntax unified
 340              		.thumb
 341              		.thumb_func
 342              		.fpu fpv4-sp-d16
 343              		.type	uart_int_enable, %function
 344              	uart_int_enable:
 345              	.LFB3:
 174:../../peripheral_library/hal/m7221/src/halUART.c **** #endif
 175:../../peripheral_library/hal/m7221/src/halUART.c **** 
 176:../../peripheral_library/hal/m7221/src/halUART.c **** void uart_int_enable(void)
 177:../../peripheral_library/hal/m7221/src/halUART.c **** {
 346              		.loc 1 177 1 view -0
 347              		.cfi_startproc
 348              		@ args = 0, pretend = 0, frame = 0
 349              		@ frame_needed = 0, uses_anonymous_args = 0
 350              		@ link register save eliminated.
 178:../../peripheral_library/hal/m7221/src/halUART.c ****     // Enable all interrupts
 179:../../peripheral_library/hal/m7221/src/halUART.c ****   UART_REG8(UART_IER) = UART_IER_RDI | UART_IER_RLSI | UART_IER_MSI;
 351              		.loc 1 179 3 view .LVU60
 352              	@ ../../peripheral_library/hal/m7221/src/halUART.c:179:   UART_REG8(UART_IER) = UART_IER_RDI | UART
 353              		.loc 1 179 23 is_stmt 0 view .LVU61
 354 0000 014B     		ldr	r3, .L17	@ tmp110,
 355 0002 0D22     		movs	r2, #13	@ tmp111,
 356 0004 1A70     		strb	r2, [r3]	@ tmp111, MEM[(volatile unsigned char *)1073747976B]
 357              	@ ../../peripheral_library/hal/m7221/src/halUART.c:180: }
 180:../../peripheral_library/hal/m7221/src/halUART.c **** }
 358              		.loc 1 180 1 view .LVU62
 359 0006 7047     		bx	lr	@
 360              	.L18:
 361              		.align	2
 362              	.L17:
 363 0008 08180040 		.word	1073747976
 364              		.cfi_endproc
 365              	.LFE3:
 366              		.size	uart_int_enable, .-uart_int_enable
 367              		.section	.text.uart_int_source,"ax",%progbits
 368              		.align	1
ARM GAS  /tmp/ccs4mGQv.s 			page 11


 369              		.global	uart_int_source
 370              		.syntax unified
 371              		.thumb
 372              		.thumb_func
 373              		.fpu fpv4-sp-d16
 374              		.type	uart_int_source, %function
 375              	uart_int_source:
 376              	.LFB4:
 181:../../peripheral_library/hal/m7221/src/halUART.c **** 
 182:../../peripheral_library/hal/m7221/src/halUART.c **** U8 uart_int_source(void)
 183:../../peripheral_library/hal/m7221/src/halUART.c **** {
 377              		.loc 1 183 1 is_stmt 1 view -0
 378              		.cfi_startproc
 379              		@ args = 0, pretend = 0, frame = 0
 380              		@ frame_needed = 0, uses_anonymous_args = 0
 381              		@ link register save eliminated.
 184:../../peripheral_library/hal/m7221/src/halUART.c **** 	return UART_REG8(UART_IIR) & UART_IIR_ID_MASK;
 382              		.loc 1 184 2 view .LVU64
 383              	@ ../../peripheral_library/hal/m7221/src/halUART.c:184: 	return UART_REG8(UART_IIR) & UART_IIR_ID_M
 384              		.loc 1 184 29 is_stmt 0 view .LVU65
 385 0000 024B     		ldr	r3, .L20	@ tmp112,
 386 0002 1878     		ldrb	r0, [r3]	@ zero_extendqisi2	@ MEM[(volatile unsigned char *)1073747984B], MEM[(volatile unsig
 387              	@ ../../peripheral_library/hal/m7221/src/halUART.c:185: }
 185:../../peripheral_library/hal/m7221/src/halUART.c **** }
 388              		.loc 1 185 1 view .LVU66
 389 0004 00F00F00 		and	r0, r0, #15	@, MEM[(volatile unsigned char *)1073747984B],
 390 0008 7047     		bx	lr	@
 391              	.L21:
 392 000a 00BF     		.align	2
 393              	.L20:
 394 000c 10180040 		.word	1073747984
 395              		.cfi_endproc
 396              	.LFE4:
 397              		.size	uart_int_source, .-uart_int_source
 398              		.section	.text.uart_clear_msr,"ax",%progbits
 399              		.align	1
 400              		.global	uart_clear_msr
 401              		.syntax unified
 402              		.thumb
 403              		.thumb_func
 404              		.fpu fpv4-sp-d16
 405              		.type	uart_clear_msr, %function
 406              	uart_clear_msr:
 407              	.LFB5:
 186:../../peripheral_library/hal/m7221/src/halUART.c **** 
 187:../../peripheral_library/hal/m7221/src/halUART.c **** void uart_clear_msr(void)
 188:../../peripheral_library/hal/m7221/src/halUART.c **** {
 408              		.loc 1 188 1 is_stmt 1 view -0
 409              		.cfi_startproc
 410              		@ args = 0, pretend = 0, frame = 0
 411              		@ frame_needed = 0, uses_anonymous_args = 0
 412              		@ link register save eliminated.
 189:../../peripheral_library/hal/m7221/src/halUART.c **** 	U8 nSource=0;
 413              		.loc 1 189 2 view .LVU68
 414              	.LVL10:
 190:../../peripheral_library/hal/m7221/src/halUART.c ****   nSource = UART_REG8(UART_MSR);
 415              		.loc 1 190 3 view .LVU69
ARM GAS  /tmp/ccs4mGQv.s 			page 12


 416              	@ ../../peripheral_library/hal/m7221/src/halUART.c:190:   nSource = UART_REG8(UART_MSR);
 417              		.loc 1 190 11 is_stmt 0 view .LVU70
 418 0000 014B     		ldr	r3, .L23	@ tmp111,
 419 0002 1B78     		ldrb	r3, [r3]	@ zero_extendqisi2	@ MEM[(volatile unsigned char *)1073748016B], MEM[(volatile unsig
 420              	.LVL11:
 191:../../peripheral_library/hal/m7221/src/halUART.c **** 
 192:../../peripheral_library/hal/m7221/src/halUART.c ****   (void)nSource;
 421              		.loc 1 192 3 is_stmt 1 view .LVU71
 422              	@ ../../peripheral_library/hal/m7221/src/halUART.c:193: }
 193:../../peripheral_library/hal/m7221/src/halUART.c **** }
 423              		.loc 1 193 1 is_stmt 0 view .LVU72
 424 0004 7047     		bx	lr	@
 425              	.L24:
 426 0006 00BF     		.align	2
 427              	.L23:
 428 0008 30180040 		.word	1073748016
 429              		.cfi_endproc
 430              	.LFE5:
 431              		.size	uart_clear_msr, .-uart_clear_msr
 432              		.section	.text.uart_clear_lsr,"ax",%progbits
 433              		.align	1
 434              		.global	uart_clear_lsr
 435              		.syntax unified
 436              		.thumb
 437              		.thumb_func
 438              		.fpu fpv4-sp-d16
 439              		.type	uart_clear_lsr, %function
 440              	uart_clear_lsr:
 441              	.LFB6:
 194:../../peripheral_library/hal/m7221/src/halUART.c **** 
 195:../../peripheral_library/hal/m7221/src/halUART.c **** void uart_clear_lsr(void)
 196:../../peripheral_library/hal/m7221/src/halUART.c **** {
 442              		.loc 1 196 1 is_stmt 1 view -0
 443              		.cfi_startproc
 444              		@ args = 0, pretend = 0, frame = 0
 445              		@ frame_needed = 0, uses_anonymous_args = 0
 446              		@ link register save eliminated.
 197:../../peripheral_library/hal/m7221/src/halUART.c **** 	U8 nSource=0;
 447              		.loc 1 197 2 view .LVU74
 448              	.LVL12:
 198:../../peripheral_library/hal/m7221/src/halUART.c ****   nSource = UART_REG8(UART_LSR);
 449              		.loc 1 198 3 view .LVU75
 450              	@ ../../peripheral_library/hal/m7221/src/halUART.c:198:   nSource = UART_REG8(UART_LSR);
 451              		.loc 1 198 11 is_stmt 0 view .LVU76
 452 0000 014B     		ldr	r3, .L26	@ tmp111,
 453 0002 1B78     		ldrb	r3, [r3]	@ zero_extendqisi2	@ MEM[(volatile unsigned char *)1073748008B], MEM[(volatile unsig
 454              	.LVL13:
 199:../../peripheral_library/hal/m7221/src/halUART.c ****   (void)nSource;
 455              		.loc 1 199 3 is_stmt 1 view .LVU77
 456              	@ ../../peripheral_library/hal/m7221/src/halUART.c:200: }
 200:../../peripheral_library/hal/m7221/src/halUART.c **** }
 457              		.loc 1 200 1 is_stmt 0 view .LVU78
 458 0004 7047     		bx	lr	@
 459              	.L27:
 460 0006 00BF     		.align	2
 461              	.L26:
 462 0008 28180040 		.word	1073748008
ARM GAS  /tmp/ccs4mGQv.s 			page 13


 463              		.cfi_endproc
 464              	.LFE6:
 465              		.size	uart_clear_lsr, .-uart_clear_lsr
 466              		.section	.text.uart_read_byte,"ax",%progbits
 467              		.align	1
 468              		.global	uart_read_byte
 469              		.syntax unified
 470              		.thumb
 471              		.thumb_func
 472              		.fpu fpv4-sp-d16
 473              		.type	uart_read_byte, %function
 474              	uart_read_byte:
 475              	.LFB7:
 201:../../peripheral_library/hal/m7221/src/halUART.c **** 
 202:../../peripheral_library/hal/m7221/src/halUART.c **** U8 uart_read_byte(void)
 203:../../peripheral_library/hal/m7221/src/halUART.c **** {
 476              		.loc 1 203 1 is_stmt 1 view -0
 477              		.cfi_startproc
 478              		@ args = 0, pretend = 0, frame = 0
 479              		@ frame_needed = 0, uses_anonymous_args = 0
 480              		@ link register save eliminated.
 204:../../peripheral_library/hal/m7221/src/halUART.c ****   while (!(UART_REG8(UART_LSR) & UART_LSR_DR));
 481              		.loc 1 204 3 view .LVU80
 482              	@ ../../peripheral_library/hal/m7221/src/halUART.c:204:   while (!(UART_REG8(UART_LSR) & UART_LSR_D
 483              		.loc 1 204 12 is_stmt 0 view .LVU81
 484 0000 034A     		ldr	r2, .L32	@ tmp113,
 485              	.L29:
 486              		.loc 1 204 47 is_stmt 1 discriminator 1 view .LVU82
 487              	@ ../../peripheral_library/hal/m7221/src/halUART.c:204:   while (!(UART_REG8(UART_LSR) & UART_LSR_D
 488              		.loc 1 204 12 is_stmt 0 discriminator 1 view .LVU83
 489 0002 1378     		ldrb	r3, [r2]	@ zero_extendqisi2	@ MEM[(volatile unsigned char *)1073748008B], MEM[(volatile unsig
 490              	@ ../../peripheral_library/hal/m7221/src/halUART.c:204:   while (!(UART_REG8(UART_LSR) & UART_LSR_D
 491              		.loc 1 204 9 discriminator 1 view .LVU84
 492 0004 DB07     		lsls	r3, r3, #31	@, MEM[(volatile unsigned char *)1073748008B],
 493 0006 FCD5     		bpl	.L29		@,
 205:../../peripheral_library/hal/m7221/src/halUART.c ****   return UART_REG8(UART_RX);
 494              		.loc 1 205 3 is_stmt 1 view .LVU85
 495              	@ ../../peripheral_library/hal/m7221/src/halUART.c:205:   return UART_REG8(UART_RX);
 496              		.loc 1 205 10 is_stmt 0 view .LVU86
 497 0008 024B     		ldr	r3, .L32+4	@ tmp119,
 498 000a 1878     		ldrb	r0, [r3]	@ zero_extendqisi2	@ MEM[(volatile unsigned char *)1073747968B], MEM[(volatile unsig
 499              	@ ../../peripheral_library/hal/m7221/src/halUART.c:206: }
 206:../../peripheral_library/hal/m7221/src/halUART.c **** }
 500              		.loc 1 206 1 view .LVU87
 501 000c 7047     		bx	lr	@
 502              	.L33:
 503 000e 00BF     		.align	2
 504              	.L32:
 505 0010 28180040 		.word	1073748008
 506 0014 00180040 		.word	1073747968
 507              		.cfi_endproc
 508              	.LFE7:
 509              		.size	uart_read_byte, .-uart_read_byte
 510              		.section	.text.uart_write_byte,"ax",%progbits
 511              		.align	1
 512              		.global	uart_write_byte
 513              		.syntax unified
ARM GAS  /tmp/ccs4mGQv.s 			page 14


 514              		.thumb
 515              		.thumb_func
 516              		.fpu fpv4-sp-d16
 517              		.type	uart_write_byte, %function
 518              	uart_write_byte:
 519              	.LVL14:
 520              	.LFB8:
 207:../../peripheral_library/hal/m7221/src/halUART.c **** 
 208:../../peripheral_library/hal/m7221/src/halUART.c **** // void uart_write_byte(U8 c)
 209:../../peripheral_library/hal/m7221/src/halUART.c **** // {
 210:../../peripheral_library/hal/m7221/src/halUART.c ****     // uart_start_putk(c);
 211:../../peripheral_library/hal/m7221/src/halUART.c **** // }
 212:../../peripheral_library/hal/m7221/src/halUART.c **** 
 213:../../peripheral_library/hal/m7221/src/halUART.c **** void uart_write_byte(U8 c)
 214:../../peripheral_library/hal/m7221/src/halUART.c **** {
 521              		.loc 1 214 1 is_stmt 1 view -0
 522              		.cfi_startproc
 523              		@ args = 0, pretend = 0, frame = 0
 524              		@ frame_needed = 0, uses_anonymous_args = 0
 525              		@ link register save eliminated.
 215:../../peripheral_library/hal/m7221/src/halUART.c ****     while (!(UART_REG8(UART_LSR) & UART_LSR_THRE));
 526              		.loc 1 215 5 view .LVU89
 527              	@ ../../peripheral_library/hal/m7221/src/halUART.c:215:     while (!(UART_REG8(UART_LSR) & UART_LSR
 528              		.loc 1 215 14 is_stmt 0 view .LVU90
 529 0000 034A     		ldr	r2, .L38	@ tmp113,
 530              	.L35:
 531              		.loc 1 215 51 is_stmt 1 discriminator 1 view .LVU91
 532              	@ ../../peripheral_library/hal/m7221/src/halUART.c:215:     while (!(UART_REG8(UART_LSR) & UART_LSR
 533              		.loc 1 215 14 is_stmt 0 discriminator 1 view .LVU92
 534 0002 1378     		ldrb	r3, [r2]	@ zero_extendqisi2	@ MEM[(volatile unsigned char *)1073748008B], MEM[(volatile unsig
 535              	@ ../../peripheral_library/hal/m7221/src/halUART.c:215:     while (!(UART_REG8(UART_LSR) & UART_LSR
 536              		.loc 1 215 11 discriminator 1 view .LVU93
 537 0004 9B06     		lsls	r3, r3, #26	@, MEM[(volatile unsigned char *)1073748008B],
 538 0006 FCD5     		bpl	.L35		@,
 216:../../peripheral_library/hal/m7221/src/halUART.c **** 
 217:../../peripheral_library/hal/m7221/src/halUART.c ****     UART_REG8(UART_TX) = c;
 539              		.loc 1 217 5 is_stmt 1 view .LVU94
 540              	@ ../../peripheral_library/hal/m7221/src/halUART.c:217:     UART_REG8(UART_TX) = c;
 541              		.loc 1 217 24 is_stmt 0 view .LVU95
 542 0008 024B     		ldr	r3, .L38+4	@ tmp119,
 543 000a 1870     		strb	r0, [r3]	@ c, MEM[(volatile unsigned char *)1073747968B]
 544              	@ ../../peripheral_library/hal/m7221/src/halUART.c:218: }
 218:../../peripheral_library/hal/m7221/src/halUART.c **** }
 545              		.loc 1 218 1 view .LVU96
 546 000c 7047     		bx	lr	@
 547              	.L39:
 548 000e 00BF     		.align	2
 549              	.L38:
 550 0010 28180040 		.word	1073748008
 551 0014 00180040 		.word	1073747968
 552              		.cfi_endproc
 553              	.LFE8:
 554              		.size	uart_write_byte, .-uart_write_byte
 555              		.section	.text.uart_write_string,"ax",%progbits
 556              		.align	1
 557              		.global	uart_write_string
 558              		.syntax unified
ARM GAS  /tmp/ccs4mGQv.s 			page 15


 559              		.thumb
 560              		.thumb_func
 561              		.fpu fpv4-sp-d16
 562              		.type	uart_write_string, %function
 563              	uart_write_string:
 564              	.LVL15:
 565              	.LFB9:
 219:../../peripheral_library/hal/m7221/src/halUART.c **** 
 220:../../peripheral_library/hal/m7221/src/halUART.c **** // int fputc(int ch, FILE *f)
 221:../../peripheral_library/hal/m7221/src/halUART.c **** // {
 222:../../peripheral_library/hal/m7221/src/halUART.c ****     // f=f;
 223:../../peripheral_library/hal/m7221/src/halUART.c **** 
 224:../../peripheral_library/hal/m7221/src/halUART.c ****     // while (!(UART_REG8(UART_LSR) & UART_LSR_THRE));
 225:../../peripheral_library/hal/m7221/src/halUART.c **** 
 226:../../peripheral_library/hal/m7221/src/halUART.c ****     // UART_REG8(UART_TX) = ch;
 227:../../peripheral_library/hal/m7221/src/halUART.c **** 
 228:../../peripheral_library/hal/m7221/src/halUART.c ****     // return ch;
 229:../../peripheral_library/hal/m7221/src/halUART.c **** // }
 230:../../peripheral_library/hal/m7221/src/halUART.c **** 
 231:../../peripheral_library/hal/m7221/src/halUART.c **** 
 232:../../peripheral_library/hal/m7221/src/halUART.c **** // int fgetc(FILE *f)
 233:../../peripheral_library/hal/m7221/src/halUART.c **** // {
 234:../../peripheral_library/hal/m7221/src/halUART.c ****     // f=f;
 235:../../peripheral_library/hal/m7221/src/halUART.c **** 
 236:../../peripheral_library/hal/m7221/src/halUART.c ****     // while (!(UART_REG8(UART_LSR) & UART_LSR_DR));
 237:../../peripheral_library/hal/m7221/src/halUART.c **** 
 238:../../peripheral_library/hal/m7221/src/halUART.c ****     // return UART_REG8(UART_RX);//
 239:../../peripheral_library/hal/m7221/src/halUART.c **** 
 240:../../peripheral_library/hal/m7221/src/halUART.c **** // }
 241:../../peripheral_library/hal/m7221/src/halUART.c **** void uart_write_string(U8 *ptr)
 242:../../peripheral_library/hal/m7221/src/halUART.c **** {
 566              		.loc 1 242 1 is_stmt 1 view -0
 567              		.cfi_startproc
 568              		@ args = 0, pretend = 0, frame = 0
 569              		@ frame_needed = 0, uses_anonymous_args = 0
 243:../../peripheral_library/hal/m7221/src/halUART.c ****     while((*ptr)!=0)
 570              		.loc 1 243 5 view .LVU98
 571              	@ ../../peripheral_library/hal/m7221/src/halUART.c:242: {
 242:../../peripheral_library/hal/m7221/src/halUART.c ****     while((*ptr)!=0)
 572              		.loc 1 242 1 is_stmt 0 view .LVU99
 573 0000 08B5     		push	{r3, lr}	@
 574              		.cfi_def_cfa_offset 8
 575              		.cfi_offset 3, -8
 576              		.cfi_offset 14, -4
 577 0002 411E     		subs	r1, r0, #1	@ ivtmp.17, ptr,
 578              	.LVL16:
 579              	.L41:
 580              	@ ../../peripheral_library/hal/m7221/src/halUART.c:243:     while((*ptr)!=0)
 581              		.loc 1 243 12 view .LVU100
 582 0004 11F8010F 		ldrb	r0, [r1, #1]!	@ zero_extendqisi2	@ _1, MEM[base: _12, offset: 0B]
 583              	.LVL17:
 584              	@ ../../peripheral_library/hal/m7221/src/halUART.c:243:     while((*ptr)!=0)
 585              		.loc 1 243 10 view .LVU101
 586 0008 00B9     		cbnz	r0, .L42	@ _1,
 587              	@ ../../peripheral_library/hal/m7221/src/halUART.c:247: }
 244:../../peripheral_library/hal/m7221/src/halUART.c ****     {
 245:../../peripheral_library/hal/m7221/src/halUART.c ****     uart_write_byte(*ptr++);
ARM GAS  /tmp/ccs4mGQv.s 			page 16


 246:../../peripheral_library/hal/m7221/src/halUART.c ****     }
 247:../../peripheral_library/hal/m7221/src/halUART.c **** }
 588              		.loc 1 247 1 view .LVU102
 589 000a 08BD     		pop	{r3, pc}	@
 590              	.L42:
 245:../../peripheral_library/hal/m7221/src/halUART.c ****     }
 591              		.loc 1 245 5 is_stmt 1 view .LVU103
 592              	.LVL18:
 245:../../peripheral_library/hal/m7221/src/halUART.c ****     }
 593              		.loc 1 245 5 is_stmt 0 view .LVU104
 594 000c FFF7FEFF 		bl	uart_write_byte		@
 595              	.LVL19:
 596 0010 F8E7     		b	.L41		@
 597              		.cfi_endproc
 598              	.LFE9:
 599              		.size	uart_write_string, .-uart_write_string
 600              		.section	.text.uart_write_U8_hex,"ax",%progbits
 601              		.align	1
 602              		.global	uart_write_U8_hex
 603              		.syntax unified
 604              		.thumb
 605              		.thumb_func
 606              		.fpu fpv4-sp-d16
 607              		.type	uart_write_U8_hex, %function
 608              	uart_write_U8_hex:
 609              	.LVL20:
 610              	.LFB10:
 248:../../peripheral_library/hal/m7221/src/halUART.c **** 
 249:../../peripheral_library/hal/m7221/src/halUART.c **** //#if (BR_DEBUG_MSG || BOOT_TIME_MEASURE)
 250:../../peripheral_library/hal/m7221/src/halUART.c **** void uart_write_U8_hex(U8 c)
 251:../../peripheral_library/hal/m7221/src/halUART.c **** {
 611              		.loc 1 251 1 is_stmt 1 view -0
 612              		.cfi_startproc
 613              		@ args = 0, pretend = 0, frame = 0
 614              		@ frame_needed = 0, uses_anonymous_args = 0
 252:../../peripheral_library/hal/m7221/src/halUART.c ****     U8 tmp=0;
 615              		.loc 1 252 5 view .LVU106
 253:../../peripheral_library/hal/m7221/src/halUART.c ****     tmp=c;
 616              		.loc 1 253 5 view .LVU107
 254:../../peripheral_library/hal/m7221/src/halUART.c ****     if((c>>4)>=10)
 617              		.loc 1 254 5 view .LVU108
 618              	@ ../../peripheral_library/hal/m7221/src/halUART.c:251: {
 251:../../peripheral_library/hal/m7221/src/halUART.c ****     U8 tmp=0;
 619              		.loc 1 251 1 is_stmt 0 view .LVU109
 620 0000 0146     		mov	r1, r0	@ c, c
 621              	@ ../../peripheral_library/hal/m7221/src/halUART.c:254:     if((c>>4)>=10)
 622              		.loc 1 254 14 view .LVU110
 623 0002 0009     		lsrs	r0, r0, #4	@ _1, c,
 624              	.LVL21:
 625              	@ ../../peripheral_library/hal/m7221/src/halUART.c:254:     if((c>>4)>=10)
 626              		.loc 1 254 7 view .LVU111
 627 0004 0928     		cmp	r0, #9	@ _1,
 255:../../peripheral_library/hal/m7221/src/halUART.c ****     {
 256:../../peripheral_library/hal/m7221/src/halUART.c ****         c=(0x61+(c>>4)-10);
 628              		.loc 1 256 9 is_stmt 1 view .LVU112
 629              	.LVL22:
 257:../../peripheral_library/hal/m7221/src/halUART.c ****         uart_write_byte(c);
ARM GAS  /tmp/ccs4mGQv.s 			page 17


 630              		.loc 1 257 9 view .LVU113
 631 0006 8CBF     		ite	hi
 632 0008 5730     		addhi	r0, r0, #87	@, _1,
 633              	.LVL23:
 258:../../peripheral_library/hal/m7221/src/halUART.c ****     }
 259:../../peripheral_library/hal/m7221/src/halUART.c ****     else
 260:../../peripheral_library/hal/m7221/src/halUART.c ****     {
 261:../../peripheral_library/hal/m7221/src/halUART.c ****         c=(0x30+(c>>4));
 634              		.loc 1 261 9 view .LVU114
 262:../../peripheral_library/hal/m7221/src/halUART.c ****         uart_write_byte(c);
 635              		.loc 1 262 9 view .LVU115
 636 000a 3030     		addls	r0, r0, #48	@, _1,
 637              	.LVL24:
 638              	@ ../../peripheral_library/hal/m7221/src/halUART.c:251: {
 251:../../peripheral_library/hal/m7221/src/halUART.c ****     U8 tmp=0;
 639              		.loc 1 251 1 is_stmt 0 view .LVU116
 640 000c 08B5     		push	{r3, lr}	@
 641              		.cfi_def_cfa_offset 8
 642              		.cfi_offset 3, -8
 643              		.cfi_offset 14, -4
 644              	@ ../../peripheral_library/hal/m7221/src/halUART.c:262:         uart_write_byte(c);
 645              		.loc 1 262 9 view .LVU117
 646 000e FFF7FEFF 		bl	uart_write_byte		@
 647              	.LVL25:
 263:../../peripheral_library/hal/m7221/src/halUART.c ****     }
 264:../../peripheral_library/hal/m7221/src/halUART.c **** 
 265:../../peripheral_library/hal/m7221/src/halUART.c ****     c=tmp;
 648              		.loc 1 265 5 is_stmt 1 view .LVU118
 266:../../peripheral_library/hal/m7221/src/halUART.c ****     if((c&0x0f)>=10)
 649              		.loc 1 266 5 view .LVU119
 650 0012 01F00F00 		and	r0, r1, #15	@ _4, c,
 651              	@ ../../peripheral_library/hal/m7221/src/halUART.c:266:     if((c&0x0f)>=10)
 652              		.loc 1 266 7 is_stmt 0 view .LVU120
 653 0016 0928     		cmp	r0, #9	@ _4,
 267:../../peripheral_library/hal/m7221/src/halUART.c ****     {
 268:../../peripheral_library/hal/m7221/src/halUART.c ****         c=(0x61+(c&0x0f)-10);
 654              		.loc 1 268 9 is_stmt 1 view .LVU121
 655              	.LVL26:
 269:../../peripheral_library/hal/m7221/src/halUART.c ****         uart_write_byte(c);
 656              		.loc 1 269 9 view .LVU122
 657 0018 8CBF     		ite	hi
 658 001a 5730     		addhi	r0, r0, #87	@, _4,
 659              	.LVL27:
 270:../../peripheral_library/hal/m7221/src/halUART.c ****     }
 271:../../peripheral_library/hal/m7221/src/halUART.c ****     else
 272:../../peripheral_library/hal/m7221/src/halUART.c ****     {
 273:../../peripheral_library/hal/m7221/src/halUART.c ****         c=(0x30+(c&0x0f));
 660              		.loc 1 273 9 view .LVU123
 274:../../peripheral_library/hal/m7221/src/halUART.c ****         uart_write_byte(c);
 661              		.loc 1 274 9 view .LVU124
 662 001c 3030     		addls	r0, r0, #48	@, _4,
 663              	.LVL28:
 664              	@ ../../peripheral_library/hal/m7221/src/halUART.c:277: }
 275:../../peripheral_library/hal/m7221/src/halUART.c ****     }
 276:../../peripheral_library/hal/m7221/src/halUART.c **** 
 277:../../peripheral_library/hal/m7221/src/halUART.c **** }
 665              		.loc 1 277 1 is_stmt 0 view .LVU125
ARM GAS  /tmp/ccs4mGQv.s 			page 18


 666 001e BDE80840 		pop	{r3, lr}	@
 667              		.cfi_restore 14
 668              		.cfi_restore 3
 669              		.cfi_def_cfa_offset 0
 670              	@ ../../peripheral_library/hal/m7221/src/halUART.c:274:         uart_write_byte(c);
 274:../../peripheral_library/hal/m7221/src/halUART.c ****         uart_write_byte(c);
 671              		.loc 1 274 9 view .LVU126
 672 0022 FFF7FEBF 		b	uart_write_byte		@
 673              	.LVL29:
 274:../../peripheral_library/hal/m7221/src/halUART.c ****         uart_write_byte(c);
 674              		.loc 1 274 9 view .LVU127
 675              		.cfi_endproc
 676              	.LFE10:
 677              		.size	uart_write_U8_hex, .-uart_write_U8_hex
 678              		.section	.text.uart_write_U16_hex,"ax",%progbits
 679              		.align	1
 680              		.global	uart_write_U16_hex
 681              		.syntax unified
 682              		.thumb
 683              		.thumb_func
 684              		.fpu fpv4-sp-d16
 685              		.type	uart_write_U16_hex, %function
 686              	uart_write_U16_hex:
 687              	.LVL30:
 688              	.LFB11:
 278:../../peripheral_library/hal/m7221/src/halUART.c **** 
 279:../../peripheral_library/hal/m7221/src/halUART.c **** void uart_write_U16_hex(U16 val)
 280:../../peripheral_library/hal/m7221/src/halUART.c **** {
 689              		.loc 1 280 1 is_stmt 1 view -0
 690              		.cfi_startproc
 691              		@ args = 0, pretend = 0, frame = 0
 692              		@ frame_needed = 0, uses_anonymous_args = 0
 281:../../peripheral_library/hal/m7221/src/halUART.c ****     U16 tmp=0;
 693              		.loc 1 281 5 view .LVU129
 282:../../peripheral_library/hal/m7221/src/halUART.c ****     U8 *ptr=NULL;
 694              		.loc 1 282 5 view .LVU130
 283:../../peripheral_library/hal/m7221/src/halUART.c ****     int i=0;
 695              		.loc 1 283 5 view .LVU131
 284:../../peripheral_library/hal/m7221/src/halUART.c ****     tmp=val;
 696              		.loc 1 284 5 view .LVU132
 285:../../peripheral_library/hal/m7221/src/halUART.c **** 
 286:../../peripheral_library/hal/m7221/src/halUART.c ****     ptr = (U8 *) &tmp;
 697              		.loc 1 286 5 view .LVU133
 287:../../peripheral_library/hal/m7221/src/halUART.c ****     for(i=1;i>=0;i--)
 698              		.loc 1 287 5 view .LVU134
 288:../../peripheral_library/hal/m7221/src/halUART.c ****     {
 289:../../peripheral_library/hal/m7221/src/halUART.c ****         uart_write_U8_hex(ptr[i]);
 699              		.loc 1 289 9 view .LVU135
 700              	@ ../../peripheral_library/hal/m7221/src/halUART.c:280: {
 280:../../peripheral_library/hal/m7221/src/halUART.c ****     U16 tmp=0;
 701              		.loc 1 280 1 is_stmt 0 view .LVU136
 702 0000 10B5     		push	{r4, lr}	@
 703              		.cfi_def_cfa_offset 8
 704              		.cfi_offset 4, -8
 705              		.cfi_offset 14, -4
 706              	@ ../../peripheral_library/hal/m7221/src/halUART.c:280: {
 280:../../peripheral_library/hal/m7221/src/halUART.c ****     U16 tmp=0;
ARM GAS  /tmp/ccs4mGQv.s 			page 19


 707              		.loc 1 280 1 view .LVU137
 708 0002 0446     		mov	r4, r0	@ val, val
 709              	@ ../../peripheral_library/hal/m7221/src/halUART.c:289:         uart_write_U8_hex(ptr[i]);
 710              		.loc 1 289 9 view .LVU138
 711 0004 000A     		lsrs	r0, r0, #8	@, val,
 712              	.LVL31:
 713              		.loc 1 289 9 view .LVU139
 714 0006 FFF7FEFF 		bl	uart_write_U8_hex		@
 715              	.LVL32:
 716              		.loc 1 289 9 is_stmt 1 view .LVU140
 717 000a E0B2     		uxtb	r0, r4	@, val
 718              	@ ../../peripheral_library/hal/m7221/src/halUART.c:291: }
 290:../../peripheral_library/hal/m7221/src/halUART.c ****     }
 291:../../peripheral_library/hal/m7221/src/halUART.c **** }
 719              		.loc 1 291 1 is_stmt 0 view .LVU141
 720 000c BDE81040 		pop	{r4, lr}	@
 721              		.cfi_restore 14
 722              		.cfi_restore 4
 723              		.cfi_def_cfa_offset 0
 724              	@ ../../peripheral_library/hal/m7221/src/halUART.c:289:         uart_write_U8_hex(ptr[i]);
 289:../../peripheral_library/hal/m7221/src/halUART.c ****     }
 725              		.loc 1 289 9 view .LVU142
 726 0010 FFF7FEBF 		b	uart_write_U8_hex		@
 727              	.LVL33:
 728              		.cfi_endproc
 729              	.LFE11:
 730              		.size	uart_write_U16_hex, .-uart_write_U16_hex
 731              		.section	.text.uart_write_U32_hex,"ax",%progbits
 732              		.align	1
 733              		.global	uart_write_U32_hex
 734              		.syntax unified
 735              		.thumb
 736              		.thumb_func
 737              		.fpu fpv4-sp-d16
 738              		.type	uart_write_U32_hex, %function
 739              	uart_write_U32_hex:
 740              	.LVL34:
 741              	.LFB12:
 292:../../peripheral_library/hal/m7221/src/halUART.c **** 
 293:../../peripheral_library/hal/m7221/src/halUART.c **** void uart_write_U32_hex(U32 val)
 294:../../peripheral_library/hal/m7221/src/halUART.c **** {
 742              		.loc 1 294 1 is_stmt 1 view -0
 743              		.cfi_startproc
 744              		@ args = 0, pretend = 0, frame = 0
 745              		@ frame_needed = 0, uses_anonymous_args = 0
 295:../../peripheral_library/hal/m7221/src/halUART.c ****     U32 tmp=0;
 746              		.loc 1 295 5 view .LVU144
 296:../../peripheral_library/hal/m7221/src/halUART.c ****     U8 *ptr=NULL;
 747              		.loc 1 296 5 view .LVU145
 297:../../peripheral_library/hal/m7221/src/halUART.c ****     int i=0;
 748              		.loc 1 297 5 view .LVU146
 298:../../peripheral_library/hal/m7221/src/halUART.c ****     tmp=val;
 749              		.loc 1 298 5 view .LVU147
 299:../../peripheral_library/hal/m7221/src/halUART.c **** 
 300:../../peripheral_library/hal/m7221/src/halUART.c ****     ptr = (U8 *) &tmp;
 750              		.loc 1 300 5 view .LVU148
 301:../../peripheral_library/hal/m7221/src/halUART.c ****     for(i=3;i>=0;i--)
ARM GAS  /tmp/ccs4mGQv.s 			page 20


 751              		.loc 1 301 5 view .LVU149
 302:../../peripheral_library/hal/m7221/src/halUART.c ****     {
 303:../../peripheral_library/hal/m7221/src/halUART.c ****         uart_write_U8_hex(ptr[i]);
 752              		.loc 1 303 9 view .LVU150
 753              	@ ../../peripheral_library/hal/m7221/src/halUART.c:294: {
 294:../../peripheral_library/hal/m7221/src/halUART.c ****     U32 tmp=0;
 754              		.loc 1 294 1 is_stmt 0 view .LVU151
 755 0000 10B5     		push	{r4, lr}	@
 756              		.cfi_def_cfa_offset 8
 757              		.cfi_offset 4, -8
 758              		.cfi_offset 14, -4
 759              	@ ../../peripheral_library/hal/m7221/src/halUART.c:294: {
 294:../../peripheral_library/hal/m7221/src/halUART.c ****     U32 tmp=0;
 760              		.loc 1 294 1 view .LVU152
 761 0002 0446     		mov	r4, r0	@ val, val
 762              	@ ../../peripheral_library/hal/m7221/src/halUART.c:303:         uart_write_U8_hex(ptr[i]);
 763              		.loc 1 303 9 view .LVU153
 764 0004 000E     		lsrs	r0, r0, #24	@, val,
 765              	.LVL35:
 766              		.loc 1 303 9 view .LVU154
 767 0006 FFF7FEFF 		bl	uart_write_U8_hex		@
 768              	.LVL36:
 769              		.loc 1 303 9 is_stmt 1 view .LVU155
 770 000a C4F30740 		ubfx	r0, r4, #16, #8	@, val,,
 771 000e FFF7FEFF 		bl	uart_write_U8_hex		@
 772              	.LVL37:
 773              		.loc 1 303 9 view .LVU156
 774 0012 C4F30720 		ubfx	r0, r4, #8, #8	@, val,,
 775 0016 FFF7FEFF 		bl	uart_write_U8_hex		@
 776              	.LVL38:
 777              		.loc 1 303 9 view .LVU157
 778 001a E0B2     		uxtb	r0, r4	@, val
 779              	@ ../../peripheral_library/hal/m7221/src/halUART.c:305: }
 304:../../peripheral_library/hal/m7221/src/halUART.c ****     }
 305:../../peripheral_library/hal/m7221/src/halUART.c **** }
 780              		.loc 1 305 1 is_stmt 0 view .LVU158
 781 001c BDE81040 		pop	{r4, lr}	@
 782              		.cfi_restore 14
 783              		.cfi_restore 4
 784              		.cfi_def_cfa_offset 0
 785              	.LVL39:
 786              	@ ../../peripheral_library/hal/m7221/src/halUART.c:303:         uart_write_U8_hex(ptr[i]);
 303:../../peripheral_library/hal/m7221/src/halUART.c ****     }
 787              		.loc 1 303 9 view .LVU159
 788 0020 FFF7FEBF 		b	uart_write_U8_hex		@
 789              	.LVL40:
 790              		.cfi_endproc
 791              	.LFE12:
 792              		.size	uart_write_U32_hex, .-uart_write_U32_hex
 793              		.text
 794              	.Letext0: