ARM GAS  /tmp/ccmuTuf3.s 			page 1


   1              		.cpu cortex-m4
   2              		.eabi_attribute 27, 1	@ Tag_ABI_HardFP_use
   3              		.eabi_attribute 20, 1	@ Tag_ABI_FP_denormal
   4              		.eabi_attribute 21, 1	@ Tag_ABI_FP_exceptions
   5              		.eabi_attribute 23, 3	@ Tag_ABI_FP_number_model
   6              		.eabi_attribute 24, 1	@ Tag_ABI_align8_needed
   7              		.eabi_attribute 25, 1	@ Tag_ABI_align8_preserved
   8              		.eabi_attribute 26, 1	@ Tag_ABI_enum_size
   9              		.eabi_attribute 30, 2	@ Tag_ABI_optimization_goals
  10              		.eabi_attribute 34, 1	@ Tag_CPU_unaligned_access
  11              		.eabi_attribute 18, 4	@ Tag_ABI_PCS_wchar_t
  12              		.file	"list.c"
  13              	@ GNU C89 (GNU Tools for Arm Embedded Processors 8-2018-q4-major) version 8.2.1 20181213 (release) 
  14              	@	compiled by GNU C version 4.8.4, GMP version 6.1.0, MPFR version 3.1.4, MPC version 1.0.3, isl ve
  15              	
  16              	@ GGC heuristics: --param ggc-min-expand=96 --param ggc-min-heapsize=125422
  17              	@ options passed:  -isystem =/include/newlib-nano -I . -I .
  18              	@ -I ../../kernel/FreeRTOS/Source/include
  19              	@ -I ../../kernel/FreeRTOS/Source/portable/GCC/ARM_CM4F
  20              	@ -I ../../kernel/FreeRTOS/Demo/Common/include
  21              	@ -I ../../kernel/FreeRTOS-Plus/Source/FreeRTOS-Plus-CLI
  22              	@ -I ../../peripheral_library/inc -I ../../peripheral_library/hal/m7221/inc
  23              	@ -I ../../CMSIS -I ../../main_full -I ../../3rd/rokid/./ -I /.
  24              	@ -I /../../kernel/FreeRTOS/Source/include
  25              	@ -I /../../kernel/FreeRTOS/Source/portable/GCC/ARM_CM4F
  26              	@ -I /../../kernel/FreeRTOS/Demo/Common/include
  27              	@ -I /../../kernel/FreeRTOS-Plus/Source/FreeRTOS-Plus-CLI
  28              	@ -I /../../peripheral_library/inc
  29              	@ -I /../../peripheral_library/hal/m7221/inc -I /../../CMSIS
  30              	@ -I /../../main_full -I /../../3rd/rokid/./
  31              	@ -imultilib thumb/v7e-m+fp/softfp
  32              	@ -iprefix /home/gu/code/freeRTOS10/vendor/mstar/CM4/tools/gcc-arm-none-eabi-8-2018-q4-major/bin/..
  33              	@ -isysroot /home/gu/code/freeRTOS10/vendor/mstar/CM4/tools/gcc-arm-none-eabi-8-2018-q4-major/bin/.
  34              	@ -MD out/list.d -MF out/list.d -MP -MQ out/list.o -D__USES_INITFINI__
  35              	@ -D CONFIG_BENCH=0 -D CONFIG_SYS_DBG_LEVEL=0xFFFFFFFF -D CONFIG_VOC_MIC=6
  36              	@ -D CONFIG_AUD_I2S -D CONFIG_AUD_AEC -D CONFIG_VOC_MIC_MAPPING
  37              	@ -D CONFIG_VOC_SWHPF -D CONFIG_VOC_SW_SRC48K -D ARM_MATH_CM4
  38              	@ -D BOOTROM_VERSION_ASIC ../../kernel/FreeRTOS/Source/list.c
  39              	@ -mcpu=cortex-m4 -mthumb -mthumb-interwork -mfloat-abi=softfp
  40              	@ -mfpu=fpv4-sp-d16 -march=armv7e-m+fp -auxbase-strip out/list.o -g -ggdb3
  41              	@ -O3 -Wall -Wstrict-prototypes -Wextra -std=gnu90 -ffunction-sections
  42              	@ -fdata-sections -fno-builtin-printf -fverbose-asm
  43              	@ options enabled:  -faggressive-loop-optimizations -falign-jumps
  44              	@ -falign-labels -falign-loops -fauto-inc-dec -fbranch-count-reg
  45              	@ -fcaller-saves -fchkp-check-incomplete-type -fchkp-check-read
  46              	@ -fchkp-check-write -fchkp-instrument-calls -fchkp-narrow-bounds
  47              	@ -fchkp-optimize -fchkp-store-bounds -fchkp-use-static-bounds
  48              	@ -fchkp-use-static-const-bounds -fchkp-use-wrappers -fcode-hoisting
  49              	@ -fcombine-stack-adjustments -fcommon -fcompare-elim -fcprop-registers
  50              	@ -fcrossjumping -fcse-follow-jumps -fdata-sections -fdefer-pop
  51              	@ -fdelete-null-pointer-checks -fdevirtualize -fdevirtualize-speculatively
  52              	@ -fdwarf2-cfi-asm -fearly-inlining -feliminate-unused-debug-types
  53              	@ -fexpensive-optimizations -fforward-propagate -ffp-int-builtin-inexact
  54              	@ -ffunction-cse -ffunction-sections -fgcse -fgcse-after-reload -fgcse-lm
  55              	@ -fgnu-runtime -fgnu-unique -fguess-branch-probability
  56              	@ -fhoist-adjacent-loads -fident -fif-conversion -fif-conversion2
  57              	@ -findirect-inlining -finline -finline-atomics -finline-functions
ARM GAS  /tmp/ccmuTuf3.s 			page 2


  58              	@ -finline-functions-called-once -finline-small-functions -fipa-bit-cp
  59              	@ -fipa-cp -fipa-cp-clone -fipa-icf -fipa-icf-functions -fipa-icf-variables
  60              	@ -fipa-profile -fipa-pure-const -fipa-ra -fipa-reference -fipa-sra
  61              	@ -fipa-vrp -fira-hoist-pressure -fira-share-save-slots
  62              	@ -fira-share-spill-slots -fisolate-erroneous-paths-dereference -fivopts
  63              	@ -fkeep-static-consts -fleading-underscore -flifetime-dse
  64              	@ -floop-interchange -floop-unroll-and-jam -flra-remat
  65              	@ -flto-odr-type-merging -fmath-errno -fmerge-constants
  66              	@ -fmerge-debug-strings -fmove-loop-invariants -fomit-frame-pointer
  67              	@ -foptimize-sibling-calls -foptimize-strlen -fpartial-inlining
  68              	@ -fpeel-loops -fpeephole -fpeephole2 -fplt -fpredictive-commoning
  69              	@ -fprefetch-loop-arrays -freg-struct-return -freorder-blocks
  70              	@ -freorder-functions -frerun-cse-after-loop
  71              	@ -fsched-critical-path-heuristic -fsched-dep-count-heuristic
  72              	@ -fsched-group-heuristic -fsched-interblock -fsched-last-insn-heuristic
  73              	@ -fsched-pressure -fsched-rank-heuristic -fsched-spec
  74              	@ -fsched-spec-insn-heuristic -fsched-stalled-insns-dep -fschedule-insns
  75              	@ -fschedule-insns2 -fsection-anchors -fsemantic-interposition
  76              	@ -fshow-column -fshrink-wrap -fshrink-wrap-separate -fsigned-zeros
  77              	@ -fsplit-ivs-in-unroller -fsplit-loops -fsplit-paths -fsplit-wide-types
  78              	@ -fssa-backprop -fssa-phiopt -fstdarg-opt -fstore-merging
  79              	@ -fstrict-aliasing -fstrict-volatile-bitfields -fsync-libcalls
  80              	@ -fthread-jumps -ftoplevel-reorder -ftrapping-math -ftree-bit-ccp
  81              	@ -ftree-builtin-call-dce -ftree-ccp -ftree-ch -ftree-coalesce-vars
  82              	@ -ftree-copy-prop -ftree-cselim -ftree-dce -ftree-dominator-opts
  83              	@ -ftree-dse -ftree-forwprop -ftree-fre -ftree-loop-distribute-patterns
  84              	@ -ftree-loop-distribution -ftree-loop-if-convert -ftree-loop-im
  85              	@ -ftree-loop-ivcanon -ftree-loop-optimize -ftree-loop-vectorize
  86              	@ -ftree-parallelize-loops= -ftree-partial-pre -ftree-phiprop -ftree-pre
  87              	@ -ftree-pta -ftree-reassoc -ftree-scev-cprop -ftree-sink
  88              	@ -ftree-slp-vectorize -ftree-slsr -ftree-sra -ftree-switch-conversion
  89              	@ -ftree-tail-merge -ftree-ter -ftree-vrp -funit-at-a-time -funswitch-loops
  90              	@ -fvar-tracking -fvar-tracking-assignments -fverbose-asm
  91              	@ -fzero-initialized-in-bss -masm-syntax-unified -mbe32 -mlittle-endian
  92              	@ -mpic-data-is-text-relative -msched-prolog -mthumb -munaligned-access
  93              	@ -mvectorize-with-neon-quad
  94              	
  95              		.text
  96              	.Ltext0:
  97              		.cfi_sections	.debug_frame
  98              		.section	.text.vListInitialise,"ax",%progbits
  99              		.align	1
 100              		.p2align 2,,3
 101              		.global	vListInitialise
 102              		.arch armv7e-m
 103              		.syntax unified
 104              		.thumb
 105              		.thumb_func
 106              		.fpu fpv4-sp-d16
 107              		.type	vListInitialise, %function
 108              	vListInitialise:
 109              	.LVL0:
 110              	.LFB4:
 111              		.file 1 "../../kernel/FreeRTOS/Source/list.c"
   1:../../kernel/FreeRTOS/Source/list.c **** /*
   2:../../kernel/FreeRTOS/Source/list.c ****  * FreeRTOS Kernel V10.0.1
   3:../../kernel/FreeRTOS/Source/list.c ****  * Copyright (C) 2017 Amazon.com, Inc. or its affiliates.  All Rights Reserved.
ARM GAS  /tmp/ccmuTuf3.s 			page 3


   4:../../kernel/FreeRTOS/Source/list.c ****  *
   5:../../kernel/FreeRTOS/Source/list.c ****  * Permission is hereby granted, free of charge, to any person obtaining a copy of
   6:../../kernel/FreeRTOS/Source/list.c ****  * this software and associated documentation files (the "Software"), to deal in
   7:../../kernel/FreeRTOS/Source/list.c ****  * the Software without restriction, including without limitation the rights to
   8:../../kernel/FreeRTOS/Source/list.c ****  * use, copy, modify, merge, publish, distribute, sublicense, and/or sell copies of
   9:../../kernel/FreeRTOS/Source/list.c ****  * the Software, and to permit persons to whom the Software is furnished to do so,
  10:../../kernel/FreeRTOS/Source/list.c ****  * subject to the following conditions:
  11:../../kernel/FreeRTOS/Source/list.c ****  *
  12:../../kernel/FreeRTOS/Source/list.c ****  * The above copyright notice and this permission notice shall be included in all
  13:../../kernel/FreeRTOS/Source/list.c ****  * copies or substantial portions of the Software.
  14:../../kernel/FreeRTOS/Source/list.c ****  *
  15:../../kernel/FreeRTOS/Source/list.c ****  * THE SOFTWARE IS PROVIDED "AS IS", WITHOUT WARRANTY OF ANY KIND, EXPRESS OR
  16:../../kernel/FreeRTOS/Source/list.c ****  * IMPLIED, INCLUDING BUT NOT LIMITED TO THE WARRANTIES OF MERCHANTABILITY, FITNESS
  17:../../kernel/FreeRTOS/Source/list.c ****  * FOR A PARTICULAR PURPOSE AND NONINFRINGEMENT. IN NO EVENT SHALL THE AUTHORS OR
  18:../../kernel/FreeRTOS/Source/list.c ****  * COPYRIGHT HOLDERS BE LIABLE FOR ANY CLAIM, DAMAGES OR OTHER LIABILITY, WHETHER
  19:../../kernel/FreeRTOS/Source/list.c ****  * IN AN ACTION OF CONTRACT, TORT OR OTHERWISE, ARISING FROM, OUT OF OR IN
  20:../../kernel/FreeRTOS/Source/list.c ****  * CONNECTION WITH THE SOFTWARE OR THE USE OR OTHER DEALINGS IN THE SOFTWARE.
  21:../../kernel/FreeRTOS/Source/list.c ****  *
  22:../../kernel/FreeRTOS/Source/list.c ****  * http://www.FreeRTOS.org
  23:../../kernel/FreeRTOS/Source/list.c ****  * http://aws.amazon.com/freertos
  24:../../kernel/FreeRTOS/Source/list.c ****  *
  25:../../kernel/FreeRTOS/Source/list.c ****  * 1 tab == 4 spaces!
  26:../../kernel/FreeRTOS/Source/list.c ****  */
  27:../../kernel/FreeRTOS/Source/list.c **** 
  28:../../kernel/FreeRTOS/Source/list.c **** 
  29:../../kernel/FreeRTOS/Source/list.c **** #include <stdlib.h>
  30:../../kernel/FreeRTOS/Source/list.c **** #include "FreeRTOS.h"
  31:../../kernel/FreeRTOS/Source/list.c **** #include "list.h"
  32:../../kernel/FreeRTOS/Source/list.c **** 
  33:../../kernel/FreeRTOS/Source/list.c **** /*-----------------------------------------------------------
  34:../../kernel/FreeRTOS/Source/list.c ****  * PUBLIC LIST API documented in list.h
  35:../../kernel/FreeRTOS/Source/list.c ****  *----------------------------------------------------------*/
  36:../../kernel/FreeRTOS/Source/list.c **** 
  37:../../kernel/FreeRTOS/Source/list.c **** void vListInitialise( List_t * const pxList )
  38:../../kernel/FreeRTOS/Source/list.c **** {
 112              		.loc 1 38 1 view -0
 113              		.cfi_startproc
 114              		@ args = 0, pretend = 0, frame = 0
 115              		@ frame_needed = 0, uses_anonymous_args = 0
 116              		@ link register save eliminated.
  39:../../kernel/FreeRTOS/Source/list.c **** 	/* The list structure contains a list item which is used to mark the
  40:../../kernel/FreeRTOS/Source/list.c **** 	end of the list.  To initialise the list the list end is inserted
  41:../../kernel/FreeRTOS/Source/list.c **** 	as the only list entry. */
  42:../../kernel/FreeRTOS/Source/list.c **** 	pxList->pxIndex = ( ListItem_t * ) &( pxList->xListEnd );			/*lint !e826 !e740 The mini list struc
 117              		.loc 1 42 2 view .LVU1
 118              	@ ../../kernel/FreeRTOS/Source/list.c:42: 	pxList->pxIndex = ( ListItem_t * ) &( pxList->xListEnd )
 119              		.loc 1 42 37 is_stmt 0 view .LVU2
 120 0000 00F10803 		add	r3, r0, #8	@ _1, pxList,
 121              	@ ../../kernel/FreeRTOS/Source/list.c:46: 	pxList->xListEnd.xItemValue = portMAX_DELAY;
  43:../../kernel/FreeRTOS/Source/list.c **** 
  44:../../kernel/FreeRTOS/Source/list.c **** 	/* The list end value is the highest possible value in the list to
  45:../../kernel/FreeRTOS/Source/list.c **** 	ensure it remains at the end of the list. */
  46:../../kernel/FreeRTOS/Source/list.c **** 	pxList->xListEnd.xItemValue = portMAX_DELAY;
 122              		.loc 1 46 30 view .LVU3
 123 0004 4FF0FF31 		mov	r1, #-1	@ tmp112,
 124              	@ ../../kernel/FreeRTOS/Source/list.c:53: 	pxList->uxNumberOfItems = ( UBaseType_t ) 0U;
  47:../../kernel/FreeRTOS/Source/list.c **** 
ARM GAS  /tmp/ccmuTuf3.s 			page 4


  48:../../kernel/FreeRTOS/Source/list.c **** 	/* The list end next and previous pointers point to itself so we know
  49:../../kernel/FreeRTOS/Source/list.c **** 	when the list is empty. */
  50:../../kernel/FreeRTOS/Source/list.c **** 	pxList->xListEnd.pxNext = ( ListItem_t * ) &( pxList->xListEnd );	/*lint !e826 !e740 The mini list
  51:../../kernel/FreeRTOS/Source/list.c **** 	pxList->xListEnd.pxPrevious = ( ListItem_t * ) &( pxList->xListEnd );/*lint !e826 !e740 The mini l
  52:../../kernel/FreeRTOS/Source/list.c **** 
  53:../../kernel/FreeRTOS/Source/list.c **** 	pxList->uxNumberOfItems = ( UBaseType_t ) 0U;
 125              		.loc 1 53 26 view .LVU4
 126 0008 0022     		movs	r2, #0	@ tmp113,
 127              	@ ../../kernel/FreeRTOS/Source/list.c:46: 	pxList->xListEnd.xItemValue = portMAX_DELAY;
  46:../../kernel/FreeRTOS/Source/list.c **** 
 128              		.loc 1 46 30 view .LVU5
 129 000a 8160     		str	r1, [r0, #8]	@ tmp112, pxList_2(D)->xListEnd.xItemValue
 130              	@ ../../kernel/FreeRTOS/Source/list.c:53: 	pxList->uxNumberOfItems = ( UBaseType_t ) 0U;
 131              		.loc 1 53 26 view .LVU6
 132 000c 0260     		str	r2, [r0]	@ tmp113, pxList_2(D)->uxNumberOfItems
 133              	@ ../../kernel/FreeRTOS/Source/list.c:42: 	pxList->pxIndex = ( ListItem_t * ) &( pxList->xListEnd )
  42:../../kernel/FreeRTOS/Source/list.c **** 
 134              		.loc 1 42 18 view .LVU7
 135 000e 4360     		str	r3, [r0, #4]	@ _1, pxList_2(D)->pxIndex
  46:../../kernel/FreeRTOS/Source/list.c **** 
 136              		.loc 1 46 2 is_stmt 1 view .LVU8
  50:../../kernel/FreeRTOS/Source/list.c **** 	pxList->xListEnd.pxPrevious = ( ListItem_t * ) &( pxList->xListEnd );/*lint !e826 !e740 The mini l
 137              		.loc 1 50 2 view .LVU9
 138              	@ ../../kernel/FreeRTOS/Source/list.c:51: 	pxList->xListEnd.pxPrevious = ( ListItem_t * ) &( pxList
  51:../../kernel/FreeRTOS/Source/list.c **** 
 139              		.loc 1 51 30 is_stmt 0 view .LVU10
 140 0010 C0E90333 		strd	r3, r3, [r0, #12]	@ _1, _1, pxList,
 141              		.loc 1 53 2 is_stmt 1 view .LVU11
  54:../../kernel/FreeRTOS/Source/list.c **** 
  55:../../kernel/FreeRTOS/Source/list.c **** 	/* Write known values into the list if
  56:../../kernel/FreeRTOS/Source/list.c **** 	configUSE_LIST_DATA_INTEGRITY_CHECK_BYTES is set to 1. */
  57:../../kernel/FreeRTOS/Source/list.c **** 	listSET_LIST_INTEGRITY_CHECK_1_VALUE( pxList );
 142              		.loc 1 57 48 view .LVU12
  58:../../kernel/FreeRTOS/Source/list.c **** 	listSET_LIST_INTEGRITY_CHECK_2_VALUE( pxList );
 143              		.loc 1 58 48 view .LVU13
 144              	@ ../../kernel/FreeRTOS/Source/list.c:59: }
  59:../../kernel/FreeRTOS/Source/list.c **** }
 145              		.loc 1 59 1 is_stmt 0 view .LVU14
 146 0014 7047     		bx	lr	@
 147              		.cfi_endproc
 148              	.LFE4:
 149              		.size	vListInitialise, .-vListInitialise
 150 0016 00BF     		.section	.text.vListInitialiseItem,"ax",%progbits
 151              		.align	1
 152              		.p2align 2,,3
 153              		.global	vListInitialiseItem
 154              		.syntax unified
 155              		.thumb
 156              		.thumb_func
 157              		.fpu fpv4-sp-d16
 158              		.type	vListInitialiseItem, %function
 159              	vListInitialiseItem:
 160              	.LVL1:
 161              	.LFB5:
  60:../../kernel/FreeRTOS/Source/list.c **** /*-----------------------------------------------------------*/
  61:../../kernel/FreeRTOS/Source/list.c **** 
  62:../../kernel/FreeRTOS/Source/list.c **** void vListInitialiseItem( ListItem_t * const pxItem )
ARM GAS  /tmp/ccmuTuf3.s 			page 5


  63:../../kernel/FreeRTOS/Source/list.c **** {
 162              		.loc 1 63 1 is_stmt 1 view -0
 163              		.cfi_startproc
 164              		@ args = 0, pretend = 0, frame = 0
 165              		@ frame_needed = 0, uses_anonymous_args = 0
 166              		@ link register save eliminated.
  64:../../kernel/FreeRTOS/Source/list.c **** 	/* Make sure the list item is not recorded as being on a list. */
  65:../../kernel/FreeRTOS/Source/list.c **** 	pxItem->pvContainer = NULL;
 167              		.loc 1 65 2 view .LVU16
 168              	@ ../../kernel/FreeRTOS/Source/list.c:65: 	pxItem->pvContainer = NULL;
 169              		.loc 1 65 22 is_stmt 0 view .LVU17
 170 0000 0023     		movs	r3, #0	@ tmp111,
 171 0002 0361     		str	r3, [r0, #16]	@ tmp111, pxItem_2(D)->pvContainer
  66:../../kernel/FreeRTOS/Source/list.c **** 
  67:../../kernel/FreeRTOS/Source/list.c **** 	/* Write known values into the list item if
  68:../../kernel/FreeRTOS/Source/list.c **** 	configUSE_LIST_DATA_INTEGRITY_CHECK_BYTES is set to 1. */
  69:../../kernel/FreeRTOS/Source/list.c **** 	listSET_FIRST_LIST_ITEM_INTEGRITY_CHECK_VALUE( pxItem );
 172              		.loc 1 69 57 is_stmt 1 view .LVU18
  70:../../kernel/FreeRTOS/Source/list.c **** 	listSET_SECOND_LIST_ITEM_INTEGRITY_CHECK_VALUE( pxItem );
 173              		.loc 1 70 58 view .LVU19
 174              	@ ../../kernel/FreeRTOS/Source/list.c:71: }
  71:../../kernel/FreeRTOS/Source/list.c **** }
 175              		.loc 1 71 1 is_stmt 0 view .LVU20
 176 0004 7047     		bx	lr	@
 177              		.cfi_endproc
 178              	.LFE5:
 179              		.size	vListInitialiseItem, .-vListInitialiseItem
 180 0006 00BF     		.section	.text.vListInsertEnd,"ax",%progbits
 181              		.align	1
 182              		.p2align 2,,3
 183              		.global	vListInsertEnd
 184              		.syntax unified
 185              		.thumb
 186              		.thumb_func
 187              		.fpu fpv4-sp-d16
 188              		.type	vListInsertEnd, %function
 189              	vListInsertEnd:
 190              	.LVL2:
 191              	.LFB6:
  72:../../kernel/FreeRTOS/Source/list.c **** /*-----------------------------------------------------------*/
  73:../../kernel/FreeRTOS/Source/list.c **** 
  74:../../kernel/FreeRTOS/Source/list.c **** void vListInsertEnd( List_t * const pxList, ListItem_t * const pxNewListItem )
  75:../../kernel/FreeRTOS/Source/list.c **** {
 192              		.loc 1 75 1 is_stmt 1 view -0
 193              		.cfi_startproc
 194              		@ args = 0, pretend = 0, frame = 0
 195              		@ frame_needed = 0, uses_anonymous_args = 0
 196              		@ link register save eliminated.
  76:../../kernel/FreeRTOS/Source/list.c **** ListItem_t * const pxIndex = pxList->pxIndex;
 197              		.loc 1 76 1 view .LVU22
 198              	@ ../../kernel/FreeRTOS/Source/list.c:76: ListItem_t * const pxIndex = pxList->pxIndex;
 199              		.loc 1 76 20 is_stmt 0 view .LVU23
 200 0000 4368     		ldr	r3, [r0, #4]	@ pxIndex, pxList_6(D)->pxIndex
 201              	.LVL3:
  77:../../kernel/FreeRTOS/Source/list.c **** 
  78:../../kernel/FreeRTOS/Source/list.c **** 	/* Only effective when configASSERT() is also defined, these tests may catch
  79:../../kernel/FreeRTOS/Source/list.c **** 	the list data structures being overwritten in memory.  They will not catch
ARM GAS  /tmp/ccmuTuf3.s 			page 6


  80:../../kernel/FreeRTOS/Source/list.c **** 	data errors caused by incorrect configuration or use of FreeRTOS. */
  81:../../kernel/FreeRTOS/Source/list.c **** 	listTEST_LIST_INTEGRITY( pxList );
 202              		.loc 1 81 35 is_stmt 1 view .LVU24
  82:../../kernel/FreeRTOS/Source/list.c **** 	listTEST_LIST_ITEM_INTEGRITY( pxNewListItem );
 203              		.loc 1 82 47 view .LVU25
  83:../../kernel/FreeRTOS/Source/list.c **** 
  84:../../kernel/FreeRTOS/Source/list.c **** 	/* Insert a new list item into pxList, but rather than sort the list,
  85:../../kernel/FreeRTOS/Source/list.c **** 	makes the new list item the last item to be removed by a call to
  86:../../kernel/FreeRTOS/Source/list.c **** 	listGET_OWNER_OF_NEXT_ENTRY(). */
  87:../../kernel/FreeRTOS/Source/list.c **** 	pxNewListItem->pxNext = pxIndex;
 204              		.loc 1 87 2 view .LVU26
 205              	@ ../../kernel/FreeRTOS/Source/list.c:99: 	( pxList->uxNumberOfItems )++;
  88:../../kernel/FreeRTOS/Source/list.c **** 	pxNewListItem->pxPrevious = pxIndex->pxPrevious;
  89:../../kernel/FreeRTOS/Source/list.c **** 
  90:../../kernel/FreeRTOS/Source/list.c **** 	/* Only used during decision coverage testing. */
  91:../../kernel/FreeRTOS/Source/list.c **** 	mtCOVERAGE_TEST_DELAY();
  92:../../kernel/FreeRTOS/Source/list.c **** 
  93:../../kernel/FreeRTOS/Source/list.c **** 	pxIndex->pxPrevious->pxNext = pxNewListItem;
  94:../../kernel/FreeRTOS/Source/list.c **** 	pxIndex->pxPrevious = pxNewListItem;
  95:../../kernel/FreeRTOS/Source/list.c **** 
  96:../../kernel/FreeRTOS/Source/list.c **** 	/* Remember which list the item is in. */
  97:../../kernel/FreeRTOS/Source/list.c **** 	pxNewListItem->pvContainer = ( void * ) pxList;
  98:../../kernel/FreeRTOS/Source/list.c **** 
  99:../../kernel/FreeRTOS/Source/list.c **** 	( pxList->uxNumberOfItems )++;
 206              		.loc 1 99 10 is_stmt 0 view .LVU27
 207 0002 0268     		ldr	r2, [r0]	@ _3, pxList_6(D)->uxNumberOfItems
 208              	@ ../../kernel/FreeRTOS/Source/list.c:75: {
  75:../../kernel/FreeRTOS/Source/list.c **** ListItem_t * const pxIndex = pxList->pxIndex;
 209              		.loc 1 75 1 view .LVU28
 210 0004 10B4     		push	{r4}	@
 211              		.cfi_def_cfa_offset 4
 212              		.cfi_offset 4, -4
 213              	@ ../../kernel/FreeRTOS/Source/list.c:88: 	pxNewListItem->pxPrevious = pxIndex->pxPrevious;
  88:../../kernel/FreeRTOS/Source/list.c **** 	pxNewListItem->pxPrevious = pxIndex->pxPrevious;
 214              		.loc 1 88 37 view .LVU29
 215 0006 9C68     		ldr	r4, [r3, #8]	@ _1, pxIndex_7->pxPrevious
 216              	@ ../../kernel/FreeRTOS/Source/list.c:88: 	pxNewListItem->pxPrevious = pxIndex->pxPrevious;
  88:../../kernel/FreeRTOS/Source/list.c **** 	pxNewListItem->pxPrevious = pxIndex->pxPrevious;
 217              		.loc 1 88 28 view .LVU30
 218 0008 8C60     		str	r4, [r1, #8]	@ _1, pxNewListItem_8(D)->pxPrevious
 219              	@ ../../kernel/FreeRTOS/Source/list.c:93: 	pxIndex->pxPrevious->pxNext = pxNewListItem;
  93:../../kernel/FreeRTOS/Source/list.c **** 	pxIndex->pxPrevious = pxNewListItem;
 220              		.loc 1 93 30 view .LVU31
 221 000a 9C68     		ldr	r4, [r3, #8]	@ pxIndex_7->pxPrevious, pxIndex_7->pxPrevious
 222              	@ ../../kernel/FreeRTOS/Source/list.c:87: 	pxNewListItem->pxNext = pxIndex;
  87:../../kernel/FreeRTOS/Source/list.c **** 	pxNewListItem->pxPrevious = pxIndex->pxPrevious;
 223              		.loc 1 87 24 view .LVU32
 224 000c 4B60     		str	r3, [r1, #4]	@ pxIndex, pxNewListItem_8(D)->pxNext
  88:../../kernel/FreeRTOS/Source/list.c **** 
 225              		.loc 1 88 2 is_stmt 1 view .LVU33
  91:../../kernel/FreeRTOS/Source/list.c **** 
 226              		.loc 1 91 25 view .LVU34
  93:../../kernel/FreeRTOS/Source/list.c **** 	pxIndex->pxPrevious = pxNewListItem;
 227              		.loc 1 93 2 view .LVU35
 228              	@ ../../kernel/FreeRTOS/Source/list.c:99: 	( pxList->uxNumberOfItems )++;
 229              		.loc 1 99 29 is_stmt 0 view .LVU36
 230 000e 0132     		adds	r2, r2, #1	@ _4, _3,
ARM GAS  /tmp/ccmuTuf3.s 			page 7


 231              	@ ../../kernel/FreeRTOS/Source/list.c:93: 	pxIndex->pxPrevious->pxNext = pxNewListItem;
  93:../../kernel/FreeRTOS/Source/list.c **** 	pxIndex->pxPrevious = pxNewListItem;
 232              		.loc 1 93 30 view .LVU37
 233 0010 6160     		str	r1, [r4, #4]	@ pxNewListItem, _2->pxNext
  94:../../kernel/FreeRTOS/Source/list.c **** 
 234              		.loc 1 94 2 is_stmt 1 view .LVU38
 235              	@ ../../kernel/FreeRTOS/Source/list.c:94: 	pxIndex->pxPrevious = pxNewListItem;
  94:../../kernel/FreeRTOS/Source/list.c **** 
 236              		.loc 1 94 22 is_stmt 0 view .LVU39
 237 0012 9960     		str	r1, [r3, #8]	@ pxNewListItem, pxIndex_7->pxPrevious
  97:../../kernel/FreeRTOS/Source/list.c **** 
 238              		.loc 1 97 2 is_stmt 1 view .LVU40
 239              	@ ../../kernel/FreeRTOS/Source/list.c:100: }
 100:../../kernel/FreeRTOS/Source/list.c **** }
 240              		.loc 1 100 1 is_stmt 0 view .LVU41
 241 0014 5DF8044B 		ldr	r4, [sp], #4	@,
 242              		.cfi_restore 4
 243              		.cfi_def_cfa_offset 0
 244              	@ ../../kernel/FreeRTOS/Source/list.c:97: 	pxNewListItem->pvContainer = ( void * ) pxList;
  97:../../kernel/FreeRTOS/Source/list.c **** 
 245              		.loc 1 97 29 view .LVU42
 246 0018 0861     		str	r0, [r1, #16]	@ pxList, pxNewListItem_8(D)->pvContainer
  99:../../kernel/FreeRTOS/Source/list.c **** }
 247              		.loc 1 99 2 is_stmt 1 view .LVU43
 248              	@ ../../kernel/FreeRTOS/Source/list.c:99: 	( pxList->uxNumberOfItems )++;
  99:../../kernel/FreeRTOS/Source/list.c **** }
 249              		.loc 1 99 29 is_stmt 0 view .LVU44
 250 001a 0260     		str	r2, [r0]	@ _4, pxList_6(D)->uxNumberOfItems
 251              	@ ../../kernel/FreeRTOS/Source/list.c:100: }
 252              		.loc 1 100 1 view .LVU45
 253 001c 7047     		bx	lr	@
 254              		.cfi_endproc
 255              	.LFE6:
 256              		.size	vListInsertEnd, .-vListInsertEnd
 257 001e 00BF     		.section	.text.vListInsert,"ax",%progbits
 258              		.align	1
 259              		.p2align 2,,3
 260              		.global	vListInsert
 261              		.syntax unified
 262              		.thumb
 263              		.thumb_func
 264              		.fpu fpv4-sp-d16
 265              		.type	vListInsert, %function
 266              	vListInsert:
 267              	.LVL4:
 268              	.LFB7:
 101:../../kernel/FreeRTOS/Source/list.c **** /*-----------------------------------------------------------*/
 102:../../kernel/FreeRTOS/Source/list.c **** 
 103:../../kernel/FreeRTOS/Source/list.c **** void vListInsert( List_t * const pxList, ListItem_t * const pxNewListItem )
 104:../../kernel/FreeRTOS/Source/list.c **** {
 269              		.loc 1 104 1 is_stmt 1 view -0
 270              		.cfi_startproc
 271              		@ args = 0, pretend = 0, frame = 0
 272              		@ frame_needed = 0, uses_anonymous_args = 0
 273              		@ link register save eliminated.
 105:../../kernel/FreeRTOS/Source/list.c **** ListItem_t *pxIterator;
 274              		.loc 1 105 1 view .LVU47
ARM GAS  /tmp/ccmuTuf3.s 			page 8


 106:../../kernel/FreeRTOS/Source/list.c **** const TickType_t xValueOfInsertion = pxNewListItem->xItemValue;
 275              		.loc 1 106 1 view .LVU48
 276              	@ ../../kernel/FreeRTOS/Source/list.c:104: {
 104:../../kernel/FreeRTOS/Source/list.c **** ListItem_t *pxIterator;
 277              		.loc 1 104 1 is_stmt 0 view .LVU49
 278 0000 30B4     		push	{r4, r5}	@
 279              		.cfi_def_cfa_offset 8
 280              		.cfi_offset 4, -8
 281              		.cfi_offset 5, -4
 282              	@ ../../kernel/FreeRTOS/Source/list.c:106: const TickType_t xValueOfInsertion = pxNewListItem->xIte
 283              		.loc 1 106 18 view .LVU50
 284 0002 0D68     		ldr	r5, [r1]	@ xValueOfInsertion, pxNewListItem_9(D)->xItemValue
 285              	.LVL5:
 107:../../kernel/FreeRTOS/Source/list.c **** 
 108:../../kernel/FreeRTOS/Source/list.c **** 	/* Only effective when configASSERT() is also defined, these tests may catch
 109:../../kernel/FreeRTOS/Source/list.c **** 	the list data structures being overwritten in memory.  They will not catch
 110:../../kernel/FreeRTOS/Source/list.c **** 	data errors caused by incorrect configuration or use of FreeRTOS. */
 111:../../kernel/FreeRTOS/Source/list.c **** 	listTEST_LIST_INTEGRITY( pxList );
 286              		.loc 1 111 35 is_stmt 1 view .LVU51
 112:../../kernel/FreeRTOS/Source/list.c **** 	listTEST_LIST_ITEM_INTEGRITY( pxNewListItem );
 287              		.loc 1 112 47 view .LVU52
 113:../../kernel/FreeRTOS/Source/list.c **** 
 114:../../kernel/FreeRTOS/Source/list.c **** 	/* Insert the new list item into the list, sorted in xItemValue order.
 115:../../kernel/FreeRTOS/Source/list.c **** 
 116:../../kernel/FreeRTOS/Source/list.c **** 	If the list already contains a list item with the same item value then the
 117:../../kernel/FreeRTOS/Source/list.c **** 	new list item should be placed after it.  This ensures that TCB's which are
 118:../../kernel/FreeRTOS/Source/list.c **** 	stored in ready lists (all of which have the same xItemValue value) get a
 119:../../kernel/FreeRTOS/Source/list.c **** 	share of the CPU.  However, if the xItemValue is the same as the back marker
 120:../../kernel/FreeRTOS/Source/list.c **** 	the iteration loop below will not end.  Therefore the value is checked
 121:../../kernel/FreeRTOS/Source/list.c **** 	first, and the algorithm slightly modified if necessary. */
 122:../../kernel/FreeRTOS/Source/list.c **** 	if( xValueOfInsertion == portMAX_DELAY )
 288              		.loc 1 122 2 view .LVU53
 289              	@ ../../kernel/FreeRTOS/Source/list.c:122: 	if( xValueOfInsertion == portMAX_DELAY )
 290              		.loc 1 122 4 is_stmt 0 view .LVU54
 291 0004 6B1C     		adds	r3, r5, #1	@, xValueOfInsertion,
 292 0006 11D0     		beq	.L12		@,
 123:../../kernel/FreeRTOS/Source/list.c **** 	{
 124:../../kernel/FreeRTOS/Source/list.c **** 		pxIterator = pxList->xListEnd.pxPrevious;
 125:../../kernel/FreeRTOS/Source/list.c **** 	}
 126:../../kernel/FreeRTOS/Source/list.c **** 	else
 127:../../kernel/FreeRTOS/Source/list.c **** 	{
 128:../../kernel/FreeRTOS/Source/list.c **** 		/* *** NOTE ***********************************************************
 129:../../kernel/FreeRTOS/Source/list.c **** 		If you find your application is crashing here then likely causes are
 130:../../kernel/FreeRTOS/Source/list.c **** 		listed below.  In addition see http://www.freertos.org/FAQHelp.html for
 131:../../kernel/FreeRTOS/Source/list.c **** 		more tips, and ensure configASSERT() is defined!
 132:../../kernel/FreeRTOS/Source/list.c **** 		http://www.freertos.org/a00110.html#configASSERT
 133:../../kernel/FreeRTOS/Source/list.c **** 
 134:../../kernel/FreeRTOS/Source/list.c **** 			1) Stack overflow -
 135:../../kernel/FreeRTOS/Source/list.c **** 			   see http://www.freertos.org/Stacks-and-stack-overflow-checking.html
 136:../../kernel/FreeRTOS/Source/list.c **** 			2) Incorrect interrupt priority assignment, especially on Cortex-M
 137:../../kernel/FreeRTOS/Source/list.c **** 			   parts where numerically high priority values denote low actual
 138:../../kernel/FreeRTOS/Source/list.c **** 			   interrupt priorities, which can seem counter intuitive.  See
 139:../../kernel/FreeRTOS/Source/list.c **** 			   http://www.freertos.org/RTOS-Cortex-M3-M4.html and the definition
 140:../../kernel/FreeRTOS/Source/list.c **** 			   of configMAX_SYSCALL_INTERRUPT_PRIORITY on
 141:../../kernel/FreeRTOS/Source/list.c **** 			   http://www.freertos.org/a00110.html
 142:../../kernel/FreeRTOS/Source/list.c **** 			3) Calling an API function from within a critical section or when
 143:../../kernel/FreeRTOS/Source/list.c **** 			   the scheduler is suspended, or calling an API function that does
ARM GAS  /tmp/ccmuTuf3.s 			page 9


 144:../../kernel/FreeRTOS/Source/list.c **** 			   not end in "FromISR" from an interrupt.
 145:../../kernel/FreeRTOS/Source/list.c **** 			4) Using a queue or semaphore before it has been initialised or
 146:../../kernel/FreeRTOS/Source/list.c **** 			   before the scheduler has been started (are interrupts firing
 147:../../kernel/FreeRTOS/Source/list.c **** 			   before vTaskStartScheduler() has been called?).
 148:../../kernel/FreeRTOS/Source/list.c **** 		**********************************************************************/
 149:../../kernel/FreeRTOS/Source/list.c **** 
 150:../../kernel/FreeRTOS/Source/list.c **** 		for( pxIterator = ( ListItem_t * ) &( pxList->xListEnd ); pxIterator->pxNext->xItemValue <= xValu
 293              		.loc 1 150 3 is_stmt 1 view .LVU55
 294              	@ ../../kernel/FreeRTOS/Source/list.c:150: 		for( pxIterator = ( ListItem_t * ) &( pxList->xListEnd
 295              		.loc 1 150 19 is_stmt 0 view .LVU56
 296 0008 00F10802 		add	r2, r0, #8	@ pxIterator, pxList,
 297              	.LVL6:
 298              	@ ../../kernel/FreeRTOS/Source/list.c:150: 		for( pxIterator = ( ListItem_t * ) &( pxList->xListEnd
 299              		.loc 1 150 3 view .LVU57
 300 000c 00E0     		b	.L9		@
 301              	.L10:
 302              		.loc 1 150 3 view .LVU58
 303 000e 1A46     		mov	r2, r3	@ pxIterator, _1
 304              	.LVL7:
 305              	.L9:
 306              	@ ../../kernel/FreeRTOS/Source/list.c:150: 		for( pxIterator = ( ListItem_t * ) &( pxList->xListEnd
 307              		.loc 1 150 71 discriminator 1 view .LVU59
 308 0010 5368     		ldr	r3, [r2, #4]	@ _1, pxIterator_6->pxNext
 309              	@ ../../kernel/FreeRTOS/Source/list.c:150: 		for( pxIterator = ( ListItem_t * ) &( pxList->xListEnd
 310              		.loc 1 150 79 discriminator 1 view .LVU60
 311 0012 1C68     		ldr	r4, [r3]	@ _2, _1->xItemValue
 312              	@ ../../kernel/FreeRTOS/Source/list.c:150: 		for( pxIterator = ( ListItem_t * ) &( pxList->xListEnd
 313              		.loc 1 150 3 discriminator 1 view .LVU61
 314 0014 AC42     		cmp	r4, r5	@ _2, xValueOfInsertion
 315 0016 FAD9     		bls	.L10		@,
 316              	.L8:
 151:../../kernel/FreeRTOS/Source/list.c **** 		{
 152:../../kernel/FreeRTOS/Source/list.c **** 			/* There is nothing to do here, just iterating to the wanted
 153:../../kernel/FreeRTOS/Source/list.c **** 			insertion position. */
 154:../../kernel/FreeRTOS/Source/list.c **** 		}
 155:../../kernel/FreeRTOS/Source/list.c **** 	}
 156:../../kernel/FreeRTOS/Source/list.c **** 
 157:../../kernel/FreeRTOS/Source/list.c **** 	pxNewListItem->pxNext = pxIterator->pxNext;
 317              		.loc 1 157 2 is_stmt 1 view .LVU62
 318              	@ ../../kernel/FreeRTOS/Source/list.c:166: 	( pxList->uxNumberOfItems )++;
 158:../../kernel/FreeRTOS/Source/list.c **** 	pxNewListItem->pxNext->pxPrevious = pxNewListItem;
 159:../../kernel/FreeRTOS/Source/list.c **** 	pxNewListItem->pxPrevious = pxIterator;
 160:../../kernel/FreeRTOS/Source/list.c **** 	pxIterator->pxNext = pxNewListItem;
 161:../../kernel/FreeRTOS/Source/list.c **** 
 162:../../kernel/FreeRTOS/Source/list.c **** 	/* Remember which list the item is in.  This allows fast removal of the
 163:../../kernel/FreeRTOS/Source/list.c **** 	item later. */
 164:../../kernel/FreeRTOS/Source/list.c **** 	pxNewListItem->pvContainer = ( void * ) pxList;
 165:../../kernel/FreeRTOS/Source/list.c **** 
 166:../../kernel/FreeRTOS/Source/list.c **** 	( pxList->uxNumberOfItems )++;
 319              		.loc 1 166 10 is_stmt 0 view .LVU63
 320 0018 0468     		ldr	r4, [r0]	@ _4, pxList_11(D)->uxNumberOfItems
 321              	@ ../../kernel/FreeRTOS/Source/list.c:157: 	pxNewListItem->pxNext = pxIterator->pxNext;
 157:../../kernel/FreeRTOS/Source/list.c **** 	pxNewListItem->pxNext->pxPrevious = pxNewListItem;
 322              		.loc 1 157 24 view .LVU64
 323 001a 4B60     		str	r3, [r1, #4]	@ _1, pxNewListItem_9(D)->pxNext
 158:../../kernel/FreeRTOS/Source/list.c **** 	pxNewListItem->pxNext->pxPrevious = pxNewListItem;
 324              		.loc 1 158 2 is_stmt 1 view .LVU65
ARM GAS  /tmp/ccmuTuf3.s 			page 10


 325              	@ ../../kernel/FreeRTOS/Source/list.c:166: 	( pxList->uxNumberOfItems )++;
 326              		.loc 1 166 29 is_stmt 0 view .LVU66
 327 001c 0134     		adds	r4, r4, #1	@ _5, _4,
 328              	@ ../../kernel/FreeRTOS/Source/list.c:158: 	pxNewListItem->pxNext->pxPrevious = pxNewListItem;
 158:../../kernel/FreeRTOS/Source/list.c **** 	pxNewListItem->pxNext->pxPrevious = pxNewListItem;
 329              		.loc 1 158 36 view .LVU67
 330 001e 9960     		str	r1, [r3, #8]	@ pxNewListItem, prephitmp_21->pxPrevious
 159:../../kernel/FreeRTOS/Source/list.c **** 	pxIterator->pxNext = pxNewListItem;
 331              		.loc 1 159 2 is_stmt 1 view .LVU68
 332              	@ ../../kernel/FreeRTOS/Source/list.c:159: 	pxNewListItem->pxPrevious = pxIterator;
 159:../../kernel/FreeRTOS/Source/list.c **** 	pxIterator->pxNext = pxNewListItem;
 333              		.loc 1 159 28 is_stmt 0 view .LVU69
 334 0020 8A60     		str	r2, [r1, #8]	@ pxIterator, pxNewListItem_9(D)->pxPrevious
 160:../../kernel/FreeRTOS/Source/list.c **** 
 335              		.loc 1 160 2 is_stmt 1 view .LVU70
 336              	@ ../../kernel/FreeRTOS/Source/list.c:160: 	pxIterator->pxNext = pxNewListItem;
 160:../../kernel/FreeRTOS/Source/list.c **** 
 337              		.loc 1 160 21 is_stmt 0 view .LVU71
 338 0022 5160     		str	r1, [r2, #4]	@ pxNewListItem, pxIterator_7->pxNext
 164:../../kernel/FreeRTOS/Source/list.c **** 
 339              		.loc 1 164 2 is_stmt 1 view .LVU72
 340              	@ ../../kernel/FreeRTOS/Source/list.c:164: 	pxNewListItem->pvContainer = ( void * ) pxList;
 164:../../kernel/FreeRTOS/Source/list.c **** 
 341              		.loc 1 164 29 is_stmt 0 view .LVU73
 342 0024 0861     		str	r0, [r1, #16]	@ pxList, pxNewListItem_9(D)->pvContainer
 343              		.loc 1 166 2 is_stmt 1 view .LVU74
 344              	@ ../../kernel/FreeRTOS/Source/list.c:166: 	( pxList->uxNumberOfItems )++;
 345              		.loc 1 166 29 is_stmt 0 view .LVU75
 346 0026 0460     		str	r4, [r0]	@ _5, pxList_11(D)->uxNumberOfItems
 347              	@ ../../kernel/FreeRTOS/Source/list.c:167: }
 167:../../kernel/FreeRTOS/Source/list.c **** }
 348              		.loc 1 167 1 view .LVU76
 349 0028 30BC     		pop	{r4, r5}	@
 350              		.cfi_remember_state
 351              		.cfi_restore 5
 352              		.cfi_restore 4
 353              		.cfi_def_cfa_offset 0
 354              	.LVL8:
 355              		.loc 1 167 1 view .LVU77
 356 002a 7047     		bx	lr	@
 357              	.LVL9:
 358              	.L12:
 359              		.cfi_restore_state
 124:../../kernel/FreeRTOS/Source/list.c **** 	}
 360              		.loc 1 124 3 is_stmt 1 view .LVU78
 361              	@ ../../kernel/FreeRTOS/Source/list.c:124: 		pxIterator = pxList->xListEnd.pxPrevious;
 124:../../kernel/FreeRTOS/Source/list.c **** 	}
 362              		.loc 1 124 14 is_stmt 0 view .LVU79
 363 002c 0269     		ldr	r2, [r0, #16]	@ pxIterator, pxList_11(D)->xListEnd.pxPrevious
 364              	.LVL10:
 124:../../kernel/FreeRTOS/Source/list.c **** 	}
 365              		.loc 1 124 14 view .LVU80
 366 002e 5368     		ldr	r3, [r2, #4]	@ _1, pxIterator_12->pxNext
 367 0030 F2E7     		b	.L8		@
 368              		.cfi_endproc
 369              	.LFE7:
 370              		.size	vListInsert, .-vListInsert
ARM GAS  /tmp/ccmuTuf3.s 			page 11


 371 0032 00BF     		.section	.text.uxListRemove,"ax",%progbits
 372              		.align	1
 373              		.p2align 2,,3
 374              		.global	uxListRemove
 375              		.syntax unified
 376              		.thumb
 377              		.thumb_func
 378              		.fpu fpv4-sp-d16
 379              		.type	uxListRemove, %function
 380              	uxListRemove:
 381              	.LVL11:
 382              	.LFB8:
 168:../../kernel/FreeRTOS/Source/list.c **** /*-----------------------------------------------------------*/
 169:../../kernel/FreeRTOS/Source/list.c **** 
 170:../../kernel/FreeRTOS/Source/list.c **** UBaseType_t uxListRemove( ListItem_t * const pxItemToRemove )
 171:../../kernel/FreeRTOS/Source/list.c **** {
 383              		.loc 1 171 1 is_stmt 1 view -0
 384              		.cfi_startproc
 385              		@ args = 0, pretend = 0, frame = 0
 386              		@ frame_needed = 0, uses_anonymous_args = 0
 387              		@ link register save eliminated.
 172:../../kernel/FreeRTOS/Source/list.c **** /* The list item knows which list it is in.  Obtain the list from the list
 173:../../kernel/FreeRTOS/Source/list.c **** item. */
 174:../../kernel/FreeRTOS/Source/list.c **** List_t * const pxList = ( List_t * ) pxItemToRemove->pvContainer;
 388              		.loc 1 174 1 view .LVU82
 389              	@ ../../kernel/FreeRTOS/Source/list.c:174: List_t * const pxList = ( List_t * ) pxItemToRemove->pvC
 390              		.loc 1 174 16 is_stmt 0 view .LVU83
 391 0000 0369     		ldr	r3, [r0, #16]	@ pxList, pxItemToRemove_8(D)->pvContainer
 392              	.LVL12:
 175:../../kernel/FreeRTOS/Source/list.c **** 
 176:../../kernel/FreeRTOS/Source/list.c **** 	pxItemToRemove->pxNext->pxPrevious = pxItemToRemove->pxPrevious;
 393              		.loc 1 176 2 is_stmt 1 view .LVU84
 394              	@ ../../kernel/FreeRTOS/Source/list.c:171: {
 171:../../kernel/FreeRTOS/Source/list.c **** /* The list item knows which list it is in.  Obtain the list from the list
 395              		.loc 1 171 1 is_stmt 0 view .LVU85
 396 0002 10B4     		push	{r4}	@
 397              		.cfi_def_cfa_offset 4
 398              		.cfi_offset 4, -4
 399              	@ ../../kernel/FreeRTOS/Source/list.c:176: 	pxItemToRemove->pxNext->pxPrevious = pxItemToRemove->px
 400              		.loc 1 176 53 view .LVU86
 401 0004 D0E90112 		ldrd	r1, r2, [r0, #4]	@ _1, _2, pxItemToRemove,
 402              	@ ../../kernel/FreeRTOS/Source/list.c:183: 	if( pxList->pxIndex == pxItemToRemove )
 177:../../kernel/FreeRTOS/Source/list.c **** 	pxItemToRemove->pxPrevious->pxNext = pxItemToRemove->pxNext;
 178:../../kernel/FreeRTOS/Source/list.c **** 
 179:../../kernel/FreeRTOS/Source/list.c **** 	/* Only used during decision coverage testing. */
 180:../../kernel/FreeRTOS/Source/list.c **** 	mtCOVERAGE_TEST_DELAY();
 181:../../kernel/FreeRTOS/Source/list.c **** 
 182:../../kernel/FreeRTOS/Source/list.c **** 	/* Make sure the index is left pointing to a valid item. */
 183:../../kernel/FreeRTOS/Source/list.c **** 	if( pxList->pxIndex == pxItemToRemove )
 403              		.loc 1 183 4 view .LVU87
 404 0008 5C68     		ldr	r4, [r3, #4]	@ pxList_9->pxIndex, pxList_9->pxIndex
 405              	@ ../../kernel/FreeRTOS/Source/list.c:176: 	pxItemToRemove->pxNext->pxPrevious = pxItemToRemove->px
 176:../../kernel/FreeRTOS/Source/list.c **** 	pxItemToRemove->pxPrevious->pxNext = pxItemToRemove->pxNext;
 406              		.loc 1 176 37 view .LVU88
 407 000a 8A60     		str	r2, [r1, #8]	@ _2, _1->pxPrevious
 177:../../kernel/FreeRTOS/Source/list.c **** 	pxItemToRemove->pxPrevious->pxNext = pxItemToRemove->pxNext;
 408              		.loc 1 177 2 is_stmt 1 view .LVU89
ARM GAS  /tmp/ccmuTuf3.s 			page 12


 409              	@ ../../kernel/FreeRTOS/Source/list.c:183: 	if( pxList->pxIndex == pxItemToRemove )
 410              		.loc 1 183 4 is_stmt 0 view .LVU90
 411 000c 8442     		cmp	r4, r0	@ pxList_9->pxIndex, pxItemToRemove
 412              	@ ../../kernel/FreeRTOS/Source/list.c:177: 	pxItemToRemove->pxPrevious->pxNext = pxItemToRemove->px
 177:../../kernel/FreeRTOS/Source/list.c **** 	pxItemToRemove->pxPrevious->pxNext = pxItemToRemove->pxNext;
 413              		.loc 1 177 37 view .LVU91
 414 000e 5160     		str	r1, [r2, #4]	@ _1, _2->pxNext
 180:../../kernel/FreeRTOS/Source/list.c **** 
 415              		.loc 1 180 25 is_stmt 1 view .LVU92
 416              		.loc 1 183 2 view .LVU93
 184:../../kernel/FreeRTOS/Source/list.c **** 	{
 185:../../kernel/FreeRTOS/Source/list.c **** 		pxList->pxIndex = pxItemToRemove->pxPrevious;
 417              		.loc 1 185 3 view .LVU94
 418              	@ ../../kernel/FreeRTOS/Source/list.c:185: 		pxList->pxIndex = pxItemToRemove->pxPrevious;
 419              		.loc 1 185 19 is_stmt 0 view .LVU95
 420 0010 08BF     		it	eq
 421 0012 5A60     		streq	r2, [r3, #4]	@ _2, pxList_9->pxIndex
 186:../../kernel/FreeRTOS/Source/list.c **** 	}
 187:../../kernel/FreeRTOS/Source/list.c **** 	else
 188:../../kernel/FreeRTOS/Source/list.c **** 	{
 189:../../kernel/FreeRTOS/Source/list.c **** 		mtCOVERAGE_TEST_MARKER();
 422              		.loc 1 189 27 is_stmt 1 view .LVU96
 190:../../kernel/FreeRTOS/Source/list.c **** 	}
 191:../../kernel/FreeRTOS/Source/list.c **** 
 192:../../kernel/FreeRTOS/Source/list.c **** 	pxItemToRemove->pvContainer = NULL;
 423              		.loc 1 192 2 view .LVU97
 424              	@ ../../kernel/FreeRTOS/Source/list.c:193: 	( pxList->uxNumberOfItems )--;
 193:../../kernel/FreeRTOS/Source/list.c **** 	( pxList->uxNumberOfItems )--;
 425              		.loc 1 193 10 is_stmt 0 view .LVU98
 426 0014 1A68     		ldr	r2, [r3]	@ _4, pxList_9->uxNumberOfItems
 427              	@ ../../kernel/FreeRTOS/Source/list.c:196: }
 194:../../kernel/FreeRTOS/Source/list.c **** 
 195:../../kernel/FreeRTOS/Source/list.c **** 	return pxList->uxNumberOfItems;
 196:../../kernel/FreeRTOS/Source/list.c **** }
 428              		.loc 1 196 1 view .LVU99
 429 0016 5DF8044B 		ldr	r4, [sp], #4	@,
 430              		.cfi_restore 4
 431              		.cfi_def_cfa_offset 0
 432              	@ ../../kernel/FreeRTOS/Source/list.c:192: 	pxItemToRemove->pvContainer = NULL;
 192:../../kernel/FreeRTOS/Source/list.c **** 	( pxList->uxNumberOfItems )--;
 433              		.loc 1 192 30 view .LVU100
 434 001a 0021     		movs	r1, #0	@ tmp119,
 435              	@ ../../kernel/FreeRTOS/Source/list.c:193: 	( pxList->uxNumberOfItems )--;
 193:../../kernel/FreeRTOS/Source/list.c **** 	( pxList->uxNumberOfItems )--;
 436              		.loc 1 193 29 view .LVU101
 437 001c 013A     		subs	r2, r2, #1	@ _5, _4,
 438              	@ ../../kernel/FreeRTOS/Source/list.c:192: 	pxItemToRemove->pvContainer = NULL;
 192:../../kernel/FreeRTOS/Source/list.c **** 	( pxList->uxNumberOfItems )--;
 439              		.loc 1 192 30 view .LVU102
 440 001e 0161     		str	r1, [r0, #16]	@ tmp119, pxItemToRemove_8(D)->pvContainer
 193:../../kernel/FreeRTOS/Source/list.c **** 	( pxList->uxNumberOfItems )--;
 441              		.loc 1 193 2 is_stmt 1 view .LVU103
 442              	@ ../../kernel/FreeRTOS/Source/list.c:193: 	( pxList->uxNumberOfItems )--;
 193:../../kernel/FreeRTOS/Source/list.c **** 	( pxList->uxNumberOfItems )--;
 443              		.loc 1 193 29 is_stmt 0 view .LVU104
 444 0020 1A60     		str	r2, [r3]	@ _5, pxList_9->uxNumberOfItems
 195:../../kernel/FreeRTOS/Source/list.c **** }
ARM GAS  /tmp/ccmuTuf3.s 			page 13


 445              		.loc 1 195 2 is_stmt 1 view .LVU105
 446              	@ ../../kernel/FreeRTOS/Source/list.c:195: 	return pxList->uxNumberOfItems;
 195:../../kernel/FreeRTOS/Source/list.c **** }
 447              		.loc 1 195 15 is_stmt 0 view .LVU106
 448 0022 1868     		ldr	r0, [r3]	@ <retval>, pxList_9->uxNumberOfItems
 449              	.LVL13:
 450              	@ ../../kernel/FreeRTOS/Source/list.c:196: }
 451              		.loc 1 196 1 view .LVU107
 452 0024 7047     		bx	lr	@
 453              		.cfi_endproc
 454              	.LFE8:
 455              		.size	uxListRemove, .-uxListRemove
 456 0026 00BF     		.text
 457              	.Letext0:
 458              		.file 2 "/home/gu/code/freeRTOS10/vendor/mstar/CM4/tools/gcc-arm-none-eabi-8-2018-q4-major/arm-non
 459              		.file 3 "/home/gu/code/freeRTOS10/vendor/mstar/CM4/tools/gcc-arm-none-eabi-8-2018-q4-major/arm-non
 460              		.file 4 "/home/gu/code/freeRTOS10/vendor/mstar/CM4/tools/gcc-arm-none-eabi-8-2018-q4-major/arm-non
 461              		.file 5 "/home/gu/code/freeRTOS10/vendor/mstar/CM4/tools/gcc-arm-none-eabi-8-2018-q4-major/lib/gcc
 462              		.file 6 "/home/gu/code/freeRTOS10/vendor/mstar/CM4/tools/gcc-arm-none-eabi-8-2018-q4-major/arm-non
 463              		.file 7 "/home/gu/code/freeRTOS10/vendor/mstar/CM4/tools/gcc-arm-none-eabi-8-2018-q4-major/arm-non
 464              		.file 8 "/home/gu/code/freeRTOS10/vendor/mstar/CM4/tools/gcc-arm-none-eabi-8-2018-q4-major/arm-non
 465              		.file 9 "../../kernel/FreeRTOS/Source/portable/GCC/ARM_CM4F/portmacro.h"
 466              		.file 10 "../../kernel/FreeRTOS/Source/include/list.h"