ARM GAS  /tmp/ccNf4zwh.s 			page 1


   1              		.cpu cortex-m4
   2              		.eabi_attribute 27, 1	@ Tag_ABI_HardFP_use
   3              		.eabi_attribute 20, 1	@ Tag_ABI_FP_denormal
   4              		.eabi_attribute 21, 1	@ Tag_ABI_FP_exceptions
   5              		.eabi_attribute 23, 3	@ Tag_ABI_FP_number_model
   6              		.eabi_attribute 24, 1	@ Tag_ABI_align8_needed
   7              		.eabi_attribute 25, 1	@ Tag_ABI_align8_preserved
   8              		.eabi_attribute 26, 1	@ Tag_ABI_enum_size
   9              		.eabi_attribute 30, 2	@ Tag_ABI_optimization_goals
  10              		.eabi_attribute 34, 1	@ Tag_CPU_unaligned_access
  11              		.eabi_attribute 18, 4	@ Tag_ABI_PCS_wchar_t
  12              		.file	"mbx_task.c"
  13              	@ GNU C89 (GNU Tools for Arm Embedded Processors 8-2018-q4-major) version 8.2.1 20181213 (release) 
  14              	@	compiled by GNU C version 4.8.4, GMP version 6.1.0, MPFR version 3.1.4, MPC version 1.0.3, isl ve
  15              	
  16              	@ GGC heuristics: --param ggc-min-expand=96 --param ggc-min-heapsize=125422
  17              	@ options passed:  -isystem =/include/newlib-nano -I . -I .
  18              	@ -I ../../kernel/FreeRTOS/Source/include
  19              	@ -I ../../kernel/FreeRTOS/Source/portable/GCC/ARM_CM4F
  20              	@ -I ../../kernel/FreeRTOS/Demo/Common/include
  21              	@ -I ../../kernel/FreeRTOS-Plus/Source/FreeRTOS-Plus-CLI
  22              	@ -I ../../peripheral_library/inc -I ../../peripheral_library/hal/m7221/inc
  23              	@ -I ../../CMSIS -I ../../main_full -I ../../3rd/rokid/./ -I /.
  24              	@ -I /../../kernel/FreeRTOS/Source/include
  25              	@ -I /../../kernel/FreeRTOS/Source/portable/GCC/ARM_CM4F
  26              	@ -I /../../kernel/FreeRTOS/Demo/Common/include
  27              	@ -I /../../kernel/FreeRTOS-Plus/Source/FreeRTOS-Plus-CLI
  28              	@ -I /../../peripheral_library/inc
  29              	@ -I /../../peripheral_library/hal/m7221/inc -I /../../CMSIS
  30              	@ -I /../../main_full -I /../../3rd/rokid/./
  31              	@ -imultilib thumb/v7e-m+fp/softfp
  32              	@ -iprefix /home/gu/code/freeRTOS10/vendor/mstar/CM4/tools/gcc-arm-none-eabi-8-2018-q4-major/bin/..
  33              	@ -isysroot /home/gu/code/freeRTOS10/vendor/mstar/CM4/tools/gcc-arm-none-eabi-8-2018-q4-major/bin/.
  34              	@ -MD out/mbx_task.d -MF out/mbx_task.d -MP -MQ out/mbx_task.o
  35              	@ -D__USES_INITFINI__ -D CONFIG_BENCH=0 -D CONFIG_SYS_DBG_LEVEL=0xFFFFFFFF
  36              	@ -D CONFIG_VOC_MIC=6 -D CONFIG_AUD_I2S -D CONFIG_AUD_AEC
  37              	@ -D CONFIG_VOC_MIC_MAPPING -D CONFIG_VOC_SWHPF -D CONFIG_VOC_SW_SRC48K
  38              	@ -D ARM_MATH_CM4 -D BOOTROM_VERSION_ASIC ../../main_full/mbx_task.c
  39              	@ -mcpu=cortex-m4 -mthumb -mthumb-interwork -mfloat-abi=softfp
  40              	@ -mfpu=fpv4-sp-d16 -march=armv7e-m+fp -auxbase-strip out/mbx_task.o -g
  41              	@ -ggdb3 -O3 -Wall -Wstrict-prototypes -Wextra -std=gnu90
  42              	@ -ffunction-sections -fdata-sections -fno-builtin-printf -fverbose-asm
  43              	@ options enabled:  -faggressive-loop-optimizations -falign-jumps
  44              	@ -falign-labels -falign-loops -fauto-inc-dec -fbranch-count-reg
  45              	@ -fcaller-saves -fchkp-check-incomplete-type -fchkp-check-read
  46              	@ -fchkp-check-write -fchkp-instrument-calls -fchkp-narrow-bounds
  47              	@ -fchkp-optimize -fchkp-store-bounds -fchkp-use-static-bounds
  48              	@ -fchkp-use-static-const-bounds -fchkp-use-wrappers -fcode-hoisting
  49              	@ -fcombine-stack-adjustments -fcommon -fcompare-elim -fcprop-registers
  50              	@ -fcrossjumping -fcse-follow-jumps -fdata-sections -fdefer-pop
  51              	@ -fdelete-null-pointer-checks -fdevirtualize -fdevirtualize-speculatively
  52              	@ -fdwarf2-cfi-asm -fearly-inlining -feliminate-unused-debug-types
  53              	@ -fexpensive-optimizations -fforward-propagate -ffp-int-builtin-inexact
  54              	@ -ffunction-cse -ffunction-sections -fgcse -fgcse-after-reload -fgcse-lm
  55              	@ -fgnu-runtime -fgnu-unique -fguess-branch-probability
  56              	@ -fhoist-adjacent-loads -fident -fif-conversion -fif-conversion2
  57              	@ -findirect-inlining -finline -finline-atomics -finline-functions
ARM GAS  /tmp/ccNf4zwh.s 			page 2


  58              	@ -finline-functions-called-once -finline-small-functions -fipa-bit-cp
  59              	@ -fipa-cp -fipa-cp-clone -fipa-icf -fipa-icf-functions -fipa-icf-variables
  60              	@ -fipa-profile -fipa-pure-const -fipa-ra -fipa-reference -fipa-sra
  61              	@ -fipa-vrp -fira-hoist-pressure -fira-share-save-slots
  62              	@ -fira-share-spill-slots -fisolate-erroneous-paths-dereference -fivopts
  63              	@ -fkeep-static-consts -fleading-underscore -flifetime-dse
  64              	@ -floop-interchange -floop-unroll-and-jam -flra-remat
  65              	@ -flto-odr-type-merging -fmath-errno -fmerge-constants
  66              	@ -fmerge-debug-strings -fmove-loop-invariants -fomit-frame-pointer
  67              	@ -foptimize-sibling-calls -foptimize-strlen -fpartial-inlining
  68              	@ -fpeel-loops -fpeephole -fpeephole2 -fplt -fpredictive-commoning
  69              	@ -fprefetch-loop-arrays -freg-struct-return -freorder-blocks
  70              	@ -freorder-functions -frerun-cse-after-loop
  71              	@ -fsched-critical-path-heuristic -fsched-dep-count-heuristic
  72              	@ -fsched-group-heuristic -fsched-interblock -fsched-last-insn-heuristic
  73              	@ -fsched-pressure -fsched-rank-heuristic -fsched-spec
  74              	@ -fsched-spec-insn-heuristic -fsched-stalled-insns-dep -fschedule-insns
  75              	@ -fschedule-insns2 -fsection-anchors -fsemantic-interposition
  76              	@ -fshow-column -fshrink-wrap -fshrink-wrap-separate -fsigned-zeros
  77              	@ -fsplit-ivs-in-unroller -fsplit-loops -fsplit-paths -fsplit-wide-types
  78              	@ -fssa-backprop -fssa-phiopt -fstdarg-opt -fstore-merging
  79              	@ -fstrict-aliasing -fstrict-volatile-bitfields -fsync-libcalls
  80              	@ -fthread-jumps -ftoplevel-reorder -ftrapping-math -ftree-bit-ccp
  81              	@ -ftree-builtin-call-dce -ftree-ccp -ftree-ch -ftree-coalesce-vars
  82              	@ -ftree-copy-prop -ftree-cselim -ftree-dce -ftree-dominator-opts
  83              	@ -ftree-dse -ftree-forwprop -ftree-fre -ftree-loop-distribute-patterns
  84              	@ -ftree-loop-distribution -ftree-loop-if-convert -ftree-loop-im
  85              	@ -ftree-loop-ivcanon -ftree-loop-optimize -ftree-loop-vectorize
  86              	@ -ftree-parallelize-loops= -ftree-partial-pre -ftree-phiprop -ftree-pre
  87              	@ -ftree-pta -ftree-reassoc -ftree-scev-cprop -ftree-sink
  88              	@ -ftree-slp-vectorize -ftree-slsr -ftree-sra -ftree-switch-conversion
  89              	@ -ftree-tail-merge -ftree-ter -ftree-vrp -funit-at-a-time -funswitch-loops
  90              	@ -fvar-tracking -fvar-tracking-assignments -fverbose-asm
  91              	@ -fzero-initialized-in-bss -masm-syntax-unified -mbe32 -mlittle-endian
  92              	@ -mpic-data-is-text-relative -msched-prolog -mthumb -munaligned-access
  93              	@ -mvectorize-with-neon-quad
  94              	
  95              		.text
  96              	.Ltext0:
  97              		.cfi_sections	.debug_frame
  98              		.section	.text.prvMbxProcTask,"ax",%progbits
  99              		.align	1
 100              		.p2align 2,,3
 101              		.arch armv7e-m
 102              		.syntax unified
 103              		.thumb
 104              		.thumb_func
 105              		.fpu fpv4-sp-d16
 106              		.type	prvMbxProcTask, %function
 107              	prvMbxProcTask:
 108              	.LVL0:
 109              	.LFB138:
 110              		.file 1 "../../main_full/mbx_task.c"
   1:../../main_full/mbx_task.c **** /* Standard includes. */
   2:../../main_full/mbx_task.c **** #include <string.h>
   3:../../main_full/mbx_task.c **** #include <stdio.h>
   4:../../main_full/mbx_task.c **** 
ARM GAS  /tmp/ccNf4zwh.s 			page 3


   5:../../main_full/mbx_task.c **** /* Kernel includes. */
   6:../../main_full/mbx_task.c **** #include "mosWrapper.h"
   7:../../main_full/mbx_task.c **** 
   8:../../main_full/mbx_task.c **** /* driver includes. */
   9:../../main_full/mbx_task.c **** #include "drvAudio.h"
  10:../../main_full/mbx_task.c **** #include "drvMBX.h"
  11:../../main_full/mbx_task.c **** #include "drvCPU.h"
  12:../../main_full/mbx_task.c **** #include "drvPM.h"
  13:../../main_full/mbx_task.c **** #include "drvBDMA.h"
  14:../../main_full/mbx_task.c **** 
  15:../../main_full/mbx_task.c **** #include "apiVOC.h"
  16:../../main_full/mbx_task.c **** 
  17:../../main_full/mbx_task.c **** #include "voc_task.h"
  18:../../main_full/mbx_task.c **** 
  19:../../main_full/mbx_task.c **** /* Priorities at which the tasks are created. */
  20:../../main_full/mbx_task.c **** #define MBX_TASK_STACK_SIZE 128
  21:../../main_full/mbx_task.c **** #define	MBX_TASK_PRIORITY	( tskIDLE_PRIORITY + 4)
  22:../../main_full/mbx_task.c **** 
  23:../../main_full/mbx_task.c **** #define MBX_MSG(fmt, args...) MOS_DBG_PRINT(MOS_DBG_LEVEL_CMD, "[MBT] " fmt, ##args)
  24:../../main_full/mbx_task.c **** #define MBX_ERROR(fmt, args...) MOS_DBG_ERROR("[MBT ERR] " fmt, ##args);
  25:../../main_full/mbx_task.c **** 
  26:../../main_full/mbx_task.c **** StackType_t _xMbxTaskStack[ MBX_TASK_STACK_SIZE ];
  27:../../main_full/mbx_task.c **** StaticTask_t _xMbxTaskBuffer;
  28:../../main_full/mbx_task.c **** 
  29:../../main_full/mbx_task.c **** #if defined(CONFIG_VOC_TUNE)
  30:../../main_full/mbx_task.c **** static U8 _ps16MbxTaskMsgBuf[1024];
  31:../../main_full/mbx_task.c **** #endif
  32:../../main_full/mbx_task.c **** 
  33:../../main_full/mbx_task.c **** static void prvMbxProcTask(void *pvParameters)
  34:../../main_full/mbx_task.c **** {
 111              		.loc 1 34 1 view -0
 112              		.cfi_startproc
 113              		@ args = 0, pretend = 0, frame = 24
 114              		@ frame_needed = 0, uses_anonymous_args = 0
  35:../../main_full/mbx_task.c ****   MBX_Msg tMsg;
 115              		.loc 1 35 3 view .LVU1
  36:../../main_full/mbx_task.c ****   U32 u32Param1;
 116              		.loc 1 36 3 view .LVU2
  37:../../main_full/mbx_task.c ****   U32 u32Param2;
 117              		.loc 1 37 3 view .LVU3
  38:../../main_full/mbx_task.c ****   U16 u16Param3;
 118              		.loc 1 38 3 view .LVU4
  39:../../main_full/mbx_task.c ****   BOOL bRet;
 119              		.loc 1 39 3 view .LVU5
  40:../../main_full/mbx_task.c **** 
  41:../../main_full/mbx_task.c ****   /* Remove compiler warning about unused parameter. */
  42:../../main_full/mbx_task.c ****   (void) pvParameters;
 120              		.loc 1 42 3 view .LVU6
  43:../../main_full/mbx_task.c **** 
  44:../../main_full/mbx_task.c ****   MBX_MSG("MbxProcTask Start\r\n");
 121              		.loc 1 44 3 view .LVU7
 122              	@ ../../main_full/mbx_task.c:34: {
  34:../../main_full/mbx_task.c ****   MBX_Msg tMsg;
 123              		.loc 1 34 1 is_stmt 0 view .LVU8
 124 0000 2DE9F043 		push	{r4, r5, r6, r7, r8, r9, lr}	@
 125              		.cfi_def_cfa_offset 28
 126              		.cfi_offset 4, -28
ARM GAS  /tmp/ccNf4zwh.s 			page 4


 127              		.cfi_offset 5, -24
 128              		.cfi_offset 6, -20
 129              		.cfi_offset 7, -16
 130              		.cfi_offset 8, -12
 131              		.cfi_offset 9, -8
 132              		.cfi_offset 14, -4
 133              	@ ../../main_full/mbx_task.c:44:   MBX_MSG("MbxProcTask Start\r\n");
 134              		.loc 1 44 3 view .LVU9
 135 0004 8C4D     		ldr	r5, .L61	@ tmp214,
 136 0006 2B68     		ldr	r3, [r5]	@ gu32MosDbgLevel, gu32MosDbgLevel
 137 0008 5807     		lsls	r0, r3, #29	@, gu32MosDbgLevel,
 138              	.LVL1:
 139              	@ ../../main_full/mbx_task.c:34: {
  34:../../main_full/mbx_task.c ****   MBX_Msg tMsg;
 140              		.loc 1 34 1 view .LVU10
 141 000a 87B0     		sub	sp, sp, #28	@,,
 142              		.cfi_def_cfa_offset 56
 143              	@ ../../main_full/mbx_task.c:44:   MBX_MSG("MbxProcTask Start\r\n");
 144              		.loc 1 44 3 view .LVU11
 145 000c 00F10F81 		bmi	.L57		@,
 146              	.L2:
 147              	@ ../../main_full/mbx_task.c:325:       MBX_ERROR("MDrv_MBX_RecvMsg received failed\r\n");
  45:../../main_full/mbx_task.c **** 
  46:../../main_full/mbx_task.c ****   while(1)
  47:../../main_full/mbx_task.c ****   {
  48:../../main_full/mbx_task.c ****     bRet = TRUE;
  49:../../main_full/mbx_task.c ****     memset(&tMsg, 0, sizeof(tMsg));
  50:../../main_full/mbx_task.c ****     tMsg.eRoleID = E_MBX_ROLE_HK;
  51:../../main_full/mbx_task.c ****     if(E_MBX_SUCCESS == MDrv_MBX_RecvMsg(&tMsg, TRUE))
  52:../../main_full/mbx_task.c ****     {
  53:../../main_full/mbx_task.c ****       MBX_MSG("Class = %d, Idx = %d, ms = %d\r\n", tMsg.u8MsgClass, tMsg.u8Index, xTaskGetTickCount
  54:../../main_full/mbx_task.c **** 
  55:../../main_full/mbx_task.c ****      // MDrv_CPU_SetFreq(E_CPU_FREQ_HIGH);
  56:../../main_full/mbx_task.c **** #if defined(CONFIG_VOC_TUNE)
  57:../../main_full/mbx_task.c ****      if (tMsg.u8MsgClass == E_MBX_CLASS_TUNE)
  58:../../main_full/mbx_task.c ****      {
  59:../../main_full/mbx_task.c ****         if(tMsg.u8ParameterCount == 8)
  60:../../main_full/mbx_task.c ****         {
  61:../../main_full/mbx_task.c ****           MBX_MSG_GET_2U32(tMsg, u32Param1, u32Param2)
  62:../../main_full/mbx_task.c ****           if (u32Param2 > sizeof(_ps16MbxTaskMsgBuf))
  63:../../main_full/mbx_task.c ****           {
  64:../../main_full/mbx_task.c ****             MBX_ERROR("Command size failed\r\n");
  65:../../main_full/mbx_task.c ****             MDrv_MBX_RecvMsgEnd(&tMsg);
  66:../../main_full/mbx_task.c ****             continue;
  67:../../main_full/mbx_task.c ****           }
  68:../../main_full/mbx_task.c ****           MDrv_BDMA_Copy((U32)_ps16MbxTaskMsgBuf, u32Param1, u32Param2, E_BDMA_HKtoCP);
  69:../../main_full/mbx_task.c **** 
  70:../../main_full/mbx_task.c ****           //////////////////////////////////////////////////////////////////
  71:../../main_full/mbx_task.c ****           switch(tMsg.u8Index)
  72:../../main_full/mbx_task.c ****           {
  73:../../main_full/mbx_task.c ****             case E_MBX_TUNE_MSG_VP_PRAM:
  74:../../main_full/mbx_task.c ****                 MApi_VOC_VPTunePort(_ps16MbxTaskMsgBuf, u32Param2);
  75:../../main_full/mbx_task.c ****               break;
  76:../../main_full/mbx_task.c ****             case E_MBX_TUNE_MSG_VAD_PRAM:
  77:../../main_full/mbx_task.c ****                 //MApi_VOC_VDConfig(u32Param1, u32Param2);
  78:../../main_full/mbx_task.c ****               break;
  79:../../main_full/mbx_task.c ****             case E_MBX_TUNE_MSG_SRC_PRAM:
ARM GAS  /tmp/ccNf4zwh.s 			page 5


  80:../../main_full/mbx_task.c ****                 //MApi_VOC_VDConfig(u32Param1, u32Param2);
  81:../../main_full/mbx_task.c ****               break;
  82:../../main_full/mbx_task.c ****             case E_MBX_TUNE_MSG_VQ_PRAM:
  83:../../main_full/mbx_task.c ****                 //MApi_VOC_VDConfig(u32Param1, u32Param2);
  84:../../main_full/mbx_task.c ****               break;
  85:../../main_full/mbx_task.c ****             default:
  86:../../main_full/mbx_task.c ****               MBX_ERROR("Command Idx failed\r\n");
  87:../../main_full/mbx_task.c ****               break;
  88:../../main_full/mbx_task.c ****           }
  89:../../main_full/mbx_task.c ****           //////////////////////////////////////////////////////////////////
  90:../../main_full/mbx_task.c ****         }
  91:../../main_full/mbx_task.c ****      }
  92:../../main_full/mbx_task.c ****      else
  93:../../main_full/mbx_task.c **** #endif //CONFIG_VOC_TUNE
  94:../../main_full/mbx_task.c ****      {
  95:../../main_full/mbx_task.c ****        /////////////////////////////////////////////////////////////////////
  96:../../main_full/mbx_task.c ****        switch(tMsg.u8Index)
  97:../../main_full/mbx_task.c ****        {
  98:../../main_full/mbx_task.c ****          //////////////////////////////////////////////////////////////////
  99:../../main_full/mbx_task.c ****          case E_MBX_MSG_VP_ENABLE:
 100:../../main_full/mbx_task.c ****            if(tMsg.u8ParameterCount == 1)
 101:../../main_full/mbx_task.c ****            {
 102:../../main_full/mbx_task.c ****              VocTaskEnableFunc(tMsg.u8Parameters[0], E_FUNC_VP);
 103:../../main_full/mbx_task.c ****            }
 104:../../main_full/mbx_task.c ****            break;
 105:../../main_full/mbx_task.c ****          case E_MBX_MSG_VP_CONFIG:
 106:../../main_full/mbx_task.c ****            if(tMsg.u8ParameterCount == 1)
 107:../../main_full/mbx_task.c ****            {
 108:../../main_full/mbx_task.c ****              Mapi_VOC_VPConfig((U8)tMsg.u8Parameters[0]);
 109:../../main_full/mbx_task.c ****            }
 110:../../main_full/mbx_task.c ****            break;
 111:../../main_full/mbx_task.c **** 
 112:../../main_full/mbx_task.c ****          //////////////////////////////////////////////////////////////////
 113:../../main_full/mbx_task.c ****          case E_MBX_MSG_VD_ENABLE:
 114:../../main_full/mbx_task.c ****            if(tMsg.u8ParameterCount == 1)
 115:../../main_full/mbx_task.c ****            {
 116:../../main_full/mbx_task.c ****              VocTaskEnableFunc((BOOL)tMsg.u8Parameters[0], E_FUNC_VD);
 117:../../main_full/mbx_task.c **** #if defined(CONFIG_VOC_SEAMLESS)
 118:../../main_full/mbx_task.c ****              if (tMsg.u8Parameters[0])
 119:../../main_full/mbx_task.c ****                VocTaskEnableFunc(FALSE, E_FUNC_VS);
 120:../../main_full/mbx_task.c **** #endif
 121:../../main_full/mbx_task.c ****            }
 122:../../main_full/mbx_task.c ****            break;
 123:../../main_full/mbx_task.c ****          case E_MBX_MSG_VD_CONFIG:
 124:../../main_full/mbx_task.c ****            if(tMsg.u8ParameterCount == 8)
 125:../../main_full/mbx_task.c ****            {
 126:../../main_full/mbx_task.c ****              MBX_MSG_GET_2U32(tMsg, u32Param1, u32Param2)
 127:../../main_full/mbx_task.c ****              MApi_VOC_VDConfig(u32Param1, u32Param2);
 128:../../main_full/mbx_task.c ****            }
 129:../../main_full/mbx_task.c ****            else if(tMsg.u8ParameterCount == 10)
 130:../../main_full/mbx_task.c ****            {
 131:../../main_full/mbx_task.c ****              MBX_MSG_GET_2U32plusU16(tMsg, u32Param1, u32Param2, u16Param3)
 132:../../main_full/mbx_task.c ****              MApi_VOC_VDConfigExt(u32Param1, u32Param2, u16Param3);
 133:../../main_full/mbx_task.c ****            }
 134:../../main_full/mbx_task.c ****            break;
 135:../../main_full/mbx_task.c **** 
 136:../../main_full/mbx_task.c ****          ///////////////////////////////////////////////////////////////////
ARM GAS  /tmp/ccNf4zwh.s 			page 6


 137:../../main_full/mbx_task.c ****          case E_MBX_MSG_VQ_ENABLE:
 138:../../main_full/mbx_task.c ****            if(tMsg.u8ParameterCount == 1)
 139:../../main_full/mbx_task.c ****            {
 140:../../main_full/mbx_task.c ****              VocTaskEnableFunc((BOOL)tMsg.u8Parameters[0], E_FUNC_VQ);
 141:../../main_full/mbx_task.c ****            }
 142:../../main_full/mbx_task.c ****            break;
 143:../../main_full/mbx_task.c ****          case E_MBX_MSG_VQ_CONFIG:
 144:../../main_full/mbx_task.c ****            if(tMsg.u8ParameterCount == 1)
 145:../../main_full/mbx_task.c ****            {
 146:../../main_full/mbx_task.c ****              //MApi_VOC_VQConfig((VQ_Mode_e)tMsg.u8Parameters[0]);
 147:../../main_full/mbx_task.c ****              VocTaskVQConfig((VOC_VQMode_e)tMsg.u8Parameters[0]);
 148:../../main_full/mbx_task.c ****            }
 149:../../main_full/mbx_task.c ****            break;
 150:../../main_full/mbx_task.c **** 
 151:../../main_full/mbx_task.c ****          ///////////////////////////////////////////////////////////////////
 152:../../main_full/mbx_task.c ****          case E_MBX_MSG_RESET:
 153:../../main_full/mbx_task.c ****            VocTaskReset();
 154:../../main_full/mbx_task.c ****            break;
 155:../../main_full/mbx_task.c **** 
 156:../../main_full/mbx_task.c ****          ///////////////////////////////////////////////////////////////////
 157:../../main_full/mbx_task.c ****          case E_MBX_MSG_SIGEN_ENABLE:
 158:../../main_full/mbx_task.c ****            if(tMsg.u8ParameterCount == 1)
 159:../../main_full/mbx_task.c ****            {
 160:../../main_full/mbx_task.c ****              MDrv_AUD_SigGenEnable((BOOL)tMsg.u8Parameters[0]);
 161:../../main_full/mbx_task.c ****            }
 162:../../main_full/mbx_task.c ****            break;
 163:../../main_full/mbx_task.c ****          case E_MBX_MSG_MIC_CONFIG:
 164:../../main_full/mbx_task.c ****            if(tMsg.u8ParameterCount == 3)
 165:../../main_full/mbx_task.c ****            {
 166:../../main_full/mbx_task.c ****              bRet = MDrv_AUD_SetMicNo((AUD_MIC_e)tMsg.u8Parameters[0]);
 167:../../main_full/mbx_task.c ****  #if !defined(CONFIG_VOC_SW_SRC) && !defined(CONFIG_VOC_SW_SRC48K)
 168:../../main_full/mbx_task.c ****              MDrv_AUD_SetSampleRate((AUD_Rate_e)tMsg.u8Parameters[1]);
 169:../../main_full/mbx_task.c ****  #endif
 170:../../main_full/mbx_task.c ****              MDrv_AUD_SetBitWidth((AUD_Width_e)tMsg.u8Parameters[2]);
 171:../../main_full/mbx_task.c ****            }
 172:../../main_full/mbx_task.c ****            break;
 173:../../main_full/mbx_task.c **** 
 174:../../main_full/mbx_task.c ****          case E_MBX_MSG_MIC_GAIN:
 175:../../main_full/mbx_task.c ****            if(tMsg.u8ParameterCount == 1)
 176:../../main_full/mbx_task.c ****            {
 177:../../main_full/mbx_task.c ****  #if defined(CONFIG_AUD_HWGAIN)
 178:../../main_full/mbx_task.c ****              MDrv_AUD_DMICSetGain(tMsg.u8Parameters[0]);
 179:../../main_full/mbx_task.c ****  #else
 180:../../main_full/mbx_task.c ****              MApi_VOC_SetMicSwGain(tMsg.u8Parameters[0]);
 181:../../main_full/mbx_task.c ****  #endif
 182:../../main_full/mbx_task.c ****            }
 183:../../main_full/mbx_task.c ****            break;
 184:../../main_full/mbx_task.c **** 
 185:../../main_full/mbx_task.c ****  #if defined(CONFIG_VOC_MIC_MAPPING)
 186:../../main_full/mbx_task.c ****          case E_MBX_MSG_MIC_MAP:
 187:../../main_full/mbx_task.c ****            if(tMsg.u8ParameterCount == 2)
 188:../../main_full/mbx_task.c ****            {
 189:../../main_full/mbx_task.c ****              MApi_VOC_MicMapConfig(tMsg.u8Parameters[0], tMsg.u8Parameters[1]);
 190:../../main_full/mbx_task.c ****            }
 191:../../main_full/mbx_task.c ****            break;
 192:../../main_full/mbx_task.c ****  #endif
 193:../../main_full/mbx_task.c ****          ///////////////////////////////////////////////////////////////////
ARM GAS  /tmp/ccNf4zwh.s 			page 7


 194:../../main_full/mbx_task.c ****  #if defined(CONFIG_AUD_I2S)
 195:../../main_full/mbx_task.c ****          case E_MBX_MSG_I2S_ENABLE:
 196:../../main_full/mbx_task.c ****            if(tMsg.u8ParameterCount == 1)
 197:../../main_full/mbx_task.c ****            {
 198:../../main_full/mbx_task.c ****              MDrv_AUD_I2SEnable((BOOL)tMsg.u8Parameters[0]);
 199:../../main_full/mbx_task.c ****            }
 200:../../main_full/mbx_task.c ****            break;
 201:../../main_full/mbx_task.c ****          case E_MBX_MSG_I2S_CONFIG:
 202:../../main_full/mbx_task.c ****            if(tMsg.u8ParameterCount == 1)
 203:../../main_full/mbx_task.c ****            {
 204:../../main_full/mbx_task.c ****              //MApi_VOC_VQConfig((VQ_Mode_e)tMsg.u8Parameters[0]);
 205:../../main_full/mbx_task.c ****            }
 206:../../main_full/mbx_task.c ****            break;
 207:../../main_full/mbx_task.c ****  #endif
 208:../../main_full/mbx_task.c **** 
 209:../../main_full/mbx_task.c ****  #if defined(CONFIG_AUD_AEC)
 210:../../main_full/mbx_task.c ****          case E_MBX_MSG_AEC_ENABLE:
 211:../../main_full/mbx_task.c ****            if(tMsg.u8ParameterCount == 1)
 212:../../main_full/mbx_task.c ****            {
 213:../../main_full/mbx_task.c ****              MDrv_AUD_AECEnable((BOOL)tMsg.u8Parameters[0]);
 214:../../main_full/mbx_task.c ****            }
 215:../../main_full/mbx_task.c ****            break;
 216:../../main_full/mbx_task.c ****  #endif
 217:../../main_full/mbx_task.c ****          //////////////////////////////////////////////////////////////////
 218:../../main_full/mbx_task.c ****  #if defined(CONFIG_VOC_CUS0)
 219:../../main_full/mbx_task.c ****          case E_MBX_MSG_CUS0_ENABLE:
 220:../../main_full/mbx_task.c ****            if(tMsg.u8ParameterCount == 1)
 221:../../main_full/mbx_task.c ****            {
 222:../../main_full/mbx_task.c ****              VocTaskEnableFunc((BOOL)tMsg.u8Parameters[0], E_FUNC_CUS0);
 223:../../main_full/mbx_task.c ****            }
 224:../../main_full/mbx_task.c ****            break;
 225:../../main_full/mbx_task.c ****  #endif
 226:../../main_full/mbx_task.c **** 
 227:../../main_full/mbx_task.c ****  #if defined(CONFIG_VOC_SWHPF)
 228:../../main_full/mbx_task.c ****          case E_MBX_MSG_HPF_ENABLE:
 229:../../main_full/mbx_task.c ****            if(tMsg.u8ParameterCount == 1)
 230:../../main_full/mbx_task.c ****            {
 231:../../main_full/mbx_task.c ****              MApi_VOC_HpfEnable(tMsg.u8Parameters[0]);
 232:../../main_full/mbx_task.c ****            }
 233:../../main_full/mbx_task.c ****            break;
 234:../../main_full/mbx_task.c ****          case E_MBX_MSG_HPF_CONFIG:
 235:../../main_full/mbx_task.c ****            if(tMsg.u8ParameterCount == 1)
 236:../../main_full/mbx_task.c ****            {
 237:../../main_full/mbx_task.c ****              MApi_VOC_HpfConfig((S8)tMsg.u8Parameters[0]);
 238:../../main_full/mbx_task.c ****            }
 239:../../main_full/mbx_task.c ****            break;
 240:../../main_full/mbx_task.c ****  #endif
 241:../../main_full/mbx_task.c ****          //////////////////////////////////////////////////////////////////
 242:../../main_full/mbx_task.c ****  #if defined(CONFIG_VOC_TEST)
 243:../../main_full/mbx_task.c ****          case E_MBX_MSG_TEST_ENABLE:
 244:../../main_full/mbx_task.c ****            if(tMsg.u8ParameterCount == 1)
 245:../../main_full/mbx_task.c ****            {
 246:../../main_full/mbx_task.c ****              VocTaskEnableFunc((BOOL)tMsg.u8Parameters[0], E_FUNC_TEST);
 247:../../main_full/mbx_task.c ****            }
 248:../../main_full/mbx_task.c ****            break;
 249:../../main_full/mbx_task.c ****          case E_MBX_MSG_TEST_REG:
 250:../../main_full/mbx_task.c ****            if(tMsg.u8ParameterCount == 4)
ARM GAS  /tmp/ccNf4zwh.s 			page 8


 251:../../main_full/mbx_task.c ****            {
 252:../../main_full/mbx_task.c ****              MBX_MSG_GET_U32(tMsg, u32Param1);
 253:../../main_full/mbx_task.c ****              VocTaskRegisterCusFunc((VOC_PROC_CUS_FUNC_t)u32Param1);
 254:../../main_full/mbx_task.c ****            }
 255:../../main_full/mbx_task.c ****            break;
 256:../../main_full/mbx_task.c ****  #endif
 257:../../main_full/mbx_task.c ****  #if defined(CONFIG_PM_GPIO)
 258:../../main_full/mbx_task.c ****          case E_MBX_MSG_PM_GPIO:
 259:../../main_full/mbx_task.c ****            if(tMsg.u8ParameterCount == 3)
 260:../../main_full/mbx_task.c ****              MDrv_PM_GPIO_OEN(tMsg.u8Parameters[1], tMsg.u8Parameters[0], tMsg.u8Parameters[2]);
 261:../../main_full/mbx_task.c ****            break;
 262:../../main_full/mbx_task.c ****  #endif
 263:../../main_full/mbx_task.c ****          case E_MBX_MSG_SLEEP:
 264:../../main_full/mbx_task.c ****            if(tMsg.u8ParameterCount == 1)
 265:../../main_full/mbx_task.c ****            {
 266:../../main_full/mbx_task.c ****              if (tMsg.u8Parameters[0])
 267:../../main_full/mbx_task.c ****                MDrv_PM_Suspend();
 268:../../main_full/mbx_task.c ****              else
 269:../../main_full/mbx_task.c ****              {
 270:../../main_full/mbx_task.c ****                MDrv_PM_Resume();
 271:../../main_full/mbx_task.c ****                VocTaskReset();
 272:../../main_full/mbx_task.c ****              }
 273:../../main_full/mbx_task.c ****            }
 274:../../main_full/mbx_task.c ****            break;
 275:../../main_full/mbx_task.c ****  #if defined(CONFIG_AUD_AMIC)
 276:../../main_full/mbx_task.c ****          case E_MBX_MSG_AMIC_ENABLE:
 277:../../main_full/mbx_task.c ****            if(tMsg.u8ParameterCount == 1)
 278:../../main_full/mbx_task.c ****            {
 279:../../main_full/mbx_task.c ****              if (tMsg.u8Parameters[0])
 280:../../main_full/mbx_task.c ****              {
 281:../../main_full/mbx_task.c ****                 MDrv_AUD_AMicOn();
 282:../../main_full/mbx_task.c ****              }
 283:../../main_full/mbx_task.c ****              else
 284:../../main_full/mbx_task.c ****              {
 285:../../main_full/mbx_task.c ****                 MDrv_AUD_AMicOff();
 286:../../main_full/mbx_task.c ****              }
 287:../../main_full/mbx_task.c ****            }
 288:../../main_full/mbx_task.c **** 
 289:../../main_full/mbx_task.c ****            break;
 290:../../main_full/mbx_task.c **** 
 291:../../main_full/mbx_task.c ****          case E_MBX_MSG_AMIC_CONFIG:
 292:../../main_full/mbx_task.c ****            if(tMsg.u8ParameterCount == 2)
 293:../../main_full/mbx_task.c ****            {
 294:../../main_full/mbx_task.c ****              if(tMsg.u8Parameters[0]!=0xFF)
 295:../../main_full/mbx_task.c ****                MDrv_AUD_AMicMicAmpGain(tMsg.u8Parameters[0]);
 296:../../main_full/mbx_task.c ****              if(tMsg.u8Parameters[1]!=0xFF)
 297:../../main_full/mbx_task.c ****                MDrv_AUD_AMicAdcGain(tMsg.u8Parameters[1]);
 298:../../main_full/mbx_task.c ****            }
 299:../../main_full/mbx_task.c ****            break;
 300:../../main_full/mbx_task.c ****  #endif
 301:../../main_full/mbx_task.c ****          case E_MBX_MSG_SW_GAIN:
 302:../../main_full/mbx_task.c ****            if(tMsg.u8ParameterCount == 1)
 303:../../main_full/mbx_task.c ****            {
 304:../../main_full/mbx_task.c ****              MApi_VOC_SetSwGain(tMsg.u8Parameters[0]);
 305:../../main_full/mbx_task.c ****            }
 306:../../main_full/mbx_task.c ****            break;
 307:../../main_full/mbx_task.c **** #if defined(CONFIG_VOC_SW_VAD)
ARM GAS  /tmp/ccNf4zwh.s 			page 9


 308:../../main_full/mbx_task.c ****          case E_MBX_MSG_VAD_GAIN:
 309:../../main_full/mbx_task.c ****            if(tMsg.u8ParameterCount == 1)
 310:../../main_full/mbx_task.c ****            {
 311:../../main_full/mbx_task.c ****              MApi_VOC_SetVADGain(tMsg.u8Parameters[0]);
 312:../../main_full/mbx_task.c ****            }
 313:../../main_full/mbx_task.c ****            break;
 314:../../main_full/mbx_task.c ****  #endif
 315:../../main_full/mbx_task.c ****          default:
 316:../../main_full/mbx_task.c ****            MBX_ERROR("Command Idx failed\r\n");
 317:../../main_full/mbx_task.c ****            break;
 318:../../main_full/mbx_task.c ****        } //switch
 319:../../main_full/mbx_task.c ****       /////////////////////////////////////////////////////////////////////
 320:../../main_full/mbx_task.c ****      }
 321:../../main_full/mbx_task.c ****      MDrv_MBX_RecvMsgEndExt(&tMsg, bRet);
 322:../../main_full/mbx_task.c ****     }
 323:../../main_full/mbx_task.c ****     else
 324:../../main_full/mbx_task.c ****     {
 325:../../main_full/mbx_task.c ****       MBX_ERROR("MDrv_MBX_RecvMsg received failed\r\n");
 148              		.loc 1 325 7 discriminator 3 view .LVU12
 149 0010 8A4F     		ldr	r7, .L61+4	@ tmp216,
 150              	@ ../../main_full/mbx_task.c:316:            MBX_ERROR("Command Idx failed\r\n");
 316:../../main_full/mbx_task.c ****            break;
 151              		.loc 1 316 12 discriminator 3 view .LVU13
 152 0012 DFF83482 		ldr	r8, .L61+16	@ tmp217,
 153              	@ ../../main_full/mbx_task.c:53:       MBX_MSG("Class = %d, Idx = %d, ms = %d\r\n", tMsg.u8MsgClass
  53:../../main_full/mbx_task.c **** 
 154              		.loc 1 53 7 discriminator 3 view .LVU14
 155 0016 8A4E     		ldr	r6, .L61+8	@ tmp218,
 156              	.L3:
  44:../../main_full/mbx_task.c **** 
 157              		.loc 1 44 35 is_stmt 1 discriminator 3 view .LVU15
  46:../../main_full/mbx_task.c ****   {
 158              		.loc 1 46 3 discriminator 3 view .LVU16
  48:../../main_full/mbx_task.c ****     memset(&tMsg, 0, sizeof(tMsg));
 159              		.loc 1 48 5 discriminator 3 view .LVU17
 160              	.LVL2:
  49:../../main_full/mbx_task.c ****     tMsg.eRoleID = E_MBX_ROLE_HK;
 161              		.loc 1 49 5 discriminator 3 view .LVU18
 162 0018 0023     		movs	r3, #0	@ tmp165,
 163              	@ ../../main_full/mbx_task.c:51:     if(E_MBX_SUCCESS == MDrv_MBX_RecvMsg(&tMsg, TRUE))
  51:../../main_full/mbx_task.c ****     {
 164              		.loc 1 51 25 is_stmt 0 discriminator 3 view .LVU19
 165 001a 0121     		movs	r1, #1	@,
 166 001c 01A8     		add	r0, sp, #4	@ tmp220,,
 167              	@ ../../main_full/mbx_task.c:49:     memset(&tMsg, 0, sizeof(tMsg));
  49:../../main_full/mbx_task.c ****     tMsg.eRoleID = E_MBX_ROLE_HK;
 168              		.loc 1 49 5 discriminator 3 view .LVU20
 169 001e CDE90133 		strd	r3, r3, [sp, #4]	@ tmp165, tmp165,,
 170 0022 CDE90333 		strd	r3, r3, [sp, #12]	@ tmp165, tmp165,,
 171 0026 ADF81430 		strh	r3, [sp, #20]	@ movhi	@ tmp165, MEM[(void *)&tMsg]
  50:../../main_full/mbx_task.c ****     if(E_MBX_SUCCESS == MDrv_MBX_RecvMsg(&tMsg, TRUE))
 172              		.loc 1 50 5 is_stmt 1 discriminator 3 view .LVU21
  51:../../main_full/mbx_task.c ****     {
 173              		.loc 1 51 5 discriminator 3 view .LVU22
 174              	@ ../../main_full/mbx_task.c:51:     if(E_MBX_SUCCESS == MDrv_MBX_RecvMsg(&tMsg, TRUE))
  51:../../main_full/mbx_task.c ****     {
 175              		.loc 1 51 25 is_stmt 0 discriminator 3 view .LVU23
ARM GAS  /tmp/ccNf4zwh.s 			page 10


 176 002a FFF7FEFF 		bl	MDrv_MBX_RecvMsg		@
 177              	.LVL3:
 178              	@ ../../main_full/mbx_task.c:53:       MBX_MSG("Class = %d, Idx = %d, ms = %d\r\n", tMsg.u8MsgClass
  53:../../main_full/mbx_task.c **** 
 179              		.loc 1 53 7 discriminator 3 view .LVU24
 180 002e 2B68     		ldr	r3, [r5]	@ gu32MosDbgLevel, gu32MosDbgLevel
 181              	@ ../../main_full/mbx_task.c:51:     if(E_MBX_SUCCESS == MDrv_MBX_RecvMsg(&tMsg, TRUE))
  51:../../main_full/mbx_task.c ****     {
 182              		.loc 1 51 7 discriminator 3 view .LVU25
 183 0030 0028     		cmp	r0, #0	@
 184 0032 40F0DB80 		bne	.L4	@
  53:../../main_full/mbx_task.c **** 
 185              		.loc 1 53 7 is_stmt 1 view .LVU26
 186 0036 5907     		lsls	r1, r3, #29	@, gu32MosDbgLevel,
 187 0038 9DF80840 		ldrb	r4, [sp, #8]	@ zero_extendqisi2	@ bRet, tMsg.u8Index
 188 003c 00F1DD80 		bmi	.L58		@,
 189              	.L5:
  53:../../main_full/mbx_task.c **** 
 190              		.loc 1 53 122 discriminator 3 view .LVU27
  96:../../main_full/mbx_task.c ****        {
 191              		.loc 1 96 8 discriminator 3 view .LVU28
 192 0040 631E     		subs	r3, r4, #1	@ tmp173, bRet,
 193 0042 1C2B     		cmp	r3, #28	@ tmp173,
 194 0044 00F2BB80 		bhi	.L6		@
 195 0048 DFE803F0 		tbb	[pc, r3]	@ tmp173
 196              	.L8:
 197 004c 87       		.byte	(.L25-.L8)/2
 198 004d 0F       		.byte	(.L24-.L8)/2
 199 004e 5F       		.byte	(.L23-.L8)/2
 200 004f AF       		.byte	(.L22-.L8)/2
 201 0050 72       		.byte	(.L21-.L8)/2
 202 0051 9B       		.byte	(.L20-.L8)/2
 203 0052 46       		.byte	(.L19-.L8)/2
 204 0053 3D       		.byte	(.L18-.L8)/2
 205 0054 2F       		.byte	(.L17-.L8)/2
 206 0055 26       		.byte	(.L16-.L8)/2
 207 0056 1D       		.byte	(.L15-.L8)/2
 208 0057 17       		.byte	(.L45-.L8)/2
 209 0058 A5       		.byte	(.L13-.L8)/2
 210 0059 B9       		.byte	(.L6-.L8)/2
 211 005a B9       		.byte	(.L6-.L8)/2
 212 005b B9       		.byte	(.L6-.L8)/2
 213 005c B9       		.byte	(.L6-.L8)/2
 214 005d B9       		.byte	(.L6-.L8)/2
 215 005e 7C       		.byte	(.L12-.L8)/2
 216 005f B9       		.byte	(.L6-.L8)/2
 217 0060 B9       		.byte	(.L6-.L8)/2
 218 0061 B9       		.byte	(.L6-.L8)/2
 219 0062 92       		.byte	(.L11-.L8)/2
 220 0063 69       		.byte	(.L10-.L8)/2
 221 0064 B9       		.byte	(.L6-.L8)/2
 222 0065 B9       		.byte	(.L6-.L8)/2
 223 0066 56       		.byte	(.L9-.L8)/2
 224 0067 B9       		.byte	(.L6-.L8)/2
 225 0068 4A       		.byte	(.L7-.L8)/2
 226 0069 00       		.p2align 1
 227              	.L24:
ARM GAS  /tmp/ccNf4zwh.s 			page 11


 124:../../main_full/mbx_task.c ****            {
 228              		.loc 1 124 12 view .LVU29
 229              	@ ../../main_full/mbx_task.c:124:            if(tMsg.u8ParameterCount == 8)
 124:../../main_full/mbx_task.c ****            {
 230              		.loc 1 124 19 is_stmt 0 view .LVU30
 231 006a 9DF80930 		ldrb	r3, [sp, #9]	@ zero_extendqisi2	@ _18, tMsg.u8ParameterCount
 232              	@ ../../main_full/mbx_task.c:124:            if(tMsg.u8ParameterCount == 8)
 124:../../main_full/mbx_task.c ****            {
 233              		.loc 1 124 14 view .LVU31
 234 006e 082B     		cmp	r3, #8	@ _18,
 235 0070 00F0D080 		beq	.L59		@,
 129:../../main_full/mbx_task.c ****            {
 236              		.loc 1 129 17 is_stmt 1 view .LVU32
 237              	@ ../../main_full/mbx_task.c:129:            else if(tMsg.u8ParameterCount == 10)
 129:../../main_full/mbx_task.c ****            {
 238              		.loc 1 129 19 is_stmt 0 view .LVU33
 239 0074 0A2B     		cmp	r3, #10	@ _18,
 240 0076 00F0AB80 		beq	.L60		@,
 241              	.L45:
 242              	@ ../../main_full/mbx_task.c:48:     bRet = TRUE;
  48:../../main_full/mbx_task.c ****     memset(&tMsg, 0, sizeof(tMsg));
 243              		.loc 1 48 10 view .LVU34
 244 007a 0124     		movs	r4, #1	@ bRet,
 245              	.LVL4:
 246              	.L14:
 321:../../main_full/mbx_task.c ****     }
 247              		.loc 1 321 6 is_stmt 1 view .LVU35
 248 007c 2146     		mov	r1, r4	@, bRet
 249 007e 01A8     		add	r0, sp, #4	@ tmp221,,
 250 0080 FFF7FEFF 		bl	MDrv_MBX_RecvMsgEndExt		@
 251              	.LVL5:
 252 0084 C8E7     		b	.L3		@
 253              	.LVL6:
 254              	.L15:
 196:../../main_full/mbx_task.c ****            {
 255              		.loc 1 196 12 view .LVU36
 256              	@ ../../main_full/mbx_task.c:196:            if(tMsg.u8ParameterCount == 1)
 196:../../main_full/mbx_task.c ****            {
 257              		.loc 1 196 19 is_stmt 0 view .LVU37
 258 0086 9DF80940 		ldrb	r4, [sp, #9]	@ zero_extendqisi2	@ bRet, tMsg.u8ParameterCount
 259              	@ ../../main_full/mbx_task.c:196:            if(tMsg.u8ParameterCount == 1)
 196:../../main_full/mbx_task.c ****            {
 260              		.loc 1 196 14 view .LVU38
 261 008a 012C     		cmp	r4, #1	@ bRet,
 262 008c F5D1     		bne	.L45		@,
 198:../../main_full/mbx_task.c ****            }
 263              		.loc 1 198 14 is_stmt 1 view .LVU39
 264 008e 9DF80A00 		ldrb	r0, [sp, #10]	@ zero_extendqisi2	@, tMsg.u8Parameters
 265 0092 FFF7FEFF 		bl	MDrv_AUD_I2SEnable		@
 266              	.LVL7:
 267 0096 F1E7     		b	.L14		@
 268              	.L16:
 175:../../main_full/mbx_task.c ****            {
 269              		.loc 1 175 12 view .LVU40
 270              	@ ../../main_full/mbx_task.c:175:            if(tMsg.u8ParameterCount == 1)
 175:../../main_full/mbx_task.c ****            {
 271              		.loc 1 175 19 is_stmt 0 view .LVU41
ARM GAS  /tmp/ccNf4zwh.s 			page 12


 272 0098 9DF80940 		ldrb	r4, [sp, #9]	@ zero_extendqisi2	@ bRet, tMsg.u8ParameterCount
 273              	@ ../../main_full/mbx_task.c:175:            if(tMsg.u8ParameterCount == 1)
 175:../../main_full/mbx_task.c ****            {
 274              		.loc 1 175 14 view .LVU42
 275 009c 012C     		cmp	r4, #1	@ bRet,
 276 009e ECD1     		bne	.L45		@,
 180:../../main_full/mbx_task.c ****  #endif
 277              		.loc 1 180 14 is_stmt 1 view .LVU43
 278 00a0 9DF80A00 		ldrb	r0, [sp, #10]	@ zero_extendqisi2	@, tMsg.u8Parameters
 279 00a4 FFF7FEFF 		bl	MApi_VOC_SetMicSwGain		@
 280              	.LVL8:
 281 00a8 E8E7     		b	.L14		@
 282              	.L17:
 164:../../main_full/mbx_task.c ****            {
 283              		.loc 1 164 12 view .LVU44
 284              	@ ../../main_full/mbx_task.c:164:            if(tMsg.u8ParameterCount == 3)
 164:../../main_full/mbx_task.c ****            {
 285              		.loc 1 164 14 is_stmt 0 view .LVU45
 286 00aa 9DF80930 		ldrb	r3, [sp, #9]	@ zero_extendqisi2	@ tMsg.u8ParameterCount, tMsg.u8ParameterCount
 287 00ae 032B     		cmp	r3, #3	@ tMsg.u8ParameterCount,
 288 00b0 E3D1     		bne	.L45		@,
 166:../../main_full/mbx_task.c ****  #if !defined(CONFIG_VOC_SW_SRC) && !defined(CONFIG_VOC_SW_SRC48K)
 289              		.loc 1 166 14 is_stmt 1 view .LVU46
 290              	@ ../../main_full/mbx_task.c:166:              bRet = MDrv_AUD_SetMicNo((AUD_MIC_e)tMsg.u8Parameter
 166:../../main_full/mbx_task.c ****  #if !defined(CONFIG_VOC_SW_SRC) && !defined(CONFIG_VOC_SW_SRC48K)
 291              		.loc 1 166 21 is_stmt 0 view .LVU47
 292 00b2 9DF80A00 		ldrb	r0, [sp, #10]	@ zero_extendqisi2	@, tMsg.u8Parameters
 293 00b6 FFF7FEFF 		bl	MDrv_AUD_SetMicNo		@
 294              	.LVL9:
 295 00ba 0446     		mov	r4, r0	@ bRet,
 296              	.LVL10:
 170:../../main_full/mbx_task.c ****            }
 297              		.loc 1 170 14 is_stmt 1 view .LVU48
 298 00bc 9DF80C00 		ldrb	r0, [sp, #12]	@ zero_extendqisi2	@, tMsg.u8Parameters
 299 00c0 FFF7FEFF 		bl	MDrv_AUD_SetBitWidth		@
 300              	.LVL11:
 301 00c4 DAE7     		b	.L14		@
 302              	.LVL12:
 303              	.L18:
 158:../../main_full/mbx_task.c ****            {
 304              		.loc 1 158 12 view .LVU49
 305              	@ ../../main_full/mbx_task.c:158:            if(tMsg.u8ParameterCount == 1)
 158:../../main_full/mbx_task.c ****            {
 306              		.loc 1 158 19 is_stmt 0 view .LVU50
 307 00c6 9DF80940 		ldrb	r4, [sp, #9]	@ zero_extendqisi2	@ bRet, tMsg.u8ParameterCount
 308              	@ ../../main_full/mbx_task.c:158:            if(tMsg.u8ParameterCount == 1)
 158:../../main_full/mbx_task.c ****            {
 309              		.loc 1 158 14 view .LVU51
 310 00ca 012C     		cmp	r4, #1	@ bRet,
 311 00cc D5D1     		bne	.L45		@,
 160:../../main_full/mbx_task.c ****            }
 312              		.loc 1 160 14 is_stmt 1 view .LVU52
 313 00ce 9DF80A00 		ldrb	r0, [sp, #10]	@ zero_extendqisi2	@, tMsg.u8Parameters
 314 00d2 FFF7FEFF 		bl	MDrv_AUD_SigGenEnable		@
 315              	.LVL13:
 316 00d6 D1E7     		b	.L14		@
 317              	.L19:
ARM GAS  /tmp/ccNf4zwh.s 			page 13


 153:../../main_full/mbx_task.c ****            break;
 318              		.loc 1 153 12 view .LVU53
 319 00d8 FFF7FEFF 		bl	VocTaskReset		@
 320              	.LVL14:
 154:../../main_full/mbx_task.c **** 
 321              		.loc 1 154 12 view .LVU54
 322              	@ ../../main_full/mbx_task.c:48:     bRet = TRUE;
  48:../../main_full/mbx_task.c ****     memset(&tMsg, 0, sizeof(tMsg));
 323              		.loc 1 48 10 is_stmt 0 view .LVU55
 324 00dc 0124     		movs	r4, #1	@ bRet,
 325              	@ ../../main_full/mbx_task.c:154:            break;
 154:../../main_full/mbx_task.c **** 
 326              		.loc 1 154 12 view .LVU56
 327 00de CDE7     		b	.L14		@
 328              	.L7:
 187:../../main_full/mbx_task.c ****            {
 329              		.loc 1 187 12 is_stmt 1 view .LVU57
 330              	@ ../../main_full/mbx_task.c:187:            if(tMsg.u8ParameterCount == 2)
 187:../../main_full/mbx_task.c ****            {
 331              		.loc 1 187 14 is_stmt 0 view .LVU58
 332 00e0 9DF80930 		ldrb	r3, [sp, #9]	@ zero_extendqisi2	@ tMsg.u8ParameterCount, tMsg.u8ParameterCount
 333 00e4 022B     		cmp	r3, #2	@ tMsg.u8ParameterCount,
 334 00e6 C8D1     		bne	.L45		@,
 189:../../main_full/mbx_task.c ****            }
 335              		.loc 1 189 14 is_stmt 1 view .LVU59
 336 00e8 9DF80B10 		ldrb	r1, [sp, #11]	@ zero_extendqisi2	@, tMsg.u8Parameters
 337 00ec 9DF80A00 		ldrb	r0, [sp, #10]	@ zero_extendqisi2	@, tMsg.u8Parameters
 338 00f0 FFF7FEFF 		bl	MApi_VOC_MicMapConfig		@
 339              	.LVL15:
 340              	@ ../../main_full/mbx_task.c:48:     bRet = TRUE;
  48:../../main_full/mbx_task.c ****     memset(&tMsg, 0, sizeof(tMsg));
 341              		.loc 1 48 10 is_stmt 0 view .LVU60
 342 00f4 0124     		movs	r4, #1	@ bRet,
 343 00f6 C1E7     		b	.L14		@
 344              	.L9:
 302:../../main_full/mbx_task.c ****            {
 345              		.loc 1 302 12 is_stmt 1 view .LVU61
 346              	@ ../../main_full/mbx_task.c:302:            if(tMsg.u8ParameterCount == 1)
 302:../../main_full/mbx_task.c ****            {
 347              		.loc 1 302 19 is_stmt 0 view .LVU62
 348 00f8 9DF80940 		ldrb	r4, [sp, #9]	@ zero_extendqisi2	@ bRet, tMsg.u8ParameterCount
 349              	@ ../../main_full/mbx_task.c:302:            if(tMsg.u8ParameterCount == 1)
 302:../../main_full/mbx_task.c ****            {
 350              		.loc 1 302 14 view .LVU63
 351 00fc 012C     		cmp	r4, #1	@ bRet,
 352 00fe BCD1     		bne	.L45		@,
 304:../../main_full/mbx_task.c ****            }
 353              		.loc 1 304 14 is_stmt 1 view .LVU64
 354 0100 9DF80A00 		ldrb	r0, [sp, #10]	@ zero_extendqisi2	@, tMsg.u8Parameters
 355 0104 FFF7FEFF 		bl	MApi_VOC_SetSwGain		@
 356              	.LVL16:
 357 0108 B8E7     		b	.L14		@
 358              	.L23:
 138:../../main_full/mbx_task.c ****            {
 359              		.loc 1 138 12 view .LVU65
 360              	@ ../../main_full/mbx_task.c:138:            if(tMsg.u8ParameterCount == 1)
 138:../../main_full/mbx_task.c ****            {
ARM GAS  /tmp/ccNf4zwh.s 			page 14


 361              		.loc 1 138 19 is_stmt 0 view .LVU66
 362 010a 9DF80940 		ldrb	r4, [sp, #9]	@ zero_extendqisi2	@ bRet, tMsg.u8ParameterCount
 363              	@ ../../main_full/mbx_task.c:138:            if(tMsg.u8ParameterCount == 1)
 138:../../main_full/mbx_task.c ****            {
 364              		.loc 1 138 14 view .LVU67
 365 010e 012C     		cmp	r4, #1	@ bRet,
 366 0110 B3D1     		bne	.L45		@,
 140:../../main_full/mbx_task.c ****            }
 367              		.loc 1 140 14 is_stmt 1 view .LVU68
 368 0112 2146     		mov	r1, r4	@, bRet
 369 0114 9DF80A00 		ldrb	r0, [sp, #10]	@ zero_extendqisi2	@, tMsg.u8Parameters
 370 0118 FFF7FEFF 		bl	VocTaskEnableFunc		@
 371              	.LVL17:
 372 011c AEE7     		b	.L14		@
 373              	.L10:
 235:../../main_full/mbx_task.c ****            {
 374              		.loc 1 235 12 view .LVU69
 375              	@ ../../main_full/mbx_task.c:235:            if(tMsg.u8ParameterCount == 1)
 235:../../main_full/mbx_task.c ****            {
 376              		.loc 1 235 19 is_stmt 0 view .LVU70
 377 011e 9DF80940 		ldrb	r4, [sp, #9]	@ zero_extendqisi2	@ bRet, tMsg.u8ParameterCount
 378              	@ ../../main_full/mbx_task.c:235:            if(tMsg.u8ParameterCount == 1)
 235:../../main_full/mbx_task.c ****            {
 379              		.loc 1 235 14 view .LVU71
 380 0122 012C     		cmp	r4, #1	@ bRet,
 381 0124 A9D1     		bne	.L45		@,
 237:../../main_full/mbx_task.c ****            }
 382              		.loc 1 237 14 is_stmt 1 view .LVU72
 383 0126 9DF90A00 		ldrsb	r0, [sp, #10]	@, tMsg.u8Parameters
 384 012a FFF7FEFF 		bl	MApi_VOC_HpfConfig		@
 385              	.LVL18:
 386 012e A5E7     		b	.L14		@
 387              	.L21:
 100:../../main_full/mbx_task.c ****            {
 388              		.loc 1 100 12 view .LVU73
 389              	@ ../../main_full/mbx_task.c:100:            if(tMsg.u8ParameterCount == 1)
 100:../../main_full/mbx_task.c ****            {
 390              		.loc 1 100 19 is_stmt 0 view .LVU74
 391 0130 9DF80940 		ldrb	r4, [sp, #9]	@ zero_extendqisi2	@ bRet, tMsg.u8ParameterCount
 392              	@ ../../main_full/mbx_task.c:100:            if(tMsg.u8ParameterCount == 1)
 100:../../main_full/mbx_task.c ****            {
 393              		.loc 1 100 14 view .LVU75
 394 0134 012C     		cmp	r4, #1	@ bRet,
 395 0136 A0D1     		bne	.L45		@,
 102:../../main_full/mbx_task.c ****            }
 396              		.loc 1 102 14 is_stmt 1 view .LVU76
 397 0138 0321     		movs	r1, #3	@,
 398 013a 9DF80A00 		ldrb	r0, [sp, #10]	@ zero_extendqisi2	@, tMsg.u8Parameters
 399 013e FFF7FEFF 		bl	VocTaskEnableFunc		@
 400              	.LVL19:
 401 0142 9BE7     		b	.L14		@
 402              	.L12:
 264:../../main_full/mbx_task.c ****            {
 403              		.loc 1 264 12 view .LVU77
 404              	@ ../../main_full/mbx_task.c:264:            if(tMsg.u8ParameterCount == 1)
 264:../../main_full/mbx_task.c ****            {
 405              		.loc 1 264 19 is_stmt 0 view .LVU78
ARM GAS  /tmp/ccNf4zwh.s 			page 15


 406 0144 9DF80940 		ldrb	r4, [sp, #9]	@ zero_extendqisi2	@ bRet, tMsg.u8ParameterCount
 407              	@ ../../main_full/mbx_task.c:264:            if(tMsg.u8ParameterCount == 1)
 264:../../main_full/mbx_task.c ****            {
 408              		.loc 1 264 14 view .LVU79
 409 0148 012C     		cmp	r4, #1	@ bRet,
 410 014a 96D1     		bne	.L45		@,
 266:../../main_full/mbx_task.c ****                MDrv_PM_Suspend();
 411              		.loc 1 266 14 is_stmt 1 view .LVU80
 412              	@ ../../main_full/mbx_task.c:266:              if (tMsg.u8Parameters[0])
 266:../../main_full/mbx_task.c ****                MDrv_PM_Suspend();
 413              		.loc 1 266 17 is_stmt 0 view .LVU81
 414 014c 9DF80A30 		ldrb	r3, [sp, #10]	@ zero_extendqisi2	@ tMsg.u8Parameters, tMsg.u8Parameters
 415 0150 002B     		cmp	r3, #0	@ tMsg.u8Parameters
 416 0152 67D0     		beq	.L27	@
 267:../../main_full/mbx_task.c ****              else
 417              		.loc 1 267 16 is_stmt 1 view .LVU82
 418 0154 FFF7FEFF 		bl	MDrv_PM_Suspend		@
 419              	.LVL20:
 420 0158 90E7     		b	.L14		@
 421              	.L25:
 114:../../main_full/mbx_task.c ****            {
 422              		.loc 1 114 12 view .LVU83
 423              	@ ../../main_full/mbx_task.c:114:            if(tMsg.u8ParameterCount == 1)
 114:../../main_full/mbx_task.c ****            {
 424              		.loc 1 114 19 is_stmt 0 view .LVU84
 425 015a 9DF80930 		ldrb	r3, [sp, #9]	@ zero_extendqisi2	@ _16, tMsg.u8ParameterCount
 426              	@ ../../main_full/mbx_task.c:114:            if(tMsg.u8ParameterCount == 1)
 114:../../main_full/mbx_task.c ****            {
 427              		.loc 1 114 14 view .LVU85
 428 015e 012B     		cmp	r3, #1	@ _16,
 429 0160 8CD1     		bne	.L14		@,
 116:../../main_full/mbx_task.c **** #if defined(CONFIG_VOC_SEAMLESS)
 430              		.loc 1 116 14 is_stmt 1 view .LVU86
 431 0162 0221     		movs	r1, #2	@,
 432 0164 9DF80A00 		ldrb	r0, [sp, #10]	@ zero_extendqisi2	@, tMsg.u8Parameters
 433              	@ ../../main_full/mbx_task.c:48:     bRet = TRUE;
  48:../../main_full/mbx_task.c ****     memset(&tMsg, 0, sizeof(tMsg));
 434              		.loc 1 48 10 is_stmt 0 view .LVU87
 435 0168 1C46     		mov	r4, r3	@ bRet, _16
 436              	@ ../../main_full/mbx_task.c:116:              VocTaskEnableFunc((BOOL)tMsg.u8Parameters[0], E_FUNC
 116:../../main_full/mbx_task.c **** #if defined(CONFIG_VOC_SEAMLESS)
 437              		.loc 1 116 14 view .LVU88
 438 016a FFF7FEFF 		bl	VocTaskEnableFunc		@
 439              	.LVL21:
 440 016e 85E7     		b	.L14		@
 441              	.L11:
 229:../../main_full/mbx_task.c ****            {
 442              		.loc 1 229 12 is_stmt 1 view .LVU89
 443              	@ ../../main_full/mbx_task.c:229:            if(tMsg.u8ParameterCount == 1)
 229:../../main_full/mbx_task.c ****            {
 444              		.loc 1 229 19 is_stmt 0 view .LVU90
 445 0170 9DF80940 		ldrb	r4, [sp, #9]	@ zero_extendqisi2	@ bRet, tMsg.u8ParameterCount
 446              	@ ../../main_full/mbx_task.c:229:            if(tMsg.u8ParameterCount == 1)
 229:../../main_full/mbx_task.c ****            {
 447              		.loc 1 229 14 view .LVU91
 448 0174 012C     		cmp	r4, #1	@ bRet,
 449 0176 80D1     		bne	.L45		@,
ARM GAS  /tmp/ccNf4zwh.s 			page 16


 231:../../main_full/mbx_task.c ****            }
 450              		.loc 1 231 14 is_stmt 1 view .LVU92
 451 0178 9DF80A00 		ldrb	r0, [sp, #10]	@ zero_extendqisi2	@, tMsg.u8Parameters
 452 017c FFF7FEFF 		bl	MApi_VOC_HpfEnable		@
 453              	.LVL22:
 454 0180 7CE7     		b	.L14		@
 455              	.L20:
 106:../../main_full/mbx_task.c ****            {
 456              		.loc 1 106 12 view .LVU93
 457              	@ ../../main_full/mbx_task.c:106:            if(tMsg.u8ParameterCount == 1)
 106:../../main_full/mbx_task.c ****            {
 458              		.loc 1 106 19 is_stmt 0 view .LVU94
 459 0182 9DF80940 		ldrb	r4, [sp, #9]	@ zero_extendqisi2	@ bRet, tMsg.u8ParameterCount
 460              	@ ../../main_full/mbx_task.c:106:            if(tMsg.u8ParameterCount == 1)
 106:../../main_full/mbx_task.c ****            {
 461              		.loc 1 106 14 view .LVU95
 462 0186 012C     		cmp	r4, #1	@ bRet,
 463 0188 7FF477AF 		bne	.L45		@,
 108:../../main_full/mbx_task.c ****            }
 464              		.loc 1 108 14 is_stmt 1 view .LVU96
 465 018c 9DF80A00 		ldrb	r0, [sp, #10]	@ zero_extendqisi2	@, tMsg.u8Parameters
 466 0190 FFF7FEFF 		bl	Mapi_VOC_VPConfig		@
 467              	.LVL23:
 468 0194 72E7     		b	.L14		@
 469              	.L13:
 211:../../main_full/mbx_task.c ****            {
 470              		.loc 1 211 12 view .LVU97
 471              	@ ../../main_full/mbx_task.c:211:            if(tMsg.u8ParameterCount == 1)
 211:../../main_full/mbx_task.c ****            {
 472              		.loc 1 211 19 is_stmt 0 view .LVU98
 473 0196 9DF80940 		ldrb	r4, [sp, #9]	@ zero_extendqisi2	@ bRet, tMsg.u8ParameterCount
 474              	@ ../../main_full/mbx_task.c:211:            if(tMsg.u8ParameterCount == 1)
 211:../../main_full/mbx_task.c ****            {
 475              		.loc 1 211 14 view .LVU99
 476 019a 012C     		cmp	r4, #1	@ bRet,
 477 019c 7FF46DAF 		bne	.L45		@,
 213:../../main_full/mbx_task.c ****            }
 478              		.loc 1 213 14 is_stmt 1 view .LVU100
 479 01a0 9DF80A00 		ldrb	r0, [sp, #10]	@ zero_extendqisi2	@, tMsg.u8Parameters
 480 01a4 FFF7FEFF 		bl	MDrv_AUD_AECEnable		@
 481              	.LVL24:
 482 01a8 68E7     		b	.L14		@
 483              	.L22:
 144:../../main_full/mbx_task.c ****            {
 484              		.loc 1 144 12 view .LVU101
 485              	@ ../../main_full/mbx_task.c:144:            if(tMsg.u8ParameterCount == 1)
 144:../../main_full/mbx_task.c ****            {
 486              		.loc 1 144 19 is_stmt 0 view .LVU102
 487 01aa 9DF80940 		ldrb	r4, [sp, #9]	@ zero_extendqisi2	@ bRet, tMsg.u8ParameterCount
 488              	@ ../../main_full/mbx_task.c:144:            if(tMsg.u8ParameterCount == 1)
 144:../../main_full/mbx_task.c ****            {
 489              		.loc 1 144 14 view .LVU103
 490 01ae 012C     		cmp	r4, #1	@ bRet,
 491 01b0 7FF463AF 		bne	.L45		@,
 147:../../main_full/mbx_task.c ****            }
 492              		.loc 1 147 14 is_stmt 1 view .LVU104
 493 01b4 9DF80A00 		ldrb	r0, [sp, #10]	@ zero_extendqisi2	@, tMsg.u8Parameters
ARM GAS  /tmp/ccNf4zwh.s 			page 17


 494 01b8 FFF7FEFF 		bl	VocTaskVQConfig		@
 495              	.LVL25:
 496 01bc 5EE7     		b	.L14		@
 497              	.L6:
 316:../../main_full/mbx_task.c ****            break;
 498              		.loc 1 316 12 view .LVU105
 499 01be 2B68     		ldr	r3, [r5]	@ gu32MosDbgLevel, gu32MosDbgLevel
 500 01c0 DA07     		lsls	r2, r3, #31	@, gu32MosDbgLevel,
 501 01c2 7FF55AAF 		bpl	.L45		@,
 316:../../main_full/mbx_task.c ****            break;
 502              		.loc 1 316 12 discriminator 1 view .LVU106
 503 01c6 4046     		mov	r0, r8	@, tmp217
 504 01c8 FFF7FEFF 		bl	UartSendTrace		@
 505              	.LVL26:
 506              	@ ../../main_full/mbx_task.c:48:     bRet = TRUE;
  48:../../main_full/mbx_task.c ****     memset(&tMsg, 0, sizeof(tMsg));
 507              		.loc 1 48 10 is_stmt 0 discriminator 1 view .LVU107
 508 01cc 0124     		movs	r4, #1	@ bRet,
 509 01ce 55E7     		b	.L14		@
 510              	.L60:
 131:../../main_full/mbx_task.c ****              MApi_VOC_VDConfigExt(u32Param1, u32Param2, u16Param3);
 511              		.loc 1 131 14 is_stmt 1 view .LVU108
 512              	.LVL27:
 131:../../main_full/mbx_task.c ****              MApi_VOC_VDConfigExt(u32Param1, u32Param2, u16Param3);
 513              		.loc 1 131 14 view .LVU109
 131:../../main_full/mbx_task.c ****              MApi_VOC_VDConfigExt(u32Param1, u32Param2, u16Param3);
 514              		.loc 1 131 14 view .LVU110
 132:../../main_full/mbx_task.c ****            }
 515              		.loc 1 132 14 view .LVU111
 516              	@ ../../main_full/mbx_task.c:131:              MBX_MSG_GET_2U32plusU16(tMsg, u32Param1, u32Param2, 
 131:../../main_full/mbx_task.c ****              MApi_VOC_VDConfigExt(u32Param1, u32Param2, u16Param3);
 517              		.loc 1 131 14 is_stmt 0 view .LVU112
 518 01d0 9DF81320 		ldrb	r2, [sp, #19]	@ zero_extendqisi2	@ tMsg.u8Parameters, tMsg.u8Parameters
 519 01d4 9DF81230 		ldrb	r3, [sp, #18]	@ zero_extendqisi2	@ tMsg.u8Parameters, tMsg.u8Parameters
 520              	@ ../../main_full/mbx_task.c:132:              MApi_VOC_VDConfigExt(u32Param1, u32Param2, u16Param3
 132:../../main_full/mbx_task.c ****            }
 521              		.loc 1 132 14 view .LVU113
 522 01d8 DDF80E10 		ldr	r1, [sp, #14]	@ unaligned	@, MEM[(unsigned char[10] *)&tMsg + 10B]
 523 01dc DDF80A00 		ldr	r0, [sp, #10]	@ unaligned	@, MEM[(unsigned char[10] *)&tMsg + 6B]
 524 01e0 43EA0222 		orr	r2, r3, r2, lsl #8	@, tMsg.u8Parameters, tMsg.u8Parameters,
 525 01e4 FFF7FEFF 		bl	MApi_VOC_VDConfigExt		@
 526              	.LVL28:
 527              	@ ../../main_full/mbx_task.c:48:     bRet = TRUE;
  48:../../main_full/mbx_task.c ****     memset(&tMsg, 0, sizeof(tMsg));
 528              		.loc 1 48 10 view .LVU114
 529 01e8 0124     		movs	r4, #1	@ bRet,
 530 01ea 47E7     		b	.L14		@
 531              	.L4:
 532              		.loc 1 325 7 is_stmt 1 view .LVU115
 533 01ec DB07     		lsls	r3, r3, #31	@, gu32MosDbgLevel,
 534 01ee 7FF513AF 		bpl	.L3		@,
 535              		.loc 1 325 7 discriminator 1 view .LVU116
 536 01f2 3846     		mov	r0, r7	@, tmp216
 537 01f4 FFF7FEFF 		bl	UartSendTrace		@
 538              	.LVL29:
 539 01f8 0EE7     		b	.L3		@
 540              	.L58:
ARM GAS  /tmp/ccNf4zwh.s 			page 18


  53:../../main_full/mbx_task.c **** 
 541              		.loc 1 53 7 discriminator 1 view .LVU117
 542 01fa 9DF80790 		ldrb	r9, [sp, #7]	@ zero_extendqisi2	@ _7, tMsg.u8MsgClass
 543 01fe FFF7FEFF 		bl	xTaskGetTickCount		@
 544              	.LVL30:
 545 0202 2246     		mov	r2, r4	@, bRet
 546 0204 0346     		mov	r3, r0	@,
 547 0206 4946     		mov	r1, r9	@, _7
 548 0208 3046     		mov	r0, r6	@, tmp218
 549 020a FFF7FEFF 		bl	UartSendTrace		@
 550              	.LVL31:
 551 020e 9DF80840 		ldrb	r4, [sp, #8]	@ zero_extendqisi2	@ bRet, tMsg.u8Index
 552 0212 15E7     		b	.L5		@
 553              	.L59:
 126:../../main_full/mbx_task.c ****              MApi_VOC_VDConfig(u32Param1, u32Param2);
 554              		.loc 1 126 14 view .LVU118
 555              	.LVL32:
 126:../../main_full/mbx_task.c ****              MApi_VOC_VDConfig(u32Param1, u32Param2);
 556              		.loc 1 126 14 view .LVU119
 127:../../main_full/mbx_task.c ****            }
 557              		.loc 1 127 14 view .LVU120
 558 0214 DDF80E10 		ldr	r1, [sp, #14]	@ unaligned	@, MEM[(unsigned char[10] *)&tMsg + 10B]
 559 0218 DDF80A00 		ldr	r0, [sp, #10]	@ unaligned	@, MEM[(unsigned char[10] *)&tMsg + 6B]
 560 021c FFF7FEFF 		bl	MApi_VOC_VDConfig		@
 561              	.LVL33:
 562              	@ ../../main_full/mbx_task.c:48:     bRet = TRUE;
  48:../../main_full/mbx_task.c ****     memset(&tMsg, 0, sizeof(tMsg));
 563              		.loc 1 48 10 is_stmt 0 view .LVU121
 564 0220 0124     		movs	r4, #1	@ bRet,
 565 0222 2BE7     		b	.L14		@
 566              	.L27:
 270:../../main_full/mbx_task.c ****                VocTaskReset();
 567              		.loc 1 270 16 is_stmt 1 view .LVU122
 568 0224 FFF7FEFF 		bl	MDrv_PM_Resume		@
 569              	.LVL34:
 271:../../main_full/mbx_task.c ****              }
 570              		.loc 1 271 16 view .LVU123
 571 0228 FFF7FEFF 		bl	VocTaskReset		@
 572              	.LVL35:
 573 022c 26E7     		b	.L14		@
 574              	.LVL36:
 575              	.L57:
  44:../../main_full/mbx_task.c **** 
 576              		.loc 1 44 3 discriminator 1 view .LVU124
 577 022e 0548     		ldr	r0, .L61+12	@,
 578 0230 FFF7FEFF 		bl	UartSendTrace		@
 579              	.LVL37:
 580 0234 ECE6     		b	.L2		@
 581              	.L62:
 582 0236 00BF     		.align	2
 583              	.L61:
 584 0238 00000000 		.word	gu32MosDbgLevel
 585 023c 64000000 		.word	.LC3
 586 0240 1C000000 		.word	.LC1
 587 0244 00000000 		.word	.LC0
 588 0248 44000000 		.word	.LC2
 589              		.cfi_endproc
ARM GAS  /tmp/ccNf4zwh.s 			page 19


 590              	.LFE138:
 591              		.size	prvMbxProcTask, .-prvMbxProcTask
 592              		.section	.text.MbxTaskStart,"ax",%progbits
 593              		.align	1
 594              		.p2align 2,,3
 595              		.global	MbxTaskStart
 596              		.syntax unified
 597              		.thumb
 598              		.thumb_func
 599              		.fpu fpv4-sp-d16
 600              		.type	MbxTaskStart, %function
 601              	MbxTaskStart:
 602              	.LFB139:
 326:../../main_full/mbx_task.c ****     }
 327:../../main_full/mbx_task.c **** 
 328:../../main_full/mbx_task.c ****   } //while(1)
 329:../../main_full/mbx_task.c **** }
 330:../../main_full/mbx_task.c **** 
 331:../../main_full/mbx_task.c **** 
 332:../../main_full/mbx_task.c **** 
 333:../../main_full/mbx_task.c **** void MbxTaskStart(void)
 334:../../main_full/mbx_task.c **** {
 603              		.loc 1 334 1 view -0
 604              		.cfi_startproc
 605              		@ args = 0, pretend = 0, frame = 0
 606              		@ frame_needed = 0, uses_anonymous_args = 0
 335:../../main_full/mbx_task.c ****   /* Create that task that handles the console itself. */
 336:../../main_full/mbx_task.c ****   xTaskCreateStatic(prvMbxProcTask, "MBX", MBX_TASK_STACK_SIZE, NULL, MBX_TASK_PRIORITY, _xMbxTaskS
 607              		.loc 1 336 3 view .LVU126
 608              	@ ../../main_full/mbx_task.c:334: {
 334:../../main_full/mbx_task.c ****   /* Create that task that handles the console itself. */
 609              		.loc 1 334 1 is_stmt 0 view .LVU127
 610 0000 00B5     		push	{lr}	@
 611              		.cfi_def_cfa_offset 4
 612              		.cfi_offset 14, -4
 613 0002 85B0     		sub	sp, sp, #20	@,,
 614              		.cfi_def_cfa_offset 24
 615              	@ ../../main_full/mbx_task.c:336:   xTaskCreateStatic(prvMbxProcTask, "MBX", MBX_TASK_STACK_SIZE, N
 616              		.loc 1 336 3 view .LVU128
 617 0004 074B     		ldr	r3, .L65	@ tmp112,
 618 0006 084A     		ldr	r2, .L65+4	@ tmp113,
 619 0008 0293     		str	r3, [sp, #8]	@ tmp112,
 620 000a 0423     		movs	r3, #4	@ tmp114,
 621 000c CDE90032 		strd	r3, r2, [sp]	@ tmp114, tmp113,
 622 0010 0649     		ldr	r1, .L65+8	@,
 623 0012 0748     		ldr	r0, .L65+12	@,
 624 0014 0023     		movs	r3, #0	@,
 625 0016 8022     		movs	r2, #128	@,
 626 0018 FFF7FEFF 		bl	xTaskCreateStatic		@
 627              	.LVL38:
 628              	@ ../../main_full/mbx_task.c:337: }
 337:../../main_full/mbx_task.c **** }
 629              		.loc 1 337 1 view .LVU129
 630 001c 05B0     		add	sp, sp, #20	@,,
 631              		.cfi_def_cfa_offset 4
 632              		@ sp needed	@
 633 001e 5DF804FB 		ldr	pc, [sp], #4	@
ARM GAS  /tmp/ccNf4zwh.s 			page 20


 634              	.L66:
 635 0022 00BF     		.align	2
 636              	.L65:
 637 0024 00000000 		.word	_xMbxTaskBuffer
 638 0028 00000000 		.word	_xMbxTaskStack
 639 002c 00000000 		.word	.LC4
 640 0030 00000000 		.word	prvMbxProcTask
 641              		.cfi_endproc
 642              	.LFE139:
 643              		.size	MbxTaskStart, .-MbxTaskStart
 644              		.comm	_xMbxTaskBuffer,88,4
 645              		.comm	_xMbxTaskStack,512,4
 646              		.section	.rodata.MbxTaskStart.str1.4,"aMS",%progbits,1
 647              		.align	2
 648              	.LC4:
 649 0000 4D425800 		.ascii	"MBX\000"
 650              		.section	.rodata.prvMbxProcTask.str1.4,"aMS",%progbits,1
 651              		.align	2
 652              	.LC0:
 653 0000 5B4D4254 		.ascii	"[MBT] MbxProcTask Start\015\012\000"
 653      5D204D62 
 653      7850726F 
 653      63546173 
 653      6B205374 
 654 001a 0000     		.space	2
 655              	.LC1:
 656 001c 5B4D4254 		.ascii	"[MBT] Class = %d, Idx = %d, ms = %d\015\012\000"
 656      5D20436C 
 656      61737320 
 656      3D202564 
 656      2C204964 
 657 0042 0000     		.space	2
 658              	.LC2:
 659 0044 5B4D4254 		.ascii	"[MBT ERR] Command Idx failed\015\012\000"
 659      20455252 
 659      5D20436F 
 659      6D6D616E 
 659      64204964 
 660 0063 00       		.space	1
 661              	.LC3:
 662 0064 5B4D4254 		.ascii	"[MBT ERR] MDrv_MBX_RecvMsg received failed\015\012\000"
 662      20455252 
 662      5D204D44 
 662      72765F4D 
 662      42585F52 
 663              		.text
 664              	.Letext0:
 665              		.file 2 "/home/gu/code/freeRTOS10/vendor/mstar/CM4/tools/gcc-arm-none-eabi-8-2018-q4-major/arm-non
 666              		.file 3 "/home/gu/code/freeRTOS10/vendor/mstar/CM4/tools/gcc-arm-none-eabi-8-2018-q4-major/arm-non
 667              		.file 4 "/home/gu/code/freeRTOS10/vendor/mstar/CM4/tools/gcc-arm-none-eabi-8-2018-q4-major/arm-non
 668              		.file 5 "/home/gu/code/freeRTOS10/vendor/mstar/CM4/tools/gcc-arm-none-eabi-8-2018-q4-major/lib/gcc
 669              		.file 6 "/home/gu/code/freeRTOS10/vendor/mstar/CM4/tools/gcc-arm-none-eabi-8-2018-q4-major/arm-non
 670              		.file 7 "/home/gu/code/freeRTOS10/vendor/mstar/CM4/tools/gcc-arm-none-eabi-8-2018-q4-major/arm-non
 671              		.file 8 "/home/gu/code/freeRTOS10/vendor/mstar/CM4/tools/gcc-arm-none-eabi-8-2018-q4-major/arm-non
 672              		.file 9 "/home/gu/code/freeRTOS10/vendor/mstar/CM4/tools/gcc-arm-none-eabi-8-2018-q4-major/arm-non
 673              		.file 10 "../../kernel/FreeRTOS/Source/portable/GCC/ARM_CM4F/portmacro.h"
 674              		.file 11 "../../kernel/FreeRTOS/Source/include/FreeRTOS.h"
ARM GAS  /tmp/ccNf4zwh.s 			page 21


 675              		.file 12 "../../CMSIS/core_cm4.h"
 676              		.file 13 "../../peripheral_library/inc/mosWrapper.h"
 677              		.file 14 "../../peripheral_library/inc/drvAudio.h"
 678              		.file 15 "../../peripheral_library/inc/drvMBX.h"
 679              		.file 16 "../../main_full/voc_task.h"
 680              		.file 17 "../../kernel/FreeRTOS/Source/include/task.h"
 681              		.file 18 "../../peripheral_library/inc/apiVOC.h"
 682              		.file 19 "../../peripheral_library/inc/drvPM.h"
 683              		.file 20 "../../peripheral_library/hal/m7221/inc/halUART.h"