ARM GAS  /tmp/ccfvQckB.s 			page 1


   1              		.cpu cortex-m4
   2              		.eabi_attribute 27, 1	@ Tag_ABI_HardFP_use
   3              		.eabi_attribute 20, 1	@ Tag_ABI_FP_denormal
   4              		.eabi_attribute 21, 1	@ Tag_ABI_FP_exceptions
   5              		.eabi_attribute 23, 3	@ Tag_ABI_FP_number_model
   6              		.eabi_attribute 24, 1	@ Tag_ABI_align8_needed
   7              		.eabi_attribute 25, 1	@ Tag_ABI_align8_preserved
   8              		.eabi_attribute 26, 1	@ Tag_ABI_enum_size
   9              		.eabi_attribute 30, 2	@ Tag_ABI_optimization_goals
  10              		.eabi_attribute 34, 1	@ Tag_CPU_unaligned_access
  11              		.eabi_attribute 18, 4	@ Tag_ABI_PCS_wchar_t
  12              		.file	"Sample-CLI-commands.c"
  13              	@ GNU C89 (GNU Tools for Arm Embedded Processors 8-2018-q4-major) version 8.2.1 20181213 (release) 
  14              	@	compiled by GNU C version 4.8.4, GMP version 6.1.0, MPFR version 3.1.4, MPC version 1.0.3, isl ve
  15              	
  16              	@ GGC heuristics: --param ggc-min-expand=96 --param ggc-min-heapsize=125422
  17              	@ options passed:  -isystem =/include/newlib-nano -I . -I .
  18              	@ -I ../../kernel/FreeRTOS/Source/include
  19              	@ -I ../../kernel/FreeRTOS/Source/portable/GCC/ARM_CM4F
  20              	@ -I ../../kernel/FreeRTOS/Demo/Common/include
  21              	@ -I ../../kernel/FreeRTOS-Plus/Source/FreeRTOS-Plus-CLI
  22              	@ -I ../../peripheral_library/inc -I ../../peripheral_library/hal/m7221/inc
  23              	@ -I ../../CMSIS -I ../../main_full -I ../../3rd/rokid/./ -I /.
  24              	@ -I /../../kernel/FreeRTOS/Source/include
  25              	@ -I /../../kernel/FreeRTOS/Source/portable/GCC/ARM_CM4F
  26              	@ -I /../../kernel/FreeRTOS/Demo/Common/include
  27              	@ -I /../../kernel/FreeRTOS-Plus/Source/FreeRTOS-Plus-CLI
  28              	@ -I /../../peripheral_library/inc
  29              	@ -I /../../peripheral_library/hal/m7221/inc -I /../../CMSIS
  30              	@ -I /../../main_full -I /../../3rd/rokid/./
  31              	@ -imultilib thumb/v7e-m+fp/softfp
  32              	@ -iprefix /home/gu/code/freeRTOS10/vendor/mstar/CM4/tools/gcc-arm-none-eabi-8-2018-q4-major/bin/..
  33              	@ -isysroot /home/gu/code/freeRTOS10/vendor/mstar/CM4/tools/gcc-arm-none-eabi-8-2018-q4-major/bin/.
  34              	@ -MD out/Sample-CLI-commands.d -MF out/Sample-CLI-commands.d -MP
  35              	@ -MQ out/Sample-CLI-commands.o -D__USES_INITFINI__ -D CONFIG_BENCH=0
  36              	@ -D CONFIG_SYS_DBG_LEVEL=0xFFFFFFFF -D CONFIG_VOC_MIC=6 -D CONFIG_AUD_I2S
  37              	@ -D CONFIG_AUD_AEC -D CONFIG_VOC_MIC_MAPPING -D CONFIG_VOC_SWHPF
  38              	@ -D CONFIG_VOC_SW_SRC48K -D ARM_MATH_CM4 -D BOOTROM_VERSION_ASIC
  39              	@ ../../kernel/FreeRTOS-Plus/Demo/Common/FreeRTOS_Plus_CLI_Demos/Sample-CLI-commands.c
  40              	@ -mcpu=cortex-m4 -mthumb -mthumb-interwork -mfloat-abi=softfp
  41              	@ -mfpu=fpv4-sp-d16 -march=armv7e-m+fp
  42              	@ -auxbase-strip out/Sample-CLI-commands.o -g -ggdb3 -O3 -Wall
  43              	@ -Wstrict-prototypes -Wextra -std=gnu90 -ffunction-sections
  44              	@ -fdata-sections -fno-builtin-printf -fverbose-asm
  45              	@ options enabled:  -faggressive-loop-optimizations -falign-jumps
  46              	@ -falign-labels -falign-loops -fauto-inc-dec -fbranch-count-reg
  47              	@ -fcaller-saves -fchkp-check-incomplete-type -fchkp-check-read
  48              	@ -fchkp-check-write -fchkp-instrument-calls -fchkp-narrow-bounds
  49              	@ -fchkp-optimize -fchkp-store-bounds -fchkp-use-static-bounds
  50              	@ -fchkp-use-static-const-bounds -fchkp-use-wrappers -fcode-hoisting
  51              	@ -fcombine-stack-adjustments -fcommon -fcompare-elim -fcprop-registers
  52              	@ -fcrossjumping -fcse-follow-jumps -fdata-sections -fdefer-pop
  53              	@ -fdelete-null-pointer-checks -fdevirtualize -fdevirtualize-speculatively
  54              	@ -fdwarf2-cfi-asm -fearly-inlining -feliminate-unused-debug-types
  55              	@ -fexpensive-optimizations -fforward-propagate -ffp-int-builtin-inexact
  56              	@ -ffunction-cse -ffunction-sections -fgcse -fgcse-after-reload -fgcse-lm
  57              	@ -fgnu-runtime -fgnu-unique -fguess-branch-probability
ARM GAS  /tmp/ccfvQckB.s 			page 2


  58              	@ -fhoist-adjacent-loads -fident -fif-conversion -fif-conversion2
  59              	@ -findirect-inlining -finline -finline-atomics -finline-functions
  60              	@ -finline-functions-called-once -finline-small-functions -fipa-bit-cp
  61              	@ -fipa-cp -fipa-cp-clone -fipa-icf -fipa-icf-functions -fipa-icf-variables
  62              	@ -fipa-profile -fipa-pure-const -fipa-ra -fipa-reference -fipa-sra
  63              	@ -fipa-vrp -fira-hoist-pressure -fira-share-save-slots
  64              	@ -fira-share-spill-slots -fisolate-erroneous-paths-dereference -fivopts
  65              	@ -fkeep-static-consts -fleading-underscore -flifetime-dse
  66              	@ -floop-interchange -floop-unroll-and-jam -flra-remat
  67              	@ -flto-odr-type-merging -fmath-errno -fmerge-constants
  68              	@ -fmerge-debug-strings -fmove-loop-invariants -fomit-frame-pointer
  69              	@ -foptimize-sibling-calls -foptimize-strlen -fpartial-inlining
  70              	@ -fpeel-loops -fpeephole -fpeephole2 -fplt -fpredictive-commoning
  71              	@ -fprefetch-loop-arrays -freg-struct-return -freorder-blocks
  72              	@ -freorder-functions -frerun-cse-after-loop
  73              	@ -fsched-critical-path-heuristic -fsched-dep-count-heuristic
  74              	@ -fsched-group-heuristic -fsched-interblock -fsched-last-insn-heuristic
  75              	@ -fsched-pressure -fsched-rank-heuristic -fsched-spec
  76              	@ -fsched-spec-insn-heuristic -fsched-stalled-insns-dep -fschedule-insns
  77              	@ -fschedule-insns2 -fsection-anchors -fsemantic-interposition
  78              	@ -fshow-column -fshrink-wrap -fshrink-wrap-separate -fsigned-zeros
  79              	@ -fsplit-ivs-in-unroller -fsplit-loops -fsplit-paths -fsplit-wide-types
  80              	@ -fssa-backprop -fssa-phiopt -fstdarg-opt -fstore-merging
  81              	@ -fstrict-aliasing -fstrict-volatile-bitfields -fsync-libcalls
  82              	@ -fthread-jumps -ftoplevel-reorder -ftrapping-math -ftree-bit-ccp
  83              	@ -ftree-builtin-call-dce -ftree-ccp -ftree-ch -ftree-coalesce-vars
  84              	@ -ftree-copy-prop -ftree-cselim -ftree-dce -ftree-dominator-opts
  85              	@ -ftree-dse -ftree-forwprop -ftree-fre -ftree-loop-distribute-patterns
  86              	@ -ftree-loop-distribution -ftree-loop-if-convert -ftree-loop-im
  87              	@ -ftree-loop-ivcanon -ftree-loop-optimize -ftree-loop-vectorize
  88              	@ -ftree-parallelize-loops= -ftree-partial-pre -ftree-phiprop -ftree-pre
  89              	@ -ftree-pta -ftree-reassoc -ftree-scev-cprop -ftree-sink
  90              	@ -ftree-slp-vectorize -ftree-slsr -ftree-sra -ftree-switch-conversion
  91              	@ -ftree-tail-merge -ftree-ter -ftree-vrp -funit-at-a-time -funswitch-loops
  92              	@ -fvar-tracking -fvar-tracking-assignments -fverbose-asm
  93              	@ -fzero-initialized-in-bss -masm-syntax-unified -mbe32 -mlittle-endian
  94              	@ -mpic-data-is-text-relative -msched-prolog -mthumb -munaligned-access
  95              	@ -mvectorize-with-neon-quad
  96              	
  97              		.text
  98              	.Ltext0:
  99              		.cfi_sections	.debug_frame
 100              		.section	.text.prvParameterEchoCommand,"ax",%progbits
 101              		.align	1
 102              		.p2align 2,,3
 103              		.arch armv7e-m
 104              		.syntax unified
 105              		.thumb
 106              		.thumb_func
 107              		.fpu fpv4-sp-d16
 108              		.type	prvParameterEchoCommand, %function
 109              	prvParameterEchoCommand:
 110              	.LVL0:
 111              	.LFB11:
 112              		.file 1 "../../kernel/FreeRTOS-Plus/Demo/Common/FreeRTOS_Plus_CLI_Demos/Sample-CLI-commands.c"
   1:../../kernel/FreeRTOS-Plus/Demo/Common/FreeRTOS_Plus_CLI_Demos/Sample-CLI-commands.c **** /*
   2:../../kernel/FreeRTOS-Plus/Demo/Common/FreeRTOS_Plus_CLI_Demos/Sample-CLI-commands.c ****  * FreeRTOS Kernel V10.0.1
ARM GAS  /tmp/ccfvQckB.s 			page 3


   3:../../kernel/FreeRTOS-Plus/Demo/Common/FreeRTOS_Plus_CLI_Demos/Sample-CLI-commands.c ****  * Copyright (C) 2017 Amazon.com, Inc. or its affiliates.  All Rights Reserved.
   4:../../kernel/FreeRTOS-Plus/Demo/Common/FreeRTOS_Plus_CLI_Demos/Sample-CLI-commands.c ****  *
   5:../../kernel/FreeRTOS-Plus/Demo/Common/FreeRTOS_Plus_CLI_Demos/Sample-CLI-commands.c ****  * Permission is hereby granted, free of charge, to any person obtaining a copy of
   6:../../kernel/FreeRTOS-Plus/Demo/Common/FreeRTOS_Plus_CLI_Demos/Sample-CLI-commands.c ****  * this software and associated documentation files (the "Software"), to deal in
   7:../../kernel/FreeRTOS-Plus/Demo/Common/FreeRTOS_Plus_CLI_Demos/Sample-CLI-commands.c ****  * the Software without restriction, including without limitation the rights to
   8:../../kernel/FreeRTOS-Plus/Demo/Common/FreeRTOS_Plus_CLI_Demos/Sample-CLI-commands.c ****  * use, copy, modify, merge, publish, distribute, sublicense, and/or sell copies of
   9:../../kernel/FreeRTOS-Plus/Demo/Common/FreeRTOS_Plus_CLI_Demos/Sample-CLI-commands.c ****  * the Software, and to permit persons to whom the Software is furnished to do so,
  10:../../kernel/FreeRTOS-Plus/Demo/Common/FreeRTOS_Plus_CLI_Demos/Sample-CLI-commands.c ****  * subject to the following conditions:
  11:../../kernel/FreeRTOS-Plus/Demo/Common/FreeRTOS_Plus_CLI_Demos/Sample-CLI-commands.c ****  *
  12:../../kernel/FreeRTOS-Plus/Demo/Common/FreeRTOS_Plus_CLI_Demos/Sample-CLI-commands.c ****  * The above copyright notice and this permission notice shall be included in all
  13:../../kernel/FreeRTOS-Plus/Demo/Common/FreeRTOS_Plus_CLI_Demos/Sample-CLI-commands.c ****  * copies or substantial portions of the Software.
  14:../../kernel/FreeRTOS-Plus/Demo/Common/FreeRTOS_Plus_CLI_Demos/Sample-CLI-commands.c ****  *
  15:../../kernel/FreeRTOS-Plus/Demo/Common/FreeRTOS_Plus_CLI_Demos/Sample-CLI-commands.c ****  * THE SOFTWARE IS PROVIDED "AS IS", WITHOUT WARRANTY OF ANY KIND, EXPRESS OR
  16:../../kernel/FreeRTOS-Plus/Demo/Common/FreeRTOS_Plus_CLI_Demos/Sample-CLI-commands.c ****  * IMPLIED, INCLUDING BUT NOT LIMITED TO THE WARRANTIES OF MERCHANTABILITY, FITNESS
  17:../../kernel/FreeRTOS-Plus/Demo/Common/FreeRTOS_Plus_CLI_Demos/Sample-CLI-commands.c ****  * FOR A PARTICULAR PURPOSE AND NONINFRINGEMENT. IN NO EVENT SHALL THE AUTHORS OR
  18:../../kernel/FreeRTOS-Plus/Demo/Common/FreeRTOS_Plus_CLI_Demos/Sample-CLI-commands.c ****  * COPYRIGHT HOLDERS BE LIABLE FOR ANY CLAIM, DAMAGES OR OTHER LIABILITY, WHETHER
  19:../../kernel/FreeRTOS-Plus/Demo/Common/FreeRTOS_Plus_CLI_Demos/Sample-CLI-commands.c ****  * IN AN ACTION OF CONTRACT, TORT OR OTHERWISE, ARISING FROM, OUT OF OR IN
  20:../../kernel/FreeRTOS-Plus/Demo/Common/FreeRTOS_Plus_CLI_Demos/Sample-CLI-commands.c ****  * CONNECTION WITH THE SOFTWARE OR THE USE OR OTHER DEALINGS IN THE SOFTWARE.
  21:../../kernel/FreeRTOS-Plus/Demo/Common/FreeRTOS_Plus_CLI_Demos/Sample-CLI-commands.c ****  *
  22:../../kernel/FreeRTOS-Plus/Demo/Common/FreeRTOS_Plus_CLI_Demos/Sample-CLI-commands.c ****  * http://www.FreeRTOS.org
  23:../../kernel/FreeRTOS-Plus/Demo/Common/FreeRTOS_Plus_CLI_Demos/Sample-CLI-commands.c ****  * http://aws.amazon.com/freertos
  24:../../kernel/FreeRTOS-Plus/Demo/Common/FreeRTOS_Plus_CLI_Demos/Sample-CLI-commands.c ****  *
  25:../../kernel/FreeRTOS-Plus/Demo/Common/FreeRTOS_Plus_CLI_Demos/Sample-CLI-commands.c ****  * 1 tab == 4 spaces!
  26:../../kernel/FreeRTOS-Plus/Demo/Common/FreeRTOS_Plus_CLI_Demos/Sample-CLI-commands.c ****  */
  27:../../kernel/FreeRTOS-Plus/Demo/Common/FreeRTOS_Plus_CLI_Demos/Sample-CLI-commands.c **** 
  28:../../kernel/FreeRTOS-Plus/Demo/Common/FreeRTOS_Plus_CLI_Demos/Sample-CLI-commands.c **** 
  29:../../kernel/FreeRTOS-Plus/Demo/Common/FreeRTOS_Plus_CLI_Demos/Sample-CLI-commands.c ****  /******************************************************************************
  30:../../kernel/FreeRTOS-Plus/Demo/Common/FreeRTOS_Plus_CLI_Demos/Sample-CLI-commands.c ****  *
  31:../../kernel/FreeRTOS-Plus/Demo/Common/FreeRTOS_Plus_CLI_Demos/Sample-CLI-commands.c ****  * http://www.FreeRTOS.org/cli
  32:../../kernel/FreeRTOS-Plus/Demo/Common/FreeRTOS_Plus_CLI_Demos/Sample-CLI-commands.c ****  *
  33:../../kernel/FreeRTOS-Plus/Demo/Common/FreeRTOS_Plus_CLI_Demos/Sample-CLI-commands.c ****  ******************************************************************************/
  34:../../kernel/FreeRTOS-Plus/Demo/Common/FreeRTOS_Plus_CLI_Demos/Sample-CLI-commands.c **** 
  35:../../kernel/FreeRTOS-Plus/Demo/Common/FreeRTOS_Plus_CLI_Demos/Sample-CLI-commands.c **** 
  36:../../kernel/FreeRTOS-Plus/Demo/Common/FreeRTOS_Plus_CLI_Demos/Sample-CLI-commands.c **** /* FreeRTOS includes. */
  37:../../kernel/FreeRTOS-Plus/Demo/Common/FreeRTOS_Plus_CLI_Demos/Sample-CLI-commands.c **** #include "FreeRTOS.h"
  38:../../kernel/FreeRTOS-Plus/Demo/Common/FreeRTOS_Plus_CLI_Demos/Sample-CLI-commands.c **** #include "task.h"
  39:../../kernel/FreeRTOS-Plus/Demo/Common/FreeRTOS_Plus_CLI_Demos/Sample-CLI-commands.c **** 
  40:../../kernel/FreeRTOS-Plus/Demo/Common/FreeRTOS_Plus_CLI_Demos/Sample-CLI-commands.c **** /* Standard includes. */
  41:../../kernel/FreeRTOS-Plus/Demo/Common/FreeRTOS_Plus_CLI_Demos/Sample-CLI-commands.c **** #include <stdint.h>
  42:../../kernel/FreeRTOS-Plus/Demo/Common/FreeRTOS_Plus_CLI_Demos/Sample-CLI-commands.c **** #include <stdio.h>
  43:../../kernel/FreeRTOS-Plus/Demo/Common/FreeRTOS_Plus_CLI_Demos/Sample-CLI-commands.c **** #include <stdlib.h>
  44:../../kernel/FreeRTOS-Plus/Demo/Common/FreeRTOS_Plus_CLI_Demos/Sample-CLI-commands.c **** #include <string.h>
  45:../../kernel/FreeRTOS-Plus/Demo/Common/FreeRTOS_Plus_CLI_Demos/Sample-CLI-commands.c **** 
  46:../../kernel/FreeRTOS-Plus/Demo/Common/FreeRTOS_Plus_CLI_Demos/Sample-CLI-commands.c **** /* FreeRTOS+CLI includes. */
  47:../../kernel/FreeRTOS-Plus/Demo/Common/FreeRTOS_Plus_CLI_Demos/Sample-CLI-commands.c **** #include "FreeRTOS_CLI.h"
  48:../../kernel/FreeRTOS-Plus/Demo/Common/FreeRTOS_Plus_CLI_Demos/Sample-CLI-commands.c **** 
  49:../../kernel/FreeRTOS-Plus/Demo/Common/FreeRTOS_Plus_CLI_Demos/Sample-CLI-commands.c **** #ifndef  configINCLUDE_TRACE_RELATED_CLI_COMMANDS
  50:../../kernel/FreeRTOS-Plus/Demo/Common/FreeRTOS_Plus_CLI_Demos/Sample-CLI-commands.c **** 	#define configINCLUDE_TRACE_RELATED_CLI_COMMANDS 0
  51:../../kernel/FreeRTOS-Plus/Demo/Common/FreeRTOS_Plus_CLI_Demos/Sample-CLI-commands.c **** #endif
  52:../../kernel/FreeRTOS-Plus/Demo/Common/FreeRTOS_Plus_CLI_Demos/Sample-CLI-commands.c **** 
  53:../../kernel/FreeRTOS-Plus/Demo/Common/FreeRTOS_Plus_CLI_Demos/Sample-CLI-commands.c **** #ifndef configINCLUDE_QUERY_HEAP_COMMAND
  54:../../kernel/FreeRTOS-Plus/Demo/Common/FreeRTOS_Plus_CLI_Demos/Sample-CLI-commands.c **** 	#define configINCLUDE_QUERY_HEAP_COMMAND 0
  55:../../kernel/FreeRTOS-Plus/Demo/Common/FreeRTOS_Plus_CLI_Demos/Sample-CLI-commands.c **** #endif
  56:../../kernel/FreeRTOS-Plus/Demo/Common/FreeRTOS_Plus_CLI_Demos/Sample-CLI-commands.c **** 
  57:../../kernel/FreeRTOS-Plus/Demo/Common/FreeRTOS_Plus_CLI_Demos/Sample-CLI-commands.c **** /*
  58:../../kernel/FreeRTOS-Plus/Demo/Common/FreeRTOS_Plus_CLI_Demos/Sample-CLI-commands.c ****  * The function that registers the commands that are defined within this file.
  59:../../kernel/FreeRTOS-Plus/Demo/Common/FreeRTOS_Plus_CLI_Demos/Sample-CLI-commands.c ****  */
ARM GAS  /tmp/ccfvQckB.s 			page 4


  60:../../kernel/FreeRTOS-Plus/Demo/Common/FreeRTOS_Plus_CLI_Demos/Sample-CLI-commands.c **** void vRegisterSampleCLICommands( void );
  61:../../kernel/FreeRTOS-Plus/Demo/Common/FreeRTOS_Plus_CLI_Demos/Sample-CLI-commands.c **** 
  62:../../kernel/FreeRTOS-Plus/Demo/Common/FreeRTOS_Plus_CLI_Demos/Sample-CLI-commands.c **** /*
  63:../../kernel/FreeRTOS-Plus/Demo/Common/FreeRTOS_Plus_CLI_Demos/Sample-CLI-commands.c ****  * Implements the task-stats command.
  64:../../kernel/FreeRTOS-Plus/Demo/Common/FreeRTOS_Plus_CLI_Demos/Sample-CLI-commands.c ****  */
  65:../../kernel/FreeRTOS-Plus/Demo/Common/FreeRTOS_Plus_CLI_Demos/Sample-CLI-commands.c **** static BaseType_t prvTaskStatsCommand( char *pcWriteBuffer, size_t xWriteBufferLen, const char *pcC
  66:../../kernel/FreeRTOS-Plus/Demo/Common/FreeRTOS_Plus_CLI_Demos/Sample-CLI-commands.c **** 
  67:../../kernel/FreeRTOS-Plus/Demo/Common/FreeRTOS_Plus_CLI_Demos/Sample-CLI-commands.c **** /*
  68:../../kernel/FreeRTOS-Plus/Demo/Common/FreeRTOS_Plus_CLI_Demos/Sample-CLI-commands.c ****  * Implements the run-time-stats command.
  69:../../kernel/FreeRTOS-Plus/Demo/Common/FreeRTOS_Plus_CLI_Demos/Sample-CLI-commands.c ****  */
  70:../../kernel/FreeRTOS-Plus/Demo/Common/FreeRTOS_Plus_CLI_Demos/Sample-CLI-commands.c **** #if( configGENERATE_RUN_TIME_STATS == 1 )
  71:../../kernel/FreeRTOS-Plus/Demo/Common/FreeRTOS_Plus_CLI_Demos/Sample-CLI-commands.c **** 	static BaseType_t prvRunTimeStatsCommand( char *pcWriteBuffer, size_t xWriteBufferLen, const char 
  72:../../kernel/FreeRTOS-Plus/Demo/Common/FreeRTOS_Plus_CLI_Demos/Sample-CLI-commands.c **** #endif /* configGENERATE_RUN_TIME_STATS */
  73:../../kernel/FreeRTOS-Plus/Demo/Common/FreeRTOS_Plus_CLI_Demos/Sample-CLI-commands.c **** 
  74:../../kernel/FreeRTOS-Plus/Demo/Common/FreeRTOS_Plus_CLI_Demos/Sample-CLI-commands.c **** /*
  75:../../kernel/FreeRTOS-Plus/Demo/Common/FreeRTOS_Plus_CLI_Demos/Sample-CLI-commands.c ****  * Implements the echo-three-parameters command.
  76:../../kernel/FreeRTOS-Plus/Demo/Common/FreeRTOS_Plus_CLI_Demos/Sample-CLI-commands.c ****  */
  77:../../kernel/FreeRTOS-Plus/Demo/Common/FreeRTOS_Plus_CLI_Demos/Sample-CLI-commands.c **** static BaseType_t prvThreeParameterEchoCommand( char *pcWriteBuffer, size_t xWriteBufferLen, const 
  78:../../kernel/FreeRTOS-Plus/Demo/Common/FreeRTOS_Plus_CLI_Demos/Sample-CLI-commands.c **** 
  79:../../kernel/FreeRTOS-Plus/Demo/Common/FreeRTOS_Plus_CLI_Demos/Sample-CLI-commands.c **** /*
  80:../../kernel/FreeRTOS-Plus/Demo/Common/FreeRTOS_Plus_CLI_Demos/Sample-CLI-commands.c ****  * Implements the echo-parameters command.
  81:../../kernel/FreeRTOS-Plus/Demo/Common/FreeRTOS_Plus_CLI_Demos/Sample-CLI-commands.c ****  */
  82:../../kernel/FreeRTOS-Plus/Demo/Common/FreeRTOS_Plus_CLI_Demos/Sample-CLI-commands.c **** static BaseType_t prvParameterEchoCommand( char *pcWriteBuffer, size_t xWriteBufferLen, const char 
  83:../../kernel/FreeRTOS-Plus/Demo/Common/FreeRTOS_Plus_CLI_Demos/Sample-CLI-commands.c **** 
  84:../../kernel/FreeRTOS-Plus/Demo/Common/FreeRTOS_Plus_CLI_Demos/Sample-CLI-commands.c **** /*
  85:../../kernel/FreeRTOS-Plus/Demo/Common/FreeRTOS_Plus_CLI_Demos/Sample-CLI-commands.c ****  * Implements the "query heap" command.
  86:../../kernel/FreeRTOS-Plus/Demo/Common/FreeRTOS_Plus_CLI_Demos/Sample-CLI-commands.c ****  */
  87:../../kernel/FreeRTOS-Plus/Demo/Common/FreeRTOS_Plus_CLI_Demos/Sample-CLI-commands.c **** #if( configINCLUDE_QUERY_HEAP_COMMAND == 1 )
  88:../../kernel/FreeRTOS-Plus/Demo/Common/FreeRTOS_Plus_CLI_Demos/Sample-CLI-commands.c **** 	static BaseType_t prvQueryHeapCommand( char *pcWriteBuffer, size_t xWriteBufferLen, const char *pc
  89:../../kernel/FreeRTOS-Plus/Demo/Common/FreeRTOS_Plus_CLI_Demos/Sample-CLI-commands.c **** #endif
  90:../../kernel/FreeRTOS-Plus/Demo/Common/FreeRTOS_Plus_CLI_Demos/Sample-CLI-commands.c **** 
  91:../../kernel/FreeRTOS-Plus/Demo/Common/FreeRTOS_Plus_CLI_Demos/Sample-CLI-commands.c **** /*
  92:../../kernel/FreeRTOS-Plus/Demo/Common/FreeRTOS_Plus_CLI_Demos/Sample-CLI-commands.c ****  * Implements the "trace start" and "trace stop" commands;
  93:../../kernel/FreeRTOS-Plus/Demo/Common/FreeRTOS_Plus_CLI_Demos/Sample-CLI-commands.c ****  */
  94:../../kernel/FreeRTOS-Plus/Demo/Common/FreeRTOS_Plus_CLI_Demos/Sample-CLI-commands.c **** #if( configINCLUDE_TRACE_RELATED_CLI_COMMANDS == 1 )
  95:../../kernel/FreeRTOS-Plus/Demo/Common/FreeRTOS_Plus_CLI_Demos/Sample-CLI-commands.c **** 	static BaseType_t prvStartStopTraceCommand( char *pcWriteBuffer, size_t xWriteBufferLen, const cha
  96:../../kernel/FreeRTOS-Plus/Demo/Common/FreeRTOS_Plus_CLI_Demos/Sample-CLI-commands.c **** #endif
  97:../../kernel/FreeRTOS-Plus/Demo/Common/FreeRTOS_Plus_CLI_Demos/Sample-CLI-commands.c **** 
  98:../../kernel/FreeRTOS-Plus/Demo/Common/FreeRTOS_Plus_CLI_Demos/Sample-CLI-commands.c **** /* Structure that defines the "task-stats" command line command.  This generates
  99:../../kernel/FreeRTOS-Plus/Demo/Common/FreeRTOS_Plus_CLI_Demos/Sample-CLI-commands.c **** a table that gives information on each task in the system. */
 100:../../kernel/FreeRTOS-Plus/Demo/Common/FreeRTOS_Plus_CLI_Demos/Sample-CLI-commands.c **** static const CLI_Command_Definition_t xTaskStats =
 101:../../kernel/FreeRTOS-Plus/Demo/Common/FreeRTOS_Plus_CLI_Demos/Sample-CLI-commands.c **** {
 102:../../kernel/FreeRTOS-Plus/Demo/Common/FreeRTOS_Plus_CLI_Demos/Sample-CLI-commands.c **** 	"task-stats", /* The command string to type. */
 103:../../kernel/FreeRTOS-Plus/Demo/Common/FreeRTOS_Plus_CLI_Demos/Sample-CLI-commands.c **** 	"\r\ntask-stats:\r\n Displays a table showing the state of each FreeRTOS task\r\n",
 104:../../kernel/FreeRTOS-Plus/Demo/Common/FreeRTOS_Plus_CLI_Demos/Sample-CLI-commands.c **** 	prvTaskStatsCommand, /* The function to run. */
 105:../../kernel/FreeRTOS-Plus/Demo/Common/FreeRTOS_Plus_CLI_Demos/Sample-CLI-commands.c **** 	0 /* No parameters are expected. */
 106:../../kernel/FreeRTOS-Plus/Demo/Common/FreeRTOS_Plus_CLI_Demos/Sample-CLI-commands.c **** };
 107:../../kernel/FreeRTOS-Plus/Demo/Common/FreeRTOS_Plus_CLI_Demos/Sample-CLI-commands.c **** 
 108:../../kernel/FreeRTOS-Plus/Demo/Common/FreeRTOS_Plus_CLI_Demos/Sample-CLI-commands.c **** /* Structure that defines the "echo_3_parameters" command line command.  This
 109:../../kernel/FreeRTOS-Plus/Demo/Common/FreeRTOS_Plus_CLI_Demos/Sample-CLI-commands.c **** takes exactly three parameters that the command simply echos back one at a
 110:../../kernel/FreeRTOS-Plus/Demo/Common/FreeRTOS_Plus_CLI_Demos/Sample-CLI-commands.c **** time. */
 111:../../kernel/FreeRTOS-Plus/Demo/Common/FreeRTOS_Plus_CLI_Demos/Sample-CLI-commands.c **** static const CLI_Command_Definition_t xThreeParameterEcho =
 112:../../kernel/FreeRTOS-Plus/Demo/Common/FreeRTOS_Plus_CLI_Demos/Sample-CLI-commands.c **** {
 113:../../kernel/FreeRTOS-Plus/Demo/Common/FreeRTOS_Plus_CLI_Demos/Sample-CLI-commands.c **** 	"echo-3-parameters",
 114:../../kernel/FreeRTOS-Plus/Demo/Common/FreeRTOS_Plus_CLI_Demos/Sample-CLI-commands.c **** 	"\r\necho-3-parameters <param1> <param2> <param3>:\r\n Expects three parameters, echos each in tur
 115:../../kernel/FreeRTOS-Plus/Demo/Common/FreeRTOS_Plus_CLI_Demos/Sample-CLI-commands.c **** 	prvThreeParameterEchoCommand, /* The function to run. */
 116:../../kernel/FreeRTOS-Plus/Demo/Common/FreeRTOS_Plus_CLI_Demos/Sample-CLI-commands.c **** 	3 /* Three parameters are expected, which can take any value. */
ARM GAS  /tmp/ccfvQckB.s 			page 5


 117:../../kernel/FreeRTOS-Plus/Demo/Common/FreeRTOS_Plus_CLI_Demos/Sample-CLI-commands.c **** };
 118:../../kernel/FreeRTOS-Plus/Demo/Common/FreeRTOS_Plus_CLI_Demos/Sample-CLI-commands.c **** 
 119:../../kernel/FreeRTOS-Plus/Demo/Common/FreeRTOS_Plus_CLI_Demos/Sample-CLI-commands.c **** /* Structure that defines the "echo_parameters" command line command.  This
 120:../../kernel/FreeRTOS-Plus/Demo/Common/FreeRTOS_Plus_CLI_Demos/Sample-CLI-commands.c **** takes a variable number of parameters that the command simply echos back one at
 121:../../kernel/FreeRTOS-Plus/Demo/Common/FreeRTOS_Plus_CLI_Demos/Sample-CLI-commands.c **** a time. */
 122:../../kernel/FreeRTOS-Plus/Demo/Common/FreeRTOS_Plus_CLI_Demos/Sample-CLI-commands.c **** static const CLI_Command_Definition_t xParameterEcho =
 123:../../kernel/FreeRTOS-Plus/Demo/Common/FreeRTOS_Plus_CLI_Demos/Sample-CLI-commands.c **** {
 124:../../kernel/FreeRTOS-Plus/Demo/Common/FreeRTOS_Plus_CLI_Demos/Sample-CLI-commands.c **** 	"echo-parameters",
 125:../../kernel/FreeRTOS-Plus/Demo/Common/FreeRTOS_Plus_CLI_Demos/Sample-CLI-commands.c **** 	"\r\necho-parameters <...>:\r\n Take variable number of parameters, echos each in turn\r\n",
 126:../../kernel/FreeRTOS-Plus/Demo/Common/FreeRTOS_Plus_CLI_Demos/Sample-CLI-commands.c **** 	prvParameterEchoCommand, /* The function to run. */
 127:../../kernel/FreeRTOS-Plus/Demo/Common/FreeRTOS_Plus_CLI_Demos/Sample-CLI-commands.c **** 	-1 /* The user can enter any number of commands. */
 128:../../kernel/FreeRTOS-Plus/Demo/Common/FreeRTOS_Plus_CLI_Demos/Sample-CLI-commands.c **** };
 129:../../kernel/FreeRTOS-Plus/Demo/Common/FreeRTOS_Plus_CLI_Demos/Sample-CLI-commands.c **** 
 130:../../kernel/FreeRTOS-Plus/Demo/Common/FreeRTOS_Plus_CLI_Demos/Sample-CLI-commands.c **** #if( configGENERATE_RUN_TIME_STATS == 1 )
 131:../../kernel/FreeRTOS-Plus/Demo/Common/FreeRTOS_Plus_CLI_Demos/Sample-CLI-commands.c **** 	/* Structure that defines the "run-time-stats" command line command.   This
 132:../../kernel/FreeRTOS-Plus/Demo/Common/FreeRTOS_Plus_CLI_Demos/Sample-CLI-commands.c **** 	generates a table that shows how much run time each task has */
 133:../../kernel/FreeRTOS-Plus/Demo/Common/FreeRTOS_Plus_CLI_Demos/Sample-CLI-commands.c **** 	static const CLI_Command_Definition_t xRunTimeStats =
 134:../../kernel/FreeRTOS-Plus/Demo/Common/FreeRTOS_Plus_CLI_Demos/Sample-CLI-commands.c **** 	{
 135:../../kernel/FreeRTOS-Plus/Demo/Common/FreeRTOS_Plus_CLI_Demos/Sample-CLI-commands.c **** 		"run-time-stats", /* The command string to type. */
 136:../../kernel/FreeRTOS-Plus/Demo/Common/FreeRTOS_Plus_CLI_Demos/Sample-CLI-commands.c **** 		"\r\nrun-time-stats:\r\n Displays a table showing how much processing time each FreeRTOS task has
 137:../../kernel/FreeRTOS-Plus/Demo/Common/FreeRTOS_Plus_CLI_Demos/Sample-CLI-commands.c **** 		prvRunTimeStatsCommand, /* The function to run. */
 138:../../kernel/FreeRTOS-Plus/Demo/Common/FreeRTOS_Plus_CLI_Demos/Sample-CLI-commands.c **** 		0 /* No parameters are expected. */
 139:../../kernel/FreeRTOS-Plus/Demo/Common/FreeRTOS_Plus_CLI_Demos/Sample-CLI-commands.c **** 	};
 140:../../kernel/FreeRTOS-Plus/Demo/Common/FreeRTOS_Plus_CLI_Demos/Sample-CLI-commands.c **** #endif /* configGENERATE_RUN_TIME_STATS */
 141:../../kernel/FreeRTOS-Plus/Demo/Common/FreeRTOS_Plus_CLI_Demos/Sample-CLI-commands.c **** 
 142:../../kernel/FreeRTOS-Plus/Demo/Common/FreeRTOS_Plus_CLI_Demos/Sample-CLI-commands.c **** #if( configINCLUDE_QUERY_HEAP_COMMAND == 1 )
 143:../../kernel/FreeRTOS-Plus/Demo/Common/FreeRTOS_Plus_CLI_Demos/Sample-CLI-commands.c **** 	/* Structure that defines the "query_heap" command line command. */
 144:../../kernel/FreeRTOS-Plus/Demo/Common/FreeRTOS_Plus_CLI_Demos/Sample-CLI-commands.c **** 	static const CLI_Command_Definition_t xQueryHeap =
 145:../../kernel/FreeRTOS-Plus/Demo/Common/FreeRTOS_Plus_CLI_Demos/Sample-CLI-commands.c **** 	{
 146:../../kernel/FreeRTOS-Plus/Demo/Common/FreeRTOS_Plus_CLI_Demos/Sample-CLI-commands.c **** 		"query-heap",
 147:../../kernel/FreeRTOS-Plus/Demo/Common/FreeRTOS_Plus_CLI_Demos/Sample-CLI-commands.c **** 		"\r\nquery-heap:\r\n Displays the free heap space, and minimum ever free heap space.\r\n",
 148:../../kernel/FreeRTOS-Plus/Demo/Common/FreeRTOS_Plus_CLI_Demos/Sample-CLI-commands.c **** 		prvQueryHeapCommand, /* The function to run. */
 149:../../kernel/FreeRTOS-Plus/Demo/Common/FreeRTOS_Plus_CLI_Demos/Sample-CLI-commands.c **** 		0 /* The user can enter any number of commands. */
 150:../../kernel/FreeRTOS-Plus/Demo/Common/FreeRTOS_Plus_CLI_Demos/Sample-CLI-commands.c **** 	};
 151:../../kernel/FreeRTOS-Plus/Demo/Common/FreeRTOS_Plus_CLI_Demos/Sample-CLI-commands.c **** #endif /* configQUERY_HEAP_COMMAND */
 152:../../kernel/FreeRTOS-Plus/Demo/Common/FreeRTOS_Plus_CLI_Demos/Sample-CLI-commands.c **** 
 153:../../kernel/FreeRTOS-Plus/Demo/Common/FreeRTOS_Plus_CLI_Demos/Sample-CLI-commands.c **** #if configINCLUDE_TRACE_RELATED_CLI_COMMANDS == 1
 154:../../kernel/FreeRTOS-Plus/Demo/Common/FreeRTOS_Plus_CLI_Demos/Sample-CLI-commands.c **** 	/* Structure that defines the "trace" command line command.  This takes a single
 155:../../kernel/FreeRTOS-Plus/Demo/Common/FreeRTOS_Plus_CLI_Demos/Sample-CLI-commands.c **** 	parameter, which can be either "start" or "stop". */
 156:../../kernel/FreeRTOS-Plus/Demo/Common/FreeRTOS_Plus_CLI_Demos/Sample-CLI-commands.c **** 	static const CLI_Command_Definition_t xStartStopTrace =
 157:../../kernel/FreeRTOS-Plus/Demo/Common/FreeRTOS_Plus_CLI_Demos/Sample-CLI-commands.c **** 	{
 158:../../kernel/FreeRTOS-Plus/Demo/Common/FreeRTOS_Plus_CLI_Demos/Sample-CLI-commands.c **** 		"trace",
 159:../../kernel/FreeRTOS-Plus/Demo/Common/FreeRTOS_Plus_CLI_Demos/Sample-CLI-commands.c **** 		"\r\ntrace [start | stop]:\r\n Starts or stops a trace recording for viewing in FreeRTOS+Trace\r\
 160:../../kernel/FreeRTOS-Plus/Demo/Common/FreeRTOS_Plus_CLI_Demos/Sample-CLI-commands.c **** 		prvStartStopTraceCommand, /* The function to run. */
 161:../../kernel/FreeRTOS-Plus/Demo/Common/FreeRTOS_Plus_CLI_Demos/Sample-CLI-commands.c **** 		1 /* One parameter is expected.  Valid values are "start" and "stop". */
 162:../../kernel/FreeRTOS-Plus/Demo/Common/FreeRTOS_Plus_CLI_Demos/Sample-CLI-commands.c **** 	};
 163:../../kernel/FreeRTOS-Plus/Demo/Common/FreeRTOS_Plus_CLI_Demos/Sample-CLI-commands.c **** #endif /* configINCLUDE_TRACE_RELATED_CLI_COMMANDS */
 164:../../kernel/FreeRTOS-Plus/Demo/Common/FreeRTOS_Plus_CLI_Demos/Sample-CLI-commands.c **** 
 165:../../kernel/FreeRTOS-Plus/Demo/Common/FreeRTOS_Plus_CLI_Demos/Sample-CLI-commands.c **** /*-----------------------------------------------------------*/
 166:../../kernel/FreeRTOS-Plus/Demo/Common/FreeRTOS_Plus_CLI_Demos/Sample-CLI-commands.c **** 
 167:../../kernel/FreeRTOS-Plus/Demo/Common/FreeRTOS_Plus_CLI_Demos/Sample-CLI-commands.c **** void vRegisterSampleCLICommands( void )
 168:../../kernel/FreeRTOS-Plus/Demo/Common/FreeRTOS_Plus_CLI_Demos/Sample-CLI-commands.c **** {
 169:../../kernel/FreeRTOS-Plus/Demo/Common/FreeRTOS_Plus_CLI_Demos/Sample-CLI-commands.c **** 	/* Register all the command line commands defined immediately above. */
 170:../../kernel/FreeRTOS-Plus/Demo/Common/FreeRTOS_Plus_CLI_Demos/Sample-CLI-commands.c **** 	FreeRTOS_CLIRegisterCommand( &xTaskStats );	
 171:../../kernel/FreeRTOS-Plus/Demo/Common/FreeRTOS_Plus_CLI_Demos/Sample-CLI-commands.c **** 	FreeRTOS_CLIRegisterCommand( &xThreeParameterEcho );
 172:../../kernel/FreeRTOS-Plus/Demo/Common/FreeRTOS_Plus_CLI_Demos/Sample-CLI-commands.c **** 	FreeRTOS_CLIRegisterCommand( &xParameterEcho );
 173:../../kernel/FreeRTOS-Plus/Demo/Common/FreeRTOS_Plus_CLI_Demos/Sample-CLI-commands.c **** 
ARM GAS  /tmp/ccfvQckB.s 			page 6


 174:../../kernel/FreeRTOS-Plus/Demo/Common/FreeRTOS_Plus_CLI_Demos/Sample-CLI-commands.c **** 	#if( configGENERATE_RUN_TIME_STATS == 1 )
 175:../../kernel/FreeRTOS-Plus/Demo/Common/FreeRTOS_Plus_CLI_Demos/Sample-CLI-commands.c **** 	{
 176:../../kernel/FreeRTOS-Plus/Demo/Common/FreeRTOS_Plus_CLI_Demos/Sample-CLI-commands.c **** 		FreeRTOS_CLIRegisterCommand( &xRunTimeStats );
 177:../../kernel/FreeRTOS-Plus/Demo/Common/FreeRTOS_Plus_CLI_Demos/Sample-CLI-commands.c **** 	}
 178:../../kernel/FreeRTOS-Plus/Demo/Common/FreeRTOS_Plus_CLI_Demos/Sample-CLI-commands.c **** 	#endif
 179:../../kernel/FreeRTOS-Plus/Demo/Common/FreeRTOS_Plus_CLI_Demos/Sample-CLI-commands.c **** 	
 180:../../kernel/FreeRTOS-Plus/Demo/Common/FreeRTOS_Plus_CLI_Demos/Sample-CLI-commands.c **** 	#if( configINCLUDE_QUERY_HEAP_COMMAND == 1 )
 181:../../kernel/FreeRTOS-Plus/Demo/Common/FreeRTOS_Plus_CLI_Demos/Sample-CLI-commands.c **** 	{
 182:../../kernel/FreeRTOS-Plus/Demo/Common/FreeRTOS_Plus_CLI_Demos/Sample-CLI-commands.c **** 		FreeRTOS_CLIRegisterCommand( &xQueryHeap );
 183:../../kernel/FreeRTOS-Plus/Demo/Common/FreeRTOS_Plus_CLI_Demos/Sample-CLI-commands.c **** 	}
 184:../../kernel/FreeRTOS-Plus/Demo/Common/FreeRTOS_Plus_CLI_Demos/Sample-CLI-commands.c **** 	#endif
 185:../../kernel/FreeRTOS-Plus/Demo/Common/FreeRTOS_Plus_CLI_Demos/Sample-CLI-commands.c **** 
 186:../../kernel/FreeRTOS-Plus/Demo/Common/FreeRTOS_Plus_CLI_Demos/Sample-CLI-commands.c **** 	#if( configINCLUDE_TRACE_RELATED_CLI_COMMANDS == 1 )
 187:../../kernel/FreeRTOS-Plus/Demo/Common/FreeRTOS_Plus_CLI_Demos/Sample-CLI-commands.c **** 	{
 188:../../kernel/FreeRTOS-Plus/Demo/Common/FreeRTOS_Plus_CLI_Demos/Sample-CLI-commands.c **** 		FreeRTOS_CLIRegisterCommand( &xStartStopTrace );
 189:../../kernel/FreeRTOS-Plus/Demo/Common/FreeRTOS_Plus_CLI_Demos/Sample-CLI-commands.c **** 	}
 190:../../kernel/FreeRTOS-Plus/Demo/Common/FreeRTOS_Plus_CLI_Demos/Sample-CLI-commands.c **** 	#endif
 191:../../kernel/FreeRTOS-Plus/Demo/Common/FreeRTOS_Plus_CLI_Demos/Sample-CLI-commands.c **** }
 192:../../kernel/FreeRTOS-Plus/Demo/Common/FreeRTOS_Plus_CLI_Demos/Sample-CLI-commands.c **** /*-----------------------------------------------------------*/
 193:../../kernel/FreeRTOS-Plus/Demo/Common/FreeRTOS_Plus_CLI_Demos/Sample-CLI-commands.c **** 
 194:../../kernel/FreeRTOS-Plus/Demo/Common/FreeRTOS_Plus_CLI_Demos/Sample-CLI-commands.c **** static BaseType_t prvTaskStatsCommand( char *pcWriteBuffer, size_t xWriteBufferLen, const char *pcC
 195:../../kernel/FreeRTOS-Plus/Demo/Common/FreeRTOS_Plus_CLI_Demos/Sample-CLI-commands.c **** {
 196:../../kernel/FreeRTOS-Plus/Demo/Common/FreeRTOS_Plus_CLI_Demos/Sample-CLI-commands.c **** const char *const pcHeader = "     State   Priority  Stack    #\r\n********************************
 197:../../kernel/FreeRTOS-Plus/Demo/Common/FreeRTOS_Plus_CLI_Demos/Sample-CLI-commands.c **** BaseType_t xSpacePadding;
 198:../../kernel/FreeRTOS-Plus/Demo/Common/FreeRTOS_Plus_CLI_Demos/Sample-CLI-commands.c **** 
 199:../../kernel/FreeRTOS-Plus/Demo/Common/FreeRTOS_Plus_CLI_Demos/Sample-CLI-commands.c **** 	/* Remove compile time warnings about unused parameters, and check the
 200:../../kernel/FreeRTOS-Plus/Demo/Common/FreeRTOS_Plus_CLI_Demos/Sample-CLI-commands.c **** 	write buffer is not NULL.  NOTE - for simplicity, this example assumes the
 201:../../kernel/FreeRTOS-Plus/Demo/Common/FreeRTOS_Plus_CLI_Demos/Sample-CLI-commands.c **** 	write buffer length is adequate, so does not check for buffer overflows. */
 202:../../kernel/FreeRTOS-Plus/Demo/Common/FreeRTOS_Plus_CLI_Demos/Sample-CLI-commands.c **** 	( void ) pcCommandString;
 203:../../kernel/FreeRTOS-Plus/Demo/Common/FreeRTOS_Plus_CLI_Demos/Sample-CLI-commands.c **** 	( void ) xWriteBufferLen;
 204:../../kernel/FreeRTOS-Plus/Demo/Common/FreeRTOS_Plus_CLI_Demos/Sample-CLI-commands.c **** 	configASSERT( pcWriteBuffer );
 205:../../kernel/FreeRTOS-Plus/Demo/Common/FreeRTOS_Plus_CLI_Demos/Sample-CLI-commands.c **** 
 206:../../kernel/FreeRTOS-Plus/Demo/Common/FreeRTOS_Plus_CLI_Demos/Sample-CLI-commands.c **** 	/* Generate a table of task stats. */
 207:../../kernel/FreeRTOS-Plus/Demo/Common/FreeRTOS_Plus_CLI_Demos/Sample-CLI-commands.c **** 	strcpy( pcWriteBuffer, "Task" );
 208:../../kernel/FreeRTOS-Plus/Demo/Common/FreeRTOS_Plus_CLI_Demos/Sample-CLI-commands.c **** 	pcWriteBuffer += strlen( pcWriteBuffer );
 209:../../kernel/FreeRTOS-Plus/Demo/Common/FreeRTOS_Plus_CLI_Demos/Sample-CLI-commands.c **** 
 210:../../kernel/FreeRTOS-Plus/Demo/Common/FreeRTOS_Plus_CLI_Demos/Sample-CLI-commands.c **** 	/* Minus three for the null terminator and half the number of characters in
 211:../../kernel/FreeRTOS-Plus/Demo/Common/FreeRTOS_Plus_CLI_Demos/Sample-CLI-commands.c **** 	"Task" so the column lines up with the centre of the heading. */
 212:../../kernel/FreeRTOS-Plus/Demo/Common/FreeRTOS_Plus_CLI_Demos/Sample-CLI-commands.c **** 	configASSERT( configMAX_TASK_NAME_LEN > 3 );
 213:../../kernel/FreeRTOS-Plus/Demo/Common/FreeRTOS_Plus_CLI_Demos/Sample-CLI-commands.c **** 	for( xSpacePadding = strlen( "Task" ); xSpacePadding < ( configMAX_TASK_NAME_LEN - 3 ); xSpacePadd
 214:../../kernel/FreeRTOS-Plus/Demo/Common/FreeRTOS_Plus_CLI_Demos/Sample-CLI-commands.c **** 	{
 215:../../kernel/FreeRTOS-Plus/Demo/Common/FreeRTOS_Plus_CLI_Demos/Sample-CLI-commands.c **** 		/* Add a space to align columns after the task's name. */
 216:../../kernel/FreeRTOS-Plus/Demo/Common/FreeRTOS_Plus_CLI_Demos/Sample-CLI-commands.c **** 		*pcWriteBuffer = ' ';
 217:../../kernel/FreeRTOS-Plus/Demo/Common/FreeRTOS_Plus_CLI_Demos/Sample-CLI-commands.c **** 		pcWriteBuffer++;
 218:../../kernel/FreeRTOS-Plus/Demo/Common/FreeRTOS_Plus_CLI_Demos/Sample-CLI-commands.c **** 
 219:../../kernel/FreeRTOS-Plus/Demo/Common/FreeRTOS_Plus_CLI_Demos/Sample-CLI-commands.c **** 		/* Ensure always terminated. */
 220:../../kernel/FreeRTOS-Plus/Demo/Common/FreeRTOS_Plus_CLI_Demos/Sample-CLI-commands.c **** 		*pcWriteBuffer = 0x00;
 221:../../kernel/FreeRTOS-Plus/Demo/Common/FreeRTOS_Plus_CLI_Demos/Sample-CLI-commands.c **** 	}
 222:../../kernel/FreeRTOS-Plus/Demo/Common/FreeRTOS_Plus_CLI_Demos/Sample-CLI-commands.c **** 	strcpy( pcWriteBuffer, pcHeader );
 223:../../kernel/FreeRTOS-Plus/Demo/Common/FreeRTOS_Plus_CLI_Demos/Sample-CLI-commands.c **** 	vTaskList( pcWriteBuffer + strlen( pcHeader ) );
 224:../../kernel/FreeRTOS-Plus/Demo/Common/FreeRTOS_Plus_CLI_Demos/Sample-CLI-commands.c **** 
 225:../../kernel/FreeRTOS-Plus/Demo/Common/FreeRTOS_Plus_CLI_Demos/Sample-CLI-commands.c **** 	/* There is no more data to return after this single string, so return
 226:../../kernel/FreeRTOS-Plus/Demo/Common/FreeRTOS_Plus_CLI_Demos/Sample-CLI-commands.c **** 	pdFALSE. */
 227:../../kernel/FreeRTOS-Plus/Demo/Common/FreeRTOS_Plus_CLI_Demos/Sample-CLI-commands.c **** 	return pdFALSE;
 228:../../kernel/FreeRTOS-Plus/Demo/Common/FreeRTOS_Plus_CLI_Demos/Sample-CLI-commands.c **** }
 229:../../kernel/FreeRTOS-Plus/Demo/Common/FreeRTOS_Plus_CLI_Demos/Sample-CLI-commands.c **** /*-----------------------------------------------------------*/
 230:../../kernel/FreeRTOS-Plus/Demo/Common/FreeRTOS_Plus_CLI_Demos/Sample-CLI-commands.c **** 
ARM GAS  /tmp/ccfvQckB.s 			page 7


 231:../../kernel/FreeRTOS-Plus/Demo/Common/FreeRTOS_Plus_CLI_Demos/Sample-CLI-commands.c **** #if( configINCLUDE_QUERY_HEAP_COMMAND == 1 )
 232:../../kernel/FreeRTOS-Plus/Demo/Common/FreeRTOS_Plus_CLI_Demos/Sample-CLI-commands.c **** 
 233:../../kernel/FreeRTOS-Plus/Demo/Common/FreeRTOS_Plus_CLI_Demos/Sample-CLI-commands.c **** 	static BaseType_t prvQueryHeapCommand( char *pcWriteBuffer, size_t xWriteBufferLen, const char *pc
 234:../../kernel/FreeRTOS-Plus/Demo/Common/FreeRTOS_Plus_CLI_Demos/Sample-CLI-commands.c **** 	{
 235:../../kernel/FreeRTOS-Plus/Demo/Common/FreeRTOS_Plus_CLI_Demos/Sample-CLI-commands.c **** 		/* Remove compile time warnings about unused parameters, and check the
 236:../../kernel/FreeRTOS-Plus/Demo/Common/FreeRTOS_Plus_CLI_Demos/Sample-CLI-commands.c **** 		write buffer is not NULL.  NOTE - for simplicity, this example assumes the
 237:../../kernel/FreeRTOS-Plus/Demo/Common/FreeRTOS_Plus_CLI_Demos/Sample-CLI-commands.c **** 		write buffer length is adequate, so does not check for buffer overflows. */
 238:../../kernel/FreeRTOS-Plus/Demo/Common/FreeRTOS_Plus_CLI_Demos/Sample-CLI-commands.c **** 		( void ) pcCommandString;
 239:../../kernel/FreeRTOS-Plus/Demo/Common/FreeRTOS_Plus_CLI_Demos/Sample-CLI-commands.c **** 		( void ) xWriteBufferLen;
 240:../../kernel/FreeRTOS-Plus/Demo/Common/FreeRTOS_Plus_CLI_Demos/Sample-CLI-commands.c **** 		configASSERT( pcWriteBuffer );
 241:../../kernel/FreeRTOS-Plus/Demo/Common/FreeRTOS_Plus_CLI_Demos/Sample-CLI-commands.c **** 
 242:../../kernel/FreeRTOS-Plus/Demo/Common/FreeRTOS_Plus_CLI_Demos/Sample-CLI-commands.c **** 		sprintf( pcWriteBuffer, "Current free heap %d bytes, minimum ever free heap %d bytes\r\n", ( int 
 243:../../kernel/FreeRTOS-Plus/Demo/Common/FreeRTOS_Plus_CLI_Demos/Sample-CLI-commands.c **** 
 244:../../kernel/FreeRTOS-Plus/Demo/Common/FreeRTOS_Plus_CLI_Demos/Sample-CLI-commands.c **** 		/* There is no more data to return after this single string, so return
 245:../../kernel/FreeRTOS-Plus/Demo/Common/FreeRTOS_Plus_CLI_Demos/Sample-CLI-commands.c **** 		pdFALSE. */
 246:../../kernel/FreeRTOS-Plus/Demo/Common/FreeRTOS_Plus_CLI_Demos/Sample-CLI-commands.c **** 		return pdFALSE;
 247:../../kernel/FreeRTOS-Plus/Demo/Common/FreeRTOS_Plus_CLI_Demos/Sample-CLI-commands.c **** 	}
 248:../../kernel/FreeRTOS-Plus/Demo/Common/FreeRTOS_Plus_CLI_Demos/Sample-CLI-commands.c **** 
 249:../../kernel/FreeRTOS-Plus/Demo/Common/FreeRTOS_Plus_CLI_Demos/Sample-CLI-commands.c **** #endif /* configINCLUDE_QUERY_HEAP */
 250:../../kernel/FreeRTOS-Plus/Demo/Common/FreeRTOS_Plus_CLI_Demos/Sample-CLI-commands.c **** /*-----------------------------------------------------------*/
 251:../../kernel/FreeRTOS-Plus/Demo/Common/FreeRTOS_Plus_CLI_Demos/Sample-CLI-commands.c **** 
 252:../../kernel/FreeRTOS-Plus/Demo/Common/FreeRTOS_Plus_CLI_Demos/Sample-CLI-commands.c **** #if( configGENERATE_RUN_TIME_STATS == 1 )
 253:../../kernel/FreeRTOS-Plus/Demo/Common/FreeRTOS_Plus_CLI_Demos/Sample-CLI-commands.c **** 	
 254:../../kernel/FreeRTOS-Plus/Demo/Common/FreeRTOS_Plus_CLI_Demos/Sample-CLI-commands.c **** 	static BaseType_t prvRunTimeStatsCommand( char *pcWriteBuffer, size_t xWriteBufferLen, const char 
 255:../../kernel/FreeRTOS-Plus/Demo/Common/FreeRTOS_Plus_CLI_Demos/Sample-CLI-commands.c **** 	{
 256:../../kernel/FreeRTOS-Plus/Demo/Common/FreeRTOS_Plus_CLI_Demos/Sample-CLI-commands.c **** 	const char * const pcHeader = "  Abs Time      % Time\r\n****************************************\
 257:../../kernel/FreeRTOS-Plus/Demo/Common/FreeRTOS_Plus_CLI_Demos/Sample-CLI-commands.c **** 	BaseType_t xSpacePadding;
 258:../../kernel/FreeRTOS-Plus/Demo/Common/FreeRTOS_Plus_CLI_Demos/Sample-CLI-commands.c **** 
 259:../../kernel/FreeRTOS-Plus/Demo/Common/FreeRTOS_Plus_CLI_Demos/Sample-CLI-commands.c **** 		/* Remove compile time warnings about unused parameters, and check the
 260:../../kernel/FreeRTOS-Plus/Demo/Common/FreeRTOS_Plus_CLI_Demos/Sample-CLI-commands.c **** 		write buffer is not NULL.  NOTE - for simplicity, this example assumes the
 261:../../kernel/FreeRTOS-Plus/Demo/Common/FreeRTOS_Plus_CLI_Demos/Sample-CLI-commands.c **** 		write buffer length is adequate, so does not check for buffer overflows. */
 262:../../kernel/FreeRTOS-Plus/Demo/Common/FreeRTOS_Plus_CLI_Demos/Sample-CLI-commands.c **** 		( void ) pcCommandString;
 263:../../kernel/FreeRTOS-Plus/Demo/Common/FreeRTOS_Plus_CLI_Demos/Sample-CLI-commands.c **** 		( void ) xWriteBufferLen;
 264:../../kernel/FreeRTOS-Plus/Demo/Common/FreeRTOS_Plus_CLI_Demos/Sample-CLI-commands.c **** 		configASSERT( pcWriteBuffer );
 265:../../kernel/FreeRTOS-Plus/Demo/Common/FreeRTOS_Plus_CLI_Demos/Sample-CLI-commands.c **** 
 266:../../kernel/FreeRTOS-Plus/Demo/Common/FreeRTOS_Plus_CLI_Demos/Sample-CLI-commands.c **** 		/* Generate a table of task stats. */
 267:../../kernel/FreeRTOS-Plus/Demo/Common/FreeRTOS_Plus_CLI_Demos/Sample-CLI-commands.c **** 		strcpy( pcWriteBuffer, "Task" );
 268:../../kernel/FreeRTOS-Plus/Demo/Common/FreeRTOS_Plus_CLI_Demos/Sample-CLI-commands.c **** 		pcWriteBuffer += strlen( pcWriteBuffer );
 269:../../kernel/FreeRTOS-Plus/Demo/Common/FreeRTOS_Plus_CLI_Demos/Sample-CLI-commands.c **** 
 270:../../kernel/FreeRTOS-Plus/Demo/Common/FreeRTOS_Plus_CLI_Demos/Sample-CLI-commands.c **** 		/* Pad the string "task" with however many bytes necessary to make it the
 271:../../kernel/FreeRTOS-Plus/Demo/Common/FreeRTOS_Plus_CLI_Demos/Sample-CLI-commands.c **** 		length of a task name.  Minus three for the null terminator and half the
 272:../../kernel/FreeRTOS-Plus/Demo/Common/FreeRTOS_Plus_CLI_Demos/Sample-CLI-commands.c **** 		number of characters in	"Task" so the column lines up with the centre of
 273:../../kernel/FreeRTOS-Plus/Demo/Common/FreeRTOS_Plus_CLI_Demos/Sample-CLI-commands.c **** 		the heading. */
 274:../../kernel/FreeRTOS-Plus/Demo/Common/FreeRTOS_Plus_CLI_Demos/Sample-CLI-commands.c **** 		for( xSpacePadding = strlen( "Task" ); xSpacePadding < ( configMAX_TASK_NAME_LEN - 3 ); xSpacePad
 275:../../kernel/FreeRTOS-Plus/Demo/Common/FreeRTOS_Plus_CLI_Demos/Sample-CLI-commands.c **** 		{
 276:../../kernel/FreeRTOS-Plus/Demo/Common/FreeRTOS_Plus_CLI_Demos/Sample-CLI-commands.c **** 			/* Add a space to align columns after the task's name. */
 277:../../kernel/FreeRTOS-Plus/Demo/Common/FreeRTOS_Plus_CLI_Demos/Sample-CLI-commands.c **** 			*pcWriteBuffer = ' ';
 278:../../kernel/FreeRTOS-Plus/Demo/Common/FreeRTOS_Plus_CLI_Demos/Sample-CLI-commands.c **** 			pcWriteBuffer++;
 279:../../kernel/FreeRTOS-Plus/Demo/Common/FreeRTOS_Plus_CLI_Demos/Sample-CLI-commands.c **** 
 280:../../kernel/FreeRTOS-Plus/Demo/Common/FreeRTOS_Plus_CLI_Demos/Sample-CLI-commands.c **** 			/* Ensure always terminated. */
 281:../../kernel/FreeRTOS-Plus/Demo/Common/FreeRTOS_Plus_CLI_Demos/Sample-CLI-commands.c **** 			*pcWriteBuffer = 0x00;
 282:../../kernel/FreeRTOS-Plus/Demo/Common/FreeRTOS_Plus_CLI_Demos/Sample-CLI-commands.c **** 		}
 283:../../kernel/FreeRTOS-Plus/Demo/Common/FreeRTOS_Plus_CLI_Demos/Sample-CLI-commands.c **** 
 284:../../kernel/FreeRTOS-Plus/Demo/Common/FreeRTOS_Plus_CLI_Demos/Sample-CLI-commands.c **** 		strcpy( pcWriteBuffer, pcHeader );
 285:../../kernel/FreeRTOS-Plus/Demo/Common/FreeRTOS_Plus_CLI_Demos/Sample-CLI-commands.c **** 		vTaskGetRunTimeStats( pcWriteBuffer + strlen( pcHeader ) );
 286:../../kernel/FreeRTOS-Plus/Demo/Common/FreeRTOS_Plus_CLI_Demos/Sample-CLI-commands.c **** 
 287:../../kernel/FreeRTOS-Plus/Demo/Common/FreeRTOS_Plus_CLI_Demos/Sample-CLI-commands.c **** 		/* There is no more data to return after this single string, so return
ARM GAS  /tmp/ccfvQckB.s 			page 8


 288:../../kernel/FreeRTOS-Plus/Demo/Common/FreeRTOS_Plus_CLI_Demos/Sample-CLI-commands.c **** 		pdFALSE. */
 289:../../kernel/FreeRTOS-Plus/Demo/Common/FreeRTOS_Plus_CLI_Demos/Sample-CLI-commands.c **** 		return pdFALSE;
 290:../../kernel/FreeRTOS-Plus/Demo/Common/FreeRTOS_Plus_CLI_Demos/Sample-CLI-commands.c **** 	}
 291:../../kernel/FreeRTOS-Plus/Demo/Common/FreeRTOS_Plus_CLI_Demos/Sample-CLI-commands.c **** 	
 292:../../kernel/FreeRTOS-Plus/Demo/Common/FreeRTOS_Plus_CLI_Demos/Sample-CLI-commands.c **** #endif /* configGENERATE_RUN_TIME_STATS */
 293:../../kernel/FreeRTOS-Plus/Demo/Common/FreeRTOS_Plus_CLI_Demos/Sample-CLI-commands.c **** /*-----------------------------------------------------------*/
 294:../../kernel/FreeRTOS-Plus/Demo/Common/FreeRTOS_Plus_CLI_Demos/Sample-CLI-commands.c **** 
 295:../../kernel/FreeRTOS-Plus/Demo/Common/FreeRTOS_Plus_CLI_Demos/Sample-CLI-commands.c **** static BaseType_t prvThreeParameterEchoCommand( char *pcWriteBuffer, size_t xWriteBufferLen, const 
 296:../../kernel/FreeRTOS-Plus/Demo/Common/FreeRTOS_Plus_CLI_Demos/Sample-CLI-commands.c **** {
 297:../../kernel/FreeRTOS-Plus/Demo/Common/FreeRTOS_Plus_CLI_Demos/Sample-CLI-commands.c **** const char *pcParameter;
 298:../../kernel/FreeRTOS-Plus/Demo/Common/FreeRTOS_Plus_CLI_Demos/Sample-CLI-commands.c **** BaseType_t xParameterStringLength, xReturn;
 299:../../kernel/FreeRTOS-Plus/Demo/Common/FreeRTOS_Plus_CLI_Demos/Sample-CLI-commands.c **** static UBaseType_t uxParameterNumber = 0;
 300:../../kernel/FreeRTOS-Plus/Demo/Common/FreeRTOS_Plus_CLI_Demos/Sample-CLI-commands.c **** 
 301:../../kernel/FreeRTOS-Plus/Demo/Common/FreeRTOS_Plus_CLI_Demos/Sample-CLI-commands.c **** 	/* Remove compile time warnings about unused parameters, and check the
 302:../../kernel/FreeRTOS-Plus/Demo/Common/FreeRTOS_Plus_CLI_Demos/Sample-CLI-commands.c **** 	write buffer is not NULL.  NOTE - for simplicity, this example assumes the
 303:../../kernel/FreeRTOS-Plus/Demo/Common/FreeRTOS_Plus_CLI_Demos/Sample-CLI-commands.c **** 	write buffer length is adequate, so does not check for buffer overflows. */
 304:../../kernel/FreeRTOS-Plus/Demo/Common/FreeRTOS_Plus_CLI_Demos/Sample-CLI-commands.c **** 	( void ) pcCommandString;
 305:../../kernel/FreeRTOS-Plus/Demo/Common/FreeRTOS_Plus_CLI_Demos/Sample-CLI-commands.c **** 	( void ) xWriteBufferLen;
 306:../../kernel/FreeRTOS-Plus/Demo/Common/FreeRTOS_Plus_CLI_Demos/Sample-CLI-commands.c **** 	configASSERT( pcWriteBuffer );
 307:../../kernel/FreeRTOS-Plus/Demo/Common/FreeRTOS_Plus_CLI_Demos/Sample-CLI-commands.c **** 
 308:../../kernel/FreeRTOS-Plus/Demo/Common/FreeRTOS_Plus_CLI_Demos/Sample-CLI-commands.c **** 	if( uxParameterNumber == 0 )
 309:../../kernel/FreeRTOS-Plus/Demo/Common/FreeRTOS_Plus_CLI_Demos/Sample-CLI-commands.c **** 	{
 310:../../kernel/FreeRTOS-Plus/Demo/Common/FreeRTOS_Plus_CLI_Demos/Sample-CLI-commands.c **** 		/* The first time the function is called after the command has been
 311:../../kernel/FreeRTOS-Plus/Demo/Common/FreeRTOS_Plus_CLI_Demos/Sample-CLI-commands.c **** 		entered just a header string is returned. */
 312:../../kernel/FreeRTOS-Plus/Demo/Common/FreeRTOS_Plus_CLI_Demos/Sample-CLI-commands.c **** 		sprintf( pcWriteBuffer, "The three parameters were:\r\n" );
 313:../../kernel/FreeRTOS-Plus/Demo/Common/FreeRTOS_Plus_CLI_Demos/Sample-CLI-commands.c **** 
 314:../../kernel/FreeRTOS-Plus/Demo/Common/FreeRTOS_Plus_CLI_Demos/Sample-CLI-commands.c **** 		/* Next time the function is called the first parameter will be echoed
 315:../../kernel/FreeRTOS-Plus/Demo/Common/FreeRTOS_Plus_CLI_Demos/Sample-CLI-commands.c **** 		back. */
 316:../../kernel/FreeRTOS-Plus/Demo/Common/FreeRTOS_Plus_CLI_Demos/Sample-CLI-commands.c **** 		uxParameterNumber = 1U;
 317:../../kernel/FreeRTOS-Plus/Demo/Common/FreeRTOS_Plus_CLI_Demos/Sample-CLI-commands.c **** 
 318:../../kernel/FreeRTOS-Plus/Demo/Common/FreeRTOS_Plus_CLI_Demos/Sample-CLI-commands.c **** 		/* There is more data to be returned as no parameters have been echoed
 319:../../kernel/FreeRTOS-Plus/Demo/Common/FreeRTOS_Plus_CLI_Demos/Sample-CLI-commands.c **** 		back yet. */
 320:../../kernel/FreeRTOS-Plus/Demo/Common/FreeRTOS_Plus_CLI_Demos/Sample-CLI-commands.c **** 		xReturn = pdPASS;
 321:../../kernel/FreeRTOS-Plus/Demo/Common/FreeRTOS_Plus_CLI_Demos/Sample-CLI-commands.c **** 	}
 322:../../kernel/FreeRTOS-Plus/Demo/Common/FreeRTOS_Plus_CLI_Demos/Sample-CLI-commands.c **** 	else
 323:../../kernel/FreeRTOS-Plus/Demo/Common/FreeRTOS_Plus_CLI_Demos/Sample-CLI-commands.c **** 	{
 324:../../kernel/FreeRTOS-Plus/Demo/Common/FreeRTOS_Plus_CLI_Demos/Sample-CLI-commands.c **** 		/* Obtain the parameter string. */
 325:../../kernel/FreeRTOS-Plus/Demo/Common/FreeRTOS_Plus_CLI_Demos/Sample-CLI-commands.c **** 		pcParameter = FreeRTOS_CLIGetParameter
 326:../../kernel/FreeRTOS-Plus/Demo/Common/FreeRTOS_Plus_CLI_Demos/Sample-CLI-commands.c **** 						(
 327:../../kernel/FreeRTOS-Plus/Demo/Common/FreeRTOS_Plus_CLI_Demos/Sample-CLI-commands.c **** 							pcCommandString,		/* The command string itself. */
 328:../../kernel/FreeRTOS-Plus/Demo/Common/FreeRTOS_Plus_CLI_Demos/Sample-CLI-commands.c **** 							uxParameterNumber,		/* Return the next parameter. */
 329:../../kernel/FreeRTOS-Plus/Demo/Common/FreeRTOS_Plus_CLI_Demos/Sample-CLI-commands.c **** 							&xParameterStringLength	/* Store the parameter string length. */
 330:../../kernel/FreeRTOS-Plus/Demo/Common/FreeRTOS_Plus_CLI_Demos/Sample-CLI-commands.c **** 						);
 331:../../kernel/FreeRTOS-Plus/Demo/Common/FreeRTOS_Plus_CLI_Demos/Sample-CLI-commands.c **** 
 332:../../kernel/FreeRTOS-Plus/Demo/Common/FreeRTOS_Plus_CLI_Demos/Sample-CLI-commands.c **** 		/* Sanity check something was returned. */
 333:../../kernel/FreeRTOS-Plus/Demo/Common/FreeRTOS_Plus_CLI_Demos/Sample-CLI-commands.c **** 		configASSERT( pcParameter );
 334:../../kernel/FreeRTOS-Plus/Demo/Common/FreeRTOS_Plus_CLI_Demos/Sample-CLI-commands.c **** 
 335:../../kernel/FreeRTOS-Plus/Demo/Common/FreeRTOS_Plus_CLI_Demos/Sample-CLI-commands.c **** 		/* Return the parameter string. */
 336:../../kernel/FreeRTOS-Plus/Demo/Common/FreeRTOS_Plus_CLI_Demos/Sample-CLI-commands.c **** 		memset( pcWriteBuffer, 0x00, xWriteBufferLen );
 337:../../kernel/FreeRTOS-Plus/Demo/Common/FreeRTOS_Plus_CLI_Demos/Sample-CLI-commands.c **** 		sprintf( pcWriteBuffer, "%d: ", ( int ) uxParameterNumber );
 338:../../kernel/FreeRTOS-Plus/Demo/Common/FreeRTOS_Plus_CLI_Demos/Sample-CLI-commands.c **** 		strncat( pcWriteBuffer, pcParameter, ( size_t ) xParameterStringLength );
 339:../../kernel/FreeRTOS-Plus/Demo/Common/FreeRTOS_Plus_CLI_Demos/Sample-CLI-commands.c **** 		strncat( pcWriteBuffer, "\r\n", strlen( "\r\n" ) );
 340:../../kernel/FreeRTOS-Plus/Demo/Common/FreeRTOS_Plus_CLI_Demos/Sample-CLI-commands.c **** 
 341:../../kernel/FreeRTOS-Plus/Demo/Common/FreeRTOS_Plus_CLI_Demos/Sample-CLI-commands.c **** 		/* If this is the last of the three parameters then there are no more
 342:../../kernel/FreeRTOS-Plus/Demo/Common/FreeRTOS_Plus_CLI_Demos/Sample-CLI-commands.c **** 		strings to return after this one. */
 343:../../kernel/FreeRTOS-Plus/Demo/Common/FreeRTOS_Plus_CLI_Demos/Sample-CLI-commands.c **** 		if( uxParameterNumber == 3U )
 344:../../kernel/FreeRTOS-Plus/Demo/Common/FreeRTOS_Plus_CLI_Demos/Sample-CLI-commands.c **** 		{
ARM GAS  /tmp/ccfvQckB.s 			page 9


 345:../../kernel/FreeRTOS-Plus/Demo/Common/FreeRTOS_Plus_CLI_Demos/Sample-CLI-commands.c **** 			/* If this is the last of the three parameters then there are no more
 346:../../kernel/FreeRTOS-Plus/Demo/Common/FreeRTOS_Plus_CLI_Demos/Sample-CLI-commands.c **** 			strings to return after this one. */
 347:../../kernel/FreeRTOS-Plus/Demo/Common/FreeRTOS_Plus_CLI_Demos/Sample-CLI-commands.c **** 			xReturn = pdFALSE;
 348:../../kernel/FreeRTOS-Plus/Demo/Common/FreeRTOS_Plus_CLI_Demos/Sample-CLI-commands.c **** 			uxParameterNumber = 0;
 349:../../kernel/FreeRTOS-Plus/Demo/Common/FreeRTOS_Plus_CLI_Demos/Sample-CLI-commands.c **** 		}
 350:../../kernel/FreeRTOS-Plus/Demo/Common/FreeRTOS_Plus_CLI_Demos/Sample-CLI-commands.c **** 		else
 351:../../kernel/FreeRTOS-Plus/Demo/Common/FreeRTOS_Plus_CLI_Demos/Sample-CLI-commands.c **** 		{
 352:../../kernel/FreeRTOS-Plus/Demo/Common/FreeRTOS_Plus_CLI_Demos/Sample-CLI-commands.c **** 			/* There are more parameters to return after this one. */
 353:../../kernel/FreeRTOS-Plus/Demo/Common/FreeRTOS_Plus_CLI_Demos/Sample-CLI-commands.c **** 			xReturn = pdTRUE;
 354:../../kernel/FreeRTOS-Plus/Demo/Common/FreeRTOS_Plus_CLI_Demos/Sample-CLI-commands.c **** 			uxParameterNumber++;
 355:../../kernel/FreeRTOS-Plus/Demo/Common/FreeRTOS_Plus_CLI_Demos/Sample-CLI-commands.c **** 		}
 356:../../kernel/FreeRTOS-Plus/Demo/Common/FreeRTOS_Plus_CLI_Demos/Sample-CLI-commands.c **** 	}
 357:../../kernel/FreeRTOS-Plus/Demo/Common/FreeRTOS_Plus_CLI_Demos/Sample-CLI-commands.c **** 
 358:../../kernel/FreeRTOS-Plus/Demo/Common/FreeRTOS_Plus_CLI_Demos/Sample-CLI-commands.c **** 	return xReturn;
 359:../../kernel/FreeRTOS-Plus/Demo/Common/FreeRTOS_Plus_CLI_Demos/Sample-CLI-commands.c **** }
 360:../../kernel/FreeRTOS-Plus/Demo/Common/FreeRTOS_Plus_CLI_Demos/Sample-CLI-commands.c **** /*-----------------------------------------------------------*/
 361:../../kernel/FreeRTOS-Plus/Demo/Common/FreeRTOS_Plus_CLI_Demos/Sample-CLI-commands.c **** 
 362:../../kernel/FreeRTOS-Plus/Demo/Common/FreeRTOS_Plus_CLI_Demos/Sample-CLI-commands.c **** static BaseType_t prvParameterEchoCommand( char *pcWriteBuffer, size_t xWriteBufferLen, const char 
 363:../../kernel/FreeRTOS-Plus/Demo/Common/FreeRTOS_Plus_CLI_Demos/Sample-CLI-commands.c **** {
 113              		.loc 1 363 1 view -0
 114              		.cfi_startproc
 115              		@ args = 0, pretend = 0, frame = 8
 116              		@ frame_needed = 0, uses_anonymous_args = 0
 364:../../kernel/FreeRTOS-Plus/Demo/Common/FreeRTOS_Plus_CLI_Demos/Sample-CLI-commands.c **** const char *pcParameter;
 117              		.loc 1 364 1 view .LVU1
 365:../../kernel/FreeRTOS-Plus/Demo/Common/FreeRTOS_Plus_CLI_Demos/Sample-CLI-commands.c **** BaseType_t xParameterStringLength, xReturn;
 118              		.loc 1 365 1 view .LVU2
 366:../../kernel/FreeRTOS-Plus/Demo/Common/FreeRTOS_Plus_CLI_Demos/Sample-CLI-commands.c **** static UBaseType_t uxParameterNumber = 0;
 119              		.loc 1 366 1 view .LVU3
 367:../../kernel/FreeRTOS-Plus/Demo/Common/FreeRTOS_Plus_CLI_Demos/Sample-CLI-commands.c **** 
 368:../../kernel/FreeRTOS-Plus/Demo/Common/FreeRTOS_Plus_CLI_Demos/Sample-CLI-commands.c **** 	/* Remove compile time warnings about unused parameters, and check the
 369:../../kernel/FreeRTOS-Plus/Demo/Common/FreeRTOS_Plus_CLI_Demos/Sample-CLI-commands.c **** 	write buffer is not NULL.  NOTE - for simplicity, this example assumes the
 370:../../kernel/FreeRTOS-Plus/Demo/Common/FreeRTOS_Plus_CLI_Demos/Sample-CLI-commands.c **** 	write buffer length is adequate, so does not check for buffer overflows. */
 371:../../kernel/FreeRTOS-Plus/Demo/Common/FreeRTOS_Plus_CLI_Demos/Sample-CLI-commands.c **** 	( void ) pcCommandString;
 120              		.loc 1 371 2 view .LVU4
 372:../../kernel/FreeRTOS-Plus/Demo/Common/FreeRTOS_Plus_CLI_Demos/Sample-CLI-commands.c **** 	( void ) xWriteBufferLen;
 121              		.loc 1 372 2 view .LVU5
 373:../../kernel/FreeRTOS-Plus/Demo/Common/FreeRTOS_Plus_CLI_Demos/Sample-CLI-commands.c **** 	configASSERT( pcWriteBuffer );
 122              		.loc 1 373 2 view .LVU6
 123 0000 0028     		cmp	r0, #0	@ pcWriteBuffer
 124 0002 3DD0     		beq	.L10	@
 125              		.loc 1 373 31 discriminator 2 view .LVU7
 374:../../kernel/FreeRTOS-Plus/Demo/Common/FreeRTOS_Plus_CLI_Demos/Sample-CLI-commands.c **** 
 375:../../kernel/FreeRTOS-Plus/Demo/Common/FreeRTOS_Plus_CLI_Demos/Sample-CLI-commands.c **** 	if( uxParameterNumber == 0 )
 126              		.loc 1 375 2 discriminator 2 view .LVU8
 127              	@ ../../kernel/FreeRTOS-Plus/Demo/Common/FreeRTOS_Plus_CLI_Demos/Sample-CLI-commands.c:363: {
 363:../../kernel/FreeRTOS-Plus/Demo/Common/FreeRTOS_Plus_CLI_Demos/Sample-CLI-commands.c **** const char *pcParameter;
 128              		.loc 1 363 1 is_stmt 0 discriminator 2 view .LVU9
 129 0004 F0B5     		push	{r4, r5, r6, r7, lr}	@
 130              		.cfi_def_cfa_offset 20
 131              		.cfi_offset 4, -20
 132              		.cfi_offset 5, -16
 133              		.cfi_offset 6, -12
 134              		.cfi_offset 7, -8
 135              		.cfi_offset 14, -4
 136              	@ ../../kernel/FreeRTOS-Plus/Demo/Common/FreeRTOS_Plus_CLI_Demos/Sample-CLI-commands.c:375: 	if( ux
 137              		.loc 1 375 24 discriminator 2 view .LVU10
ARM GAS  /tmp/ccfvQckB.s 			page 10


 138 0006 254E     		ldr	r6, .L11	@ tmp126,
 139 0008 0F46     		mov	r7, r1	@ xWriteBufferLen, xWriteBufferLen
 140 000a 3168     		ldr	r1, [r6]	@ uxParameterNumber.0_1, uxParameterNumber
 141              	.LVL1:
 142              	@ ../../kernel/FreeRTOS-Plus/Demo/Common/FreeRTOS_Plus_CLI_Demos/Sample-CLI-commands.c:363: {
 363:../../kernel/FreeRTOS-Plus/Demo/Common/FreeRTOS_Plus_CLI_Demos/Sample-CLI-commands.c **** const char *pcParameter;
 143              		.loc 1 363 1 discriminator 2 view .LVU11
 144 000c 83B0     		sub	sp, sp, #12	@,,
 145              		.cfi_def_cfa_offset 32
 146 000e 0546     		mov	r5, r0	@ pcWriteBuffer, pcWriteBuffer
 147              	@ ../../kernel/FreeRTOS-Plus/Demo/Common/FreeRTOS_Plus_CLI_Demos/Sample-CLI-commands.c:375: 	if( ux
 148              		.loc 1 375 4 discriminator 2 view .LVU12
 149 0010 91B9     		cbnz	r1, .L4	@ uxParameterNumber.0_1,
 376:../../kernel/FreeRTOS-Plus/Demo/Common/FreeRTOS_Plus_CLI_Demos/Sample-CLI-commands.c **** 	{
 377:../../kernel/FreeRTOS-Plus/Demo/Common/FreeRTOS_Plus_CLI_Demos/Sample-CLI-commands.c **** 		/* The first time the function is called after the command has been
 378:../../kernel/FreeRTOS-Plus/Demo/Common/FreeRTOS_Plus_CLI_Demos/Sample-CLI-commands.c **** 		entered just a header string is returned. */
 379:../../kernel/FreeRTOS-Plus/Demo/Common/FreeRTOS_Plus_CLI_Demos/Sample-CLI-commands.c **** 		sprintf( pcWriteBuffer, "The parameters were:\r\n" );
 150              		.loc 1 379 3 is_stmt 1 view .LVU13
 151 0012 234C     		ldr	r4, .L11+4	@ tmp129,
 152 0014 0FCC     		ldmia	r4!, {r0, r1, r2, r3}	@ tmp129,,,,
 153              	.LVL2:
 154              		.loc 1 379 3 is_stmt 0 view .LVU14
 155 0016 B4F804C0 		ldrh	ip, [r4, #4]	@ unaligned	@ tmp130, MEM[(void *)"The parameters were:\r\n"]
 156 001a A779     		ldrb	r7, [r4, #6]	@ zero_extendqisi2	@ MEM[(void *)"The parameters were:\r\n"], MEM[(void *)"The p
 157              	.LVL3:
 158              		.loc 1 379 3 view .LVU15
 159 001c 2860     		str	r0, [r5]	@ unaligned	@, MEM[(void *)pcWriteBuffer_10(D)]
 160 001e 2068     		ldr	r0, [r4]	@, MEM[(void *)"The parameters were:\r\n"]
 161 0020 2861     		str	r0, [r5, #16]	@ unaligned	@, MEM[(void *)pcWriteBuffer_10(D)]
 162              	@ ../../kernel/FreeRTOS-Plus/Demo/Common/FreeRTOS_Plus_CLI_Demos/Sample-CLI-commands.c:383: 		uxPar
 380:../../kernel/FreeRTOS-Plus/Demo/Common/FreeRTOS_Plus_CLI_Demos/Sample-CLI-commands.c **** 
 381:../../kernel/FreeRTOS-Plus/Demo/Common/FreeRTOS_Plus_CLI_Demos/Sample-CLI-commands.c **** 		/* Next time the function is called the first parameter will be echoed
 382:../../kernel/FreeRTOS-Plus/Demo/Common/FreeRTOS_Plus_CLI_Demos/Sample-CLI-commands.c **** 		back. */
 383:../../kernel/FreeRTOS-Plus/Demo/Common/FreeRTOS_Plus_CLI_Demos/Sample-CLI-commands.c **** 		uxParameterNumber = 1U;
 163              		.loc 1 383 21 view .LVU16
 164 0022 0124     		movs	r4, #1	@ tmp135,
 165              	@ ../../kernel/FreeRTOS-Plus/Demo/Common/FreeRTOS_Plus_CLI_Demos/Sample-CLI-commands.c:387: 		xRetu
 384:../../kernel/FreeRTOS-Plus/Demo/Common/FreeRTOS_Plus_CLI_Demos/Sample-CLI-commands.c **** 
 385:../../kernel/FreeRTOS-Plus/Demo/Common/FreeRTOS_Plus_CLI_Demos/Sample-CLI-commands.c **** 		/* There is more data to be returned as no parameters have been echoed
 386:../../kernel/FreeRTOS-Plus/Demo/Common/FreeRTOS_Plus_CLI_Demos/Sample-CLI-commands.c **** 		back yet. */
 387:../../kernel/FreeRTOS-Plus/Demo/Common/FreeRTOS_Plus_CLI_Demos/Sample-CLI-commands.c **** 		xReturn = pdPASS;
 166              		.loc 1 387 11 view .LVU17
 167 0024 2046     		mov	r0, r4	@ <retval>, tmp135
 168              	@ ../../kernel/FreeRTOS-Plus/Demo/Common/FreeRTOS_Plus_CLI_Demos/Sample-CLI-commands.c:379: 		sprin
 379:../../kernel/FreeRTOS-Plus/Demo/Common/FreeRTOS_Plus_CLI_Demos/Sample-CLI-commands.c **** 
 169              		.loc 1 379 3 view .LVU18
 170 0026 6960     		str	r1, [r5, #4]	@ unaligned	@, MEM[(void *)pcWriteBuffer_10(D)]
 171 0028 AA60     		str	r2, [r5, #8]	@ unaligned	@, MEM[(void *)pcWriteBuffer_10(D)]
 172 002a EB60     		str	r3, [r5, #12]	@ unaligned	@, MEM[(void *)pcWriteBuffer_10(D)]
 173 002c A5F814C0 		strh	ip, [r5, #20]	@ unaligned	@ tmp130, MEM[(void *)pcWriteBuffer_10(D)]
 174 0030 AF75     		strb	r7, [r5, #22]	@ MEM[(void *)"The parameters were:\r\n"], MEM[(void *)pcWriteBuffer_10(D)]
 383:../../kernel/FreeRTOS-Plus/Demo/Common/FreeRTOS_Plus_CLI_Demos/Sample-CLI-commands.c **** 
 175              		.loc 1 383 3 is_stmt 1 view .LVU19
 176              	@ ../../kernel/FreeRTOS-Plus/Demo/Common/FreeRTOS_Plus_CLI_Demos/Sample-CLI-commands.c:383: 		uxPar
 383:../../kernel/FreeRTOS-Plus/Demo/Common/FreeRTOS_Plus_CLI_Demos/Sample-CLI-commands.c **** 
 177              		.loc 1 383 21 is_stmt 0 view .LVU20
 178 0032 3460     		str	r4, [r6]	@ tmp135, uxParameterNumber
ARM GAS  /tmp/ccfvQckB.s 			page 11


 179              		.loc 1 387 3 is_stmt 1 view .LVU21
 180              	.LVL4:
 181              	@ ../../kernel/FreeRTOS-Plus/Demo/Common/FreeRTOS_Plus_CLI_Demos/Sample-CLI-commands.c:426: }
 388:../../kernel/FreeRTOS-Plus/Demo/Common/FreeRTOS_Plus_CLI_Demos/Sample-CLI-commands.c **** 	}
 389:../../kernel/FreeRTOS-Plus/Demo/Common/FreeRTOS_Plus_CLI_Demos/Sample-CLI-commands.c **** 	else
 390:../../kernel/FreeRTOS-Plus/Demo/Common/FreeRTOS_Plus_CLI_Demos/Sample-CLI-commands.c **** 	{
 391:../../kernel/FreeRTOS-Plus/Demo/Common/FreeRTOS_Plus_CLI_Demos/Sample-CLI-commands.c **** 		/* Obtain the parameter string. */
 392:../../kernel/FreeRTOS-Plus/Demo/Common/FreeRTOS_Plus_CLI_Demos/Sample-CLI-commands.c **** 		pcParameter = FreeRTOS_CLIGetParameter
 393:../../kernel/FreeRTOS-Plus/Demo/Common/FreeRTOS_Plus_CLI_Demos/Sample-CLI-commands.c **** 						(
 394:../../kernel/FreeRTOS-Plus/Demo/Common/FreeRTOS_Plus_CLI_Demos/Sample-CLI-commands.c **** 							pcCommandString,		/* The command string itself. */
 395:../../kernel/FreeRTOS-Plus/Demo/Common/FreeRTOS_Plus_CLI_Demos/Sample-CLI-commands.c **** 							uxParameterNumber,		/* Return the next parameter. */
 396:../../kernel/FreeRTOS-Plus/Demo/Common/FreeRTOS_Plus_CLI_Demos/Sample-CLI-commands.c **** 							&xParameterStringLength	/* Store the parameter string length. */
 397:../../kernel/FreeRTOS-Plus/Demo/Common/FreeRTOS_Plus_CLI_Demos/Sample-CLI-commands.c **** 						);
 398:../../kernel/FreeRTOS-Plus/Demo/Common/FreeRTOS_Plus_CLI_Demos/Sample-CLI-commands.c **** 
 399:../../kernel/FreeRTOS-Plus/Demo/Common/FreeRTOS_Plus_CLI_Demos/Sample-CLI-commands.c **** 		if( pcParameter != NULL )
 400:../../kernel/FreeRTOS-Plus/Demo/Common/FreeRTOS_Plus_CLI_Demos/Sample-CLI-commands.c **** 		{
 401:../../kernel/FreeRTOS-Plus/Demo/Common/FreeRTOS_Plus_CLI_Demos/Sample-CLI-commands.c **** 			/* Return the parameter string. */
 402:../../kernel/FreeRTOS-Plus/Demo/Common/FreeRTOS_Plus_CLI_Demos/Sample-CLI-commands.c **** 			memset( pcWriteBuffer, 0x00, xWriteBufferLen );
 403:../../kernel/FreeRTOS-Plus/Demo/Common/FreeRTOS_Plus_CLI_Demos/Sample-CLI-commands.c **** 			sprintf( pcWriteBuffer, "%d: ", ( int ) uxParameterNumber );
 404:../../kernel/FreeRTOS-Plus/Demo/Common/FreeRTOS_Plus_CLI_Demos/Sample-CLI-commands.c **** 			strncat( pcWriteBuffer, ( char * ) pcParameter, ( size_t ) xParameterStringLength );
 405:../../kernel/FreeRTOS-Plus/Demo/Common/FreeRTOS_Plus_CLI_Demos/Sample-CLI-commands.c **** 			strncat( pcWriteBuffer, "\r\n", strlen( "\r\n" ) );
 406:../../kernel/FreeRTOS-Plus/Demo/Common/FreeRTOS_Plus_CLI_Demos/Sample-CLI-commands.c **** 
 407:../../kernel/FreeRTOS-Plus/Demo/Common/FreeRTOS_Plus_CLI_Demos/Sample-CLI-commands.c **** 			/* There might be more parameters to return after this one. */
 408:../../kernel/FreeRTOS-Plus/Demo/Common/FreeRTOS_Plus_CLI_Demos/Sample-CLI-commands.c **** 			xReturn = pdTRUE;
 409:../../kernel/FreeRTOS-Plus/Demo/Common/FreeRTOS_Plus_CLI_Demos/Sample-CLI-commands.c **** 			uxParameterNumber++;
 410:../../kernel/FreeRTOS-Plus/Demo/Common/FreeRTOS_Plus_CLI_Demos/Sample-CLI-commands.c **** 		}
 411:../../kernel/FreeRTOS-Plus/Demo/Common/FreeRTOS_Plus_CLI_Demos/Sample-CLI-commands.c **** 		else
 412:../../kernel/FreeRTOS-Plus/Demo/Common/FreeRTOS_Plus_CLI_Demos/Sample-CLI-commands.c **** 		{
 413:../../kernel/FreeRTOS-Plus/Demo/Common/FreeRTOS_Plus_CLI_Demos/Sample-CLI-commands.c **** 			/* No more parameters were found.  Make sure the write buffer does
 414:../../kernel/FreeRTOS-Plus/Demo/Common/FreeRTOS_Plus_CLI_Demos/Sample-CLI-commands.c **** 			not contain a valid string. */
 415:../../kernel/FreeRTOS-Plus/Demo/Common/FreeRTOS_Plus_CLI_Demos/Sample-CLI-commands.c **** 			pcWriteBuffer[ 0 ] = 0x00;
 416:../../kernel/FreeRTOS-Plus/Demo/Common/FreeRTOS_Plus_CLI_Demos/Sample-CLI-commands.c **** 
 417:../../kernel/FreeRTOS-Plus/Demo/Common/FreeRTOS_Plus_CLI_Demos/Sample-CLI-commands.c **** 			/* No more data to return. */
 418:../../kernel/FreeRTOS-Plus/Demo/Common/FreeRTOS_Plus_CLI_Demos/Sample-CLI-commands.c **** 			xReturn = pdFALSE;
 419:../../kernel/FreeRTOS-Plus/Demo/Common/FreeRTOS_Plus_CLI_Demos/Sample-CLI-commands.c **** 
 420:../../kernel/FreeRTOS-Plus/Demo/Common/FreeRTOS_Plus_CLI_Demos/Sample-CLI-commands.c **** 			/* Start over the next time this command is executed. */
 421:../../kernel/FreeRTOS-Plus/Demo/Common/FreeRTOS_Plus_CLI_Demos/Sample-CLI-commands.c **** 			uxParameterNumber = 0;
 422:../../kernel/FreeRTOS-Plus/Demo/Common/FreeRTOS_Plus_CLI_Demos/Sample-CLI-commands.c **** 		}
 423:../../kernel/FreeRTOS-Plus/Demo/Common/FreeRTOS_Plus_CLI_Demos/Sample-CLI-commands.c **** 	}
 424:../../kernel/FreeRTOS-Plus/Demo/Common/FreeRTOS_Plus_CLI_Demos/Sample-CLI-commands.c **** 
 425:../../kernel/FreeRTOS-Plus/Demo/Common/FreeRTOS_Plus_CLI_Demos/Sample-CLI-commands.c **** 	return xReturn;
 426:../../kernel/FreeRTOS-Plus/Demo/Common/FreeRTOS_Plus_CLI_Demos/Sample-CLI-commands.c **** }
 182              		.loc 1 426 1 is_stmt 0 view .LVU22
 183 0034 03B0     		add	sp, sp, #12	@,,
 184              		.cfi_remember_state
 185              		.cfi_def_cfa_offset 20
 186              		@ sp needed	@
 187 0036 F0BD     		pop	{r4, r5, r6, r7, pc}	@
 188              	.LVL5:
 189              	.L4:
 190              		.cfi_restore_state
 392:../../kernel/FreeRTOS-Plus/Demo/Common/FreeRTOS_Plus_CLI_Demos/Sample-CLI-commands.c **** 						(
 191              		.loc 1 392 3 is_stmt 1 view .LVU23
 192 0038 1046     		mov	r0, r2	@ pcCommandString, pcCommandString
 193              	.LVL6:
 194              	@ ../../kernel/FreeRTOS-Plus/Demo/Common/FreeRTOS_Plus_CLI_Demos/Sample-CLI-commands.c:392: 		pcPar
 392:../../kernel/FreeRTOS-Plus/Demo/Common/FreeRTOS_Plus_CLI_Demos/Sample-CLI-commands.c **** 						(
ARM GAS  /tmp/ccfvQckB.s 			page 12


 195              		.loc 1 392 17 is_stmt 0 view .LVU24
 196 003a 01AA     		add	r2, sp, #4	@,,
 197              	.LVL7:
 392:../../kernel/FreeRTOS-Plus/Demo/Common/FreeRTOS_Plus_CLI_Demos/Sample-CLI-commands.c **** 						(
 198              		.loc 1 392 17 view .LVU25
 199 003c FFF7FEFF 		bl	FreeRTOS_CLIGetParameter		@
 200              	.LVL8:
 399:../../kernel/FreeRTOS-Plus/Demo/Common/FreeRTOS_Plus_CLI_Demos/Sample-CLI-commands.c **** 		{
 201              		.loc 1 399 3 is_stmt 1 view .LVU26
 202              	@ ../../kernel/FreeRTOS-Plus/Demo/Common/FreeRTOS_Plus_CLI_Demos/Sample-CLI-commands.c:399: 		if( p
 399:../../kernel/FreeRTOS-Plus/Demo/Common/FreeRTOS_Plus_CLI_Demos/Sample-CLI-commands.c **** 		{
 203              		.loc 1 399 5 is_stmt 0 view .LVU27
 204 0040 0446     		mov	r4, r0	@ pcParameter,
 205 0042 30B3     		cbz	r0, .L6	@ pcParameter,
 402:../../kernel/FreeRTOS-Plus/Demo/Common/FreeRTOS_Plus_CLI_Demos/Sample-CLI-commands.c **** 			sprintf( pcWriteBuffer, "%d: ", ( int ) uxParameterNumber );
 206              		.loc 1 402 4 is_stmt 1 view .LVU28
 207 0044 3A46     		mov	r2, r7	@, xWriteBufferLen
 208 0046 0021     		movs	r1, #0	@,
 209 0048 2846     		mov	r0, r5	@, pcWriteBuffer
 210              	.LVL9:
 402:../../kernel/FreeRTOS-Plus/Demo/Common/FreeRTOS_Plus_CLI_Demos/Sample-CLI-commands.c **** 			sprintf( pcWriteBuffer, "%d: ", ( int ) uxParameterNumber );
 211              		.loc 1 402 4 is_stmt 0 view .LVU29
 212 004a FFF7FEFF 		bl	memset		@
 213              	.LVL10:
 403:../../kernel/FreeRTOS-Plus/Demo/Common/FreeRTOS_Plus_CLI_Demos/Sample-CLI-commands.c **** 			strncat( pcWriteBuffer, ( char * ) pcParameter, ( size_t ) xParameterStringLength );
 214              		.loc 1 403 4 is_stmt 1 view .LVU30
 215 004e 3268     		ldr	r2, [r6]	@, uxParameterNumber
 216 0050 1449     		ldr	r1, .L11+8	@,
 217 0052 2846     		mov	r0, r5	@, pcWriteBuffer
 218 0054 FFF7FEFF 		bl	sprintf		@
 219              	.LVL11:
 404:../../kernel/FreeRTOS-Plus/Demo/Common/FreeRTOS_Plus_CLI_Demos/Sample-CLI-commands.c **** 			strncat( pcWriteBuffer, "\r\n", strlen( "\r\n" ) );
 220              		.loc 1 404 4 view .LVU31
 221 0058 2146     		mov	r1, r4	@, pcParameter
 222 005a 019A     		ldr	r2, [sp, #4]	@, xParameterStringLength
 223 005c 2846     		mov	r0, r5	@, pcWriteBuffer
 224 005e FFF7FEFF 		bl	strncat		@
 225              	.LVL12:
 405:../../kernel/FreeRTOS-Plus/Demo/Common/FreeRTOS_Plus_CLI_Demos/Sample-CLI-commands.c **** 
 226              		.loc 1 405 4 view .LVU32
 227 0062 2846     		mov	r0, r5	@, pcWriteBuffer
 228 0064 FFF7FEFF 		bl	strlen		@
 229              	.LVL13:
 230 0068 0F4A     		ldr	r2, .L11+12	@ tmp147,
 231              	@ ../../kernel/FreeRTOS-Plus/Demo/Common/FreeRTOS_Plus_CLI_Demos/Sample-CLI-commands.c:409: 			uxPa
 409:../../kernel/FreeRTOS-Plus/Demo/Common/FreeRTOS_Plus_CLI_Demos/Sample-CLI-commands.c **** 		}
 232              		.loc 1 409 21 is_stmt 0 view .LVU33
 233 006a 3368     		ldr	r3, [r6]	@ uxParameterNumber, uxParameterNumber
 234              	@ ../../kernel/FreeRTOS-Plus/Demo/Common/FreeRTOS_Plus_CLI_Demos/Sample-CLI-commands.c:405: 			strn
 405:../../kernel/FreeRTOS-Plus/Demo/Common/FreeRTOS_Plus_CLI_Demos/Sample-CLI-commands.c **** 
 235              		.loc 1 405 4 view .LVU34
 236 006c 1188     		ldrh	r1, [r2]	@ unaligned	@ tmp150, MEM[(void *)"\r\n"]
 237 006e 2952     		strh	r1, [r5, r0]	@ unaligned	@ tmp150, MEM[(void *)_22]
 238 0070 9278     		ldrb	r2, [r2, #2]	@ zero_extendqisi2	@ MEM[(void *)"\r\n"], MEM[(void *)"\r\n"]
 239 0072 0544     		add	r5, r5, r0	@ tmp146, tmp145
 240              	.LVL14:
 241              	@ ../../kernel/FreeRTOS-Plus/Demo/Common/FreeRTOS_Plus_CLI_Demos/Sample-CLI-commands.c:409: 			uxPa
ARM GAS  /tmp/ccfvQckB.s 			page 13


 409:../../kernel/FreeRTOS-Plus/Demo/Common/FreeRTOS_Plus_CLI_Demos/Sample-CLI-commands.c **** 		}
 242              		.loc 1 409 21 view .LVU35
 243 0074 0133     		adds	r3, r3, #1	@ tmp156, uxParameterNumber,
 244              	@ ../../kernel/FreeRTOS-Plus/Demo/Common/FreeRTOS_Plus_CLI_Demos/Sample-CLI-commands.c:408: 			xRet
 408:../../kernel/FreeRTOS-Plus/Demo/Common/FreeRTOS_Plus_CLI_Demos/Sample-CLI-commands.c **** 			uxParameterNumber++;
 245              		.loc 1 408 12 view .LVU36
 246 0076 0120     		movs	r0, #1	@ <retval>,
 247              	@ ../../kernel/FreeRTOS-Plus/Demo/Common/FreeRTOS_Plus_CLI_Demos/Sample-CLI-commands.c:405: 			strn
 405:../../kernel/FreeRTOS-Plus/Demo/Common/FreeRTOS_Plus_CLI_Demos/Sample-CLI-commands.c **** 
 248              		.loc 1 405 4 view .LVU37
 249 0078 AA70     		strb	r2, [r5, #2]	@ MEM[(void *)"\r\n"], MEM[(void *)_22]
 408:../../kernel/FreeRTOS-Plus/Demo/Common/FreeRTOS_Plus_CLI_Demos/Sample-CLI-commands.c **** 			uxParameterNumber++;
 250              		.loc 1 408 4 is_stmt 1 view .LVU38
 251              	.LVL15:
 409:../../kernel/FreeRTOS-Plus/Demo/Common/FreeRTOS_Plus_CLI_Demos/Sample-CLI-commands.c **** 		}
 252              		.loc 1 409 4 view .LVU39
 253              	@ ../../kernel/FreeRTOS-Plus/Demo/Common/FreeRTOS_Plus_CLI_Demos/Sample-CLI-commands.c:409: 			uxPa
 409:../../kernel/FreeRTOS-Plus/Demo/Common/FreeRTOS_Plus_CLI_Demos/Sample-CLI-commands.c **** 		}
 254              		.loc 1 409 21 is_stmt 0 view .LVU40
 255 007a 3360     		str	r3, [r6]	@ tmp156, uxParameterNumber
 256              	@ ../../kernel/FreeRTOS-Plus/Demo/Common/FreeRTOS_Plus_CLI_Demos/Sample-CLI-commands.c:426: }
 257              		.loc 1 426 1 view .LVU41
 258 007c 03B0     		add	sp, sp, #12	@,,
 259              		.cfi_def_cfa_offset 20
 260              		@ sp needed	@
 261 007e F0BD     		pop	{r4, r5, r6, r7, pc}	@
 262              	.LVL16:
 263              	.L10:
 264              		.cfi_def_cfa_offset 0
 265              		.cfi_restore 4
 266              		.cfi_restore 5
 267              		.cfi_restore 6
 268              		.cfi_restore 7
 269              		.cfi_restore 14
 373:../../kernel/FreeRTOS-Plus/Demo/Common/FreeRTOS_Plus_CLI_Demos/Sample-CLI-commands.c **** 
 270              		.loc 1 373 2 is_stmt 1 view .LVU42
 271              	.LBB16:
 272              	.LBI16:
 273              		.file 2 "../../kernel/FreeRTOS/Source/portable/GCC/ARM_CM4F/portmacro.h"
   1:../../kernel/FreeRTOS/Source/portable/GCC/ARM_CM4F/portmacro.h **** /*
   2:../../kernel/FreeRTOS/Source/portable/GCC/ARM_CM4F/portmacro.h ****  * FreeRTOS Kernel V10.0.1
   3:../../kernel/FreeRTOS/Source/portable/GCC/ARM_CM4F/portmacro.h ****  * Copyright (C) 2017 Amazon.com, Inc. or its affiliates.  All Rights Reserved.
   4:../../kernel/FreeRTOS/Source/portable/GCC/ARM_CM4F/portmacro.h ****  *
   5:../../kernel/FreeRTOS/Source/portable/GCC/ARM_CM4F/portmacro.h ****  * Permission is hereby granted, free of charge, to any person obtaining a copy of
   6:../../kernel/FreeRTOS/Source/portable/GCC/ARM_CM4F/portmacro.h ****  * this software and associated documentation files (the "Software"), to deal in
   7:../../kernel/FreeRTOS/Source/portable/GCC/ARM_CM4F/portmacro.h ****  * the Software without restriction, including without limitation the rights to
   8:../../kernel/FreeRTOS/Source/portable/GCC/ARM_CM4F/portmacro.h ****  * use, copy, modify, merge, publish, distribute, sublicense, and/or sell copies of
   9:../../kernel/FreeRTOS/Source/portable/GCC/ARM_CM4F/portmacro.h ****  * the Software, and to permit persons to whom the Software is furnished to do so,
  10:../../kernel/FreeRTOS/Source/portable/GCC/ARM_CM4F/portmacro.h ****  * subject to the following conditions:
  11:../../kernel/FreeRTOS/Source/portable/GCC/ARM_CM4F/portmacro.h ****  *
  12:../../kernel/FreeRTOS/Source/portable/GCC/ARM_CM4F/portmacro.h ****  * The above copyright notice and this permission notice shall be included in all
  13:../../kernel/FreeRTOS/Source/portable/GCC/ARM_CM4F/portmacro.h ****  * copies or substantial portions of the Software.
  14:../../kernel/FreeRTOS/Source/portable/GCC/ARM_CM4F/portmacro.h ****  *
  15:../../kernel/FreeRTOS/Source/portable/GCC/ARM_CM4F/portmacro.h ****  * THE SOFTWARE IS PROVIDED "AS IS", WITHOUT WARRANTY OF ANY KIND, EXPRESS OR
  16:../../kernel/FreeRTOS/Source/portable/GCC/ARM_CM4F/portmacro.h ****  * IMPLIED, INCLUDING BUT NOT LIMITED TO THE WARRANTIES OF MERCHANTABILITY, FITNESS
  17:../../kernel/FreeRTOS/Source/portable/GCC/ARM_CM4F/portmacro.h ****  * FOR A PARTICULAR PURPOSE AND NONINFRINGEMENT. IN NO EVENT SHALL THE AUTHORS OR
  18:../../kernel/FreeRTOS/Source/portable/GCC/ARM_CM4F/portmacro.h ****  * COPYRIGHT HOLDERS BE LIABLE FOR ANY CLAIM, DAMAGES OR OTHER LIABILITY, WHETHER
ARM GAS  /tmp/ccfvQckB.s 			page 14


  19:../../kernel/FreeRTOS/Source/portable/GCC/ARM_CM4F/portmacro.h ****  * IN AN ACTION OF CONTRACT, TORT OR OTHERWISE, ARISING FROM, OUT OF OR IN
  20:../../kernel/FreeRTOS/Source/portable/GCC/ARM_CM4F/portmacro.h ****  * CONNECTION WITH THE SOFTWARE OR THE USE OR OTHER DEALINGS IN THE SOFTWARE.
  21:../../kernel/FreeRTOS/Source/portable/GCC/ARM_CM4F/portmacro.h ****  *
  22:../../kernel/FreeRTOS/Source/portable/GCC/ARM_CM4F/portmacro.h ****  * http://www.FreeRTOS.org
  23:../../kernel/FreeRTOS/Source/portable/GCC/ARM_CM4F/portmacro.h ****  * http://aws.amazon.com/freertos
  24:../../kernel/FreeRTOS/Source/portable/GCC/ARM_CM4F/portmacro.h ****  *
  25:../../kernel/FreeRTOS/Source/portable/GCC/ARM_CM4F/portmacro.h ****  * 1 tab == 4 spaces!
  26:../../kernel/FreeRTOS/Source/portable/GCC/ARM_CM4F/portmacro.h ****  */
  27:../../kernel/FreeRTOS/Source/portable/GCC/ARM_CM4F/portmacro.h **** 
  28:../../kernel/FreeRTOS/Source/portable/GCC/ARM_CM4F/portmacro.h **** 
  29:../../kernel/FreeRTOS/Source/portable/GCC/ARM_CM4F/portmacro.h **** #ifndef PORTMACRO_H
  30:../../kernel/FreeRTOS/Source/portable/GCC/ARM_CM4F/portmacro.h **** #define PORTMACRO_H
  31:../../kernel/FreeRTOS/Source/portable/GCC/ARM_CM4F/portmacro.h **** 
  32:../../kernel/FreeRTOS/Source/portable/GCC/ARM_CM4F/portmacro.h **** #ifdef __cplusplus
  33:../../kernel/FreeRTOS/Source/portable/GCC/ARM_CM4F/portmacro.h **** extern "C" {
  34:../../kernel/FreeRTOS/Source/portable/GCC/ARM_CM4F/portmacro.h **** #endif
  35:../../kernel/FreeRTOS/Source/portable/GCC/ARM_CM4F/portmacro.h **** 
  36:../../kernel/FreeRTOS/Source/portable/GCC/ARM_CM4F/portmacro.h **** /*-----------------------------------------------------------
  37:../../kernel/FreeRTOS/Source/portable/GCC/ARM_CM4F/portmacro.h ****  * Port specific definitions.
  38:../../kernel/FreeRTOS/Source/portable/GCC/ARM_CM4F/portmacro.h ****  *
  39:../../kernel/FreeRTOS/Source/portable/GCC/ARM_CM4F/portmacro.h ****  * The settings in this file configure FreeRTOS correctly for the
  40:../../kernel/FreeRTOS/Source/portable/GCC/ARM_CM4F/portmacro.h ****  * given hardware and compiler.
  41:../../kernel/FreeRTOS/Source/portable/GCC/ARM_CM4F/portmacro.h ****  *
  42:../../kernel/FreeRTOS/Source/portable/GCC/ARM_CM4F/portmacro.h ****  * These settings should not be altered.
  43:../../kernel/FreeRTOS/Source/portable/GCC/ARM_CM4F/portmacro.h ****  *-----------------------------------------------------------
  44:../../kernel/FreeRTOS/Source/portable/GCC/ARM_CM4F/portmacro.h ****  */
  45:../../kernel/FreeRTOS/Source/portable/GCC/ARM_CM4F/portmacro.h **** 
  46:../../kernel/FreeRTOS/Source/portable/GCC/ARM_CM4F/portmacro.h **** /* Type definitions. */
  47:../../kernel/FreeRTOS/Source/portable/GCC/ARM_CM4F/portmacro.h **** #define portCHAR		char
  48:../../kernel/FreeRTOS/Source/portable/GCC/ARM_CM4F/portmacro.h **** #define portFLOAT		float
  49:../../kernel/FreeRTOS/Source/portable/GCC/ARM_CM4F/portmacro.h **** #define portDOUBLE		double
  50:../../kernel/FreeRTOS/Source/portable/GCC/ARM_CM4F/portmacro.h **** #define portLONG		long
  51:../../kernel/FreeRTOS/Source/portable/GCC/ARM_CM4F/portmacro.h **** #define portSHORT		short
  52:../../kernel/FreeRTOS/Source/portable/GCC/ARM_CM4F/portmacro.h **** #define portSTACK_TYPE	uint32_t
  53:../../kernel/FreeRTOS/Source/portable/GCC/ARM_CM4F/portmacro.h **** #define portBASE_TYPE	long
  54:../../kernel/FreeRTOS/Source/portable/GCC/ARM_CM4F/portmacro.h **** 
  55:../../kernel/FreeRTOS/Source/portable/GCC/ARM_CM4F/portmacro.h **** typedef portSTACK_TYPE StackType_t;
  56:../../kernel/FreeRTOS/Source/portable/GCC/ARM_CM4F/portmacro.h **** typedef long BaseType_t;
  57:../../kernel/FreeRTOS/Source/portable/GCC/ARM_CM4F/portmacro.h **** typedef unsigned long UBaseType_t;
  58:../../kernel/FreeRTOS/Source/portable/GCC/ARM_CM4F/portmacro.h **** 
  59:../../kernel/FreeRTOS/Source/portable/GCC/ARM_CM4F/portmacro.h **** #if( configUSE_16_BIT_TICKS == 1 )
  60:../../kernel/FreeRTOS/Source/portable/GCC/ARM_CM4F/portmacro.h **** 	typedef uint16_t TickType_t;
  61:../../kernel/FreeRTOS/Source/portable/GCC/ARM_CM4F/portmacro.h **** 	#define portMAX_DELAY ( TickType_t ) 0xffff
  62:../../kernel/FreeRTOS/Source/portable/GCC/ARM_CM4F/portmacro.h **** #else
  63:../../kernel/FreeRTOS/Source/portable/GCC/ARM_CM4F/portmacro.h **** 	typedef uint32_t TickType_t;
  64:../../kernel/FreeRTOS/Source/portable/GCC/ARM_CM4F/portmacro.h **** 	#define portMAX_DELAY ( TickType_t ) 0xffffffffUL
  65:../../kernel/FreeRTOS/Source/portable/GCC/ARM_CM4F/portmacro.h **** 
  66:../../kernel/FreeRTOS/Source/portable/GCC/ARM_CM4F/portmacro.h **** 	/* 32-bit tick type on a 32-bit architecture, so reads of the tick count do
  67:../../kernel/FreeRTOS/Source/portable/GCC/ARM_CM4F/portmacro.h **** 	not need to be guarded with a critical section. */
  68:../../kernel/FreeRTOS/Source/portable/GCC/ARM_CM4F/portmacro.h **** 	#define portTICK_TYPE_IS_ATOMIC 1
  69:../../kernel/FreeRTOS/Source/portable/GCC/ARM_CM4F/portmacro.h **** #endif
  70:../../kernel/FreeRTOS/Source/portable/GCC/ARM_CM4F/portmacro.h **** /*-----------------------------------------------------------*/
  71:../../kernel/FreeRTOS/Source/portable/GCC/ARM_CM4F/portmacro.h **** 
  72:../../kernel/FreeRTOS/Source/portable/GCC/ARM_CM4F/portmacro.h **** /* Architecture specifics. */
  73:../../kernel/FreeRTOS/Source/portable/GCC/ARM_CM4F/portmacro.h **** #define portSTACK_GROWTH			( -1 )
  74:../../kernel/FreeRTOS/Source/portable/GCC/ARM_CM4F/portmacro.h **** #define portTICK_PERIOD_MS			( ( TickType_t ) 1000 / configTICK_RATE_HZ )
  75:../../kernel/FreeRTOS/Source/portable/GCC/ARM_CM4F/portmacro.h **** #define portBYTE_ALIGNMENT			8
ARM GAS  /tmp/ccfvQckB.s 			page 15


  76:../../kernel/FreeRTOS/Source/portable/GCC/ARM_CM4F/portmacro.h **** /*-----------------------------------------------------------*/
  77:../../kernel/FreeRTOS/Source/portable/GCC/ARM_CM4F/portmacro.h **** 
  78:../../kernel/FreeRTOS/Source/portable/GCC/ARM_CM4F/portmacro.h **** /* Scheduler utilities. */
  79:../../kernel/FreeRTOS/Source/portable/GCC/ARM_CM4F/portmacro.h **** #define portYIELD() 															\
  80:../../kernel/FreeRTOS/Source/portable/GCC/ARM_CM4F/portmacro.h **** {																				\
  81:../../kernel/FreeRTOS/Source/portable/GCC/ARM_CM4F/portmacro.h **** 	/* Set a PendSV to request a context switch. */								\
  82:../../kernel/FreeRTOS/Source/portable/GCC/ARM_CM4F/portmacro.h **** 	portNVIC_INT_CTRL_REG = portNVIC_PENDSVSET_BIT;								\
  83:../../kernel/FreeRTOS/Source/portable/GCC/ARM_CM4F/portmacro.h **** 																				\
  84:../../kernel/FreeRTOS/Source/portable/GCC/ARM_CM4F/portmacro.h **** 	/* Barriers are normally not required but do ensure the code is completely	\
  85:../../kernel/FreeRTOS/Source/portable/GCC/ARM_CM4F/portmacro.h **** 	within the specified behaviour for the architecture. */						\
  86:../../kernel/FreeRTOS/Source/portable/GCC/ARM_CM4F/portmacro.h **** 	__asm volatile( "dsb" ::: "memory" );										\
  87:../../kernel/FreeRTOS/Source/portable/GCC/ARM_CM4F/portmacro.h **** 	__asm volatile( "isb" );													\
  88:../../kernel/FreeRTOS/Source/portable/GCC/ARM_CM4F/portmacro.h **** }
  89:../../kernel/FreeRTOS/Source/portable/GCC/ARM_CM4F/portmacro.h **** 
  90:../../kernel/FreeRTOS/Source/portable/GCC/ARM_CM4F/portmacro.h **** #define portNVIC_INT_CTRL_REG		( * ( ( volatile uint32_t * ) 0xe000ed04 ) )
  91:../../kernel/FreeRTOS/Source/portable/GCC/ARM_CM4F/portmacro.h **** #define portNVIC_PENDSVSET_BIT		( 1UL << 28UL )
  92:../../kernel/FreeRTOS/Source/portable/GCC/ARM_CM4F/portmacro.h **** #define portEND_SWITCHING_ISR( xSwitchRequired ) if( xSwitchRequired != pdFALSE ) portYIELD()
  93:../../kernel/FreeRTOS/Source/portable/GCC/ARM_CM4F/portmacro.h **** #define portYIELD_FROM_ISR( x ) portEND_SWITCHING_ISR( x )
  94:../../kernel/FreeRTOS/Source/portable/GCC/ARM_CM4F/portmacro.h **** /*-----------------------------------------------------------*/
  95:../../kernel/FreeRTOS/Source/portable/GCC/ARM_CM4F/portmacro.h **** 
  96:../../kernel/FreeRTOS/Source/portable/GCC/ARM_CM4F/portmacro.h **** /* Critical section management. */
  97:../../kernel/FreeRTOS/Source/portable/GCC/ARM_CM4F/portmacro.h **** extern void vPortEnterCritical( void );
  98:../../kernel/FreeRTOS/Source/portable/GCC/ARM_CM4F/portmacro.h **** extern void vPortExitCritical( void );
  99:../../kernel/FreeRTOS/Source/portable/GCC/ARM_CM4F/portmacro.h **** #define portSET_INTERRUPT_MASK_FROM_ISR()		ulPortRaiseBASEPRI()
 100:../../kernel/FreeRTOS/Source/portable/GCC/ARM_CM4F/portmacro.h **** #define portCLEAR_INTERRUPT_MASK_FROM_ISR(x)	vPortSetBASEPRI(x)
 101:../../kernel/FreeRTOS/Source/portable/GCC/ARM_CM4F/portmacro.h **** #define portDISABLE_INTERRUPTS()				vPortRaiseBASEPRI()
 102:../../kernel/FreeRTOS/Source/portable/GCC/ARM_CM4F/portmacro.h **** #define portENABLE_INTERRUPTS()					vPortSetBASEPRI(0)
 103:../../kernel/FreeRTOS/Source/portable/GCC/ARM_CM4F/portmacro.h **** #define portENTER_CRITICAL()					vPortEnterCritical()
 104:../../kernel/FreeRTOS/Source/portable/GCC/ARM_CM4F/portmacro.h **** #define portEXIT_CRITICAL()						vPortExitCritical()
 105:../../kernel/FreeRTOS/Source/portable/GCC/ARM_CM4F/portmacro.h **** 
 106:../../kernel/FreeRTOS/Source/portable/GCC/ARM_CM4F/portmacro.h **** /*-----------------------------------------------------------*/
 107:../../kernel/FreeRTOS/Source/portable/GCC/ARM_CM4F/portmacro.h **** 
 108:../../kernel/FreeRTOS/Source/portable/GCC/ARM_CM4F/portmacro.h **** /* Task function macros as described on the FreeRTOS.org WEB site.  These are
 109:../../kernel/FreeRTOS/Source/portable/GCC/ARM_CM4F/portmacro.h **** not necessary for to use this port.  They are defined so the common demo files
 110:../../kernel/FreeRTOS/Source/portable/GCC/ARM_CM4F/portmacro.h **** (which build with all the ports) will build. */
 111:../../kernel/FreeRTOS/Source/portable/GCC/ARM_CM4F/portmacro.h **** #define portTASK_FUNCTION_PROTO( vFunction, pvParameters ) void vFunction( void *pvParameters )
 112:../../kernel/FreeRTOS/Source/portable/GCC/ARM_CM4F/portmacro.h **** #define portTASK_FUNCTION( vFunction, pvParameters ) void vFunction( void *pvParameters )
 113:../../kernel/FreeRTOS/Source/portable/GCC/ARM_CM4F/portmacro.h **** /*-----------------------------------------------------------*/
 114:../../kernel/FreeRTOS/Source/portable/GCC/ARM_CM4F/portmacro.h **** 
 115:../../kernel/FreeRTOS/Source/portable/GCC/ARM_CM4F/portmacro.h **** /* Tickless idle/low power functionality. */
 116:../../kernel/FreeRTOS/Source/portable/GCC/ARM_CM4F/portmacro.h **** #ifndef portSUPPRESS_TICKS_AND_SLEEP
 117:../../kernel/FreeRTOS/Source/portable/GCC/ARM_CM4F/portmacro.h **** 	extern void vPortSuppressTicksAndSleep( TickType_t xExpectedIdleTime );
 118:../../kernel/FreeRTOS/Source/portable/GCC/ARM_CM4F/portmacro.h **** 	#define portSUPPRESS_TICKS_AND_SLEEP( xExpectedIdleTime ) vPortSuppressTicksAndSleep( xExpectedIdl
 119:../../kernel/FreeRTOS/Source/portable/GCC/ARM_CM4F/portmacro.h **** #endif
 120:../../kernel/FreeRTOS/Source/portable/GCC/ARM_CM4F/portmacro.h **** /*-----------------------------------------------------------*/
 121:../../kernel/FreeRTOS/Source/portable/GCC/ARM_CM4F/portmacro.h **** 
 122:../../kernel/FreeRTOS/Source/portable/GCC/ARM_CM4F/portmacro.h **** /* Architecture specific optimisations. */
 123:../../kernel/FreeRTOS/Source/portable/GCC/ARM_CM4F/portmacro.h **** #ifndef configUSE_PORT_OPTIMISED_TASK_SELECTION
 124:../../kernel/FreeRTOS/Source/portable/GCC/ARM_CM4F/portmacro.h **** 	#define configUSE_PORT_OPTIMISED_TASK_SELECTION 1
 125:../../kernel/FreeRTOS/Source/portable/GCC/ARM_CM4F/portmacro.h **** #endif
 126:../../kernel/FreeRTOS/Source/portable/GCC/ARM_CM4F/portmacro.h **** 
 127:../../kernel/FreeRTOS/Source/portable/GCC/ARM_CM4F/portmacro.h **** #if configUSE_PORT_OPTIMISED_TASK_SELECTION == 1
 128:../../kernel/FreeRTOS/Source/portable/GCC/ARM_CM4F/portmacro.h **** 
 129:../../kernel/FreeRTOS/Source/portable/GCC/ARM_CM4F/portmacro.h **** 	/* Generic helper function. */
 130:../../kernel/FreeRTOS/Source/portable/GCC/ARM_CM4F/portmacro.h **** 	__attribute__( ( always_inline ) ) static inline uint8_t ucPortCountLeadingZeros( uint32_t ulBitma
 131:../../kernel/FreeRTOS/Source/portable/GCC/ARM_CM4F/portmacro.h **** 	{
 132:../../kernel/FreeRTOS/Source/portable/GCC/ARM_CM4F/portmacro.h **** 	uint8_t ucReturn;
ARM GAS  /tmp/ccfvQckB.s 			page 16


 133:../../kernel/FreeRTOS/Source/portable/GCC/ARM_CM4F/portmacro.h **** 
 134:../../kernel/FreeRTOS/Source/portable/GCC/ARM_CM4F/portmacro.h **** 		__asm volatile ( "clz %0, %1" : "=r" ( ucReturn ) : "r" ( ulBitmap ) : "memory" );
 135:../../kernel/FreeRTOS/Source/portable/GCC/ARM_CM4F/portmacro.h **** 		return ucReturn;
 136:../../kernel/FreeRTOS/Source/portable/GCC/ARM_CM4F/portmacro.h **** 	}
 137:../../kernel/FreeRTOS/Source/portable/GCC/ARM_CM4F/portmacro.h **** 
 138:../../kernel/FreeRTOS/Source/portable/GCC/ARM_CM4F/portmacro.h **** 	/* Check the configuration. */
 139:../../kernel/FreeRTOS/Source/portable/GCC/ARM_CM4F/portmacro.h **** 	#if( configMAX_PRIORITIES > 32 )
 140:../../kernel/FreeRTOS/Source/portable/GCC/ARM_CM4F/portmacro.h **** 		#error configUSE_PORT_OPTIMISED_TASK_SELECTION can only be set to 1 when configMAX_PRIORITIES is 
 141:../../kernel/FreeRTOS/Source/portable/GCC/ARM_CM4F/portmacro.h **** 	#endif
 142:../../kernel/FreeRTOS/Source/portable/GCC/ARM_CM4F/portmacro.h **** 
 143:../../kernel/FreeRTOS/Source/portable/GCC/ARM_CM4F/portmacro.h **** 	/* Store/clear the ready priorities in a bit map. */
 144:../../kernel/FreeRTOS/Source/portable/GCC/ARM_CM4F/portmacro.h **** 	#define portRECORD_READY_PRIORITY( uxPriority, uxReadyPriorities ) ( uxReadyPriorities ) |= ( 1UL 
 145:../../kernel/FreeRTOS/Source/portable/GCC/ARM_CM4F/portmacro.h **** 	#define portRESET_READY_PRIORITY( uxPriority, uxReadyPriorities ) ( uxReadyPriorities ) &= ~( 1UL 
 146:../../kernel/FreeRTOS/Source/portable/GCC/ARM_CM4F/portmacro.h **** 
 147:../../kernel/FreeRTOS/Source/portable/GCC/ARM_CM4F/portmacro.h **** 	/*-----------------------------------------------------------*/
 148:../../kernel/FreeRTOS/Source/portable/GCC/ARM_CM4F/portmacro.h **** 
 149:../../kernel/FreeRTOS/Source/portable/GCC/ARM_CM4F/portmacro.h **** 	#define portGET_HIGHEST_PRIORITY( uxTopPriority, uxReadyPriorities ) uxTopPriority = ( 31UL - ( ui
 150:../../kernel/FreeRTOS/Source/portable/GCC/ARM_CM4F/portmacro.h **** 
 151:../../kernel/FreeRTOS/Source/portable/GCC/ARM_CM4F/portmacro.h **** #endif /* configUSE_PORT_OPTIMISED_TASK_SELECTION */
 152:../../kernel/FreeRTOS/Source/portable/GCC/ARM_CM4F/portmacro.h **** 
 153:../../kernel/FreeRTOS/Source/portable/GCC/ARM_CM4F/portmacro.h **** /*-----------------------------------------------------------*/
 154:../../kernel/FreeRTOS/Source/portable/GCC/ARM_CM4F/portmacro.h **** 
 155:../../kernel/FreeRTOS/Source/portable/GCC/ARM_CM4F/portmacro.h **** #ifdef configASSERT
 156:../../kernel/FreeRTOS/Source/portable/GCC/ARM_CM4F/portmacro.h **** 	void vPortValidateInterruptPriority( void );
 157:../../kernel/FreeRTOS/Source/portable/GCC/ARM_CM4F/portmacro.h **** 	#define portASSERT_IF_INTERRUPT_PRIORITY_INVALID() 	vPortValidateInterruptPriority()
 158:../../kernel/FreeRTOS/Source/portable/GCC/ARM_CM4F/portmacro.h **** #endif
 159:../../kernel/FreeRTOS/Source/portable/GCC/ARM_CM4F/portmacro.h **** 
 160:../../kernel/FreeRTOS/Source/portable/GCC/ARM_CM4F/portmacro.h **** /* portNOP() is not required by this port. */
 161:../../kernel/FreeRTOS/Source/portable/GCC/ARM_CM4F/portmacro.h **** #define portNOP()
 162:../../kernel/FreeRTOS/Source/portable/GCC/ARM_CM4F/portmacro.h **** 
 163:../../kernel/FreeRTOS/Source/portable/GCC/ARM_CM4F/portmacro.h **** #define portINLINE	__inline
 164:../../kernel/FreeRTOS/Source/portable/GCC/ARM_CM4F/portmacro.h **** 
 165:../../kernel/FreeRTOS/Source/portable/GCC/ARM_CM4F/portmacro.h **** #ifndef portFORCE_INLINE
 166:../../kernel/FreeRTOS/Source/portable/GCC/ARM_CM4F/portmacro.h **** 	#define portFORCE_INLINE inline __attribute__(( always_inline))
 167:../../kernel/FreeRTOS/Source/portable/GCC/ARM_CM4F/portmacro.h **** #endif
 168:../../kernel/FreeRTOS/Source/portable/GCC/ARM_CM4F/portmacro.h **** 
 169:../../kernel/FreeRTOS/Source/portable/GCC/ARM_CM4F/portmacro.h **** portFORCE_INLINE static BaseType_t xPortIsInsideInterrupt( void )
 170:../../kernel/FreeRTOS/Source/portable/GCC/ARM_CM4F/portmacro.h **** {
 171:../../kernel/FreeRTOS/Source/portable/GCC/ARM_CM4F/portmacro.h **** uint32_t ulCurrentInterrupt;
 172:../../kernel/FreeRTOS/Source/portable/GCC/ARM_CM4F/portmacro.h **** BaseType_t xReturn;
 173:../../kernel/FreeRTOS/Source/portable/GCC/ARM_CM4F/portmacro.h **** 
 174:../../kernel/FreeRTOS/Source/portable/GCC/ARM_CM4F/portmacro.h **** 	/* Obtain the number of the currently executing interrupt. */
 175:../../kernel/FreeRTOS/Source/portable/GCC/ARM_CM4F/portmacro.h **** 	__asm volatile( "mrs %0, ipsr" : "=r"( ulCurrentInterrupt ) :: "memory" );
 176:../../kernel/FreeRTOS/Source/portable/GCC/ARM_CM4F/portmacro.h **** 
 177:../../kernel/FreeRTOS/Source/portable/GCC/ARM_CM4F/portmacro.h **** 	if( ulCurrentInterrupt == 0 )
 178:../../kernel/FreeRTOS/Source/portable/GCC/ARM_CM4F/portmacro.h **** 	{
 179:../../kernel/FreeRTOS/Source/portable/GCC/ARM_CM4F/portmacro.h **** 		xReturn = pdFALSE;
 180:../../kernel/FreeRTOS/Source/portable/GCC/ARM_CM4F/portmacro.h **** 	}
 181:../../kernel/FreeRTOS/Source/portable/GCC/ARM_CM4F/portmacro.h **** 	else
 182:../../kernel/FreeRTOS/Source/portable/GCC/ARM_CM4F/portmacro.h **** 	{
 183:../../kernel/FreeRTOS/Source/portable/GCC/ARM_CM4F/portmacro.h **** 		xReturn = pdTRUE;
 184:../../kernel/FreeRTOS/Source/portable/GCC/ARM_CM4F/portmacro.h **** 	}
 185:../../kernel/FreeRTOS/Source/portable/GCC/ARM_CM4F/portmacro.h **** 
 186:../../kernel/FreeRTOS/Source/portable/GCC/ARM_CM4F/portmacro.h **** 	return xReturn;
 187:../../kernel/FreeRTOS/Source/portable/GCC/ARM_CM4F/portmacro.h **** }
 188:../../kernel/FreeRTOS/Source/portable/GCC/ARM_CM4F/portmacro.h **** 
 189:../../kernel/FreeRTOS/Source/portable/GCC/ARM_CM4F/portmacro.h **** /*-----------------------------------------------------------*/
ARM GAS  /tmp/ccfvQckB.s 			page 17


 190:../../kernel/FreeRTOS/Source/portable/GCC/ARM_CM4F/portmacro.h **** 
 191:../../kernel/FreeRTOS/Source/portable/GCC/ARM_CM4F/portmacro.h **** portFORCE_INLINE static void vPortRaiseBASEPRI( void )
 274              		.loc 2 191 30 view .LVU43
 275              	.LBB17:
 192:../../kernel/FreeRTOS/Source/portable/GCC/ARM_CM4F/portmacro.h **** {
 193:../../kernel/FreeRTOS/Source/portable/GCC/ARM_CM4F/portmacro.h **** uint32_t ulNewBASEPRI;
 276              		.loc 2 193 1 view .LVU44
 194:../../kernel/FreeRTOS/Source/portable/GCC/ARM_CM4F/portmacro.h **** 
 195:../../kernel/FreeRTOS/Source/portable/GCC/ARM_CM4F/portmacro.h **** 	__asm volatile
 277              		.loc 2 195 2 view .LVU45
 278              		.syntax unified
 279              	@ 195 "../../kernel/FreeRTOS/Source/portable/GCC/ARM_CM4F/portmacro.h" 1
 280 0080 4FF0A003 			mov r3, #160													@ ulNewBASEPRI,
 281 0084 83F31188 		msr basepri, r3												@ ulNewBASEPRI
 282 0088 BFF36F8F 		isb														
 283 008c BFF34F8F 		dsb														
 284              	
 285              	@ 0 "" 2
 286              	.LVL17:
 287              		.thumb
 288              		.syntax unified
 289              	.L3:
 290              		.loc 2 195 2 is_stmt 0 view .LVU46
 291              	.LBE17:
 292              	.LBE16:
 373:../../kernel/FreeRTOS-Plus/Demo/Common/FreeRTOS_Plus_CLI_Demos/Sample-CLI-commands.c **** 
 293              		.loc 1 373 2 is_stmt 1 discriminator 1 view .LVU47
 373:../../kernel/FreeRTOS-Plus/Demo/Common/FreeRTOS_Plus_CLI_Demos/Sample-CLI-commands.c **** 
 294              		.loc 1 373 2 discriminator 1 view .LVU48
 373:../../kernel/FreeRTOS-Plus/Demo/Common/FreeRTOS_Plus_CLI_Demos/Sample-CLI-commands.c **** 
 295              		.loc 1 373 2 discriminator 1 view .LVU49
 373:../../kernel/FreeRTOS-Plus/Demo/Common/FreeRTOS_Plus_CLI_Demos/Sample-CLI-commands.c **** 
 296              		.loc 1 373 2 discriminator 1 view .LVU50
 297 0090 FEE7     		b	.L3		@
 298              	.LVL18:
 299              	.L6:
 300              		.cfi_def_cfa_offset 32
 301              		.cfi_offset 4, -20
 302              		.cfi_offset 5, -16
 303              		.cfi_offset 6, -12
 304              		.cfi_offset 7, -8
 305              		.cfi_offset 14, -4
 415:../../kernel/FreeRTOS-Plus/Demo/Common/FreeRTOS_Plus_CLI_Demos/Sample-CLI-commands.c **** 
 306              		.loc 1 415 4 view .LVU51
 307              	@ ../../kernel/FreeRTOS-Plus/Demo/Common/FreeRTOS_Plus_CLI_Demos/Sample-CLI-commands.c:415: 			pcWr
 415:../../kernel/FreeRTOS-Plus/Demo/Common/FreeRTOS_Plus_CLI_Demos/Sample-CLI-commands.c **** 
 308              		.loc 1 415 23 is_stmt 0 view .LVU52
 309 0092 2870     		strb	r0, [r5]	@ pcParameter, *pcWriteBuffer_10(D)
 418:../../kernel/FreeRTOS-Plus/Demo/Common/FreeRTOS_Plus_CLI_Demos/Sample-CLI-commands.c **** 
 310              		.loc 1 418 4 is_stmt 1 view .LVU53
 311              	.LVL19:
 421:../../kernel/FreeRTOS-Plus/Demo/Common/FreeRTOS_Plus_CLI_Demos/Sample-CLI-commands.c **** 		}
 312              		.loc 1 421 4 view .LVU54
 313              	@ ../../kernel/FreeRTOS-Plus/Demo/Common/FreeRTOS_Plus_CLI_Demos/Sample-CLI-commands.c:421: 			uxPa
 421:../../kernel/FreeRTOS-Plus/Demo/Common/FreeRTOS_Plus_CLI_Demos/Sample-CLI-commands.c **** 		}
 314              		.loc 1 421 22 is_stmt 0 view .LVU55
 315 0094 3060     		str	r0, [r6]	@ pcParameter, uxParameterNumber
ARM GAS  /tmp/ccfvQckB.s 			page 18


 316              	.LVL20:
 425:../../kernel/FreeRTOS-Plus/Demo/Common/FreeRTOS_Plus_CLI_Demos/Sample-CLI-commands.c **** }
 317              		.loc 1 425 2 is_stmt 1 view .LVU56
 318              	@ ../../kernel/FreeRTOS-Plus/Demo/Common/FreeRTOS_Plus_CLI_Demos/Sample-CLI-commands.c:426: }
 319              		.loc 1 426 1 is_stmt 0 view .LVU57
 320 0096 03B0     		add	sp, sp, #12	@,,
 321              		.cfi_def_cfa_offset 20
 322              		@ sp needed	@
 323 0098 F0BD     		pop	{r4, r5, r6, r7, pc}	@
 324              	.LVL21:
 325              	.L12:
 326              		.loc 1 426 1 view .LVU58
 327 009a 00BF     		.align	2
 328              	.L11:
 329 009c 00000000 		.word	.LANCHOR0
 330 00a0 00000000 		.word	.LC0
 331 00a4 18000000 		.word	.LC1
 332 00a8 20000000 		.word	.LC2
 333              		.cfi_endproc
 334              	.LFE11:
 335              		.size	prvParameterEchoCommand, .-prvParameterEchoCommand
 336              		.section	.text.prvThreeParameterEchoCommand,"ax",%progbits
 337              		.align	1
 338              		.p2align 2,,3
 339              		.syntax unified
 340              		.thumb
 341              		.thumb_func
 342              		.fpu fpv4-sp-d16
 343              		.type	prvThreeParameterEchoCommand, %function
 344              	prvThreeParameterEchoCommand:
 345              	.LVL22:
 346              	.LFB10:
 296:../../kernel/FreeRTOS-Plus/Demo/Common/FreeRTOS_Plus_CLI_Demos/Sample-CLI-commands.c **** const char *pcParameter;
 347              		.loc 1 296 1 is_stmt 1 view -0
 348              		.cfi_startproc
 349              		@ args = 0, pretend = 0, frame = 8
 350              		@ frame_needed = 0, uses_anonymous_args = 0
 297:../../kernel/FreeRTOS-Plus/Demo/Common/FreeRTOS_Plus_CLI_Demos/Sample-CLI-commands.c **** BaseType_t xParameterStringLength, xReturn;
 351              		.loc 1 297 1 view .LVU60
 298:../../kernel/FreeRTOS-Plus/Demo/Common/FreeRTOS_Plus_CLI_Demos/Sample-CLI-commands.c **** static UBaseType_t uxParameterNumber = 0;
 352              		.loc 1 298 1 view .LVU61
 299:../../kernel/FreeRTOS-Plus/Demo/Common/FreeRTOS_Plus_CLI_Demos/Sample-CLI-commands.c **** 
 353              		.loc 1 299 1 view .LVU62
 304:../../kernel/FreeRTOS-Plus/Demo/Common/FreeRTOS_Plus_CLI_Demos/Sample-CLI-commands.c **** 	( void ) xWriteBufferLen;
 354              		.loc 1 304 2 view .LVU63
 305:../../kernel/FreeRTOS-Plus/Demo/Common/FreeRTOS_Plus_CLI_Demos/Sample-CLI-commands.c **** 	configASSERT( pcWriteBuffer );
 355              		.loc 1 305 2 view .LVU64
 306:../../kernel/FreeRTOS-Plus/Demo/Common/FreeRTOS_Plus_CLI_Demos/Sample-CLI-commands.c **** 
 356              		.loc 1 306 2 view .LVU65
 357 0000 0028     		cmp	r0, #0	@ pcWriteBuffer
 358 0002 3DD0     		beq	.L23	@
 306:../../kernel/FreeRTOS-Plus/Demo/Common/FreeRTOS_Plus_CLI_Demos/Sample-CLI-commands.c **** 
 359              		.loc 1 306 31 discriminator 2 view .LVU66
 308:../../kernel/FreeRTOS-Plus/Demo/Common/FreeRTOS_Plus_CLI_Demos/Sample-CLI-commands.c **** 	{
 360              		.loc 1 308 2 discriminator 2 view .LVU67
 361              	@ ../../kernel/FreeRTOS-Plus/Demo/Common/FreeRTOS_Plus_CLI_Demos/Sample-CLI-commands.c:296: {
 296:../../kernel/FreeRTOS-Plus/Demo/Common/FreeRTOS_Plus_CLI_Demos/Sample-CLI-commands.c **** const char *pcParameter;
ARM GAS  /tmp/ccfvQckB.s 			page 19


 362              		.loc 1 296 1 is_stmt 0 discriminator 2 view .LVU68
 363 0004 F0B5     		push	{r4, r5, r6, r7, lr}	@
 364              		.cfi_def_cfa_offset 20
 365              		.cfi_offset 4, -20
 366              		.cfi_offset 5, -16
 367              		.cfi_offset 6, -12
 368              		.cfi_offset 7, -8
 369              		.cfi_offset 14, -4
 370              	@ ../../kernel/FreeRTOS-Plus/Demo/Common/FreeRTOS_Plus_CLI_Demos/Sample-CLI-commands.c:308: 	if( ux
 308:../../kernel/FreeRTOS-Plus/Demo/Common/FreeRTOS_Plus_CLI_Demos/Sample-CLI-commands.c **** 	{
 371              		.loc 1 308 24 discriminator 2 view .LVU69
 372 0006 294E     		ldr	r6, .L26	@ tmp127,
 373 0008 0C46     		mov	r4, r1	@ xWriteBufferLen, xWriteBufferLen
 374 000a 3168     		ldr	r1, [r6]	@ uxParameterNumber.7_1, uxParameterNumber
 375              	.LVL23:
 376              	@ ../../kernel/FreeRTOS-Plus/Demo/Common/FreeRTOS_Plus_CLI_Demos/Sample-CLI-commands.c:296: {
 296:../../kernel/FreeRTOS-Plus/Demo/Common/FreeRTOS_Plus_CLI_Demos/Sample-CLI-commands.c **** const char *pcParameter;
 377              		.loc 1 296 1 discriminator 2 view .LVU70
 378 000c 83B0     		sub	sp, sp, #12	@,,
 379              		.cfi_def_cfa_offset 32
 380 000e 0546     		mov	r5, r0	@ pcWriteBuffer, pcWriteBuffer
 381              	@ ../../kernel/FreeRTOS-Plus/Demo/Common/FreeRTOS_Plus_CLI_Demos/Sample-CLI-commands.c:308: 	if( ux
 308:../../kernel/FreeRTOS-Plus/Demo/Common/FreeRTOS_Plus_CLI_Demos/Sample-CLI-commands.c **** 	{
 382              		.loc 1 308 4 discriminator 2 view .LVU71
 383 0010 81B9     		cbnz	r1, .L16	@ uxParameterNumber.7_1,
 312:../../kernel/FreeRTOS-Plus/Demo/Common/FreeRTOS_Plus_CLI_Demos/Sample-CLI-commands.c **** 
 384              		.loc 1 312 3 is_stmt 1 view .LVU72
 385 0012 274C     		ldr	r4, .L26+4	@ tmp130,
 386              	.LVL24:
 312:../../kernel/FreeRTOS-Plus/Demo/Common/FreeRTOS_Plus_CLI_Demos/Sample-CLI-commands.c **** 
 387              		.loc 1 312 3 is_stmt 0 view .LVU73
 388 0014 0FCC     		ldmia	r4!, {r0, r1, r2, r3}	@ tmp130,,,,
 389              	.LVL25:
 312:../../kernel/FreeRTOS-Plus/Demo/Common/FreeRTOS_Plus_CLI_Demos/Sample-CLI-commands.c **** 
 390              		.loc 1 312 3 view .LVU74
 391 0016 2860     		str	r0, [r5]	@ unaligned	@, MEM[(void *)pcWriteBuffer_10(D)]
 392 0018 6960     		str	r1, [r5, #4]	@ unaligned	@, MEM[(void *)pcWriteBuffer_10(D)]
 393 001a AA60     		str	r2, [r5, #8]	@ unaligned	@, MEM[(void *)pcWriteBuffer_10(D)]
 394 001c 07CC     		ldmia	r4!, {r0, r1, r2}	@ tmp130,,,
 395 001e EB60     		str	r3, [r5, #12]	@ unaligned	@, MEM[(void *)pcWriteBuffer_10(D)]
 396 0020 2478     		ldrb	r4, [r4]	@ zero_extendqisi2	@ MEM[(void *)"The three parameters were:\r\n"], MEM[(void *)"The
 397 0022 2861     		str	r0, [r5, #16]	@ unaligned	@, MEM[(void *)pcWriteBuffer_10(D)]
 398              	@ ../../kernel/FreeRTOS-Plus/Demo/Common/FreeRTOS_Plus_CLI_Demos/Sample-CLI-commands.c:316: 		uxPar
 316:../../kernel/FreeRTOS-Plus/Demo/Common/FreeRTOS_Plus_CLI_Demos/Sample-CLI-commands.c **** 
 399              		.loc 1 316 21 view .LVU75
 400 0024 0123     		movs	r3, #1	@ tmp135,
 401              	@ ../../kernel/FreeRTOS-Plus/Demo/Common/FreeRTOS_Plus_CLI_Demos/Sample-CLI-commands.c:312: 		sprin
 312:../../kernel/FreeRTOS-Plus/Demo/Common/FreeRTOS_Plus_CLI_Demos/Sample-CLI-commands.c **** 
 402              		.loc 1 312 3 view .LVU76
 403 0026 2C77     		strb	r4, [r5, #28]	@ MEM[(void *)"The three parameters were:\r\n"], MEM[(void *)pcWriteBuffer_10(D
 316:../../kernel/FreeRTOS-Plus/Demo/Common/FreeRTOS_Plus_CLI_Demos/Sample-CLI-commands.c **** 
 404              		.loc 1 316 3 is_stmt 1 view .LVU77
 405              	@ ../../kernel/FreeRTOS-Plus/Demo/Common/FreeRTOS_Plus_CLI_Demos/Sample-CLI-commands.c:312: 		sprin
 312:../../kernel/FreeRTOS-Plus/Demo/Common/FreeRTOS_Plus_CLI_Demos/Sample-CLI-commands.c **** 
 406              		.loc 1 312 3 is_stmt 0 view .LVU78
 407 0028 6961     		str	r1, [r5, #20]	@ unaligned	@, MEM[(void *)pcWriteBuffer_10(D)]
 408 002a AA61     		str	r2, [r5, #24]	@ unaligned	@, MEM[(void *)pcWriteBuffer_10(D)]
ARM GAS  /tmp/ccfvQckB.s 			page 20


 409              	@ ../../kernel/FreeRTOS-Plus/Demo/Common/FreeRTOS_Plus_CLI_Demos/Sample-CLI-commands.c:316: 		uxPar
 316:../../kernel/FreeRTOS-Plus/Demo/Common/FreeRTOS_Plus_CLI_Demos/Sample-CLI-commands.c **** 
 410              		.loc 1 316 21 view .LVU79
 411 002c 3360     		str	r3, [r6]	@ tmp135, uxParameterNumber
 320:../../kernel/FreeRTOS-Plus/Demo/Common/FreeRTOS_Plus_CLI_Demos/Sample-CLI-commands.c **** 	}
 412              		.loc 1 320 3 is_stmt 1 view .LVU80
 413              	.LVL26:
 414              	@ ../../kernel/FreeRTOS-Plus/Demo/Common/FreeRTOS_Plus_CLI_Demos/Sample-CLI-commands.c:320: 		xRetu
 320:../../kernel/FreeRTOS-Plus/Demo/Common/FreeRTOS_Plus_CLI_Demos/Sample-CLI-commands.c **** 	}
 415              		.loc 1 320 11 is_stmt 0 view .LVU81
 416 002e 1846     		mov	r0, r3	@ <retval>, tmp135
 417              	.LVL27:
 418              	.L13:
 419              	@ ../../kernel/FreeRTOS-Plus/Demo/Common/FreeRTOS_Plus_CLI_Demos/Sample-CLI-commands.c:359: }
 359:../../kernel/FreeRTOS-Plus/Demo/Common/FreeRTOS_Plus_CLI_Demos/Sample-CLI-commands.c **** /*-----------------------------------------------------------*/
 420              		.loc 1 359 1 view .LVU82
 421 0030 03B0     		add	sp, sp, #12	@,,
 422              		.cfi_remember_state
 423              		.cfi_def_cfa_offset 20
 424              		@ sp needed	@
 425 0032 F0BD     		pop	{r4, r5, r6, r7, pc}	@
 426              	.LVL28:
 427              	.L16:
 428              		.cfi_restore_state
 325:../../kernel/FreeRTOS-Plus/Demo/Common/FreeRTOS_Plus_CLI_Demos/Sample-CLI-commands.c **** 						(
 429              		.loc 1 325 3 is_stmt 1 view .LVU83
 430 0034 1046     		mov	r0, r2	@ pcCommandString, pcCommandString
 431              	.LVL29:
 432              	@ ../../kernel/FreeRTOS-Plus/Demo/Common/FreeRTOS_Plus_CLI_Demos/Sample-CLI-commands.c:325: 		pcPar
 325:../../kernel/FreeRTOS-Plus/Demo/Common/FreeRTOS_Plus_CLI_Demos/Sample-CLI-commands.c **** 						(
 433              		.loc 1 325 17 is_stmt 0 view .LVU84
 434 0036 01AA     		add	r2, sp, #4	@,,
 435              	.LVL30:
 325:../../kernel/FreeRTOS-Plus/Demo/Common/FreeRTOS_Plus_CLI_Demos/Sample-CLI-commands.c **** 						(
 436              		.loc 1 325 17 view .LVU85
 437 0038 FFF7FEFF 		bl	FreeRTOS_CLIGetParameter		@
 438              	.LVL31:
 333:../../kernel/FreeRTOS-Plus/Demo/Common/FreeRTOS_Plus_CLI_Demos/Sample-CLI-commands.c **** 
 439              		.loc 1 333 3 is_stmt 1 view .LVU86
 440 003c 0746     		mov	r7, r0	@ pcParameter,
 441 003e 40B3     		cbz	r0, .L24	@ pcParameter,
 333:../../kernel/FreeRTOS-Plus/Demo/Common/FreeRTOS_Plus_CLI_Demos/Sample-CLI-commands.c **** 
 442              		.loc 1 333 30 discriminator 2 view .LVU87
 336:../../kernel/FreeRTOS-Plus/Demo/Common/FreeRTOS_Plus_CLI_Demos/Sample-CLI-commands.c **** 		sprintf( pcWriteBuffer, "%d: ", ( int ) uxParameterNumber );
 443              		.loc 1 336 3 discriminator 2 view .LVU88
 444 0040 2246     		mov	r2, r4	@, xWriteBufferLen
 445 0042 0021     		movs	r1, #0	@,
 446 0044 2846     		mov	r0, r5	@, pcWriteBuffer
 447              	.LVL32:
 336:../../kernel/FreeRTOS-Plus/Demo/Common/FreeRTOS_Plus_CLI_Demos/Sample-CLI-commands.c **** 		sprintf( pcWriteBuffer, "%d: ", ( int ) uxParameterNumber );
 448              		.loc 1 336 3 is_stmt 0 discriminator 2 view .LVU89
 449 0046 FFF7FEFF 		bl	memset		@
 450              	.LVL33:
 337:../../kernel/FreeRTOS-Plus/Demo/Common/FreeRTOS_Plus_CLI_Demos/Sample-CLI-commands.c **** 		strncat( pcWriteBuffer, pcParameter, ( size_t ) xParameterStringLength );
 451              		.loc 1 337 3 is_stmt 1 discriminator 2 view .LVU90
 452 004a 3268     		ldr	r2, [r6]	@, uxParameterNumber
 453 004c 1949     		ldr	r1, .L26+8	@,
ARM GAS  /tmp/ccfvQckB.s 			page 21


 454 004e 2846     		mov	r0, r5	@, pcWriteBuffer
 455 0050 FFF7FEFF 		bl	sprintf		@
 456              	.LVL34:
 338:../../kernel/FreeRTOS-Plus/Demo/Common/FreeRTOS_Plus_CLI_Demos/Sample-CLI-commands.c **** 		strncat( pcWriteBuffer, "\r\n", strlen( "\r\n" ) );
 457              		.loc 1 338 3 discriminator 2 view .LVU91
 458 0054 3946     		mov	r1, r7	@, pcParameter
 459 0056 019A     		ldr	r2, [sp, #4]	@, xParameterStringLength
 460 0058 2846     		mov	r0, r5	@, pcWriteBuffer
 461 005a FFF7FEFF 		bl	strncat		@
 462              	.LVL35:
 339:../../kernel/FreeRTOS-Plus/Demo/Common/FreeRTOS_Plus_CLI_Demos/Sample-CLI-commands.c **** 
 463              		.loc 1 339 3 discriminator 2 view .LVU92
 464 005e 2846     		mov	r0, r5	@, pcWriteBuffer
 465 0060 FFF7FEFF 		bl	strlen		@
 466              	.LVL36:
 467 0064 144A     		ldr	r2, .L26+12	@ tmp148,
 468              	@ ../../kernel/FreeRTOS-Plus/Demo/Common/FreeRTOS_Plus_CLI_Demos/Sample-CLI-commands.c:343: 		if( u
 343:../../kernel/FreeRTOS-Plus/Demo/Common/FreeRTOS_Plus_CLI_Demos/Sample-CLI-commands.c **** 		{
 469              		.loc 1 343 25 is_stmt 0 discriminator 2 view .LVU93
 470 0066 3368     		ldr	r3, [r6]	@ uxParameterNumber.13_6, uxParameterNumber
 471              	@ ../../kernel/FreeRTOS-Plus/Demo/Common/FreeRTOS_Plus_CLI_Demos/Sample-CLI-commands.c:339: 		strnc
 339:../../kernel/FreeRTOS-Plus/Demo/Common/FreeRTOS_Plus_CLI_Demos/Sample-CLI-commands.c **** 
 472              		.loc 1 339 3 discriminator 2 view .LVU94
 473 0068 1188     		ldrh	r1, [r2]	@ unaligned	@ tmp151, MEM[(void *)"\r\n"]
 474 006a 2952     		strh	r1, [r5, r0]	@ unaligned	@ tmp151, MEM[(void *)_22]
 475 006c 0544     		add	r5, r5, r0	@ tmp147, tmp146
 476              	.LVL37:
 339:../../kernel/FreeRTOS-Plus/Demo/Common/FreeRTOS_Plus_CLI_Demos/Sample-CLI-commands.c **** 
 477              		.loc 1 339 3 discriminator 2 view .LVU95
 478 006e 9278     		ldrb	r2, [r2, #2]	@ zero_extendqisi2	@ MEM[(void *)"\r\n"], MEM[(void *)"\r\n"]
 479 0070 AA70     		strb	r2, [r5, #2]	@ MEM[(void *)"\r\n"], MEM[(void *)_22]
 343:../../kernel/FreeRTOS-Plus/Demo/Common/FreeRTOS_Plus_CLI_Demos/Sample-CLI-commands.c **** 		{
 480              		.loc 1 343 3 is_stmt 1 discriminator 2 view .LVU96
 481              	@ ../../kernel/FreeRTOS-Plus/Demo/Common/FreeRTOS_Plus_CLI_Demos/Sample-CLI-commands.c:343: 		if( u
 343:../../kernel/FreeRTOS-Plus/Demo/Common/FreeRTOS_Plus_CLI_Demos/Sample-CLI-commands.c **** 		{
 482              		.loc 1 343 5 is_stmt 0 discriminator 2 view .LVU97
 483 0072 032B     		cmp	r3, #3	@ uxParameterNumber.13_6,
 484 0074 16D0     		beq	.L25		@,
 353:../../kernel/FreeRTOS-Plus/Demo/Common/FreeRTOS_Plus_CLI_Demos/Sample-CLI-commands.c **** 			uxParameterNumber++;
 485              		.loc 1 353 4 is_stmt 1 view .LVU98
 486              	.LVL38:
 354:../../kernel/FreeRTOS-Plus/Demo/Common/FreeRTOS_Plus_CLI_Demos/Sample-CLI-commands.c **** 		}
 487              		.loc 1 354 4 view .LVU99
 488              	@ ../../kernel/FreeRTOS-Plus/Demo/Common/FreeRTOS_Plus_CLI_Demos/Sample-CLI-commands.c:354: 			uxPa
 354:../../kernel/FreeRTOS-Plus/Demo/Common/FreeRTOS_Plus_CLI_Demos/Sample-CLI-commands.c **** 		}
 489              		.loc 1 354 21 is_stmt 0 view .LVU100
 490 0076 0133     		adds	r3, r3, #1	@ tmp159, uxParameterNumber.13_6,
 491              	@ ../../kernel/FreeRTOS-Plus/Demo/Common/FreeRTOS_Plus_CLI_Demos/Sample-CLI-commands.c:353: 			xRet
 353:../../kernel/FreeRTOS-Plus/Demo/Common/FreeRTOS_Plus_CLI_Demos/Sample-CLI-commands.c **** 			uxParameterNumber++;
 492              		.loc 1 353 12 view .LVU101
 493 0078 0120     		movs	r0, #1	@ <retval>,
 358:../../kernel/FreeRTOS-Plus/Demo/Common/FreeRTOS_Plus_CLI_Demos/Sample-CLI-commands.c **** }
 494              		.loc 1 358 2 is_stmt 1 view .LVU102
 495              	@ ../../kernel/FreeRTOS-Plus/Demo/Common/FreeRTOS_Plus_CLI_Demos/Sample-CLI-commands.c:354: 			uxPa
 354:../../kernel/FreeRTOS-Plus/Demo/Common/FreeRTOS_Plus_CLI_Demos/Sample-CLI-commands.c **** 		}
 496              		.loc 1 354 21 is_stmt 0 view .LVU103
 497 007a 3360     		str	r3, [r6]	@ tmp159, uxParameterNumber
ARM GAS  /tmp/ccfvQckB.s 			page 22


 498              	@ ../../kernel/FreeRTOS-Plus/Demo/Common/FreeRTOS_Plus_CLI_Demos/Sample-CLI-commands.c:359: }
 359:../../kernel/FreeRTOS-Plus/Demo/Common/FreeRTOS_Plus_CLI_Demos/Sample-CLI-commands.c **** /*-----------------------------------------------------------*/
 499              		.loc 1 359 1 view .LVU104
 500 007c 03B0     		add	sp, sp, #12	@,,
 501              		.cfi_def_cfa_offset 20
 502              		@ sp needed	@
 503 007e F0BD     		pop	{r4, r5, r6, r7, pc}	@
 504              	.LVL39:
 505              	.L23:
 506              		.cfi_def_cfa_offset 0
 507              		.cfi_restore 4
 508              		.cfi_restore 5
 509              		.cfi_restore 6
 510              		.cfi_restore 7
 511              		.cfi_restore 14
 306:../../kernel/FreeRTOS-Plus/Demo/Common/FreeRTOS_Plus_CLI_Demos/Sample-CLI-commands.c **** 
 512              		.loc 1 306 2 is_stmt 1 view .LVU105
 513              	.LBB18:
 514              	.LBI18:
 191:../../kernel/FreeRTOS/Source/portable/GCC/ARM_CM4F/portmacro.h **** {
 515              		.loc 2 191 30 view .LVU106
 516              	.LBB19:
 193:../../kernel/FreeRTOS/Source/portable/GCC/ARM_CM4F/portmacro.h **** 
 517              		.loc 2 193 1 view .LVU107
 518              		.loc 2 195 2 view .LVU108
 519              		.syntax unified
 520              	@ 195 "../../kernel/FreeRTOS/Source/portable/GCC/ARM_CM4F/portmacro.h" 1
 521 0080 4FF0A003 			mov r3, #160													@ ulNewBASEPRI,
 522 0084 83F31188 		msr basepri, r3												@ ulNewBASEPRI
 523 0088 BFF36F8F 		isb														
 524 008c BFF34F8F 		dsb														
 525              	
 526              	@ 0 "" 2
 527              	.LVL40:
 528              		.thumb
 529              		.syntax unified
 530              	.L15:
 531              		.loc 2 195 2 is_stmt 0 view .LVU109
 532              	.LBE19:
 533              	.LBE18:
 306:../../kernel/FreeRTOS-Plus/Demo/Common/FreeRTOS_Plus_CLI_Demos/Sample-CLI-commands.c **** 
 534              		.loc 1 306 2 is_stmt 1 discriminator 1 view .LVU110
 306:../../kernel/FreeRTOS-Plus/Demo/Common/FreeRTOS_Plus_CLI_Demos/Sample-CLI-commands.c **** 
 535              		.loc 1 306 2 discriminator 1 view .LVU111
 306:../../kernel/FreeRTOS-Plus/Demo/Common/FreeRTOS_Plus_CLI_Demos/Sample-CLI-commands.c **** 
 536              		.loc 1 306 2 discriminator 1 view .LVU112
 306:../../kernel/FreeRTOS-Plus/Demo/Common/FreeRTOS_Plus_CLI_Demos/Sample-CLI-commands.c **** 
 537              		.loc 1 306 2 discriminator 1 view .LVU113
 538 0090 FEE7     		b	.L15		@
 539              	.LVL41:
 540              	.L24:
 541              		.cfi_def_cfa_offset 32
 542              		.cfi_offset 4, -20
 543              		.cfi_offset 5, -16
 544              		.cfi_offset 6, -12
 545              		.cfi_offset 7, -8
 546              		.cfi_offset 14, -4
ARM GAS  /tmp/ccfvQckB.s 			page 23


 333:../../kernel/FreeRTOS-Plus/Demo/Common/FreeRTOS_Plus_CLI_Demos/Sample-CLI-commands.c **** 
 547              		.loc 1 333 3 view .LVU114
 548              	.LBB20:
 549              	.LBI20:
 191:../../kernel/FreeRTOS/Source/portable/GCC/ARM_CM4F/portmacro.h **** {
 550              		.loc 2 191 30 view .LVU115
 551              	.LBB21:
 193:../../kernel/FreeRTOS/Source/portable/GCC/ARM_CM4F/portmacro.h **** 
 552              		.loc 2 193 1 view .LVU116
 553              		.loc 2 195 2 view .LVU117
 554              		.syntax unified
 555              	@ 195 "../../kernel/FreeRTOS/Source/portable/GCC/ARM_CM4F/portmacro.h" 1
 556 0092 4FF0A003 			mov r3, #160													@ ulNewBASEPRI,
 557 0096 83F31188 		msr basepri, r3												@ ulNewBASEPRI
 558 009a BFF36F8F 		isb														
 559 009e BFF34F8F 		dsb														
 560              	
 561              	@ 0 "" 2
 562              	.LVL42:
 563              		.thumb
 564              		.syntax unified
 565              	.L19:
 566              		.loc 2 195 2 is_stmt 0 view .LVU118
 567              	.LBE21:
 568              	.LBE20:
 333:../../kernel/FreeRTOS-Plus/Demo/Common/FreeRTOS_Plus_CLI_Demos/Sample-CLI-commands.c **** 
 569              		.loc 1 333 3 is_stmt 1 discriminator 2 view .LVU119
 333:../../kernel/FreeRTOS-Plus/Demo/Common/FreeRTOS_Plus_CLI_Demos/Sample-CLI-commands.c **** 
 570              		.loc 1 333 3 discriminator 2 view .LVU120
 333:../../kernel/FreeRTOS-Plus/Demo/Common/FreeRTOS_Plus_CLI_Demos/Sample-CLI-commands.c **** 
 571              		.loc 1 333 3 discriminator 2 view .LVU121
 333:../../kernel/FreeRTOS-Plus/Demo/Common/FreeRTOS_Plus_CLI_Demos/Sample-CLI-commands.c **** 
 572              		.loc 1 333 3 discriminator 2 view .LVU122
 573 00a2 FEE7     		b	.L19		@
 574              	.LVL43:
 575              	.L25:
 347:../../kernel/FreeRTOS-Plus/Demo/Common/FreeRTOS_Plus_CLI_Demos/Sample-CLI-commands.c **** 			uxParameterNumber = 0;
 576              		.loc 1 347 4 view .LVU123
 348:../../kernel/FreeRTOS-Plus/Demo/Common/FreeRTOS_Plus_CLI_Demos/Sample-CLI-commands.c **** 		}
 577              		.loc 1 348 4 view .LVU124
 578              	@ ../../kernel/FreeRTOS-Plus/Demo/Common/FreeRTOS_Plus_CLI_Demos/Sample-CLI-commands.c:348: 			uxPa
 348:../../kernel/FreeRTOS-Plus/Demo/Common/FreeRTOS_Plus_CLI_Demos/Sample-CLI-commands.c **** 		}
 579              		.loc 1 348 22 is_stmt 0 view .LVU125
 580 00a4 0020     		movs	r0, #0	@ tmp157,
 581 00a6 3060     		str	r0, [r6]	@ tmp157, uxParameterNumber
 582 00a8 C2E7     		b	.L13		@
 583              	.L27:
 584 00aa 00BF     		.align	2
 585              	.L26:
 586 00ac 00000000 		.word	.LANCHOR1
 587 00b0 00000000 		.word	.LC3
 588 00b4 18000000 		.word	.LC1
 589 00b8 20000000 		.word	.LC2
 590              		.cfi_endproc
 591              	.LFE10:
 592              		.size	prvThreeParameterEchoCommand, .-prvThreeParameterEchoCommand
 593              		.section	.text.prvTaskStatsCommand,"ax",%progbits
ARM GAS  /tmp/ccfvQckB.s 			page 24


 594              		.align	1
 595              		.p2align 2,,3
 596              		.syntax unified
 597              		.thumb
 598              		.thumb_func
 599              		.fpu fpv4-sp-d16
 600              		.type	prvTaskStatsCommand, %function
 601              	prvTaskStatsCommand:
 602              	.LVL44:
 603              	.LFB8:
 195:../../kernel/FreeRTOS-Plus/Demo/Common/FreeRTOS_Plus_CLI_Demos/Sample-CLI-commands.c **** const char *const pcHeader = "     State   Priority  Stack    #\r\n********************************
 604              		.loc 1 195 1 is_stmt 1 view -0
 605              		.cfi_startproc
 606              		@ args = 0, pretend = 0, frame = 0
 607              		@ frame_needed = 0, uses_anonymous_args = 0
 196:../../kernel/FreeRTOS-Plus/Demo/Common/FreeRTOS_Plus_CLI_Demos/Sample-CLI-commands.c **** BaseType_t xSpacePadding;
 608              		.loc 1 196 1 view .LVU127
 197:../../kernel/FreeRTOS-Plus/Demo/Common/FreeRTOS_Plus_CLI_Demos/Sample-CLI-commands.c **** 
 609              		.loc 1 197 1 view .LVU128
 202:../../kernel/FreeRTOS-Plus/Demo/Common/FreeRTOS_Plus_CLI_Demos/Sample-CLI-commands.c **** 	( void ) xWriteBufferLen;
 610              		.loc 1 202 2 view .LVU129
 203:../../kernel/FreeRTOS-Plus/Demo/Common/FreeRTOS_Plus_CLI_Demos/Sample-CLI-commands.c **** 	configASSERT( pcWriteBuffer );
 611              		.loc 1 203 2 view .LVU130
 204:../../kernel/FreeRTOS-Plus/Demo/Common/FreeRTOS_Plus_CLI_Demos/Sample-CLI-commands.c **** 
 612              		.loc 1 204 2 view .LVU131
 613 0000 98B1     		cbz	r0, .L33	@ pcWriteBuffer,
 204:../../kernel/FreeRTOS-Plus/Demo/Common/FreeRTOS_Plus_CLI_Demos/Sample-CLI-commands.c **** 
 614              		.loc 1 204 31 discriminator 2 view .LVU132
 207:../../kernel/FreeRTOS-Plus/Demo/Common/FreeRTOS_Plus_CLI_Demos/Sample-CLI-commands.c **** 	pcWriteBuffer += strlen( pcWriteBuffer );
 615              		.loc 1 207 2 discriminator 2 view .LVU133
 616              	@ ../../kernel/FreeRTOS-Plus/Demo/Common/FreeRTOS_Plus_CLI_Demos/Sample-CLI-commands.c:195: {
 195:../../kernel/FreeRTOS-Plus/Demo/Common/FreeRTOS_Plus_CLI_Demos/Sample-CLI-commands.c **** const char *const pcHeader = "     State   Priority  Stack    #\r\n********************************
 617              		.loc 1 195 1 is_stmt 0 discriminator 2 view .LVU134
 618 0002 10B5     		push	{r4, lr}	@
 619              		.cfi_def_cfa_offset 8
 620              		.cfi_offset 4, -8
 621              		.cfi_offset 14, -4
 622              	@ ../../kernel/FreeRTOS-Plus/Demo/Common/FreeRTOS_Plus_CLI_Demos/Sample-CLI-commands.c:207: 	strcpy
 207:../../kernel/FreeRTOS-Plus/Demo/Common/FreeRTOS_Plus_CLI_Demos/Sample-CLI-commands.c **** 	pcWriteBuffer += strlen( pcWriteBuffer );
 623              		.loc 1 207 2 discriminator 2 view .LVU135
 624 0004 0D4B     		ldr	r3, .L34	@ tmp118,
 625              	@ ../../kernel/FreeRTOS-Plus/Demo/Common/FreeRTOS_Plus_CLI_Demos/Sample-CLI-commands.c:222: 	strcpy
 222:../../kernel/FreeRTOS-Plus/Demo/Common/FreeRTOS_Plus_CLI_Demos/Sample-CLI-commands.c **** 	vTaskList( pcWriteBuffer + strlen( pcHeader ) );
 626              		.loc 1 222 2 discriminator 2 view .LVU136
 627 0006 0E49     		ldr	r1, .L34+4	@,
 628              	.LVL45:
 222:../../kernel/FreeRTOS-Plus/Demo/Common/FreeRTOS_Plus_CLI_Demos/Sample-CLI-commands.c **** 	vTaskList( pcWriteBuffer + strlen( pcHeader ) );
 629              		.loc 1 222 2 discriminator 2 view .LVU137
 630 0008 0446     		mov	r4, r0	@ pcWriteBuffer, pcWriteBuffer
 631              	@ ../../kernel/FreeRTOS-Plus/Demo/Common/FreeRTOS_Plus_CLI_Demos/Sample-CLI-commands.c:207: 	strcpy
 207:../../kernel/FreeRTOS-Plus/Demo/Common/FreeRTOS_Plus_CLI_Demos/Sample-CLI-commands.c **** 	pcWriteBuffer += strlen( pcWriteBuffer );
 632              		.loc 1 207 2 discriminator 2 view .LVU138
 633 000a 1868     		ldr	r0, [r3]	@, MEM[(void *)"Task"]
 634              	.LVL46:
 207:../../kernel/FreeRTOS-Plus/Demo/Common/FreeRTOS_Plus_CLI_Demos/Sample-CLI-commands.c **** 	pcWriteBuffer += strlen( pcWriteBuffer );
 635              		.loc 1 207 2 discriminator 2 view .LVU139
 636 000c 2060     		str	r0, [r4]	@ unaligned	@, MEM[(void *)pcWriteBuffer_7(D)]
ARM GAS  /tmp/ccfvQckB.s 			page 25


 208:../../kernel/FreeRTOS-Plus/Demo/Common/FreeRTOS_Plus_CLI_Demos/Sample-CLI-commands.c **** 
 637              		.loc 1 208 2 is_stmt 1 discriminator 2 view .LVU140
 638              	.LVL47:
 212:../../kernel/FreeRTOS-Plus/Demo/Common/FreeRTOS_Plus_CLI_Demos/Sample-CLI-commands.c **** 	for( xSpacePadding = strlen( "Task" ); xSpacePadding < ( configMAX_TASK_NAME_LEN - 3 ); xSpacePadd
 639              		.loc 1 212 2 discriminator 2 view .LVU141
 212:../../kernel/FreeRTOS-Plus/Demo/Common/FreeRTOS_Plus_CLI_Demos/Sample-CLI-commands.c **** 	for( xSpacePadding = strlen( "Task" ); xSpacePadding < ( configMAX_TASK_NAME_LEN - 3 ); xSpacePadd
 640              		.loc 1 212 45 discriminator 2 view .LVU142
 213:../../kernel/FreeRTOS-Plus/Demo/Common/FreeRTOS_Plus_CLI_Demos/Sample-CLI-commands.c **** 	{
 641              		.loc 1 213 2 discriminator 2 view .LVU143
 216:../../kernel/FreeRTOS-Plus/Demo/Common/FreeRTOS_Plus_CLI_Demos/Sample-CLI-commands.c **** 		pcWriteBuffer++;
 642              		.loc 1 216 3 discriminator 2 view .LVU144
 643              	@ ../../kernel/FreeRTOS-Plus/Demo/Common/FreeRTOS_Plus_CLI_Demos/Sample-CLI-commands.c:216: 		*pcWr
 216:../../kernel/FreeRTOS-Plus/Demo/Common/FreeRTOS_Plus_CLI_Demos/Sample-CLI-commands.c **** 		pcWriteBuffer++;
 644              		.loc 1 216 18 is_stmt 0 discriminator 2 view .LVU145
 645 000e 2023     		movs	r3, #32	@ tmp121,
 646 0010 2371     		strb	r3, [r4, #4]	@ tmp121, MEM[(char *)pcWriteBuffer_7(D) + 4B]
 217:../../kernel/FreeRTOS-Plus/Demo/Common/FreeRTOS_Plus_CLI_Demos/Sample-CLI-commands.c **** 
 647              		.loc 1 217 3 is_stmt 1 discriminator 2 view .LVU146
 648              	.LVL48:
 220:../../kernel/FreeRTOS-Plus/Demo/Common/FreeRTOS_Plus_CLI_Demos/Sample-CLI-commands.c **** 	}
 649              		.loc 1 220 3 discriminator 2 view .LVU147
 216:../../kernel/FreeRTOS-Plus/Demo/Common/FreeRTOS_Plus_CLI_Demos/Sample-CLI-commands.c **** 		pcWriteBuffer++;
 650              		.loc 1 216 3 discriminator 2 view .LVU148
 651              	@ ../../kernel/FreeRTOS-Plus/Demo/Common/FreeRTOS_Plus_CLI_Demos/Sample-CLI-commands.c:216: 		*pcWr
 216:../../kernel/FreeRTOS-Plus/Demo/Common/FreeRTOS_Plus_CLI_Demos/Sample-CLI-commands.c **** 		pcWriteBuffer++;
 652              		.loc 1 216 18 is_stmt 0 discriminator 2 view .LVU149
 653 0012 6371     		strb	r3, [r4, #5]	@ tmp121, MEM[(char *)pcWriteBuffer_7(D) + 5B]
 217:../../kernel/FreeRTOS-Plus/Demo/Common/FreeRTOS_Plus_CLI_Demos/Sample-CLI-commands.c **** 
 654              		.loc 1 217 3 is_stmt 1 discriminator 2 view .LVU150
 655              	.LVL49:
 220:../../kernel/FreeRTOS-Plus/Demo/Common/FreeRTOS_Plus_CLI_Demos/Sample-CLI-commands.c **** 	}
 656              		.loc 1 220 3 discriminator 2 view .LVU151
 216:../../kernel/FreeRTOS-Plus/Demo/Common/FreeRTOS_Plus_CLI_Demos/Sample-CLI-commands.c **** 		pcWriteBuffer++;
 657              		.loc 1 216 3 discriminator 2 view .LVU152
 658              	@ ../../kernel/FreeRTOS-Plus/Demo/Common/FreeRTOS_Plus_CLI_Demos/Sample-CLI-commands.c:216: 		*pcWr
 216:../../kernel/FreeRTOS-Plus/Demo/Common/FreeRTOS_Plus_CLI_Demos/Sample-CLI-commands.c **** 		pcWriteBuffer++;
 659              		.loc 1 216 18 is_stmt 0 discriminator 2 view .LVU153
 660 0014 A371     		strb	r3, [r4, #6]	@ tmp121, MEM[(char *)pcWriteBuffer_7(D) + 6B]
 217:../../kernel/FreeRTOS-Plus/Demo/Common/FreeRTOS_Plus_CLI_Demos/Sample-CLI-commands.c **** 
 661              		.loc 1 217 3 is_stmt 1 discriminator 2 view .LVU154
 662              	.LVL50:
 220:../../kernel/FreeRTOS-Plus/Demo/Common/FreeRTOS_Plus_CLI_Demos/Sample-CLI-commands.c **** 	}
 663              		.loc 1 220 3 discriminator 2 view .LVU155
 222:../../kernel/FreeRTOS-Plus/Demo/Common/FreeRTOS_Plus_CLI_Demos/Sample-CLI-commands.c **** 	vTaskList( pcWriteBuffer + strlen( pcHeader ) );
 664              		.loc 1 222 2 discriminator 2 view .LVU156
 665 0016 5622     		movs	r2, #86	@,
 666              	.LVL51:
 222:../../kernel/FreeRTOS-Plus/Demo/Common/FreeRTOS_Plus_CLI_Demos/Sample-CLI-commands.c **** 	vTaskList( pcWriteBuffer + strlen( pcHeader ) );
 667              		.loc 1 222 2 is_stmt 0 discriminator 2 view .LVU157
 668 0018 E01D     		adds	r0, r4, #7	@, pcWriteBuffer,
 669              	.LVL52:
 222:../../kernel/FreeRTOS-Plus/Demo/Common/FreeRTOS_Plus_CLI_Demos/Sample-CLI-commands.c **** 	vTaskList( pcWriteBuffer + strlen( pcHeader ) );
 670              		.loc 1 222 2 discriminator 2 view .LVU158
 671 001a FFF7FEFF 		bl	memcpy		@
 672              	.LVL53:
 223:../../kernel/FreeRTOS-Plus/Demo/Common/FreeRTOS_Plus_CLI_Demos/Sample-CLI-commands.c **** 
 673              		.loc 1 223 2 is_stmt 1 discriminator 2 view .LVU159
ARM GAS  /tmp/ccfvQckB.s 			page 26


 674 001e 04F15C00 		add	r0, r4, #92	@, pcWriteBuffer,
 675 0022 FFF7FEFF 		bl	vTaskList		@
 676              	.LVL54:
 227:../../kernel/FreeRTOS-Plus/Demo/Common/FreeRTOS_Plus_CLI_Demos/Sample-CLI-commands.c **** }
 677              		.loc 1 227 2 discriminator 2 view .LVU160
 678              	@ ../../kernel/FreeRTOS-Plus/Demo/Common/FreeRTOS_Plus_CLI_Demos/Sample-CLI-commands.c:228: }
 228:../../kernel/FreeRTOS-Plus/Demo/Common/FreeRTOS_Plus_CLI_Demos/Sample-CLI-commands.c **** /*-----------------------------------------------------------*/
 679              		.loc 1 228 1 is_stmt 0 discriminator 2 view .LVU161
 680 0026 0020     		movs	r0, #0	@,
 681 0028 10BD     		pop	{r4, pc}	@
 682              	.LVL55:
 683              	.L33:
 684              		.cfi_def_cfa_offset 0
 685              		.cfi_restore 4
 686              		.cfi_restore 14
 687              	.LBB26:
 688              	.LBI26:
 233:../../kernel/FreeRTOS-Plus/Demo/Common/FreeRTOS_Plus_CLI_Demos/Sample-CLI-commands.c **** 	{
 689              		.loc 1 233 20 is_stmt 1 view .LVU162
 233:../../kernel/FreeRTOS-Plus/Demo/Common/FreeRTOS_Plus_CLI_Demos/Sample-CLI-commands.c **** 	{
 690              		.loc 1 233 20 is_stmt 0 view .LVU163
 691              	.LBE26:
 240:../../kernel/FreeRTOS-Plus/Demo/Common/FreeRTOS_Plus_CLI_Demos/Sample-CLI-commands.c **** 
 692              		.loc 1 240 3 is_stmt 1 view .LVU164
 693              	.LBB29:
 694              	.LBB27:
 695              	.LBI27:
 191:../../kernel/FreeRTOS/Source/portable/GCC/ARM_CM4F/portmacro.h **** {
 696              		.loc 2 191 30 view .LVU165
 697              	.LBB28:
 193:../../kernel/FreeRTOS/Source/portable/GCC/ARM_CM4F/portmacro.h **** 
 698              		.loc 2 193 1 view .LVU166
 699              		.loc 2 195 2 view .LVU167
 700              		.syntax unified
 701              	@ 195 "../../kernel/FreeRTOS/Source/portable/GCC/ARM_CM4F/portmacro.h" 1
 702 002a 4FF0A003 			mov r3, #160													@ ulNewBASEPRI,
 703 002e 83F31188 		msr basepri, r3												@ ulNewBASEPRI
 704 0032 BFF36F8F 		isb														
 705 0036 BFF34F8F 		dsb														
 706              	
 707              	@ 0 "" 2
 708              	.LVL56:
 709              		.thumb
 710              		.syntax unified
 711              	.L30:
 712              		.loc 2 195 2 is_stmt 0 view .LVU168
 713              	.LBE28:
 714              	.LBE27:
 715              	.LBE29:
 240:../../kernel/FreeRTOS-Plus/Demo/Common/FreeRTOS_Plus_CLI_Demos/Sample-CLI-commands.c **** 
 716              		.loc 1 240 3 is_stmt 1 view .LVU169
 240:../../kernel/FreeRTOS-Plus/Demo/Common/FreeRTOS_Plus_CLI_Demos/Sample-CLI-commands.c **** 
 717              		.loc 1 240 3 view .LVU170
 240:../../kernel/FreeRTOS-Plus/Demo/Common/FreeRTOS_Plus_CLI_Demos/Sample-CLI-commands.c **** 
 718              		.loc 1 240 3 view .LVU171
 240:../../kernel/FreeRTOS-Plus/Demo/Common/FreeRTOS_Plus_CLI_Demos/Sample-CLI-commands.c **** 
 719              		.loc 1 240 3 view .LVU172
ARM GAS  /tmp/ccfvQckB.s 			page 27


 720 003a FEE7     		b	.L30		@
 721              	.L35:
 722              		.align	2
 723              	.L34:
 724 003c 00000000 		.word	.LC4
 725 0040 08000000 		.word	.LC5
 726              		.cfi_endproc
 727              	.LFE8:
 728              		.size	prvTaskStatsCommand, .-prvTaskStatsCommand
 729              		.section	.text.prvQueryHeapCommand,"ax",%progbits
 730              		.align	1
 731              		.p2align 2,,3
 732              		.syntax unified
 733              		.thumb
 734              		.thumb_func
 735              		.fpu fpv4-sp-d16
 736              		.type	prvQueryHeapCommand, %function
 737              	prvQueryHeapCommand:
 738              	.LVL57:
 739              	.LFB9:
 234:../../kernel/FreeRTOS-Plus/Demo/Common/FreeRTOS_Plus_CLI_Demos/Sample-CLI-commands.c **** 		/* Remove compile time warnings about unused parameters, and check the
 740              		.loc 1 234 2 view -0
 741              		.cfi_startproc
 742              		@ args = 0, pretend = 0, frame = 0
 743              		@ frame_needed = 0, uses_anonymous_args = 0
 238:../../kernel/FreeRTOS-Plus/Demo/Common/FreeRTOS_Plus_CLI_Demos/Sample-CLI-commands.c **** 		( void ) xWriteBufferLen;
 744              		.loc 1 238 3 view .LVU174
 239:../../kernel/FreeRTOS-Plus/Demo/Common/FreeRTOS_Plus_CLI_Demos/Sample-CLI-commands.c **** 		configASSERT( pcWriteBuffer );
 745              		.loc 1 239 3 view .LVU175
 240:../../kernel/FreeRTOS-Plus/Demo/Common/FreeRTOS_Plus_CLI_Demos/Sample-CLI-commands.c **** 
 746              		.loc 1 240 3 view .LVU176
 747              	@ ../../kernel/FreeRTOS-Plus/Demo/Common/FreeRTOS_Plus_CLI_Demos/Sample-CLI-commands.c:234: 	{
 234:../../kernel/FreeRTOS-Plus/Demo/Common/FreeRTOS_Plus_CLI_Demos/Sample-CLI-commands.c **** 		/* Remove compile time warnings about unused parameters, and check the
 748              		.loc 1 234 2 is_stmt 0 view .LVU177
 749 0000 38B5     		push	{r3, r4, r5, lr}	@
 750              		.cfi_def_cfa_offset 16
 751              		.cfi_offset 3, -16
 752              		.cfi_offset 4, -12
 753              		.cfi_offset 5, -8
 754              		.cfi_offset 14, -4
 755              	@ ../../kernel/FreeRTOS-Plus/Demo/Common/FreeRTOS_Plus_CLI_Demos/Sample-CLI-commands.c:240: 		confi
 240:../../kernel/FreeRTOS-Plus/Demo/Common/FreeRTOS_Plus_CLI_Demos/Sample-CLI-commands.c **** 
 756              		.loc 1 240 3 view .LVU178
 757 0002 68B1     		cbz	r0, .L40	@ pcWriteBuffer,
 240:../../kernel/FreeRTOS-Plus/Demo/Common/FreeRTOS_Plus_CLI_Demos/Sample-CLI-commands.c **** 
 758              		.loc 1 240 32 is_stmt 1 discriminator 2 view .LVU179
 242:../../kernel/FreeRTOS-Plus/Demo/Common/FreeRTOS_Plus_CLI_Demos/Sample-CLI-commands.c **** 
 759              		.loc 1 242 3 discriminator 2 view .LVU180
 760 0004 0446     		mov	r4, r0	@ pcWriteBuffer, pcWriteBuffer
 761              	@ ../../kernel/FreeRTOS-Plus/Demo/Common/FreeRTOS_Plus_CLI_Demos/Sample-CLI-commands.c:242: 		sprin
 242:../../kernel/FreeRTOS-Plus/Demo/Common/FreeRTOS_Plus_CLI_Demos/Sample-CLI-commands.c **** 
 762              		.loc 1 242 102 is_stmt 0 discriminator 2 view .LVU181
 763 0006 FFF7FEFF 		bl	xPortGetFreeHeapSize		@
 764              	.LVL58:
 242:../../kernel/FreeRTOS-Plus/Demo/Common/FreeRTOS_Plus_CLI_Demos/Sample-CLI-commands.c **** 
 765              		.loc 1 242 102 discriminator 2 view .LVU182
 766 000a 0546     		mov	r5, r0	@ _1,
ARM GAS  /tmp/ccfvQckB.s 			page 28


 767              	@ ../../kernel/FreeRTOS-Plus/Demo/Common/FreeRTOS_Plus_CLI_Demos/Sample-CLI-commands.c:242: 		sprin
 242:../../kernel/FreeRTOS-Plus/Demo/Common/FreeRTOS_Plus_CLI_Demos/Sample-CLI-commands.c **** 
 768              		.loc 1 242 134 discriminator 2 view .LVU183
 769 000c FFF7FEFF 		bl	xPortGetMinimumEverFreeHeapSize		@
 770              	.LVL59:
 771              	@ ../../kernel/FreeRTOS-Plus/Demo/Common/FreeRTOS_Plus_CLI_Demos/Sample-CLI-commands.c:242: 		sprin
 242:../../kernel/FreeRTOS-Plus/Demo/Common/FreeRTOS_Plus_CLI_Demos/Sample-CLI-commands.c **** 
 772              		.loc 1 242 3 discriminator 2 view .LVU184
 773 0010 2A46     		mov	r2, r5	@, _1
 774 0012 0346     		mov	r3, r0	@,
 775 0014 0749     		ldr	r1, .L41	@,
 776 0016 2046     		mov	r0, r4	@, pcWriteBuffer
 777 0018 FFF7FEFF 		bl	sprintf		@
 778              	.LVL60:
 246:../../kernel/FreeRTOS-Plus/Demo/Common/FreeRTOS_Plus_CLI_Demos/Sample-CLI-commands.c **** 	}
 779              		.loc 1 246 3 is_stmt 1 discriminator 2 view .LVU185
 780              	@ ../../kernel/FreeRTOS-Plus/Demo/Common/FreeRTOS_Plus_CLI_Demos/Sample-CLI-commands.c:247: 	}
 247:../../kernel/FreeRTOS-Plus/Demo/Common/FreeRTOS_Plus_CLI_Demos/Sample-CLI-commands.c **** 
 781              		.loc 1 247 2 is_stmt 0 discriminator 2 view .LVU186
 782 001c 0020     		movs	r0, #0	@,
 783 001e 38BD     		pop	{r3, r4, r5, pc}	@
 784              	.LVL61:
 785              	.L40:
 786              	.LBB34:
 787              	.LBI34:
 233:../../kernel/FreeRTOS-Plus/Demo/Common/FreeRTOS_Plus_CLI_Demos/Sample-CLI-commands.c **** 	{
 788              		.loc 1 233 20 is_stmt 1 view .LVU187
 233:../../kernel/FreeRTOS-Plus/Demo/Common/FreeRTOS_Plus_CLI_Demos/Sample-CLI-commands.c **** 	{
 789              		.loc 1 233 20 is_stmt 0 view .LVU188
 790              	.LBE34:
 240:../../kernel/FreeRTOS-Plus/Demo/Common/FreeRTOS_Plus_CLI_Demos/Sample-CLI-commands.c **** 
 791              		.loc 1 240 3 is_stmt 1 view .LVU189
 792              	.LBB37:
 793              	.LBB35:
 794              	.LBI35:
 191:../../kernel/FreeRTOS/Source/portable/GCC/ARM_CM4F/portmacro.h **** {
 795              		.loc 2 191 30 view .LVU190
 796              	.LBB36:
 193:../../kernel/FreeRTOS/Source/portable/GCC/ARM_CM4F/portmacro.h **** 
 797              		.loc 2 193 1 view .LVU191
 798              		.loc 2 195 2 view .LVU192
 799              		.syntax unified
 800              	@ 195 "../../kernel/FreeRTOS/Source/portable/GCC/ARM_CM4F/portmacro.h" 1
 801 0020 4FF0A003 			mov r3, #160													@ ulNewBASEPRI,
 802 0024 83F31188 		msr basepri, r3												@ ulNewBASEPRI
 803 0028 BFF36F8F 		isb														
 804 002c BFF34F8F 		dsb														
 805              	
 806              	@ 0 "" 2
 807              	.LVL62:
 808              		.thumb
 809              		.syntax unified
 810              	.L38:
 811              		.loc 2 195 2 is_stmt 0 view .LVU193
 812              	.LBE36:
 813              	.LBE35:
 814              	.LBE37:
ARM GAS  /tmp/ccfvQckB.s 			page 29


 240:../../kernel/FreeRTOS-Plus/Demo/Common/FreeRTOS_Plus_CLI_Demos/Sample-CLI-commands.c **** 
 815              		.loc 1 240 3 is_stmt 1 view .LVU194
 240:../../kernel/FreeRTOS-Plus/Demo/Common/FreeRTOS_Plus_CLI_Demos/Sample-CLI-commands.c **** 
 816              		.loc 1 240 3 view .LVU195
 240:../../kernel/FreeRTOS-Plus/Demo/Common/FreeRTOS_Plus_CLI_Demos/Sample-CLI-commands.c **** 
 817              		.loc 1 240 3 view .LVU196
 240:../../kernel/FreeRTOS-Plus/Demo/Common/FreeRTOS_Plus_CLI_Demos/Sample-CLI-commands.c **** 
 818              		.loc 1 240 3 view .LVU197
 819 0030 FEE7     		b	.L38		@
 820              	.L42:
 821 0032 00BF     		.align	2
 822              	.L41:
 823 0034 00000000 		.word	.LC6
 824              		.cfi_endproc
 825              	.LFE9:
 826              		.size	prvQueryHeapCommand, .-prvQueryHeapCommand
 827              		.section	.text.vRegisterSampleCLICommands,"ax",%progbits
 828              		.align	1
 829              		.p2align 2,,3
 830              		.global	vRegisterSampleCLICommands
 831              		.syntax unified
 832              		.thumb
 833              		.thumb_func
 834              		.fpu fpv4-sp-d16
 835              		.type	vRegisterSampleCLICommands, %function
 836              	vRegisterSampleCLICommands:
 837              	.LFB7:
 168:../../kernel/FreeRTOS-Plus/Demo/Common/FreeRTOS_Plus_CLI_Demos/Sample-CLI-commands.c **** 	/* Register all the command line commands defined immediately above. */
 838              		.loc 1 168 1 view -0
 839              		.cfi_startproc
 840              		@ args = 0, pretend = 0, frame = 0
 841              		@ frame_needed = 0, uses_anonymous_args = 0
 170:../../kernel/FreeRTOS-Plus/Demo/Common/FreeRTOS_Plus_CLI_Demos/Sample-CLI-commands.c **** 	FreeRTOS_CLIRegisterCommand( &xThreeParameterEcho );
 842              		.loc 1 170 2 view .LVU199
 843              	@ ../../kernel/FreeRTOS-Plus/Demo/Common/FreeRTOS_Plus_CLI_Demos/Sample-CLI-commands.c:168: {
 168:../../kernel/FreeRTOS-Plus/Demo/Common/FreeRTOS_Plus_CLI_Demos/Sample-CLI-commands.c **** 	/* Register all the command line commands defined immediately above. */
 844              		.loc 1 168 1 is_stmt 0 view .LVU200
 845 0000 08B5     		push	{r3, lr}	@
 846              		.cfi_def_cfa_offset 8
 847              		.cfi_offset 3, -8
 848              		.cfi_offset 14, -4
 849              	@ ../../kernel/FreeRTOS-Plus/Demo/Common/FreeRTOS_Plus_CLI_Demos/Sample-CLI-commands.c:170: 	FreeRT
 170:../../kernel/FreeRTOS-Plus/Demo/Common/FreeRTOS_Plus_CLI_Demos/Sample-CLI-commands.c **** 	FreeRTOS_CLIRegisterCommand( &xThreeParameterEcho );
 850              		.loc 1 170 2 view .LVU201
 851 0002 0748     		ldr	r0, .L45	@,
 852 0004 FFF7FEFF 		bl	FreeRTOS_CLIRegisterCommand		@
 853              	.LVL63:
 171:../../kernel/FreeRTOS-Plus/Demo/Common/FreeRTOS_Plus_CLI_Demos/Sample-CLI-commands.c **** 	FreeRTOS_CLIRegisterCommand( &xParameterEcho );
 854              		.loc 1 171 2 is_stmt 1 view .LVU202
 855 0008 0648     		ldr	r0, .L45+4	@,
 856 000a FFF7FEFF 		bl	FreeRTOS_CLIRegisterCommand		@
 857              	.LVL64:
 172:../../kernel/FreeRTOS-Plus/Demo/Common/FreeRTOS_Plus_CLI_Demos/Sample-CLI-commands.c **** 
 858              		.loc 1 172 2 view .LVU203
 859 000e 0648     		ldr	r0, .L45+8	@,
 860 0010 FFF7FEFF 		bl	FreeRTOS_CLIRegisterCommand		@
 861              	.LVL65:
ARM GAS  /tmp/ccfvQckB.s 			page 30


 182:../../kernel/FreeRTOS-Plus/Demo/Common/FreeRTOS_Plus_CLI_Demos/Sample-CLI-commands.c **** 	}
 862              		.loc 1 182 3 view .LVU204
 863 0014 0548     		ldr	r0, .L45+12	@,
 864              	@ ../../kernel/FreeRTOS-Plus/Demo/Common/FreeRTOS_Plus_CLI_Demos/Sample-CLI-commands.c:191: }
 191:../../kernel/FreeRTOS-Plus/Demo/Common/FreeRTOS_Plus_CLI_Demos/Sample-CLI-commands.c **** /*-----------------------------------------------------------*/
 865              		.loc 1 191 1 is_stmt 0 view .LVU205
 866 0016 BDE80840 		pop	{r3, lr}	@
 867              		.cfi_restore 14
 868              		.cfi_restore 3
 869              		.cfi_def_cfa_offset 0
 870              	@ ../../kernel/FreeRTOS-Plus/Demo/Common/FreeRTOS_Plus_CLI_Demos/Sample-CLI-commands.c:182: 		FreeR
 182:../../kernel/FreeRTOS-Plus/Demo/Common/FreeRTOS_Plus_CLI_Demos/Sample-CLI-commands.c **** 	}
 871              		.loc 1 182 3 view .LVU206
 872 001a FFF7FEBF 		b	FreeRTOS_CLIRegisterCommand		@
 873              	.LVL66:
 874              	.L46:
 875 001e 00BF     		.align	2
 876              	.L45:
 877 0020 00000000 		.word	.LANCHOR2
 878 0024 00000000 		.word	.LANCHOR3
 879 0028 00000000 		.word	.LANCHOR4
 880 002c 00000000 		.word	.LANCHOR5
 881              		.cfi_endproc
 882              	.LFE7:
 883              		.size	vRegisterSampleCLICommands, .-vRegisterSampleCLICommands
 884              		.section	.bss.uxParameterNumber.7606,"aw",%nobits
 885              		.align	2
 886              		.set	.LANCHOR1,. + 0
 887              		.type	uxParameterNumber.7606, %object
 888              		.size	uxParameterNumber.7606, 4
 889              	uxParameterNumber.7606:
 890 0000 00000000 		.space	4
 891              		.section	.bss.uxParameterNumber.7617,"aw",%nobits
 892              		.align	2
 893              		.set	.LANCHOR0,. + 0
 894              		.type	uxParameterNumber.7617, %object
 895              		.size	uxParameterNumber.7617, 4
 896              	uxParameterNumber.7617:
 897 0000 00000000 		.space	4
 898              		.section	.rodata.prvParameterEchoCommand.str1.4,"aMS",%progbits,1
 899              		.align	2
 900              	.LC0:
 901 0000 54686520 		.ascii	"The parameters were:\015\012\000"
 901      70617261 
 901      6D657465 
 901      72732077 
 901      6572653A 
 902 0017 00       		.space	1
 903              	.LC1:
 904 0018 25643A20 		.ascii	"%d: \000"
 904      00
 905 001d 000000   		.space	3
 906              	.LC2:
 907 0020 0D0A00   		.ascii	"\015\012\000"
 908              		.section	.rodata.prvQueryHeapCommand.str1.4,"aMS",%progbits,1
 909              		.align	2
 910              	.LC6:
ARM GAS  /tmp/ccfvQckB.s 			page 31


 911 0000 43757272 		.ascii	"Current free heap %d bytes, minimum ever free heap "
 911      656E7420 
 911      66726565 
 911      20686561 
 911      70202564 
 912 0033 25642062 		.ascii	"%d bytes\015\012\000"
 912      79746573 
 912      0D0A00
 913              		.section	.rodata.prvTaskStatsCommand.str1.4,"aMS",%progbits,1
 914              		.align	2
 915              	.LC4:
 916 0000 5461736B 		.ascii	"Task\000"
 916      00
 917 0005 000000   		.space	3
 918              	.LC5:
 919 0008 20202020 		.ascii	"     State   Priority  Stack    #\015\012**********"
 919      20537461 
 919      74652020 
 919      20507269 
 919      6F726974 
 920 0035 2A2A2A2A 		.ascii	"**************************************\015\012\000"
 920      2A2A2A2A 
 920      2A2A2A2A 
 920      2A2A2A2A 
 920      2A2A2A2A 
 921              		.section	.rodata.prvThreeParameterEchoCommand.str1.4,"aMS",%progbits,1
 922              		.align	2
 923              	.LC3:
 924 0000 54686520 		.ascii	"The three parameters were:\015\012\000"
 924      74687265 
 924      65207061 
 924      72616D65 
 924      74657273 
 925              		.section	.rodata.str1.4,"aMS",%progbits,1
 926              		.align	2
 927              	.LC7:
 928 0000 71756572 		.ascii	"query-heap\000"
 928      792D6865 
 928      617000
 929 000b 00       		.space	1
 930              	.LC8:
 931 000c 0D0A7175 		.ascii	"\015\012query-heap:\015\012 Displays the free heap "
 931      6572792D 
 931      68656170 
 931      3A0D0A20 
 931      44697370 
 932 0033 73706163 		.ascii	"space, and minimum ever free heap space.\015\012\000"
 932      652C2061 
 932      6E64206D 
 932      696E696D 
 932      756D2065 
 933 005e 0000     		.space	2
 934              	.LC9:
 935 0060 6563686F 		.ascii	"echo-parameters\000"
 935      2D706172 
 935      616D6574 
 935      65727300 
ARM GAS  /tmp/ccfvQckB.s 			page 32


 936              	.LC10:
 937 0070 0D0A6563 		.ascii	"\015\012echo-parameters <...>:\015\012 Take variabl"
 937      686F2D70 
 937      6172616D 
 937      65746572 
 937      73203C2E 
 938 0097 65206E75 		.ascii	"e number of parameters, echos each in turn\015\012\000"
 938      6D626572 
 938      206F6620 
 938      70617261 
 938      6D657465 
 939              	.LC11:
 940 00c4 6563686F 		.ascii	"echo-3-parameters\000"
 940      2D332D70 
 940      6172616D 
 940      65746572 
 940      7300
 941 00d6 0000     		.space	2
 942              	.LC12:
 943 00d8 0D0A6563 		.ascii	"\015\012echo-3-parameters <param1> <param2> <param3"
 943      686F2D33 
 943      2D706172 
 943      616D6574 
 943      65727320 
 944 0105 3E3A0D0A 		.ascii	">:\015\012 Expects three parameters, echos each in "
 944      20457870 
 944      65637473 
 944      20746872 
 944      65652070 
 945 0132 7475726E 		.ascii	"turn\015\012\000"
 945      0D0A00
 946 0139 000000   		.space	3
 947              	.LC13:
 948 013c 7461736B 		.ascii	"task-stats\000"
 948      2D737461 
 948      747300
 949 0147 00       		.space	1
 950              	.LC14:
 951 0148 0D0A7461 		.ascii	"\015\012task-stats:\015\012 Displays a table showin"
 951      736B2D73 
 951      74617473 
 951      3A0D0A20 
 951      44697370 
 952 016f 67207468 		.ascii	"g the state of each FreeRTOS task\015\012\000"
 952      65207374 
 952      61746520 
 952      6F662065 
 952      61636820 
 953              		.section	.rodata.xParameterEcho,"a"
 954              		.align	2
 955              		.set	.LANCHOR4,. + 0
 956              		.type	xParameterEcho, %object
 957              		.size	xParameterEcho, 16
 958              	xParameterEcho:
 959              	@ pcCommand:
 960 0000 60000000 		.word	.LC9
 961              	@ pcHelpString:
ARM GAS  /tmp/ccfvQckB.s 			page 33


 962 0004 70000000 		.word	.LC10
 963              	@ pxCommandInterpreter:
 964 0008 00000000 		.word	prvParameterEchoCommand
 965              	@ cExpectedNumberOfParameters:
 966 000c FF       		.byte	-1
 967 000d 000000   		.space	3
 968              		.section	.rodata.xQueryHeap,"a"
 969              		.align	2
 970              		.set	.LANCHOR5,. + 0
 971              		.type	xQueryHeap, %object
 972              		.size	xQueryHeap, 16
 973              	xQueryHeap:
 974              	@ pcCommand:
 975 0000 00000000 		.word	.LC7
 976              	@ pcHelpString:
 977 0004 0C000000 		.word	.LC8
 978              	@ pxCommandInterpreter:
 979 0008 00000000 		.word	prvQueryHeapCommand
 980              	@ cExpectedNumberOfParameters:
 981 000c 00       		.byte	0
 982 000d 000000   		.space	3
 983              		.section	.rodata.xTaskStats,"a"
 984              		.align	2
 985              		.set	.LANCHOR2,. + 0
 986              		.type	xTaskStats, %object
 987              		.size	xTaskStats, 16
 988              	xTaskStats:
 989              	@ pcCommand:
 990 0000 3C010000 		.word	.LC13
 991              	@ pcHelpString:
 992 0004 48010000 		.word	.LC14
 993              	@ pxCommandInterpreter:
 994 0008 00000000 		.word	prvTaskStatsCommand
 995              	@ cExpectedNumberOfParameters:
 996 000c 00       		.byte	0
 997 000d 000000   		.space	3
 998              		.section	.rodata.xThreeParameterEcho,"a"
 999              		.align	2
 1000              		.set	.LANCHOR3,. + 0
 1001              		.type	xThreeParameterEcho, %object
 1002              		.size	xThreeParameterEcho, 16
 1003              	xThreeParameterEcho:
 1004              	@ pcCommand:
 1005 0000 C4000000 		.word	.LC11
 1006              	@ pcHelpString:
 1007 0004 D8000000 		.word	.LC12
 1008              	@ pxCommandInterpreter:
 1009 0008 00000000 		.word	prvThreeParameterEchoCommand
 1010              	@ cExpectedNumberOfParameters:
 1011 000c 03       		.byte	3
 1012 000d 000000   		.space	3
 1013              		.text
 1014              	.Letext0:
 1015              		.file 3 "/home/gu/code/freeRTOS10/vendor/mstar/CM4/tools/gcc-arm-none-eabi-8-2018-q4-major/lib/gcc
 1016              		.file 4 "/home/gu/code/freeRTOS10/vendor/mstar/CM4/tools/gcc-arm-none-eabi-8-2018-q4-major/arm-non
 1017              		.file 5 "/home/gu/code/freeRTOS10/vendor/mstar/CM4/tools/gcc-arm-none-eabi-8-2018-q4-major/arm-non
 1018              		.file 6 "/home/gu/code/freeRTOS10/vendor/mstar/CM4/tools/gcc-arm-none-eabi-8-2018-q4-major/arm-non
ARM GAS  /tmp/ccfvQckB.s 			page 34


 1019              		.file 7 "/home/gu/code/freeRTOS10/vendor/mstar/CM4/tools/gcc-arm-none-eabi-8-2018-q4-major/arm-non
 1020              		.file 8 "/home/gu/code/freeRTOS10/vendor/mstar/CM4/tools/gcc-arm-none-eabi-8-2018-q4-major/arm-non
 1021              		.file 9 "/home/gu/code/freeRTOS10/vendor/mstar/CM4/tools/gcc-arm-none-eabi-8-2018-q4-major/arm-non
 1022              		.file 10 "../../kernel/FreeRTOS-Plus/Source/FreeRTOS-Plus-CLI/FreeRTOS_CLI.h"
 1023              		.file 11 "/home/gu/code/freeRTOS10/vendor/mstar/CM4/tools/gcc-arm-none-eabi-8-2018-q4-major/arm-no
 1024              		.file 12 "/home/gu/code/freeRTOS10/vendor/mstar/CM4/tools/gcc-arm-none-eabi-8-2018-q4-major/arm-no
 1025              		.file 13 "<built-in>"
 1026              		.file 14 "../../kernel/FreeRTOS/Source/include/task.h"
 1027              		.file 15 "../../kernel/FreeRTOS/Source/include/portable.h"