ARM GAS  /tmp/ccAD7eaF.s 			page 1


   1              		.cpu cortex-m4
   2              		.eabi_attribute 27, 1	@ Tag_ABI_HardFP_use
   3              		.eabi_attribute 20, 1	@ Tag_ABI_FP_denormal
   4              		.eabi_attribute 21, 1	@ Tag_ABI_FP_exceptions
   5              		.eabi_attribute 23, 3	@ Tag_ABI_FP_number_model
   6              		.eabi_attribute 24, 1	@ Tag_ABI_align8_needed
   7              		.eabi_attribute 25, 1	@ Tag_ABI_align8_preserved
   8              		.eabi_attribute 26, 1	@ Tag_ABI_enum_size
   9              		.eabi_attribute 30, 2	@ Tag_ABI_optimization_goals
  10              		.eabi_attribute 34, 1	@ Tag_CPU_unaligned_access
  11              		.eabi_attribute 18, 4	@ Tag_ABI_PCS_wchar_t
  12              		.file	"voc_task.c"
  13              	@ GNU C89 (GNU Tools for Arm Embedded Processors 8-2018-q4-major) version 8.2.1 20181213 (release) 
  14              	@	compiled by GNU C version 4.8.4, GMP version 6.1.0, MPFR version 3.1.4, MPC version 1.0.3, isl ve
  15              	
  16              	@ GGC heuristics: --param ggc-min-expand=96 --param ggc-min-heapsize=125422
  17              	@ options passed:  -isystem =/include/newlib-nano -I . -I .
  18              	@ -I ../../kernel/FreeRTOS/Source/include
  19              	@ -I ../../kernel/FreeRTOS/Source/portable/GCC/ARM_CM4F
  20              	@ -I ../../kernel/FreeRTOS/Demo/Common/include
  21              	@ -I ../../kernel/FreeRTOS-Plus/Source/FreeRTOS-Plus-CLI
  22              	@ -I ../../peripheral_library/inc -I ../../peripheral_library/hal/m7221/inc
  23              	@ -I ../../CMSIS -I ../../main_full -I ../../3rd/rokid/./ -I /.
  24              	@ -I /../../kernel/FreeRTOS/Source/include
  25              	@ -I /../../kernel/FreeRTOS/Source/portable/GCC/ARM_CM4F
  26              	@ -I /../../kernel/FreeRTOS/Demo/Common/include
  27              	@ -I /../../kernel/FreeRTOS-Plus/Source/FreeRTOS-Plus-CLI
  28              	@ -I /../../peripheral_library/inc
  29              	@ -I /../../peripheral_library/hal/m7221/inc -I /../../CMSIS
  30              	@ -I /../../main_full -I /../../3rd/rokid/./
  31              	@ -imultilib thumb/v7e-m+fp/softfp
  32              	@ -iprefix /home/gu/code/freeRTOS10/vendor/mstar/CM4/tools/gcc-arm-none-eabi-8-2018-q4-major/bin/..
  33              	@ -isysroot /home/gu/code/freeRTOS10/vendor/mstar/CM4/tools/gcc-arm-none-eabi-8-2018-q4-major/bin/.
  34              	@ -MD out/voc_task.d -MF out/voc_task.d -MP -MQ out/voc_task.o
  35              	@ -D__USES_INITFINI__ -D CONFIG_BENCH=0 -D CONFIG_SYS_DBG_LEVEL=0xFFFFFFFF
  36              	@ -D CONFIG_VOC_MIC=6 -D CONFIG_AUD_I2S -D CONFIG_AUD_AEC
  37              	@ -D CONFIG_VOC_MIC_MAPPING -D CONFIG_VOC_SWHPF -D CONFIG_VOC_SW_SRC48K
  38              	@ -D ARM_MATH_CM4 -D BOOTROM_VERSION_ASIC ../../main_full/voc_task.c
  39              	@ -mcpu=cortex-m4 -mthumb -mthumb-interwork -mfloat-abi=softfp
  40              	@ -mfpu=fpv4-sp-d16 -march=armv7e-m+fp -auxbase-strip out/voc_task.o -g
  41              	@ -ggdb3 -O3 -Wall -Wstrict-prototypes -Wextra -std=gnu90
  42              	@ -ffunction-sections -fdata-sections -fno-builtin-printf -fverbose-asm
  43              	@ options enabled:  -faggressive-loop-optimizations -falign-jumps
  44              	@ -falign-labels -falign-loops -fauto-inc-dec -fbranch-count-reg
  45              	@ -fcaller-saves -fchkp-check-incomplete-type -fchkp-check-read
  46              	@ -fchkp-check-write -fchkp-instrument-calls -fchkp-narrow-bounds
  47              	@ -fchkp-optimize -fchkp-store-bounds -fchkp-use-static-bounds
  48              	@ -fchkp-use-static-const-bounds -fchkp-use-wrappers -fcode-hoisting
  49              	@ -fcombine-stack-adjustments -fcommon -fcompare-elim -fcprop-registers
  50              	@ -fcrossjumping -fcse-follow-jumps -fdata-sections -fdefer-pop
  51              	@ -fdelete-null-pointer-checks -fdevirtualize -fdevirtualize-speculatively
  52              	@ -fdwarf2-cfi-asm -fearly-inlining -feliminate-unused-debug-types
  53              	@ -fexpensive-optimizations -fforward-propagate -ffp-int-builtin-inexact
  54              	@ -ffunction-cse -ffunction-sections -fgcse -fgcse-after-reload -fgcse-lm
  55              	@ -fgnu-runtime -fgnu-unique -fguess-branch-probability
  56              	@ -fhoist-adjacent-loads -fident -fif-conversion -fif-conversion2
  57              	@ -findirect-inlining -finline -finline-atomics -finline-functions
ARM GAS  /tmp/ccAD7eaF.s 			page 2


  58              	@ -finline-functions-called-once -finline-small-functions -fipa-bit-cp
  59              	@ -fipa-cp -fipa-cp-clone -fipa-icf -fipa-icf-functions -fipa-icf-variables
  60              	@ -fipa-profile -fipa-pure-const -fipa-ra -fipa-reference -fipa-sra
  61              	@ -fipa-vrp -fira-hoist-pressure -fira-share-save-slots
  62              	@ -fira-share-spill-slots -fisolate-erroneous-paths-dereference -fivopts
  63              	@ -fkeep-static-consts -fleading-underscore -flifetime-dse
  64              	@ -floop-interchange -floop-unroll-and-jam -flra-remat
  65              	@ -flto-odr-type-merging -fmath-errno -fmerge-constants
  66              	@ -fmerge-debug-strings -fmove-loop-invariants -fomit-frame-pointer
  67              	@ -foptimize-sibling-calls -foptimize-strlen -fpartial-inlining
  68              	@ -fpeel-loops -fpeephole -fpeephole2 -fplt -fpredictive-commoning
  69              	@ -fprefetch-loop-arrays -freg-struct-return -freorder-blocks
  70              	@ -freorder-functions -frerun-cse-after-loop
  71              	@ -fsched-critical-path-heuristic -fsched-dep-count-heuristic
  72              	@ -fsched-group-heuristic -fsched-interblock -fsched-last-insn-heuristic
  73              	@ -fsched-pressure -fsched-rank-heuristic -fsched-spec
  74              	@ -fsched-spec-insn-heuristic -fsched-stalled-insns-dep -fschedule-insns
  75              	@ -fschedule-insns2 -fsection-anchors -fsemantic-interposition
  76              	@ -fshow-column -fshrink-wrap -fshrink-wrap-separate -fsigned-zeros
  77              	@ -fsplit-ivs-in-unroller -fsplit-loops -fsplit-paths -fsplit-wide-types
  78              	@ -fssa-backprop -fssa-phiopt -fstdarg-opt -fstore-merging
  79              	@ -fstrict-aliasing -fstrict-volatile-bitfields -fsync-libcalls
  80              	@ -fthread-jumps -ftoplevel-reorder -ftrapping-math -ftree-bit-ccp
  81              	@ -ftree-builtin-call-dce -ftree-ccp -ftree-ch -ftree-coalesce-vars
  82              	@ -ftree-copy-prop -ftree-cselim -ftree-dce -ftree-dominator-opts
  83              	@ -ftree-dse -ftree-forwprop -ftree-fre -ftree-loop-distribute-patterns
  84              	@ -ftree-loop-distribution -ftree-loop-if-convert -ftree-loop-im
  85              	@ -ftree-loop-ivcanon -ftree-loop-optimize -ftree-loop-vectorize
  86              	@ -ftree-parallelize-loops= -ftree-partial-pre -ftree-phiprop -ftree-pre
  87              	@ -ftree-pta -ftree-reassoc -ftree-scev-cprop -ftree-sink
  88              	@ -ftree-slp-vectorize -ftree-slsr -ftree-sra -ftree-switch-conversion
  89              	@ -ftree-tail-merge -ftree-ter -ftree-vrp -funit-at-a-time -funswitch-loops
  90              	@ -fvar-tracking -fvar-tracking-assignments -fverbose-asm
  91              	@ -fzero-initialized-in-bss -masm-syntax-unified -mbe32 -mlittle-endian
  92              	@ -mpic-data-is-text-relative -msched-prolog -mthumb -munaligned-access
  93              	@ -mvectorize-with-neon-quad
  94              	
  95              		.text
  96              	.Ltext0:
  97              		.cfi_sections	.debug_frame
  98              		.section	.text.prvVdProcTask,"ax",%progbits
  99              		.align	1
 100              		.p2align 2,,3
 101              		.arch armv7e-m
 102              		.syntax unified
 103              		.thumb
 104              		.thumb_func
 105              		.fpu fpv4-sp-d16
 106              		.type	prvVdProcTask, %function
 107              	prvVdProcTask:
 108              	.LVL0:
 109              	.LFB145:
 110              		.file 1 "../../main_full/voc_task.c"
   1:../../main_full/voc_task.c **** /* Standard includes. */
   2:../../main_full/voc_task.c **** #include <string.h>
   3:../../main_full/voc_task.c **** #include <stdio.h>
   4:../../main_full/voc_task.c **** 
ARM GAS  /tmp/ccAD7eaF.s 			page 3


   5:../../main_full/voc_task.c **** /* Kernel includes. */
   6:../../main_full/voc_task.c **** #include "mosWrapper.h"
   7:../../main_full/voc_task.c **** 
   8:../../main_full/voc_task.c **** /* driver includes. */
   9:../../main_full/voc_task.c **** #include "drvAudio.h"
  10:../../main_full/voc_task.c **** #include "drvPM.h"
  11:../../main_full/voc_task.c **** 
  12:../../main_full/voc_task.c **** #include "apiVOC.h"
  13:../../main_full/voc_task.c **** 
  14:../../main_full/voc_task.c **** #include "voc_task.h"
  15:../../main_full/voc_task.c **** #include "FreeRTOS.h"
  16:../../main_full/voc_task.c **** #include "task.h"
  17:../../main_full/voc_task.c **** #define VOC_MSG(fmt, args...) MOS_DBG_PRINT(MOS_DBG_LEVEL_VOC, "[VOC] " fmt, ##args)
  18:../../main_full/voc_task.c **** #define VOC_ERROR(fmt, args...) MOS_DBG_ERROR("[VOC ERR] " fmt, ##args);
  19:../../main_full/voc_task.c **** 
  20:../../main_full/voc_task.c **** /*============================================================================*/
  21:../../main_full/voc_task.c **** /*============================================================================*/
  22:../../main_full/voc_task.c **** /* Voice Task Structure                                                       */
  23:../../main_full/voc_task.c **** /*============================================================================*/
  24:../../main_full/voc_task.c **** /*============================================================================*/
  25:../../main_full/voc_task.c **** 
  26:../../main_full/voc_task.c **** //mapping to VOC_FUNC_e
  27:../../main_full/voc_task.c **** #define ebBIT_RESET    BIT0
  28:../../main_full/voc_task.c **** #define ebBIT_VQ       BIT1
  29:../../main_full/voc_task.c **** #define ebBIT_VD       BIT2
  30:../../main_full/voc_task.c **** #define ebBIT_VP       BIT3
  31:../../main_full/voc_task.c **** #define ebBIT_VS       BIT4
  32:../../main_full/voc_task.c **** #define ebBIT_CUS0     BIT5
  33:../../main_full/voc_task.c **** #define ebBIT_TEST     BIT6
  34:../../main_full/voc_task.c **** #define ebBIT_VP_TEST  BIT7
  35:../../main_full/voc_task.c **** 
  36:../../main_full/voc_task.c **** #define ebBIT_VOC (ebBIT_RESET | ebBIT_VQ | ebBIT_VD | ebBIT_VS | ebBIT_TEST | ebBIT_VP)
  37:../../main_full/voc_task.c **** 
  38:../../main_full/voc_task.c **** #define VOC_TASK_STACK_SIZE 512
  39:../../main_full/voc_task.c **** #define VOC_TASK_PRIORITY  ( tskIDLE_PRIORITY + 2)
  40:../../main_full/voc_task.c **** static StackType_t _tVocTaskStack[ VOC_TASK_STACK_SIZE ];
  41:../../main_full/voc_task.c **** static StaticTask_t _tVocTaskBuffer ;
  42:../../main_full/voc_task.c **** 
  43:../../main_full/voc_task.c **** #define VOC_TASK_PCM_BUF_MS (16) //16msec
  44:../../main_full/voc_task.c **** #define VOC_TASK_PCM_BUF_COUNT (AUDIO_DMA_WR_SAMPLE_RATE * AUDIO_DMIC_NO * VOC_TASK_PCM_BUF_MS)/100
  45:../../main_full/voc_task.c **** 
  46:../../main_full/voc_task.c **** #if defined(CONFIG_VOC_SW_SRC)
  47:../../main_full/voc_task.c **** static S16 _ps16VocTaskPcmBuf[VOC_TASK_PCM_BUF_COUNT*2];
  48:../../main_full/voc_task.c **** #define VOC_TASK_READ_PCM_FRAME (AUDIO_DMA_WR_SAMPLE_RATE*VOC_TASK_PCM_BUF_MS*2)/1000
  49:../../main_full/voc_task.c **** #elif defined(CONFIG_VOC_SW_SRC48K)
  50:../../main_full/voc_task.c **** static S16 _ps16VocTaskPcmBuf[VOC_TASK_PCM_BUF_COUNT*3];
  51:../../main_full/voc_task.c **** #define VOC_TASK_READ_PCM_FRAME (AUDIO_DMA_WR_SAMPLE_RATE*VOC_TASK_PCM_BUF_MS*3)/1000
  52:../../main_full/voc_task.c **** #else
  53:../../main_full/voc_task.c **** static S16 _ps16VocTaskPcmBuf[VOC_TASK_PCM_BUF_COUNT];
  54:../../main_full/voc_task.c **** #define VOC_TASK_READ_PCM_FRAME (AUDIO_DMA_WR_SAMPLE_RATE*VOC_TASK_PCM_BUF_MS)/1000
  55:../../main_full/voc_task.c **** #endif
  56:../../main_full/voc_task.c **** 
  57:../../main_full/voc_task.c **** static SemaphoreHandle_t _tVocSyncSem = NULL;
  58:../../main_full/voc_task.c **** static EventGroupHandle_t _tVocProcEvent = NULL;
  59:../../main_full/voc_task.c **** static VOC_PROC_CUS_FUNC_t _pdfVocProcCusFunc = 0;
  60:../../main_full/voc_task.c **** static VOC_VQMode_e _eVocVQMode = E_VQ_MODE_NORMAL;
  61:../../main_full/voc_task.c **** 
ARM GAS  /tmp/ccAD7eaF.s 			page 4


  62:../../main_full/voc_task.c **** /*============================================================================*/
  63:../../main_full/voc_task.c **** /*============================================================================*/
  64:../../main_full/voc_task.c **** /* VD Task Structure                                                          */
  65:../../main_full/voc_task.c **** /*============================================================================*/
  66:../../main_full/voc_task.c **** /*============================================================================*/
  67:../../main_full/voc_task.c **** 
  68:../../main_full/voc_task.c **** #define ebBIT_VD_RESET    BIT0
  69:../../main_full/voc_task.c **** #define ebBIT_VD_MOVE     BIT1
  70:../../main_full/voc_task.c **** #define ebBIT_VD_SKIP     BIT2
  71:../../main_full/voc_task.c **** 
  72:../../main_full/voc_task.c **** #define ebBIT_VD_EVENT (ebBIT_VD_RESET | ebBIT_VD_MOVE | ebBIT_VD_SKIP)
  73:../../main_full/voc_task.c **** 
  74:../../main_full/voc_task.c **** #define VD_TASK_STACK_SIZE 128
  75:../../main_full/voc_task.c **** #define VD_TASK_PRIORITY  ( tskIDLE_PRIORITY + 3)
  76:../../main_full/voc_task.c **** static StackType_t _tVdTaskStack[ VD_TASK_STACK_SIZE ];
  77:../../main_full/voc_task.c **** static StaticTask_t _tVdTaskBuffer ;
  78:../../main_full/voc_task.c **** 
  79:../../main_full/voc_task.c **** #define VD_TASK_PCM_BUF_MS VOC_TASK_PCM_BUF_MS
  80:../../main_full/voc_task.c **** #define VD_TASK_PCM_BUF_COUNT (AUDIO_DMA_WR_SAMPLE_RATE * AUDIO_DMIC_NO * VD_TASK_PCM_BUF_MS)/1000
  81:../../main_full/voc_task.c **** #define VD_TASK_READ_PCM_FRAME_BYTES (AUDIO_DMA_WR_SAMPLE_RATE*VD_TASK_PCM_BUF_MS*2)/1000
  82:../../main_full/voc_task.c **** static S16 _ps16VdTaskPcmBuf[VD_TASK_PCM_BUF_COUNT];
  83:../../main_full/voc_task.c **** 
  84:../../main_full/voc_task.c **** static EventGroupHandle_t _tVdTaskEvent = NULL;
  85:../../main_full/voc_task.c **** /*============================================================================*/
  86:../../main_full/voc_task.c **** /*============================================================================*/
  87:../../main_full/voc_task.c **** /* Voice Streaming Structure                                                  */
  88:../../main_full/voc_task.c **** /*============================================================================*/
  89:../../main_full/voc_task.c **** /*============================================================================*/
  90:../../main_full/voc_task.c **** #if defined(CONFIG_VOC_DKWS) && defined(CONFIG_VOC_SEAMLESS)
  91:../../main_full/voc_task.c **** #define VOC_STREAM_BUF_MS VD_TASK_PCM_BUF_MS*102 //(default 1600+36ms)
  92:../../main_full/voc_task.c **** #elif defined(CONFIG_VOC_DKWS)
  93:../../main_full/voc_task.c **** #define VOC_STREAM_BUF_MS VD_TASK_PCM_BUF_MS*87  //(default 1392ms)
  94:../../main_full/voc_task.c **** #else
  95:../../main_full/voc_task.c **** #define VOC_STREAM_BUF_MS VD_TASK_PCM_BUF_MS*15 //(default 240ms)
  96:../../main_full/voc_task.c **** #endif
  97:../../main_full/voc_task.c **** 
  98:../../main_full/voc_task.c **** #define VOC_STREAM_BUF_COUNT (AUDIO_DMA_WR_SAMPLE_RATE * 4 * VOC_STREAM_BUF_MS)/1000
  99:../../main_full/voc_task.c **** static S16 _ps16VocStreamBuf[VOC_STREAM_BUF_COUNT+1];
 100:../../main_full/voc_task.c **** static StreamBufferHandle_t _tVocStreamBuffer = NULL;
 101:../../main_full/voc_task.c **** static StaticStreamBuffer_t _tVocStreamBufferStruct;
 102:../../main_full/voc_task.c **** 
 103:../../main_full/voc_task.c **** /*============================================================================*/
 104:../../main_full/voc_task.c **** /*============================================================================*/
 105:../../main_full/voc_task.c **** /* Debug, Val_20180410                                                        */
 106:../../main_full/voc_task.c **** /*============================================================================*/
 107:../../main_full/voc_task.c **** /*============================================================================*/
 108:../../main_full/voc_task.c **** #define ENABLE_DEBUG_BY_FORCE_WAKEUP           (0)
 109:../../main_full/voc_task.c **** #if ENABLE_DEBUG_BY_FORCE_WAKEUP
 110:../../main_full/voc_task.c **** BOOL VocDebugForceWakeup(BOOL bRet)
 111:../../main_full/voc_task.c **** {
 112:../../main_full/voc_task.c ****   static int iCount = 0;
 113:../../main_full/voc_task.c ****   if (bRet)
 114:../../main_full/voc_task.c ****     return bRet;
 115:../../main_full/voc_task.c ****   iCount++;
 116:../../main_full/voc_task.c ****   if (iCount >100)
 117:../../main_full/voc_task.c ****   {
 118:../../main_full/voc_task.c ****     iCount =0;
ARM GAS  /tmp/ccAD7eaF.s 			page 5


 119:../../main_full/voc_task.c ****     return true;
 120:../../main_full/voc_task.c ****   }
 121:../../main_full/voc_task.c ****   return false;
 122:../../main_full/voc_task.c **** }
 123:../../main_full/voc_task.c **** #endif
 124:../../main_full/voc_task.c **** /*============================================================================*/
 125:../../main_full/voc_task.c **** /*============================================================================*/
 126:../../main_full/voc_task.c **** /* Voice Processing Task                                                      */
 127:../../main_full/voc_task.c **** /*============================================================================*/
 128:../../main_full/voc_task.c **** /*============================================================================*/
 129:../../main_full/voc_task.c **** 
 130:../../main_full/voc_task.c **** //static U32 voc_ms = 0;
 131:../../main_full/voc_task.c **** static U32 err_try_again = 0;
 132:../../main_full/voc_task.c **** 
 133:../../main_full/voc_task.c **** static void prvVocProcTask(void *pvParameters)
 134:../../main_full/voc_task.c **** {
 135:../../main_full/voc_task.c ****   size_t xBytesSent;
 136:../../main_full/voc_task.c **** 
 137:../../main_full/voc_task.c ****   U32 u32ReturnCount;
 138:../../main_full/voc_task.c ****   U32 u32Result;
 139:../../main_full/voc_task.c **** 
 140:../../main_full/voc_task.c ****   static U32 wakeUpNum;
 141:../../main_full/voc_task.c ****   EventBits_t uxBits;
 142:../../main_full/voc_task.c **** 
 143:../../main_full/voc_task.c ****   BOOL bRet;
 144:../../main_full/voc_task.c **** //TickType_t xTicksToWait = portMAX_DELAY;
 145:../../main_full/voc_task.c ****   (void) pvParameters;
 146:../../main_full/voc_task.c **** 
 147:../../main_full/voc_task.c ****   VOC_MSG("VocProcTask Start\n");
 148:../../main_full/voc_task.c **** 
 149:../../main_full/voc_task.c ****   for(;;)
 150:../../main_full/voc_task.c ****   {
 151:../../main_full/voc_task.c ****     uxBits = xEventGroupWaitBits(_tVocProcEvent, ebBIT_VOC , pdFALSE, pdFALSE, portMAX_DELAY);
 152:../../main_full/voc_task.c ****     if(uxBits & ebBIT_RESET)
 153:../../main_full/voc_task.c ****     {
 154:../../main_full/voc_task.c ****       MDrv_AUD_Stop();
 155:../../main_full/voc_task.c **** 
 156:../../main_full/voc_task.c **** #if defined(CONFIG_VOC_SW_VAD)
 157:../../main_full/voc_task.c ****       if(MApi_VOC_VADIsEnable())
 158:../../main_full/voc_task.c ****         MApi_VOC_VADStopTimer();
 159:../../main_full/voc_task.c **** #endif
 160:../../main_full/voc_task.c **** 
 161:../../main_full/voc_task.c ****       xEventGroupSetBits(_tVdTaskEvent, ebBIT_VD_RESET);
 162:../../main_full/voc_task.c ****       //xEventGroupWaitBits(_tVocProcEvent, ebBIT_VOC, pdTRUE, pdFALSE, 0);
 163:../../main_full/voc_task.c ****       xEventGroupClearBits(_tVocProcEvent, ebBIT_VOC);
 164:../../main_full/voc_task.c ****       xSemaphoreGive(_tVocSyncSem);
 165:../../main_full/voc_task.c **** 
 166:../../main_full/voc_task.c ****       continue;
 167:../../main_full/voc_task.c ****     }
 168:../../main_full/voc_task.c ****     else
 169:../../main_full/voc_task.c ****     {
 170:../../main_full/voc_task.c ****       if(MDrv_AUD_IsXrun())
 171:../../main_full/voc_task.c ****       {
 172:../../main_full/voc_task.c ****         if (uxBits & ebBIT_VD)
 173:../../main_full/voc_task.c ****         {
 174:../../main_full/voc_task.c ****           MApi_VOC_NotifyStatus(E_STATUS_XRUN);
 175:../../main_full/voc_task.c ****         }
ARM GAS  /tmp/ccAD7eaF.s 			page 6


 176:../../main_full/voc_task.c ****       }
 177:../../main_full/voc_task.c **** 
 178:../../main_full/voc_task.c ****       if (MDrv_AUD_Start())
 179:../../main_full/voc_task.c ****       {
 180:../../main_full/voc_task.c ****         MApi_VOC_SwGainReset();
 181:../../main_full/voc_task.c **** 
 182:../../main_full/voc_task.c **** #if defined(CONFIG_VOC_SWHPF)
 183:../../main_full/voc_task.c ****         MApi_VOC_HpfReset();
 184:../../main_full/voc_task.c **** #endif
 185:../../main_full/voc_task.c **** 
 186:../../main_full/voc_task.c **** #if defined(CONFIG_VOC_SW_SRC)
 187:../../main_full/voc_task.c ****         MApi_VOC_SrcInit();
 188:../../main_full/voc_task.c **** #elif defined(CONFIG_VOC_SW_SRC48K)
 189:../../main_full/voc_task.c ****         MApi_VOC_SrcInit48k();
 190:../../main_full/voc_task.c **** #endif
 191:../../main_full/voc_task.c ****       }
 192:../../main_full/voc_task.c ****     }
 193:../../main_full/voc_task.c **** 
 194:../../main_full/voc_task.c ****     if(MDrv_AUD_ReadPCM(_ps16VocTaskPcmBuf, VOC_TASK_READ_PCM_FRAME*MDrv_AUD_GetMicNo(), &u32Return
 195:../../main_full/voc_task.c ****     {
 196:../../main_full/voc_task.c ****       //VOC_MSG("mic num:%d\n",MDrv_AUD_GetMicNo());
 197:../../main_full/voc_task.c ****       //voc_ms = MHal_Timer_GetTick()/TIMER_DELAY_1ms;
 198:../../main_full/voc_task.c **** #if defined(CONFIG_VOC_SW_SRC)
 199:../../main_full/voc_task.c ****       bRet = MApi_VOC_SrcProcess(_ps16VocTaskPcmBuf, &u32ReturnCount);
 200:../../main_full/voc_task.c ****       if(!bRet)
 201:../../main_full/voc_task.c ****       {
 202:../../main_full/voc_task.c ****         VOC_ERROR("MApi_VOC_SrcPort: failed\n");
 203:../../main_full/voc_task.c ****       }
 204:../../main_full/voc_task.c **** #elif defined(CONFIG_VOC_SW_SRC48K)
 205:../../main_full/voc_task.c ****       bRet = MApi_VOC_SrcProcess48k(_ps16VocTaskPcmBuf, &u32ReturnCount);
 206:../../main_full/voc_task.c ****       if(!bRet)
 207:../../main_full/voc_task.c ****       {
 208:../../main_full/voc_task.c ****         VOC_ERROR("MApi_VOC_SrcProcess48k: failed\n");
 209:../../main_full/voc_task.c ****       }
 210:../../main_full/voc_task.c **** #endif
 211:../../main_full/voc_task.c **** 
 212:../../main_full/voc_task.c **** #if defined(CONFIG_VOC_SW_VAD)
 213:../../main_full/voc_task.c ****       if(MApi_VOC_VADIsEnable())
 214:../../main_full/voc_task.c ****       {
 215:../../main_full/voc_task.c ****         bRet = MApi_VOC_VADPort(_ps16VocTaskPcmBuf, u32ReturnCount, &u32Result);
 216:../../main_full/voc_task.c ****         if (bRet)
 217:../../main_full/voc_task.c ****         {
 218:../../main_full/voc_task.c ****            if (u32Result)
 219:../../main_full/voc_task.c ****              MApi_VOC_VADResetTimer();
 220:../../main_full/voc_task.c ****            else
 221:../../main_full/voc_task.c ****            {
 222:../../main_full/voc_task.c ****              if (MApi_VOC_VADIsTimeout())
 223:../../main_full/voc_task.c ****                continue;
 224:../../main_full/voc_task.c ****            }
 225:../../main_full/voc_task.c ****         }
 226:../../main_full/voc_task.c ****         else
 227:../../main_full/voc_task.c ****           MApi_VOC_VADStopTimer();
 228:../../main_full/voc_task.c ****       }
 229:../../main_full/voc_task.c **** #endif
 230:../../main_full/voc_task.c **** 
 231:../../main_full/voc_task.c **** #if defined(CONFIG_VOC_SWHPF)
 232:../../main_full/voc_task.c ****       bRet=MApi_VOC_Hpf(_ps16VocTaskPcmBuf, u32ReturnCount*2);
ARM GAS  /tmp/ccAD7eaF.s 			page 7


 233:../../main_full/voc_task.c ****       if(!bRet)
 234:../../main_full/voc_task.c ****       {
 235:../../main_full/voc_task.c ****          // xEventGroupClearBits(_tVocProcEvent, ebBIT_CUS1);
 236:../../main_full/voc_task.c ****         VOC_ERROR("MApi_VOC_Hpf: HPF failed\n");
 237:../../main_full/voc_task.c ****       }
 238:../../main_full/voc_task.c **** #endif
 239:../../main_full/voc_task.c **** 
 240:../../main_full/voc_task.c ****       bRet=MApi_VOC_SwGain(_ps16VocTaskPcmBuf, u32ReturnCount*2);
 241:../../main_full/voc_task.c ****       if(!bRet)
 242:../../main_full/voc_task.c ****       {
 243:../../main_full/voc_task.c ****         VOC_ERROR("MApi_VOC_SwGain: failed\n");
 244:../../main_full/voc_task.c ****       }
 245:../../main_full/voc_task.c **** 
 246:../../main_full/voc_task.c **** #if defined(CONFIG_VOC_READBIN)
 247:../../main_full/voc_task.c ****       bRet=MApi_VOC_ReadPcmBin(_ps16VocTaskPcmBuf, &u32ReturnCount);
 248:../../main_full/voc_task.c ****       if(!bRet)
 249:../../main_full/voc_task.c ****       {
 250:../../main_full/voc_task.c ****         VOC_MSG("MApi_VOC_ReadPCMBIN: loop data\n");
 251:../../main_full/voc_task.c ****         continue;
 252:../../main_full/voc_task.c ****       }
 253:../../main_full/voc_task.c **** #endif
 254:../../main_full/voc_task.c **** 
 255:../../main_full/voc_task.c **** #if defined(CONFIG_VOC_CUS0)
 256:../../main_full/voc_task.c ****       if(uxBits & ebBIT_VD)
 257:../../main_full/voc_task.c ****       {
 258:../../main_full/voc_task.c ****         if(uxBits & ebBIT_CUS0)
 259:../../main_full/voc_task.c ****         {
 260:../../main_full/voc_task.c ****           bRet = MApi_VOC_CUSPort0(_ps16VocTaskPcmBuf, &u32ReturnCount);
 261:../../main_full/voc_task.c ****           if(!bRet)
 262:../../main_full/voc_task.c ****           {
 263:../../main_full/voc_task.c ****             xEventGroupClearBits(_tVocProcEvent, ebBIT_CUS0);
 264:../../main_full/voc_task.c ****             VOC_ERROR("MApi_VOC_CUSPort0: CUS0 process failed\n");
 265:../../main_full/voc_task.c ****           }
 266:../../main_full/voc_task.c ****         }
 267:../../main_full/voc_task.c ****       }
 268:../../main_full/voc_task.c **** #endif
 269:../../main_full/voc_task.c **** 
 270:../../main_full/voc_task.c **** #if defined(CONFIG_VOC_MIC_MAPPING)
 271:../../main_full/voc_task.c ****       bRet = MApi_VOC_MicMap(_ps16VocTaskPcmBuf, &u32ReturnCount);
 272:../../main_full/voc_task.c ****       if(!bRet)
 273:../../main_full/voc_task.c ****       {
 274:../../main_full/voc_task.c ****         VOC_ERROR("MApi_VOC_MicMap: failed\n");
 275:../../main_full/voc_task.c ****       }
 276:../../main_full/voc_task.c **** #endif
 277:../../main_full/voc_task.c **** 
 278:../../main_full/voc_task.c ****       if(uxBits & ebBIT_VP_TEST)
 279:../../main_full/voc_task.c ****       {
 280:../../main_full/voc_task.c ****         bRet = MApi_VOC_VPPort(_ps16VocTaskPcmBuf, &u32ReturnCount);
 281:../../main_full/voc_task.c ****         if(!bRet)
 282:../../main_full/voc_task.c ****         {
 283:../../main_full/voc_task.c ****           xEventGroupClearBits(_tVocProcEvent, ebBIT_VP_TEST);
 284:../../main_full/voc_task.c ****           VOC_ERROR("MApi_VOC_VPPort: VP process test failed\n");
 285:../../main_full/voc_task.c ****         }
 286:../../main_full/voc_task.c ****       }
 287:../../main_full/voc_task.c **** 
 288:../../main_full/voc_task.c ****       /*xBytesSent = xStreamBufferSend( _tVocStreamBuffer,
 289:../../main_full/voc_task.c ****                             (void *)_ps16VocTaskPcmBuf, u32ReturnCount*2, 0);
ARM GAS  /tmp/ccAD7eaF.s 			page 8


 290:../../main_full/voc_task.c **** 
 291:../../main_full/voc_task.c ****       if (xBytesSent != u32ReturnCount*2)
 292:../../main_full/voc_task.c ****       {
 293:../../main_full/voc_task.c ****         xEventGroupClearBits(_tVocProcEvent, ebBIT_VD);
 294:../../main_full/voc_task.c ****         VOC_ERROR("xStreamBufferSend: buffer full\n");
 295:../../main_full/voc_task.c ****       }
 296:../../main_full/voc_task.c ****       else
 297:../../main_full/voc_task.c ****       {
 298:../../main_full/voc_task.c ****         if (uxBits & ebBIT_VD)
 299:../../main_full/voc_task.c ****         {
 300:../../main_full/voc_task.c ****           xEventGroupSetBits(_tVdTaskEvent, ebBIT_VD_MOVE);
 301:../../main_full/voc_task.c ****         }
 302:../../main_full/voc_task.c ****         else if (uxBits & (ebBIT_VQ | ebBIT_VS))
 303:../../main_full/voc_task.c ****         {
 304:../../main_full/voc_task.c ****           if (xStreamBufferIsFull(_tVocStreamBuffer))
 305:../../main_full/voc_task.c ****           {
 306:../../main_full/voc_task.c ****             xEventGroupSetBits(_tVdTaskEvent, ebBIT_VD_SKIP);
 307:../../main_full/voc_task.c ****           }
 308:../../main_full/voc_task.c ****         }
 309:../../main_full/voc_task.c ****       }*/
 310:../../main_full/voc_task.c **** 
 311:../../main_full/voc_task.c ****       //VOC_MSG("xStreamBufferSend() xBytesSent = %d\n", xBytesSent);
 312:../../main_full/voc_task.c **** 
 313:../../main_full/voc_task.c ****       if(uxBits & ebBIT_VP)
 314:../../main_full/voc_task.c ****       {
 315:../../main_full/voc_task.c ****         bRet = MApi_VOC_VPPort(_ps16VocTaskPcmBuf, &u32ReturnCount);
 316:../../main_full/voc_task.c ****         if(!bRet)
 317:../../main_full/voc_task.c ****         {
 318:../../main_full/voc_task.c ****           xEventGroupClearBits(_tVocProcEvent, ebBIT_VP);
 319:../../main_full/voc_task.c ****           VOC_ERROR("MApi_VOC_VPPort: VP process failed\n");
 320:../../main_full/voc_task.c ****         }
 321:../../main_full/voc_task.c ****       }
 322:../../main_full/voc_task.c **** 
 323:../../main_full/voc_task.c **** #if defined(CONFIG_VOC_TEST)
 324:../../main_full/voc_task.c ****       if(uxBits & ebBIT_TEST)
 325:../../main_full/voc_task.c ****       {
 326:../../main_full/voc_task.c ****         if (_pdfVocProcCusFunc)
 327:../../main_full/voc_task.c ****         {
 328:../../main_full/voc_task.c ****           bRet = _pdfVocProcCusFunc(_ps16VocTaskPcmBuf, u32ReturnCount);
 329:../../main_full/voc_task.c ****           if(bRet)
 330:../../main_full/voc_task.c ****           {
 331:../../main_full/voc_task.c ****             //xEventGroupWaitBits(_tVocProcEvent, ebBIT_TEST, pdTRUE, pdFALSE, 0);
 332:../../main_full/voc_task.c ****             xEventGroupClearBits(_tVocProcEvent, ebBIT_TEST);
 333:../../main_full/voc_task.c ****           }
 334:../../main_full/voc_task.c ****         }
 335:../../main_full/voc_task.c ****       }
 336:../../main_full/voc_task.c **** #endif
 337:../../main_full/voc_task.c **** // add by gufeng
 338:../../main_full/voc_task.c ****       xBytesSent = xStreamBufferSend( _tVocStreamBuffer,
 339:../../main_full/voc_task.c ****                             (void *)_ps16VocTaskPcmBuf, u32ReturnCount*2, 0);
 340:../../main_full/voc_task.c **** 
 341:../../main_full/voc_task.c ****       if (xBytesSent != u32ReturnCount*2)
 342:../../main_full/voc_task.c ****       {
 343:../../main_full/voc_task.c ****         xEventGroupClearBits(_tVocProcEvent, ebBIT_VD);
 344:../../main_full/voc_task.c ****         //VOC_ERROR("xStreamBufferSend: buffer full\n");
 345:../../main_full/voc_task.c ****       }
 346:../../main_full/voc_task.c ****       else
ARM GAS  /tmp/ccAD7eaF.s 			page 9


 347:../../main_full/voc_task.c ****       {
 348:../../main_full/voc_task.c ****         if (uxBits & ebBIT_VD)
 349:../../main_full/voc_task.c ****         {
 350:../../main_full/voc_task.c ****           xEventGroupSetBits(_tVdTaskEvent, ebBIT_VD_MOVE);
 351:../../main_full/voc_task.c ****         }
 352:../../main_full/voc_task.c ****         else if (uxBits & (ebBIT_VQ | ebBIT_VS))
 353:../../main_full/voc_task.c ****         {
 354:../../main_full/voc_task.c ****           if (xStreamBufferIsFull(_tVocStreamBuffer))
 355:../../main_full/voc_task.c ****           {
 356:../../main_full/voc_task.c ****             xEventGroupSetBits(_tVdTaskEvent, ebBIT_VD_SKIP);
 357:../../main_full/voc_task.c ****           }
 358:../../main_full/voc_task.c ****         }
 359:../../main_full/voc_task.c ****       }
 360:../../main_full/voc_task.c **** // add by gufeng
 361:../../main_full/voc_task.c **** 
 362:../../main_full/voc_task.c ****       if(uxBits & ebBIT_VQ)
 363:../../main_full/voc_task.c ****       {
 364:../../main_full/voc_task.c ****         bRet = MApi_VOC_VQPort(_ps16VocTaskPcmBuf, u32ReturnCount);
 365:../../main_full/voc_task.c ****        
 366:../../main_full/voc_task.c ****         #if ENABLE_DEBUG_BY_FORCE_WAKEUP
 367:../../main_full/voc_task.c ****           bRet = VocDebugForceWakeup(bRet);
 368:../../main_full/voc_task.c ****         #endif
 369:../../main_full/voc_task.c ****         
 370:../../main_full/voc_task.c ****        if(bRet)
 371:../../main_full/voc_task.c ****         {
 372:../../main_full/voc_task.c ****          // static char buf[1024];
 373:../../main_full/voc_task.c ****          // vTaskGetRunTimeStats(buf);
 374:../../main_full/voc_task.c ****          // printf("Run Time Stats:\nTask Name Time Percent\n%s\n", buf);
 375:../../main_full/voc_task.c ****  
 376:../../main_full/voc_task.c ****           wakeUpNum++;
 377:../../main_full/voc_task.c ****           printf("wake up num ---%d \n",wakeUpNum);
 378:../../main_full/voc_task.c ****           VOC_MSG("MApi_VOC_VQPort: VQ process success t = %d\n", xTaskGetTickCount() * portTICK_PE
 379:../../main_full/voc_task.c ****           VocTaskVQPost();
 380:../../main_full/voc_task.c ****         }
 381:../../main_full/voc_task.c ****       }
 382:../../main_full/voc_task.c **** #if 0
 383:../../main_full/voc_task.c ****       if(uxBits & ebBIT_VD)
 384:../../main_full/voc_task.c ****       {
 385:../../main_full/voc_task.c ****         if(uxBits & ebBIT_CUS0)
 386:../../main_full/voc_task.c ****         {
 387:../../main_full/voc_task.c ****           bRet = MApi_VOC_CUSPort0(_ps16VocTaskPcmBuf, &u32ReturnCount);
 388:../../main_full/voc_task.c ****           if(!bRet)
 389:../../main_full/voc_task.c ****           {
 390:../../main_full/voc_task.c ****             xEventGroupClearBits(_tVocProcEvent, ebBIT_CUS0);
 391:../../main_full/voc_task.c ****             VOC_ERROR("MApi_VOC_CUSPort0: CUS0 process failed\n");
 392:../../main_full/voc_task.c ****           }
 393:../../main_full/voc_task.c ****         }
 394:../../main_full/voc_task.c **** 
 395:../../main_full/voc_task.c ****         bRet = MApi_VOC_VDPort(_ps16VocTaskPcmBuf, u32ReturnCount);
 396:../../main_full/voc_task.c ****         if(bRet)
 397:../../main_full/voc_task.c ****           MApi_VOC_NotifyPeriod(u32ReturnCount);
 398:../../main_full/voc_task.c ****         else
 399:../../main_full/voc_task.c ****         {
 400:../../main_full/voc_task.c ****           xEventGroupClearBits(_tVocProcEvent, ebBIT_VD);
 401:../../main_full/voc_task.c ****           VOC_ERROR("VocProcVD: VD process failed\n");
 402:../../main_full/voc_task.c ****         }
 403:../../main_full/voc_task.c ****       }
ARM GAS  /tmp/ccAD7eaF.s 			page 10


 404:../../main_full/voc_task.c **** #endif
 405:../../main_full/voc_task.c **** 
 406:../../main_full/voc_task.c ****       //VOC_MSG("%d\n", ((MHal_Timer_GetTick()/TIMER_DELAY_1ms)- voc_ms));
 407:../../main_full/voc_task.c ****     }
 408:../../main_full/voc_task.c ****     else
 409:../../main_full/voc_task.c ****     {
 410:../../main_full/voc_task.c ****       if (uxBits & (ebBIT_VQ | ebBIT_VS))
 411:../../main_full/voc_task.c ****       {
 412:../../main_full/voc_task.c **** #if defined(CONFIG_VOC_SW_VAD)
 413:../../main_full/voc_task.c ****         MApi_VOC_VADStopTimer();
 414:../../main_full/voc_task.c **** #endif
 415:../../main_full/voc_task.c ****         if (err_try_again++ >= 3)
 416:../../main_full/voc_task.c ****         {
 417:../../main_full/voc_task.c ****           //xEventGroupWaitBits(_tVocProcEvent, ebBIT_VOC, pdTRUE, pdFALSE, 0);
 418:../../main_full/voc_task.c ****           xEventGroupClearBits(_tVocProcEvent, ebBIT_VOC);
 419:../../main_full/voc_task.c ****           //VocTaskVQPost();
 420:../../main_full/voc_task.c ****           err_try_again = 0;
 421:../../main_full/voc_task.c ****         }
 422:../../main_full/voc_task.c ****       }
 423:../../main_full/voc_task.c **** 
 424:../../main_full/voc_task.c ****       if (uxBits & ebBIT_VD)
 425:../../main_full/voc_task.c ****       {
 426:../../main_full/voc_task.c ****         if(MDrv_AUD_IsXrun())
 427:../../main_full/voc_task.c ****         {
 428:../../main_full/voc_task.c ****           MApi_VOC_NotifyStatus(E_STATUS_XRUN);
 429:../../main_full/voc_task.c ****         }
 430:../../main_full/voc_task.c ****       }
 431:../../main_full/voc_task.c **** 
 432:../../main_full/voc_task.c ****       VOC_ERROR("prvVocProcTask: MDrv_AUD_ReadPCM failed\n");
 433:../../main_full/voc_task.c ****     }
 434:../../main_full/voc_task.c **** 
 435:../../main_full/voc_task.c ****   } //for
 436:../../main_full/voc_task.c **** }
 437:../../main_full/voc_task.c **** 
 438:../../main_full/voc_task.c **** void VocTaskVQConfig(VOC_VQMode_e eMode)
 439:../../main_full/voc_task.c **** {
 440:../../main_full/voc_task.c ****   //if (!VocTaskIsEnableFunc(E_FUNC_VQ))
 441:../../main_full/voc_task.c ****   {
 442:../../main_full/voc_task.c ****     if (eMode < E_VQ_MODE_MAX)
 443:../../main_full/voc_task.c ****       _eVocVQMode = eMode;
 444:../../main_full/voc_task.c ****     VOC_MSG("MApi_VOC_VQConfig: Mode = %d\n", (U32)eMode);
 445:../../main_full/voc_task.c ****   }
 446:../../main_full/voc_task.c **** }
 447:../../main_full/voc_task.c **** 
 448:../../main_full/voc_task.c **** void VocTaskVQPost(void)
 449:../../main_full/voc_task.c **** {
 450:../../main_full/voc_task.c ****   if (_eVocVQMode == E_VQ_MODE_PM)
 451:../../main_full/voc_task.c ****   {
 452:../../main_full/voc_task.c ****     VocTaskEnableFunc(FALSE, E_FUNC_VQ);
 453:../../main_full/voc_task.c **** #if defined(CONFIG_VOC_SEAMLESS)
 454:../../main_full/voc_task.c ****     VocTaskEnableFunc(TRUE, E_FUNC_VS); //turn on seamless
 455:../../main_full/voc_task.c **** #endif
 456:../../main_full/voc_task.c ****     MDrv_PM_Resume();
 457:../../main_full/voc_task.c ****   }
 458:../../main_full/voc_task.c ****   else if (_eVocVQMode == E_VQ_MODE_LOOP)
 459:../../main_full/voc_task.c ****   {
 460:../../main_full/voc_task.c ****     //VocTaskEnableFunc(TRUE, E_FUNC_VQ);
ARM GAS  /tmp/ccAD7eaF.s 			page 11


 461:../../main_full/voc_task.c ****     VOC_MSG("MApi_VOC_VQPost: Loop again\n");
 462:../../main_full/voc_task.c ****   }
 463:../../main_full/voc_task.c **** #if defined(CONFIG_VOC_SW_VAD)
 464:../../main_full/voc_task.c ****   else if (_eVocVQMode == E_VQ_MODE_VAD)
 465:../../main_full/voc_task.c ****   {
 466:../../main_full/voc_task.c ****     VocTaskEnableFunc(FALSE, E_FUNC_VQ);
 467:../../main_full/voc_task.c ****     MDrv_PM_Resume();
 468:../../main_full/voc_task.c ****   }
 469:../../main_full/voc_task.c ****   else if (_eVocVQMode == E_VQ_MODE_TEST)
 470:../../main_full/voc_task.c ****   {
 471:../../main_full/voc_task.c ****     MApi_VOC_VADResetTimer();
 472:../../main_full/voc_task.c ****     VOC_MSG("MApi_VOC_VQPost: Loop again (VAD)\n");
 473:../../main_full/voc_task.c ****   }
 474:../../main_full/voc_task.c **** #endif
 475:../../main_full/voc_task.c ****   else if (_eVocVQMode == E_VQ_MODE_DWW)
 476:../../main_full/voc_task.c ****   {
 477:../../main_full/voc_task.c ****     //VocTaskEnableFunc(TRUE, E_FUNC_VD);
 478:../../main_full/voc_task.c ****     VOC_MSG("MApi_VOC_VQPost: DWW\n");
 479:../../main_full/voc_task.c ****   }
 480:../../main_full/voc_task.c ****   else if (_eVocVQMode == E_VQ_MODE_TEST)
 481:../../main_full/voc_task.c ****   {
 482:../../main_full/voc_task.c ****     VocTaskEnableFunc(TRUE, E_FUNC_VD);
 483:../../main_full/voc_task.c ****     VOC_MSG("MApi_VOC_VQPost: TEST\n");
 484:../../main_full/voc_task.c ****   }
 485:../../main_full/voc_task.c **** }
 486:../../main_full/voc_task.c **** 
 487:../../main_full/voc_task.c **** void VocTaskRegisterCusFunc(VOC_PROC_CUS_FUNC_t pdfFunc)
 488:../../main_full/voc_task.c **** {
 489:../../main_full/voc_task.c ****   if (!(xEventGroupGetBits(_tVocProcEvent) & ebBIT_TEST))
 490:../../main_full/voc_task.c ****   {
 491:../../main_full/voc_task.c ****     _pdfVocProcCusFunc = pdfFunc;
 492:../../main_full/voc_task.c ****     VOC_MSG("VocTaskRegisterCusFunc: 0x%x\n", (U32)_pdfVocProcCusFunc);
 493:../../main_full/voc_task.c ****   }
 494:../../main_full/voc_task.c ****   else
 495:../../main_full/voc_task.c ****     VOC_ERROR("VocTaskRegisterCusFunc failed: State not match\n");
 496:../../main_full/voc_task.c **** }
 497:../../main_full/voc_task.c **** 
 498:../../main_full/voc_task.c **** void VocTaskReset(void)
 499:../../main_full/voc_task.c **** {
 500:../../main_full/voc_task.c ****   xEventGroupSetBits(_tVocProcEvent, ebBIT_RESET);
 501:../../main_full/voc_task.c ****   xSemaphoreTake(_tVocSyncSem, portMAX_DELAY);
 502:../../main_full/voc_task.c **** }
 503:../../main_full/voc_task.c **** 
 504:../../main_full/voc_task.c **** void VocTaskEnableFunc(BOOL bEnable, VOC_FUNC_e eFunc)
 505:../../main_full/voc_task.c **** {
 506:../../main_full/voc_task.c ****   if(eFunc != E_FUNC_NONE && eFunc < E_FUNC_NUM)
 507:../../main_full/voc_task.c ****   {
 508:../../main_full/voc_task.c ****     if (bEnable)
 509:../../main_full/voc_task.c ****     {
 510:../../main_full/voc_task.c ****       if(eFunc == E_FUNC_VQ)
 511:../../main_full/voc_task.c ****       {
 512:../../main_full/voc_task.c ****         if (_eVocVQMode == E_VQ_MODE_PM)
 513:../../main_full/voc_task.c ****           MDrv_PM_Suspend();
 514:../../main_full/voc_task.c **** #if defined(CONFIG_VOC_SW_VAD)
 515:../../main_full/voc_task.c ****         else if (_eVocVQMode == E_VQ_MODE_VAD)
 516:../../main_full/voc_task.c ****         {
 517:../../main_full/voc_task.c ****           MDrv_PM_Suspend();
ARM GAS  /tmp/ccAD7eaF.s 			page 12


 518:../../main_full/voc_task.c ****           MApi_VOC_VADStartTimer();
 519:../../main_full/voc_task.c ****         }
 520:../../main_full/voc_task.c ****         else if (_eVocVQMode == E_VQ_MODE_TEST)
 521:../../main_full/voc_task.c ****         {
 522:../../main_full/voc_task.c ****           MApi_VOC_VADStartTimer();
 523:../../main_full/voc_task.c ****         }
 524:../../main_full/voc_task.c **** #endif
 525:../../main_full/voc_task.c ****         //xEventGroupSetBits(_tVdTaskEvent, ebBIT_VD_SKIP);
 526:../../main_full/voc_task.c ****         //xStreamBufferSetTriggerLevel(_tVocStreamBuffer, sizeof(_ps16VocStreamBuf));
 527:../../main_full/voc_task.c ****       }
 528:../../main_full/voc_task.c ****       else if (eFunc == E_FUNC_VD)
 529:../../main_full/voc_task.c ****       {
 530:../../main_full/voc_task.c ****         if (xEventGroupGetBits(_tVocProcEvent) & ebBIT_VS)
 531:../../main_full/voc_task.c ****           xEventGroupClearBits(_tVocProcEvent, ebBIT_VS); //turn off seamless
 532:../../main_full/voc_task.c **** 
 533:../../main_full/voc_task.c ****         //xEventGroupSetBits(_tVdTaskEvent, ebBIT_VD_MOVE);
 534:../../main_full/voc_task.c ****       }
 535:../../main_full/voc_task.c **** 
 536:../../main_full/voc_task.c ****       xEventGroupSetBits(_tVocProcEvent, (1 << eFunc));
 537:../../main_full/voc_task.c ****     }
 538:../../main_full/voc_task.c ****     else
 539:../../main_full/voc_task.c ****     {
 540:../../main_full/voc_task.c ****       if(eFunc == E_FUNC_VD)
 541:../../main_full/voc_task.c ****       {
 542:../../main_full/voc_task.c ****         xEventGroupClearBits(_tVdTaskEvent, ebBIT_VD_MOVE);
 543:../../main_full/voc_task.c ****         MApi_VOC_VDReset();
 544:../../main_full/voc_task.c ****       }
 545:../../main_full/voc_task.c ****       else if(eFunc == E_FUNC_VQ)
 546:../../main_full/voc_task.c ****       {
 547:../../main_full/voc_task.c **** #if defined(CONFIG_VOC_SW_VAD)
 548:../../main_full/voc_task.c ****         if(_eVocVQMode == E_VQ_MODE_VAD)
 549:../../main_full/voc_task.c ****           MApi_VOC_VADStopTimer();
 550:../../main_full/voc_task.c ****         else if (_eVocVQMode == E_VQ_MODE_TEST)
 551:../../main_full/voc_task.c ****           MApi_VOC_VADStopTimer();
 552:../../main_full/voc_task.c **** #endif
 553:../../main_full/voc_task.c ****         //xStreamBufferSetTriggerLevel(_tVocStreamBuffer, 0);
 554:../../main_full/voc_task.c ****       }
 555:../../main_full/voc_task.c **** 
 556:../../main_full/voc_task.c ****       xEventGroupClearBits(_tVocProcEvent, (1 << eFunc));
 557:../../main_full/voc_task.c ****     }
 558:../../main_full/voc_task.c ****   }
 559:../../main_full/voc_task.c ****   else
 560:../../main_full/voc_task.c ****     VOC_ERROR("VocTaskEnableFunc failed: parameter error\n");
 561:../../main_full/voc_task.c **** }
 562:../../main_full/voc_task.c **** 
 563:../../main_full/voc_task.c **** BOOL VocTaskIsEnableFunc(VOC_FUNC_e eFunc)
 564:../../main_full/voc_task.c **** {
 565:../../main_full/voc_task.c ****   if (eFunc != E_FUNC_NONE && eFunc < E_FUNC_NUM)
 566:../../main_full/voc_task.c ****   {
 567:../../main_full/voc_task.c ****     return xEventGroupGetBits(_tVocProcEvent) & (1 << eFunc);
 568:../../main_full/voc_task.c ****   }
 569:../../main_full/voc_task.c ****   else
 570:../../main_full/voc_task.c ****   {
 571:../../main_full/voc_task.c ****     VOC_ERROR("VocTaskIsEnableFunc failed: parameter error\n");
 572:../../main_full/voc_task.c ****     return FALSE;
 573:../../main_full/voc_task.c ****   }
 574:../../main_full/voc_task.c **** }
ARM GAS  /tmp/ccAD7eaF.s 			page 13


 575:../../main_full/voc_task.c **** 
 576:../../main_full/voc_task.c **** static void prvVdProcTask(void *pvParameters)
 577:../../main_full/voc_task.c **** {
 111              		.loc 1 577 1 view -0
 112              		.cfi_startproc
 113              		@ args = 0, pretend = 0, frame = 0
 114              		@ frame_needed = 0, uses_anonymous_args = 0
 578:../../main_full/voc_task.c ****   BOOL bRet;
 115              		.loc 1 578 3 view .LVU1
 579:../../main_full/voc_task.c ****   size_t xReceivedBytes;
 116              		.loc 1 579 3 view .LVU2
 580:../../main_full/voc_task.c ****   TickType_t xTicksToWait = portMAX_DELAY;
 117              		.loc 1 580 3 view .LVU3
 581:../../main_full/voc_task.c ****   EventBits_t uxBits;
 118              		.loc 1 581 3 view .LVU4
 582:../../main_full/voc_task.c **** 
 583:../../main_full/voc_task.c ****   (void) pvParameters;
 119              		.loc 1 583 3 view .LVU5
 584:../../main_full/voc_task.c **** 
 585:../../main_full/voc_task.c ****   VOC_MSG("VdProcTask Start\n");
 120              		.loc 1 585 3 view .LVU6
 121              	@ ../../main_full/voc_task.c:577: {
 577:../../main_full/voc_task.c ****   BOOL bRet;
 122              		.loc 1 577 1 is_stmt 0 view .LVU7
 123 0000 2DE9F04F 		push	{r4, r5, r6, r7, r8, r9, r10, fp, lr}	@
 124              		.cfi_def_cfa_offset 36
 125              		.cfi_offset 4, -36
 126              		.cfi_offset 5, -32
 127              		.cfi_offset 6, -28
 128              		.cfi_offset 7, -24
 129              		.cfi_offset 8, -20
 130              		.cfi_offset 9, -16
 131              		.cfi_offset 10, -12
 132              		.cfi_offset 11, -8
 133              		.cfi_offset 14, -4
 134              	@ ../../main_full/voc_task.c:585:   VOC_MSG("VdProcTask Start\n");
 135              		.loc 1 585 3 view .LVU8
 136 0004 DFF8E880 		ldr	r8, .L30+20	@ tmp184,
 137 0008 D8F80030 		ldr	r3, [r8]	@ gu32MosDbgLevel, gu32MosDbgLevel
 138 000c 9907     		lsls	r1, r3, #30	@, gu32MosDbgLevel,
 139              	@ ../../main_full/voc_task.c:577: {
 577:../../main_full/voc_task.c ****   BOOL bRet;
 140              		.loc 1 577 1 view .LVU9
 141 000e 83B0     		sub	sp, sp, #12	@,,
 142              		.cfi_def_cfa_offset 48
 143              	@ ../../main_full/voc_task.c:585:   VOC_MSG("VdProcTask Start\n");
 144              		.loc 1 585 3 view .LVU10
 145 0010 60D4     		bmi	.L27		@,
 146              	.LVL1:
 147              	.L2:
 148              		.loc 1 585 3 view .LVU11
 149 0012 324E     		ldr	r6, .L30	@ tmp181,
 150 0014 324F     		ldr	r7, .L30+4	@ tmp182,
 151 0016 3068     		ldr	r0, [r6]	@ prephitmp_55, _tVdTaskEvent
 152              	@ ../../main_full/voc_task.c:599:     xReceivedBytes = xStreamBufferReceive(_tVocStreamBuffer,
 586:../../main_full/voc_task.c **** 
 587:../../main_full/voc_task.c ****   for(;;)
ARM GAS  /tmp/ccAD7eaF.s 			page 14


 588:../../main_full/voc_task.c ****   {
 589:../../main_full/voc_task.c **** 
 590:../../main_full/voc_task.c ****     uxBits = xEventGroupWaitBits(_tVdTaskEvent, ebBIT_VD_EVENT , pdFALSE, pdFALSE, portMAX_DELAY);
 591:../../main_full/voc_task.c ****     if(uxBits & ebBIT_VD_RESET)
 592:../../main_full/voc_task.c ****     {
 593:../../main_full/voc_task.c ****       xStreamBufferReset(_tVocStreamBuffer);
 594:../../main_full/voc_task.c ****       xEventGroupClearBits(_tVdTaskEvent, ebBIT_VD_EVENT);
 595:../../main_full/voc_task.c ****       VOC_MSG("VdTask: Reset\n");
 596:../../main_full/voc_task.c ****       continue;
 597:../../main_full/voc_task.c ****     }
 598:../../main_full/voc_task.c **** 
 599:../../main_full/voc_task.c ****     xReceivedBytes = xStreamBufferReceive(_tVocStreamBuffer,
 153              		.loc 1 599 22 discriminator 3 view .LVU12
 154 0018 DFF8D8A0 		ldr	r10, .L30+24	@ tmp185,
 155              	@ ../../main_full/voc_task.c:636:       VOC_ERROR("VdTask: xStreamBufferReceive failed\n");
 600:../../main_full/voc_task.c ****                                   (void *)_ps16VdTaskPcmBuf,
 601:../../main_full/voc_task.c ****                                    VD_TASK_READ_PCM_FRAME_BYTES*MDrv_AUD_GetMicNo(), xTicksToWait);
 602:../../main_full/voc_task.c ****     if(xReceivedBytes > 0)
 603:../../main_full/voc_task.c ****     {
 604:../../main_full/voc_task.c ****       //VOC_MSG("VdTask: xStreamBufferReceive() xReceivedBytes= %d\n", xReceivedBytes);
 605:../../main_full/voc_task.c ****       if(uxBits & ebBIT_VD_MOVE)
 606:../../main_full/voc_task.c ****       {
 607:../../main_full/voc_task.c ****         bRet = MApi_VOC_VDPort(_ps16VdTaskPcmBuf, xReceivedBytes/2);
 608:../../main_full/voc_task.c ****         if(bRet)
 609:../../main_full/voc_task.c ****         {
 610:../../main_full/voc_task.c ****           if (xStreamBufferIsEmpty(_tVocStreamBuffer))
 611:../../main_full/voc_task.c ****           {
 612:../../main_full/voc_task.c ****             MApi_VOC_VDNotify(xReceivedBytes/2);
 613:../../main_full/voc_task.c ****             xEventGroupClearBits(_tVdTaskEvent, ebBIT_VD_MOVE);
 614:../../main_full/voc_task.c ****           }
 615:../../main_full/voc_task.c ****         }
 616:../../main_full/voc_task.c ****         else
 617:../../main_full/voc_task.c ****         {
 618:../../main_full/voc_task.c ****           xEventGroupClearBits(_tVdTaskEvent, ebBIT_VD_MOVE);
 619:../../main_full/voc_task.c ****           VOC_ERROR("VdTask: MApi_VOC_VDPort failed\n");
 620:../../main_full/voc_task.c ****         }
 621:../../main_full/voc_task.c ****       }
 622:../../main_full/voc_task.c **** 
 623:../../main_full/voc_task.c ****       if (uxBits & ebBIT_VD_SKIP)
 624:../../main_full/voc_task.c ****       {
 625:../../main_full/voc_task.c ****         xEventGroupClearBits(_tVdTaskEvent, ebBIT_VD_SKIP);
 626:../../main_full/voc_task.c ****       }
 627:../../main_full/voc_task.c **** 
 628:../../main_full/voc_task.c ****       //if (xReceivedBytes != sizeof(_ps16VdTaskPcmBuf))
 629:../../main_full/voc_task.c ****       //  VOC_ERROR("VdTask: xStreamBufferReceive warning (receive bytes not match buffer size)\r\n
 630:../../main_full/voc_task.c **** 
 631:../../main_full/voc_task.c ****       //VOC_MSG("VdTask: buffer space availabe = %d\n", xStreamBufferSpacesAvailable(_tVocStreamBuf
 632:../../main_full/voc_task.c ****     }
 633:../../main_full/voc_task.c ****     else
 634:../../main_full/voc_task.c ****     {
 635:../../main_full/voc_task.c **** 
 636:../../main_full/voc_task.c ****       VOC_ERROR("VdTask: xStreamBufferReceive failed\n");
 156              		.loc 1 636 7 discriminator 3 view .LVU13
 157 001c DFF8D8B0 		ldr	fp, .L30+28	@ tmp186,
 158              	.L3:
 585:../../main_full/voc_task.c **** 
 159              		.loc 1 585 32 is_stmt 1 discriminator 3 view .LVU14
ARM GAS  /tmp/ccAD7eaF.s 			page 15


 587:../../main_full/voc_task.c ****   {
 160              		.loc 1 587 3 discriminator 3 view .LVU15
 590:../../main_full/voc_task.c ****     if(uxBits & ebBIT_VD_RESET)
 161              		.loc 1 590 5 discriminator 3 view .LVU16
 162              	@ ../../main_full/voc_task.c:590:     uxBits = xEventGroupWaitBits(_tVdTaskEvent, ebBIT_VD_EVENT , 
 590:../../main_full/voc_task.c ****     if(uxBits & ebBIT_VD_RESET)
 163              		.loc 1 590 14 is_stmt 0 discriminator 3 view .LVU17
 164 0020 0023     		movs	r3, #0	@,
 165 0022 4FF0FF35 		mov	r5, #-1	@ tmp144,
 166 0026 1A46     		mov	r2, r3	@,
 167 0028 0095     		str	r5, [sp]	@ tmp144,
 168 002a 0721     		movs	r1, #7	@,
 169 002c FFF7FEFF 		bl	xEventGroupWaitBits		@
 170              	.LVL2:
 171              	@ ../../main_full/voc_task.c:591:     if(uxBits & ebBIT_VD_RESET)
 591:../../main_full/voc_task.c ****     {
 172              		.loc 1 591 7 discriminator 3 view .LVU18
 173 0030 C207     		lsls	r2, r0, #31	@, uxBits,
 174              	@ ../../main_full/voc_task.c:590:     uxBits = xEventGroupWaitBits(_tVdTaskEvent, ebBIT_VD_EVENT , 
 590:../../main_full/voc_task.c ****     if(uxBits & ebBIT_VD_RESET)
 175              		.loc 1 590 14 discriminator 3 view .LVU19
 176 0032 0446     		mov	r4, r0	@ uxBits,
 177              	.LVL3:
 591:../../main_full/voc_task.c ****     {
 178              		.loc 1 591 5 is_stmt 1 discriminator 3 view .LVU20
 179              	@ ../../main_full/voc_task.c:591:     if(uxBits & ebBIT_VD_RESET)
 591:../../main_full/voc_task.c ****     {
 180              		.loc 1 591 7 is_stmt 0 discriminator 3 view .LVU21
 181 0034 0CD5     		bpl	.L4		@,
 593:../../main_full/voc_task.c ****       xEventGroupClearBits(_tVdTaskEvent, ebBIT_VD_EVENT);
 182              		.loc 1 593 7 is_stmt 1 view .LVU22
 183 0036 3868     		ldr	r0, [r7]	@, _tVocStreamBuffer
 184              	.LVL4:
 593:../../main_full/voc_task.c ****       xEventGroupClearBits(_tVdTaskEvent, ebBIT_VD_EVENT);
 185              		.loc 1 593 7 is_stmt 0 view .LVU23
 186 0038 FFF7FEFF 		bl	xStreamBufferReset		@
 187              	.LVL5:
 594:../../main_full/voc_task.c ****       VOC_MSG("VdTask: Reset\n");
 188              		.loc 1 594 7 is_stmt 1 view .LVU24
 189 003c 0721     		movs	r1, #7	@,
 190 003e 3068     		ldr	r0, [r6]	@, _tVdTaskEvent
 191 0040 FFF7FEFF 		bl	xEventGroupClearBits		@
 192              	.LVL6:
 595:../../main_full/voc_task.c ****       continue;
 193              		.loc 1 595 7 view .LVU25
 194 0044 D8F80030 		ldr	r3, [r8]	@ gu32MosDbgLevel, gu32MosDbgLevel
 195 0048 9B07     		lsls	r3, r3, #30	@, gu32MosDbgLevel,
 196 004a 16D4     		bmi	.L28		@,
 197              	.L5:
 198 004c 3068     		ldr	r0, [r6]	@ prephitmp_55, _tVdTaskEvent
 199 004e E7E7     		b	.L3		@
 200              	.LVL7:
 201              	.L4:
 599:../../main_full/voc_task.c ****                                   (void *)_ps16VdTaskPcmBuf,
 202              		.loc 1 599 5 view .LVU26
 203              	@ ../../main_full/voc_task.c:599:     xReceivedBytes = xStreamBufferReceive(_tVocStreamBuffer,
 599:../../main_full/voc_task.c ****                                   (void *)_ps16VdTaskPcmBuf,
ARM GAS  /tmp/ccAD7eaF.s 			page 16


 204              		.loc 1 599 22 is_stmt 0 view .LVU27
 205 0050 D7F80090 		ldr	r9, [r7]	@ _tVocStreamBuffer.33_9, _tVocStreamBuffer
 206              	@ ../../main_full/voc_task.c:601:                                    VD_TASK_READ_PCM_FRAME_BYTES*M
 601:../../main_full/voc_task.c ****     if(xReceivedBytes > 0)
 207              		.loc 1 601 65 view .LVU28
 208 0054 FFF7FEFF 		bl	MDrv_AUD_GetMicNo		@
 209              	.LVL8:
 210              	@ ../../main_full/voc_task.c:599:     xReceivedBytes = xStreamBufferReceive(_tVocStreamBuffer,
 599:../../main_full/voc_task.c ****                                   (void *)_ps16VdTaskPcmBuf,
 211              		.loc 1 599 22 view .LVU29
 212 0058 2B46     		mov	r3, r5	@, tmp144
 213 005a 4202     		lsls	r2, r0, #9	@,,
 214 005c 5146     		mov	r1, r10	@, tmp185
 215 005e 4846     		mov	r0, r9	@, _tVocStreamBuffer.33_9
 216 0060 FFF7FEFF 		bl	xStreamBufferReceive		@
 217              	.LVL9:
 602:../../main_full/voc_task.c ****     {
 218              		.loc 1 602 5 is_stmt 1 view .LVU30
 219              	@ ../../main_full/voc_task.c:602:     if(xReceivedBytes > 0)
 602:../../main_full/voc_task.c ****     {
 220              		.loc 1 602 7 is_stmt 0 view .LVU31
 221 0064 70B1     		cbz	r0, .L7	@ xReceivedBytes,
 605:../../main_full/voc_task.c ****       {
 222              		.loc 1 605 7 is_stmt 1 view .LVU32
 223              	@ ../../main_full/voc_task.c:605:       if(uxBits & ebBIT_VD_MOVE)
 605:../../main_full/voc_task.c ****       {
 224              		.loc 1 605 9 is_stmt 0 view .LVU33
 225 0066 A507     		lsls	r5, r4, #30	@, uxBits,
 226 0068 15D4     		bmi	.L29		@,
 227              	.LVL10:
 228              	.L9:
 619:../../main_full/voc_task.c ****         }
 229              		.loc 1 619 11 is_stmt 1 discriminator 3 view .LVU34
 619:../../main_full/voc_task.c ****         }
 230              		.loc 1 619 56 discriminator 3 view .LVU35
 623:../../main_full/voc_task.c ****       {
 231              		.loc 1 623 7 discriminator 3 view .LVU36
 232              	@ ../../main_full/voc_task.c:623:       if (uxBits & ebBIT_VD_SKIP)
 623:../../main_full/voc_task.c ****       {
 233              		.loc 1 623 10 is_stmt 0 discriminator 3 view .LVU37
 234 006a 6207     		lsls	r2, r4, #29	@, uxBits,
 235 006c 3068     		ldr	r0, [r6]	@ prephitmp_55, _tVdTaskEvent
 236 006e D7D5     		bpl	.L3		@,
 625:../../main_full/voc_task.c ****       }
 237              		.loc 1 625 9 is_stmt 1 view .LVU38
 238 0070 0421     		movs	r1, #4	@,
 239 0072 FFF7FEFF 		bl	xEventGroupClearBits		@
 240              	.LVL11:
 241 0076 3068     		ldr	r0, [r6]	@ prephitmp_55, _tVdTaskEvent
 242 0078 D2E7     		b	.L3		@
 243              	.L28:
 595:../../main_full/voc_task.c ****       continue;
 244              		.loc 1 595 7 discriminator 1 view .LVU39
 245 007a 1A48     		ldr	r0, .L30+8	@,
 246 007c FFF7FEFF 		bl	UartSendTrace		@
 247              	.LVL12:
 248 0080 3068     		ldr	r0, [r6]	@ prephitmp_55, _tVdTaskEvent
ARM GAS  /tmp/ccAD7eaF.s 			page 17


 249 0082 CDE7     		b	.L3		@
 250              	.LVL13:
 251              	.L7:
 252              		.loc 1 636 7 discriminator 2 view .LVU40
 253 0084 D8F80030 		ldr	r3, [r8]	@ gu32MosDbgLevel, gu32MosDbgLevel
 254 0088 DB07     		lsls	r3, r3, #31	@, gu32MosDbgLevel,
 255 008a DFD5     		bpl	.L5		@,
 256              		.loc 1 636 7 discriminator 1 view .LVU41
 257 008c 5846     		mov	r0, fp	@, tmp186
 258              	.LVL14:
 259              		.loc 1 636 7 is_stmt 0 discriminator 1 view .LVU42
 260 008e FFF7FEFF 		bl	UartSendTrace		@
 261              	.LVL15:
 262 0092 3068     		ldr	r0, [r6]	@ prephitmp_55, _tVdTaskEvent
 263 0094 C4E7     		b	.L3		@
 264              	.LVL16:
 265              	.L29:
 607:../../main_full/voc_task.c ****         if(bRet)
 266              		.loc 1 607 9 is_stmt 1 view .LVU43
 267              	@ ../../main_full/voc_task.c:607:         bRet = MApi_VOC_VDPort(_ps16VdTaskPcmBuf, xReceivedBytes/
 607:../../main_full/voc_task.c ****         if(bRet)
 268              		.loc 1 607 65 is_stmt 0 view .LVU44
 269 0096 4508     		lsrs	r5, r0, #1	@ _15, xReceivedBytes,
 270              	@ ../../main_full/voc_task.c:607:         bRet = MApi_VOC_VDPort(_ps16VdTaskPcmBuf, xReceivedBytes/
 607:../../main_full/voc_task.c ****         if(bRet)
 271              		.loc 1 607 16 view .LVU45
 272 0098 2946     		mov	r1, r5	@, _15
 273 009a 5046     		mov	r0, r10	@, tmp185
 274              	.LVL17:
 607:../../main_full/voc_task.c ****         if(bRet)
 275              		.loc 1 607 16 view .LVU46
 276 009c FFF7FEFF 		bl	MApi_VOC_VDPort		@
 277              	.LVL18:
 608:../../main_full/voc_task.c ****         {
 278              		.loc 1 608 9 is_stmt 1 view .LVU47
 279              	@ ../../main_full/voc_task.c:608:         if(bRet)
 608:../../main_full/voc_task.c ****         {
 280              		.loc 1 608 11 is_stmt 0 view .LVU48
 281 00a0 60B1     		cbz	r0, .L10	@,
 610:../../main_full/voc_task.c ****           {
 282              		.loc 1 610 11 is_stmt 1 view .LVU49
 283              	@ ../../main_full/voc_task.c:610:           if (xStreamBufferIsEmpty(_tVocStreamBuffer))
 610:../../main_full/voc_task.c ****           {
 284              		.loc 1 610 15 is_stmt 0 view .LVU50
 285 00a2 3868     		ldr	r0, [r7]	@, _tVocStreamBuffer
 286              	.LVL19:
 610:../../main_full/voc_task.c ****           {
 287              		.loc 1 610 15 view .LVU51
 288 00a4 FFF7FEFF 		bl	xStreamBufferIsEmpty		@
 289              	.LVL20:
 290              	@ ../../main_full/voc_task.c:610:           if (xStreamBufferIsEmpty(_tVocStreamBuffer))
 610:../../main_full/voc_task.c ****           {
 291              		.loc 1 610 14 view .LVU52
 292 00a8 0028     		cmp	r0, #0	@
 293 00aa DED0     		beq	.L9	@
 612:../../main_full/voc_task.c ****             xEventGroupClearBits(_tVdTaskEvent, ebBIT_VD_MOVE);
 294              		.loc 1 612 13 is_stmt 1 view .LVU53
ARM GAS  /tmp/ccAD7eaF.s 			page 18


 295 00ac 2846     		mov	r0, r5	@, _15
 296 00ae FFF7FEFF 		bl	MApi_VOC_VDNotify		@
 297              	.LVL21:
 613:../../main_full/voc_task.c ****           }
 298              		.loc 1 613 13 view .LVU54
 299 00b2 0221     		movs	r1, #2	@,
 300 00b4 3068     		ldr	r0, [r6]	@, _tVdTaskEvent
 301 00b6 FFF7FEFF 		bl	xEventGroupClearBits		@
 302              	.LVL22:
 303 00ba D6E7     		b	.L9		@
 304              	.LVL23:
 305              	.L10:
 618:../../main_full/voc_task.c ****           VOC_ERROR("VdTask: MApi_VOC_VDPort failed\n");
 306              		.loc 1 618 11 view .LVU55
 307 00bc 0221     		movs	r1, #2	@,
 308 00be 3068     		ldr	r0, [r6]	@, _tVdTaskEvent
 309              	.LVL24:
 618:../../main_full/voc_task.c ****           VOC_ERROR("VdTask: MApi_VOC_VDPort failed\n");
 310              		.loc 1 618 11 is_stmt 0 view .LVU56
 311 00c0 FFF7FEFF 		bl	xEventGroupClearBits		@
 312              	.LVL25:
 619:../../main_full/voc_task.c ****         }
 313              		.loc 1 619 11 is_stmt 1 view .LVU57
 314 00c4 D8F80030 		ldr	r3, [r8]	@ gu32MosDbgLevel, gu32MosDbgLevel
 315 00c8 D907     		lsls	r1, r3, #31	@, gu32MosDbgLevel,
 316 00ca CED5     		bpl	.L9		@,
 619:../../main_full/voc_task.c ****         }
 317              		.loc 1 619 11 discriminator 1 view .LVU58
 318 00cc 0648     		ldr	r0, .L30+12	@,
 319 00ce FFF7FEFF 		bl	UartSendTrace		@
 320              	.LVL26:
 321 00d2 CAE7     		b	.L9		@
 322              	.LVL27:
 323              	.L27:
 585:../../main_full/voc_task.c **** 
 324              		.loc 1 585 3 discriminator 1 view .LVU59
 325 00d4 0548     		ldr	r0, .L30+16	@,
 326              	.LVL28:
 585:../../main_full/voc_task.c **** 
 327              		.loc 1 585 3 is_stmt 0 discriminator 1 view .LVU60
 328 00d6 FFF7FEFF 		bl	UartSendTrace		@
 329              	.LVL29:
 330 00da 9AE7     		b	.L2		@
 331              	.L31:
 332              		.align	2
 333              	.L30:
 334 00dc 00000000 		.word	.LANCHOR0
 335 00e0 00000000 		.word	.LANCHOR1
 336 00e4 18000000 		.word	.LC1
 337 00e8 30000000 		.word	.LC2
 338 00ec 00000000 		.word	.LC0
 339 00f0 00000000 		.word	gu32MosDbgLevel
 340 00f4 00000000 		.word	.LANCHOR2
 341 00f8 5C000000 		.word	.LC3
 342              		.cfi_endproc
 343              	.LFE145:
 344              		.size	prvVdProcTask, .-prvVdProcTask
ARM GAS  /tmp/ccAD7eaF.s 			page 19


 345              		.section	.text.VocTaskVQConfig,"ax",%progbits
 346              		.align	1
 347              		.p2align 2,,3
 348              		.global	VocTaskVQConfig
 349              		.syntax unified
 350              		.thumb
 351              		.thumb_func
 352              		.fpu fpv4-sp-d16
 353              		.type	VocTaskVQConfig, %function
 354              	VocTaskVQConfig:
 355              	.LVL30:
 356              	.LFB139:
 439:../../main_full/voc_task.c ****   //if (!VocTaskIsEnableFunc(E_FUNC_VQ))
 357              		.loc 1 439 1 is_stmt 1 view -0
 358              		.cfi_startproc
 359              		@ args = 0, pretend = 0, frame = 0
 360              		@ frame_needed = 0, uses_anonymous_args = 0
 361              		@ link register save eliminated.
 442:../../main_full/voc_task.c ****       _eVocVQMode = eMode;
 362              		.loc 1 442 5 view .LVU62
 363              	@ ../../main_full/voc_task.c:442:     if (eMode < E_VQ_MODE_MAX)
 442:../../main_full/voc_task.c ****       _eVocVQMode = eMode;
 364              		.loc 1 442 8 is_stmt 0 view .LVU63
 365 0000 0528     		cmp	r0, #5	@ eMode,
 443:../../main_full/voc_task.c ****     VOC_MSG("MApi_VOC_VQConfig: Mode = %d\n", (U32)eMode);
 366              		.loc 1 443 7 is_stmt 1 view .LVU64
 444:../../main_full/voc_task.c ****   }
 367              		.loc 1 444 5 view .LVU65
 368              	@ ../../main_full/voc_task.c:443:       _eVocVQMode = eMode;
 443:../../main_full/voc_task.c ****     VOC_MSG("MApi_VOC_VQConfig: Mode = %d\n", (U32)eMode);
 369              		.loc 1 443 19 is_stmt 0 view .LVU66
 370 0002 9CBF     		itt	ls
 371 0004 054B     		ldrls	r3, .L36	@ tmp114,
 372 0006 1870     		strbls	r0, [r3]	@ eMode, _eVocVQMode
 373              	@ ../../main_full/voc_task.c:444:     VOC_MSG("MApi_VOC_VQConfig: Mode = %d\n", (U32)eMode);
 444:../../main_full/voc_task.c ****   }
 374              		.loc 1 444 5 view .LVU67
 375 0008 054B     		ldr	r3, .L36+4	@ tmp116,
 376 000a 1B68     		ldr	r3, [r3]	@ gu32MosDbgLevel, gu32MosDbgLevel
 377 000c 9B07     		lsls	r3, r3, #30	@, gu32MosDbgLevel,
 378 000e 00D4     		bmi	.L35		@,
 379              	@ ../../main_full/voc_task.c:446: }
 446:../../main_full/voc_task.c **** 
 380              		.loc 1 446 1 view .LVU68
 381 0010 7047     		bx	lr	@
 382              	.L35:
 444:../../main_full/voc_task.c ****   }
 383              		.loc 1 444 5 is_stmt 1 discriminator 1 view .LVU69
 384 0012 0146     		mov	r1, r0	@, eMode
 385 0014 0348     		ldr	r0, .L36+8	@,
 386              	.LVL31:
 444:../../main_full/voc_task.c ****   }
 387              		.loc 1 444 5 is_stmt 0 discriminator 1 view .LVU70
 388 0016 FFF7FEBF 		b	UartSendTrace		@
 389              	.LVL32:
 390              	.L37:
 391 001a 00BF     		.align	2
ARM GAS  /tmp/ccAD7eaF.s 			page 20


 392              	.L36:
 393 001c 00000000 		.word	.LANCHOR3
 394 0020 00000000 		.word	gu32MosDbgLevel
 395 0024 00000000 		.word	.LC4
 396              		.cfi_endproc
 397              	.LFE139:
 398              		.size	VocTaskVQConfig, .-VocTaskVQConfig
 399              		.section	.text.VocTaskVQPost,"ax",%progbits
 400              		.align	1
 401              		.p2align 2,,3
 402              		.global	VocTaskVQPost
 403              		.syntax unified
 404              		.thumb
 405              		.thumb_func
 406              		.fpu fpv4-sp-d16
 407              		.type	VocTaskVQPost, %function
 408              	VocTaskVQPost:
 409              	.LFB140:
 449:../../main_full/voc_task.c ****   if (_eVocVQMode == E_VQ_MODE_PM)
 410              		.loc 1 449 1 is_stmt 1 view -0
 411              		.cfi_startproc
 412              		@ args = 0, pretend = 0, frame = 0
 413              		@ frame_needed = 0, uses_anonymous_args = 0
 450:../../main_full/voc_task.c ****   {
 414              		.loc 1 450 3 view .LVU72
 415              	@ ../../main_full/voc_task.c:450:   if (_eVocVQMode == E_VQ_MODE_PM)
 450:../../main_full/voc_task.c ****   {
 416              		.loc 1 450 19 is_stmt 0 view .LVU73
 417 0000 1F4B     		ldr	r3, .L61	@ tmp123,
 418 0002 1978     		ldrb	r1, [r3]	@ zero_extendqisi2	@ _eVocVQMode.1_1, _eVocVQMode
 419              	@ ../../main_full/voc_task.c:450:   if (_eVocVQMode == E_VQ_MODE_PM)
 450:../../main_full/voc_task.c ****   {
 420              		.loc 1 450 6 view .LVU74
 421 0004 0229     		cmp	r1, #2	@ _eVocVQMode.1_1,
 422              	@ ../../main_full/voc_task.c:449: {
 449:../../main_full/voc_task.c ****   if (_eVocVQMode == E_VQ_MODE_PM)
 423              		.loc 1 449 1 view .LVU75
 424 0006 10B5     		push	{r4, lr}	@
 425              		.cfi_def_cfa_offset 8
 426              		.cfi_offset 4, -8
 427              		.cfi_offset 14, -4
 428              	@ ../../main_full/voc_task.c:450:   if (_eVocVQMode == E_VQ_MODE_PM)
 450:../../main_full/voc_task.c ****   {
 429              		.loc 1 450 6 view .LVU76
 430 0008 0FD0     		beq	.L56		@,
 458:../../main_full/voc_task.c ****   {
 431              		.loc 1 458 8 is_stmt 1 view .LVU77
 432              	@ ../../main_full/voc_task.c:458:   else if (_eVocVQMode == E_VQ_MODE_LOOP)
 458:../../main_full/voc_task.c ****   {
 433              		.loc 1 458 11 is_stmt 0 view .LVU78
 434 000a 0129     		cmp	r1, #1	@ _eVocVQMode.1_1,
 435 000c 04D0     		beq	.L57		@,
 475:../../main_full/voc_task.c ****   {
 436              		.loc 1 475 8 is_stmt 1 view .LVU79
 437              	@ ../../main_full/voc_task.c:475:   else if (_eVocVQMode == E_VQ_MODE_DWW)
 475:../../main_full/voc_task.c ****   {
 438              		.loc 1 475 11 is_stmt 0 view .LVU80
ARM GAS  /tmp/ccAD7eaF.s 			page 21


 439 000e 0429     		cmp	r1, #4	@ _eVocVQMode.1_1,
 440 0010 13D0     		beq	.L58		@,
 480:../../main_full/voc_task.c ****   {
 441              		.loc 1 480 8 is_stmt 1 view .LVU81
 442              	@ ../../main_full/voc_task.c:480:   else if (_eVocVQMode == E_VQ_MODE_TEST)
 480:../../main_full/voc_task.c ****   {
 443              		.loc 1 480 11 is_stmt 0 view .LVU82
 444 0012 0529     		cmp	r1, #5	@ _eVocVQMode.1_1,
 445 0014 1AD0     		beq	.L59		@,
 446              	.L38:
 447              	@ ../../main_full/voc_task.c:485: }
 485:../../main_full/voc_task.c **** 
 448              		.loc 1 485 1 view .LVU83
 449 0016 10BD     		pop	{r4, pc}	@
 450              	.L57:
 461:../../main_full/voc_task.c ****   }
 451              		.loc 1 461 5 is_stmt 1 view .LVU84
 452 0018 1A4B     		ldr	r3, .L61+4	@ tmp126,
 453 001a 1B68     		ldr	r3, [r3]	@ gu32MosDbgLevel, gu32MosDbgLevel
 454 001c 9807     		lsls	r0, r3, #30	@, gu32MosDbgLevel,
 455 001e FAD5     		bpl	.L38		@,
 461:../../main_full/voc_task.c ****   }
 456              		.loc 1 461 5 discriminator 1 view .LVU85
 457 0020 1948     		ldr	r0, .L61+8	@,
 458              	@ ../../main_full/voc_task.c:485: }
 485:../../main_full/voc_task.c **** 
 459              		.loc 1 485 1 is_stmt 0 discriminator 1 view .LVU86
 460 0022 BDE81040 		pop	{r4, lr}	@
 461              		.cfi_remember_state
 462              		.cfi_restore 14
 463              		.cfi_restore 4
 464              		.cfi_def_cfa_offset 0
 465              	@ ../../main_full/voc_task.c:461:     VOC_MSG("MApi_VOC_VQPost: Loop again\n");
 461:../../main_full/voc_task.c ****   }
 466              		.loc 1 461 5 discriminator 1 view .LVU87
 467 0026 FFF7FEBF 		b	UartSendTrace		@
 468              	.LVL33:
 469              	.L56:
 470              		.cfi_restore_state
 452:../../main_full/voc_task.c **** #if defined(CONFIG_VOC_SEAMLESS)
 471              		.loc 1 452 5 is_stmt 1 view .LVU88
 472              	.LBB18:
 473              	.LBI18:
 504:../../main_full/voc_task.c **** {
 474              		.loc 1 504 6 view .LVU89
 475              	.LBB19:
 506:../../main_full/voc_task.c ****   {
 476              		.loc 1 506 3 view .LVU90
 508:../../main_full/voc_task.c ****     {
 477              		.loc 1 508 5 view .LVU91
 540:../../main_full/voc_task.c ****       {
 478              		.loc 1 540 7 view .LVU92
 554:../../main_full/voc_task.c **** 
 479              		.loc 1 554 7 view .LVU93
 556:../../main_full/voc_task.c ****     }
 480              		.loc 1 556 7 view .LVU94
 481 002a 184B     		ldr	r3, .L61+12	@ tmp124,
ARM GAS  /tmp/ccAD7eaF.s 			page 22


 482 002c 1868     		ldr	r0, [r3]	@, _tVocProcEvent
 483 002e FFF7FEFF 		bl	xEventGroupClearBits		@
 484              	.LVL34:
 560:../../main_full/voc_task.c **** }
 485              		.loc 1 560 5 view .LVU95
 560:../../main_full/voc_task.c **** }
 486              		.loc 1 560 61 view .LVU96
 560:../../main_full/voc_task.c **** }
 487              		.loc 1 560 61 is_stmt 0 view .LVU97
 488              	.LBE19:
 489              	.LBE18:
 456:../../main_full/voc_task.c ****   }
 490              		.loc 1 456 5 is_stmt 1 view .LVU98
 491              	@ ../../main_full/voc_task.c:485: }
 485:../../main_full/voc_task.c **** 
 492              		.loc 1 485 1 is_stmt 0 view .LVU99
 493 0032 BDE81040 		pop	{r4, lr}	@
 494              		.cfi_remember_state
 495              		.cfi_restore 14
 496              		.cfi_restore 4
 497              		.cfi_def_cfa_offset 0
 498              	@ ../../main_full/voc_task.c:456:     MDrv_PM_Resume();
 456:../../main_full/voc_task.c ****   }
 499              		.loc 1 456 5 view .LVU100
 500 0036 FFF7FEBF 		b	MDrv_PM_Resume		@
 501              	.LVL35:
 502              	.L58:
 503              		.cfi_restore_state
 478:../../main_full/voc_task.c ****   }
 504              		.loc 1 478 5 is_stmt 1 view .LVU101
 505 003a 124B     		ldr	r3, .L61+4	@ tmp130,
 506 003c 1B68     		ldr	r3, [r3]	@ gu32MosDbgLevel, gu32MosDbgLevel
 507 003e 9907     		lsls	r1, r3, #30	@, gu32MosDbgLevel,
 508 0040 E9D5     		bpl	.L38		@,
 478:../../main_full/voc_task.c ****   }
 509              		.loc 1 478 5 discriminator 1 view .LVU102
 510 0042 1348     		ldr	r0, .L61+16	@,
 511              	@ ../../main_full/voc_task.c:485: }
 485:../../main_full/voc_task.c **** 
 512              		.loc 1 485 1 is_stmt 0 discriminator 1 view .LVU103
 513 0044 BDE81040 		pop	{r4, lr}	@
 514              		.cfi_remember_state
 515              		.cfi_restore 14
 516              		.cfi_restore 4
 517              		.cfi_def_cfa_offset 0
 518              	@ ../../main_full/voc_task.c:478:     VOC_MSG("MApi_VOC_VQPost: DWW\n");
 478:../../main_full/voc_task.c ****   }
 519              		.loc 1 478 5 discriminator 1 view .LVU104
 520 0048 FFF7FEBF 		b	UartSendTrace		@
 521              	.LVL36:
 522              	.L59:
 523              		.cfi_restore_state
 524              	.LBB20:
 525              	.LBI20:
 448:../../main_full/voc_task.c **** {
 526              		.loc 1 448 6 is_stmt 1 view .LVU105
 527              	.LBB21:
ARM GAS  /tmp/ccAD7eaF.s 			page 23


 482:../../main_full/voc_task.c ****     VOC_MSG("MApi_VOC_VQPost: TEST\n");
 528              		.loc 1 482 5 view .LVU106
 529              	.LBB22:
 530              	.LBI22:
 504:../../main_full/voc_task.c **** {
 531              		.loc 1 504 6 view .LVU107
 532              	.LBE22:
 533              	.LBE21:
 534              	.LBE20:
 506:../../main_full/voc_task.c ****   {
 535              		.loc 1 506 3 view .LVU108
 508:../../main_full/voc_task.c ****     {
 536              		.loc 1 508 5 view .LVU109
 537              	.LBB32:
 538              	.LBB29:
 539              	.LBB27:
 540              	.LBB23:
 541              	.LBI23:
 504:../../main_full/voc_task.c **** {
 542              		.loc 1 504 6 view .LVU110
 543              	.LBB24:
 510:../../main_full/voc_task.c ****       {
 544              		.loc 1 510 7 view .LVU111
 528:../../main_full/voc_task.c ****       {
 545              		.loc 1 528 12 view .LVU112
 530:../../main_full/voc_task.c ****           xEventGroupClearBits(_tVocProcEvent, ebBIT_VS); //turn off seamless
 546              		.loc 1 530 9 view .LVU113
 547              	@ ../../main_full/voc_task.c:530:         if (xEventGroupGetBits(_tVocProcEvent) & ebBIT_VS)
 530:../../main_full/voc_task.c ****           xEventGroupClearBits(_tVocProcEvent, ebBIT_VS); //turn off seamless
 548              		.loc 1 530 13 is_stmt 0 view .LVU114
 549 004c 0F4C     		ldr	r4, .L61+12	@ tmp145,
 550 004e 0021     		movs	r1, #0	@,
 551 0050 2068     		ldr	r0, [r4]	@, _tVocProcEvent
 552 0052 FFF7FEFF 		bl	xEventGroupClearBits		@
 553              	.LVL37:
 554              	@ ../../main_full/voc_task.c:530:         if (xEventGroupGetBits(_tVocProcEvent) & ebBIT_VS)
 530:../../main_full/voc_task.c ****           xEventGroupClearBits(_tVocProcEvent, ebBIT_VS); //turn off seamless
 555              		.loc 1 530 12 view .LVU115
 556 0056 C206     		lsls	r2, r0, #27	@,,
 557 0058 0CD4     		bmi	.L60		@,
 558              	.L45:
 536:../../main_full/voc_task.c ****     }
 559              		.loc 1 536 7 is_stmt 1 view .LVU116
 560 005a 2068     		ldr	r0, [r4]	@, _tVocProcEvent
 561 005c 0421     		movs	r1, #4	@,
 562 005e FFF7FEFF 		bl	xEventGroupSetBits		@
 563              	.LVL38:
 560:../../main_full/voc_task.c **** }
 564              		.loc 1 560 5 view .LVU117
 560:../../main_full/voc_task.c **** }
 565              		.loc 1 560 61 view .LVU118
 566              	.LBE24:
 567              	.LBE23:
 568              	.LBE27:
 569              	.LBE29:
 570              	.LBE32:
 560:../../main_full/voc_task.c **** }
ARM GAS  /tmp/ccAD7eaF.s 			page 24


 571              		.loc 1 560 5 view .LVU119
 560:../../main_full/voc_task.c **** }
 572              		.loc 1 560 61 view .LVU120
 573              	.LBB33:
 574              	.LBB30:
 483:../../main_full/voc_task.c ****   }
 575              		.loc 1 483 5 view .LVU121
 576 0062 084B     		ldr	r3, .L61+4	@ tmp141,
 577 0064 1B68     		ldr	r3, [r3]	@ gu32MosDbgLevel, gu32MosDbgLevel
 578 0066 9B07     		lsls	r3, r3, #30	@, gu32MosDbgLevel,
 579 0068 D5D5     		bpl	.L38		@,
 483:../../main_full/voc_task.c ****   }
 580              		.loc 1 483 5 view .LVU122
 581 006a 0A48     		ldr	r0, .L61+20	@,
 582              	.LBE30:
 583              	.LBE33:
 584              	@ ../../main_full/voc_task.c:485: }
 485:../../main_full/voc_task.c **** 
 585              		.loc 1 485 1 is_stmt 0 view .LVU123
 586 006c BDE81040 		pop	{r4, lr}	@
 587              		.cfi_remember_state
 588              		.cfi_restore 14
 589              		.cfi_restore 4
 590              		.cfi_def_cfa_offset 0
 591              	.LBB34:
 592              	.LBB31:
 593              	@ ../../main_full/voc_task.c:483:     VOC_MSG("MApi_VOC_VQPost: TEST\n");
 483:../../main_full/voc_task.c ****   }
 594              		.loc 1 483 5 view .LVU124
 595 0070 FFF7FEBF 		b	UartSendTrace		@
 596              	.LVL39:
 597              	.L60:
 598              		.cfi_restore_state
 599              	.LBB28:
 600              	.LBB26:
 601              	.LBB25:
 531:../../main_full/voc_task.c **** 
 602              		.loc 1 531 11 is_stmt 1 view .LVU125
 603 0074 1021     		movs	r1, #16	@,
 604 0076 2068     		ldr	r0, [r4]	@, _tVocProcEvent
 605 0078 FFF7FEFF 		bl	xEventGroupClearBits		@
 606              	.LVL40:
 607 007c EDE7     		b	.L45		@
 608              	.L62:
 609 007e 00BF     		.align	2
 610              	.L61:
 611 0080 00000000 		.word	.LANCHOR3
 612 0084 00000000 		.word	gu32MosDbgLevel
 613 0088 00000000 		.word	.LC5
 614 008c 00000000 		.word	.LANCHOR4
 615 0090 24000000 		.word	.LC6
 616 0094 40000000 		.word	.LC7
 617              	.LBE25:
 618              	.LBE26:
 619              	.LBE28:
 620              	.LBE31:
 621              	.LBE34:
ARM GAS  /tmp/ccAD7eaF.s 			page 25


 622              		.cfi_endproc
 623              	.LFE140:
 624              		.size	VocTaskVQPost, .-VocTaskVQPost
 625              		.section	.text.prvVocProcTask,"ax",%progbits
 626              		.align	1
 627              		.p2align 2,,3
 628              		.syntax unified
 629              		.thumb
 630              		.thumb_func
 631              		.fpu fpv4-sp-d16
 632              		.type	prvVocProcTask, %function
 633              	prvVocProcTask:
 634              	.LVL41:
 635              	.LFB138:
 134:../../main_full/voc_task.c ****   size_t xBytesSent;
 636              		.loc 1 134 1 view -0
 637              		.cfi_startproc
 638              		@ args = 0, pretend = 0, frame = 8
 639              		@ frame_needed = 0, uses_anonymous_args = 0
 135:../../main_full/voc_task.c **** 
 640              		.loc 1 135 3 view .LVU127
 137:../../main_full/voc_task.c ****   U32 u32Result;
 641              		.loc 1 137 3 view .LVU128
 138:../../main_full/voc_task.c **** 
 642              		.loc 1 138 3 view .LVU129
 140:../../main_full/voc_task.c ****   EventBits_t uxBits;
 643              		.loc 1 140 3 view .LVU130
 141:../../main_full/voc_task.c **** 
 644              		.loc 1 141 3 view .LVU131
 143:../../main_full/voc_task.c **** //TickType_t xTicksToWait = portMAX_DELAY;
 645              		.loc 1 143 3 view .LVU132
 145:../../main_full/voc_task.c **** 
 646              		.loc 1 145 3 view .LVU133
 147:../../main_full/voc_task.c **** 
 647              		.loc 1 147 3 view .LVU134
 648              	@ ../../main_full/voc_task.c:134: {
 134:../../main_full/voc_task.c ****   size_t xBytesSent;
 649              		.loc 1 134 1 is_stmt 0 view .LVU135
 650 0000 2DE9F04F 		push	{r4, r5, r6, r7, r8, r9, r10, fp, lr}	@
 651              		.cfi_def_cfa_offset 36
 652              		.cfi_offset 4, -36
 653              		.cfi_offset 5, -32
 654              		.cfi_offset 6, -28
 655              		.cfi_offset 7, -24
 656              		.cfi_offset 8, -20
 657              		.cfi_offset 9, -16
 658              		.cfi_offset 10, -12
 659              		.cfi_offset 11, -8
 660              		.cfi_offset 14, -4
 661              	@ ../../main_full/voc_task.c:147:   VOC_MSG("VocProcTask Start\n");
 147:../../main_full/voc_task.c **** 
 662              		.loc 1 147 3 view .LVU136
 663 0004 DFF87492 		ldr	r9, .L157+60	@ tmp314,
 664 0008 D9F80030 		ldr	r3, [r9]	@ gu32MosDbgLevel, gu32MosDbgLevel
 665 000c 9907     		lsls	r1, r3, #30	@, gu32MosDbgLevel,
 666              	@ ../../main_full/voc_task.c:134: {
 134:../../main_full/voc_task.c ****   size_t xBytesSent;
ARM GAS  /tmp/ccAD7eaF.s 			page 26


 667              		.loc 1 134 1 view .LVU137
 668 000e 85B0     		sub	sp, sp, #20	@,,
 669              		.cfi_def_cfa_offset 56
 670              	@ ../../main_full/voc_task.c:147:   VOC_MSG("VocProcTask Start\n");
 147:../../main_full/voc_task.c **** 
 671              		.loc 1 147 3 view .LVU138
 672 0010 00F11181 		bmi	.L143		@,
 673              	.LVL42:
 674              	.L64:
 147:../../main_full/voc_task.c **** 
 675              		.loc 1 147 3 view .LVU139
 676 0014 8A4D     		ldr	r5, .L157	@ tmp309,
 677 0016 8B4F     		ldr	r7, .L157+4	@ tmp306,
 678 0018 DFF86482 		ldr	r8, .L157+64	@ tmp310,
 679 001c DFF864A2 		ldr	r10, .L157+68	@ tmp312,
 680              	@ ../../main_full/voc_task.c:194:     if(MDrv_AUD_ReadPCM(_ps16VocTaskPcmBuf, VOC_TASK_READ_PCM_FRA
 194:../../main_full/voc_task.c ****     {
 681              		.loc 1 194 8 discriminator 3 view .LVU140
 682 0020 894E     		ldr	r6, .L157+8	@ tmp315,
 683              	.L65:
 147:../../main_full/voc_task.c **** 
 684              		.loc 1 147 33 is_stmt 1 discriminator 3 view .LVU141
 149:../../main_full/voc_task.c ****   {
 685              		.loc 1 149 3 discriminator 3 view .LVU142
 151:../../main_full/voc_task.c ****     if(uxBits & ebBIT_RESET)
 686              		.loc 1 151 5 discriminator 3 view .LVU143
 687              	@ ../../main_full/voc_task.c:151:     uxBits = xEventGroupWaitBits(_tVocProcEvent, ebBIT_VOC , pdFA
 151:../../main_full/voc_task.c ****     if(uxBits & ebBIT_RESET)
 688              		.loc 1 151 14 is_stmt 0 discriminator 3 view .LVU144
 689 0022 2868     		ldr	r0, [r5]	@, _tVocProcEvent
 690 0024 4FF0FF32 		mov	r2, #-1	@ tmp190,
 691 0028 0023     		movs	r3, #0	@,
 692 002a 0092     		str	r2, [sp]	@ tmp190,
 693 002c 5F21     		movs	r1, #95	@,
 694 002e 1A46     		mov	r2, r3	@,
 695 0030 FFF7FEFF 		bl	xEventGroupWaitBits		@
 696              	.LVL43:
 697              	@ ../../main_full/voc_task.c:152:     if(uxBits & ebBIT_RESET)
 152:../../main_full/voc_task.c ****     {
 698              		.loc 1 152 7 discriminator 3 view .LVU145
 699 0034 10F0010B 		ands	fp, r0, #1	@ tmp191, uxBits,
 700              	@ ../../main_full/voc_task.c:151:     uxBits = xEventGroupWaitBits(_tVocProcEvent, ebBIT_VOC , pdFA
 151:../../main_full/voc_task.c ****     if(uxBits & ebBIT_RESET)
 701              		.loc 1 151 14 discriminator 3 view .LVU146
 702 0038 0446     		mov	r4, r0	@ uxBits,
 703              	.LVL44:
 152:../../main_full/voc_task.c ****     {
 704              		.loc 1 152 5 is_stmt 1 discriminator 3 view .LVU147
 705              	@ ../../main_full/voc_task.c:152:     if(uxBits & ebBIT_RESET)
 152:../../main_full/voc_task.c ****     {
 706              		.loc 1 152 7 is_stmt 0 discriminator 3 view .LVU148
 707 003a 11D0     		beq	.L66		@,
 154:../../main_full/voc_task.c **** 
 708              		.loc 1 154 7 is_stmt 1 view .LVU149
 709 003c FFF7FEFF 		bl	MDrv_AUD_Stop		@
 710              	.LVL45:
 161:../../main_full/voc_task.c ****       //xEventGroupWaitBits(_tVocProcEvent, ebBIT_VOC, pdTRUE, pdFALSE, 0);
ARM GAS  /tmp/ccAD7eaF.s 			page 27


 711              		.loc 1 161 7 view .LVU150
 712 0040 0121     		movs	r1, #1	@,
 713 0042 3868     		ldr	r0, [r7]	@, _tVdTaskEvent
 714 0044 FFF7FEFF 		bl	xEventGroupSetBits		@
 715              	.LVL46:
 163:../../main_full/voc_task.c ****       xSemaphoreGive(_tVocSyncSem);
 716              		.loc 1 163 7 view .LVU151
 717 0048 5F21     		movs	r1, #95	@,
 718 004a 2868     		ldr	r0, [r5]	@, _tVocProcEvent
 719 004c FFF7FEFF 		bl	xEventGroupClearBits		@
 720              	.LVL47:
 164:../../main_full/voc_task.c **** 
 721              		.loc 1 164 7 view .LVU152
 722 0050 0023     		movs	r3, #0	@,
 723 0052 1A46     		mov	r2, r3	@,
 724 0054 1946     		mov	r1, r3	@,
 725 0056 D8F80000 		ldr	r0, [r8]	@, _tVocSyncSem
 726 005a FFF7FEFF 		bl	xQueueGenericSend		@
 727              	.LVL48:
 166:../../main_full/voc_task.c ****     }
 728              		.loc 1 166 7 view .LVU153
 729 005e E0E7     		b	.L65		@
 730              	.LVL49:
 731              	.L66:
 170:../../main_full/voc_task.c ****       {
 732              		.loc 1 170 7 view .LVU154
 733              	@ ../../main_full/voc_task.c:170:       if(MDrv_AUD_IsXrun())
 170:../../main_full/voc_task.c ****       {
 734              		.loc 1 170 10 is_stmt 0 view .LVU155
 735 0060 FFF7FEFF 		bl	MDrv_AUD_IsXrun		@
 736              	.LVL50:
 737              	@ ../../main_full/voc_task.c:170:       if(MDrv_AUD_IsXrun())
 170:../../main_full/voc_task.c ****       {
 738              		.loc 1 170 9 view .LVU156
 739 0064 10B1     		cbz	r0, .L68	@,
 172:../../main_full/voc_task.c ****         {
 740              		.loc 1 172 9 is_stmt 1 view .LVU157
 741              	@ ../../main_full/voc_task.c:172:         if (uxBits & ebBIT_VD)
 172:../../main_full/voc_task.c ****         {
 742              		.loc 1 172 12 is_stmt 0 view .LVU158
 743 0066 6207     		lsls	r2, r4, #29	@, uxBits,
 744 0068 00F18980 		bmi	.L144		@,
 745              	.L68:
 178:../../main_full/voc_task.c ****       {
 746              		.loc 1 178 7 is_stmt 1 view .LVU159
 747              	@ ../../main_full/voc_task.c:178:       if (MDrv_AUD_Start())
 178:../../main_full/voc_task.c ****       {
 748              		.loc 1 178 11 is_stmt 0 view .LVU160
 749 006c FFF7FEFF 		bl	MDrv_AUD_Start		@
 750              	.LVL51:
 751              	@ ../../main_full/voc_task.c:178:       if (MDrv_AUD_Start())
 178:../../main_full/voc_task.c ****       {
 752              		.loc 1 178 10 view .LVU161
 753 0070 F8B9     		cbnz	r0, .L145	@,
 754              	.L69:
 194:../../main_full/voc_task.c ****     {
 755              		.loc 1 194 5 is_stmt 1 view .LVU162
ARM GAS  /tmp/ccAD7eaF.s 			page 28


 756              	@ ../../main_full/voc_task.c:194:     if(MDrv_AUD_ReadPCM(_ps16VocTaskPcmBuf, VOC_TASK_READ_PCM_FRA
 194:../../main_full/voc_task.c ****     {
 757              		.loc 1 194 69 is_stmt 0 view .LVU163
 758 0072 FFF7FEFF 		bl	MDrv_AUD_GetMicNo		@
 759              	.LVL52:
 760              	@ ../../main_full/voc_task.c:194:     if(MDrv_AUD_ReadPCM(_ps16VocTaskPcmBuf, VOC_TASK_READ_PCM_FRA
 194:../../main_full/voc_task.c ****     {
 761              		.loc 1 194 68 view .LVU164
 762 0076 00EB4000 		add	r0, r0, r0, lsl #1	@ tmp205,,,
 763              	@ ../../main_full/voc_task.c:194:     if(MDrv_AUD_ReadPCM(_ps16VocTaskPcmBuf, VOC_TASK_READ_PCM_FRA
 194:../../main_full/voc_task.c ****     {
 764              		.loc 1 194 8 view .LVU165
 765 007a 0102     		lsls	r1, r0, #8	@, tmp205,
 766 007c 0123     		movs	r3, #1	@,
 767 007e 03AA     		add	r2, sp, #12	@ tmp320,,
 768 0080 3046     		mov	r0, r6	@, tmp315
 769 0082 FFF7FEFF 		bl	MDrv_AUD_ReadPCM		@
 770              	.LVL53:
 771              	@ ../../main_full/voc_task.c:194:     if(MDrv_AUD_ReadPCM(_ps16VocTaskPcmBuf, VOC_TASK_READ_PCM_FRA
 194:../../main_full/voc_task.c ****     {
 772              		.loc 1 194 7 view .LVU166
 773 0086 0128     		cmp	r0, #1	@,
 774 0088 22D0     		beq	.L146		@,
 410:../../main_full/voc_task.c ****       {
 775              		.loc 1 410 7 is_stmt 1 view .LVU167
 776              	@ ../../main_full/voc_task.c:410:       if (uxBits & (ebBIT_VQ | ebBIT_VS))
 410:../../main_full/voc_task.c ****       {
 777              		.loc 1 410 10 is_stmt 0 view .LVU168
 778 008a 14F0120F 		tst	r4, #18	@ uxBits,
 779 008e 06D0     		beq	.L89		@,
 415:../../main_full/voc_task.c ****         {
 780              		.loc 1 415 9 is_stmt 1 view .LVU169
 781              	@ ../../main_full/voc_task.c:415:         if (err_try_again++ >= 3)
 415:../../main_full/voc_task.c ****         {
 782              		.loc 1 415 26 is_stmt 0 view .LVU170
 783 0090 DAF80030 		ldr	r3, [r10]	@ err_try_again.66_59, err_try_again
 784 0094 5A1C     		adds	r2, r3, #1	@ tmp295, err_try_again.66_59,
 785              	@ ../../main_full/voc_task.c:415:         if (err_try_again++ >= 3)
 415:../../main_full/voc_task.c ****         {
 786              		.loc 1 415 12 view .LVU171
 787 0096 022B     		cmp	r3, #2	@ err_try_again.66_59,
 788              	@ ../../main_full/voc_task.c:415:         if (err_try_again++ >= 3)
 415:../../main_full/voc_task.c ****         {
 789              		.loc 1 415 26 view .LVU172
 790 0098 CAF80020 		str	r2, [r10]	@ tmp295, err_try_again
 791              	@ ../../main_full/voc_task.c:415:         if (err_try_again++ >= 3)
 415:../../main_full/voc_task.c ****         {
 792              		.loc 1 415 12 view .LVU173
 793 009c 73D8     		bhi	.L147		@,
 794              	.L89:
 424:../../main_full/voc_task.c ****       {
 795              		.loc 1 424 7 is_stmt 1 view .LVU174
 796              	@ ../../main_full/voc_task.c:424:       if (uxBits & ebBIT_VD)
 424:../../main_full/voc_task.c ****       {
 797              		.loc 1 424 10 is_stmt 0 view .LVU175
 798 009e 6207     		lsls	r2, r4, #29	@, uxBits,
 799 00a0 0ED4     		bmi	.L148		@,
ARM GAS  /tmp/ccAD7eaF.s 			page 29


 800              	.L92:
 432:../../main_full/voc_task.c ****     }
 801              		.loc 1 432 7 is_stmt 1 discriminator 2 view .LVU176
 802 00a2 D9F80030 		ldr	r3, [r9]	@ gu32MosDbgLevel, gu32MosDbgLevel
 803 00a6 DB07     		lsls	r3, r3, #31	@, gu32MosDbgLevel,
 804 00a8 BBD5     		bpl	.L65		@,
 432:../../main_full/voc_task.c ****     }
 805              		.loc 1 432 7 discriminator 1 view .LVU177
 806 00aa 6848     		ldr	r0, .L157+12	@,
 807 00ac FFF7FEFF 		bl	UartSendTrace		@
 808              	.LVL54:
 809 00b0 B7E7     		b	.L65		@
 810              	.L145:
 180:../../main_full/voc_task.c **** 
 811              		.loc 1 180 9 view .LVU178
 812 00b2 FFF7FEFF 		bl	MApi_VOC_SwGainReset		@
 813              	.LVL55:
 183:../../main_full/voc_task.c **** #endif
 814              		.loc 1 183 9 view .LVU179
 815 00b6 FFF7FEFF 		bl	MApi_VOC_HpfReset		@
 816              	.LVL56:
 189:../../main_full/voc_task.c **** #endif
 817              		.loc 1 189 9 view .LVU180
 818 00ba FFF7FEFF 		bl	MApi_VOC_SrcInit48k		@
 819              	.LVL57:
 820 00be D8E7     		b	.L69		@
 821              	.L148:
 426:../../main_full/voc_task.c ****         {
 822              		.loc 1 426 9 view .LVU181
 823              	@ ../../main_full/voc_task.c:426:         if(MDrv_AUD_IsXrun())
 426:../../main_full/voc_task.c ****         {
 824              		.loc 1 426 12 is_stmt 0 view .LVU182
 825 00c0 FFF7FEFF 		bl	MDrv_AUD_IsXrun		@
 826              	.LVL58:
 827              	@ ../../main_full/voc_task.c:426:         if(MDrv_AUD_IsXrun())
 426:../../main_full/voc_task.c ****         {
 828              		.loc 1 426 11 view .LVU183
 829 00c4 0028     		cmp	r0, #0	@
 830 00c6 ECD0     		beq	.L92	@
 428:../../main_full/voc_task.c ****         }
 831              		.loc 1 428 11 is_stmt 1 view .LVU184
 832 00c8 0020     		movs	r0, #0	@,
 833 00ca FFF7FEFF 		bl	MApi_VOC_NotifyStatus		@
 834              	.LVL59:
 835 00ce E8E7     		b	.L92		@
 836              	.L146:
 205:../../main_full/voc_task.c ****       if(!bRet)
 837              		.loc 1 205 7 view .LVU185
 838              	@ ../../main_full/voc_task.c:205:       bRet = MApi_VOC_SrcProcess48k(_ps16VocTaskPcmBuf, &u32Retur
 205:../../main_full/voc_task.c ****       if(!bRet)
 839              		.loc 1 205 14 is_stmt 0 view .LVU186
 840 00d0 03A9     		add	r1, sp, #12	@ tmp321,,
 841 00d2 3046     		mov	r0, r6	@, tmp315
 842 00d4 FFF7FEFF 		bl	MApi_VOC_SrcProcess48k		@
 843              	.LVL60:
 206:../../main_full/voc_task.c ****       {
 844              		.loc 1 206 7 is_stmt 1 view .LVU187
ARM GAS  /tmp/ccAD7eaF.s 			page 30


 845              	@ ../../main_full/voc_task.c:206:       if(!bRet)
 206:../../main_full/voc_task.c ****       {
 846              		.loc 1 206 9 is_stmt 0 view .LVU188
 847 00d8 20B9     		cbnz	r0, .L71	@,
 208:../../main_full/voc_task.c ****       }
 848              		.loc 1 208 9 is_stmt 1 view .LVU189
 849 00da D9F80030 		ldr	r3, [r9]	@ gu32MosDbgLevel, gu32MosDbgLevel
 850 00de DB07     		lsls	r3, r3, #31	@, gu32MosDbgLevel,
 851 00e0 00F19A80 		bmi	.L149		@,
 852              	.LVL61:
 853              	.L71:
 208:../../main_full/voc_task.c ****       }
 854              		.loc 1 208 9 discriminator 3 view .LVU190
 208:../../main_full/voc_task.c ****       }
 855              		.loc 1 208 54 discriminator 3 view .LVU191
 232:../../main_full/voc_task.c ****       if(!bRet)
 856              		.loc 1 232 7 discriminator 3 view .LVU192
 857              	@ ../../main_full/voc_task.c:232:       bRet=MApi_VOC_Hpf(_ps16VocTaskPcmBuf, u32ReturnCount*2);
 232:../../main_full/voc_task.c ****       if(!bRet)
 858              		.loc 1 232 12 is_stmt 0 discriminator 3 view .LVU193
 859 00e4 0399     		ldr	r1, [sp, #12]	@ u32ReturnCount, u32ReturnCount
 860 00e6 4900     		lsls	r1, r1, #1	@ tmp218, u32ReturnCount,
 861 00e8 89B2     		uxth	r1, r1	@ tmp219, tmp218
 862 00ea 3046     		mov	r0, r6	@, tmp315
 863 00ec FFF7FEFF 		bl	MApi_VOC_Hpf		@
 864              	.LVL62:
 233:../../main_full/voc_task.c ****       {
 865              		.loc 1 233 7 is_stmt 1 discriminator 3 view .LVU194
 866              	@ ../../main_full/voc_task.c:233:       if(!bRet)
 233:../../main_full/voc_task.c ****       {
 867              		.loc 1 233 9 is_stmt 0 discriminator 3 view .LVU195
 868 00f0 20B9     		cbnz	r0, .L72	@,
 236:../../main_full/voc_task.c ****       }
 869              		.loc 1 236 9 is_stmt 1 view .LVU196
 870 00f2 D9F80030 		ldr	r3, [r9]	@ gu32MosDbgLevel, gu32MosDbgLevel
 871 00f6 D807     		lsls	r0, r3, #31	@, gu32MosDbgLevel,
 872              	.LVL63:
 236:../../main_full/voc_task.c ****       }
 873              		.loc 1 236 9 is_stmt 0 view .LVU197
 874 00f8 00F19280 		bmi	.L150		@,
 875              	.L72:
 236:../../main_full/voc_task.c ****       }
 876              		.loc 1 236 9 is_stmt 1 discriminator 3 view .LVU198
 236:../../main_full/voc_task.c ****       }
 877              		.loc 1 236 48 discriminator 3 view .LVU199
 240:../../main_full/voc_task.c ****       if(!bRet)
 878              		.loc 1 240 7 discriminator 3 view .LVU200
 879              	@ ../../main_full/voc_task.c:240:       bRet=MApi_VOC_SwGain(_ps16VocTaskPcmBuf, u32ReturnCount*2);
 240:../../main_full/voc_task.c ****       if(!bRet)
 880              		.loc 1 240 12 is_stmt 0 discriminator 3 view .LVU201
 881 00fc 0399     		ldr	r1, [sp, #12]	@ u32ReturnCount, u32ReturnCount
 882 00fe 4900     		lsls	r1, r1, #1	@ tmp228, u32ReturnCount,
 883 0100 89B2     		uxth	r1, r1	@ tmp229, tmp228
 884 0102 3046     		mov	r0, r6	@, tmp315
 885 0104 FFF7FEFF 		bl	MApi_VOC_SwGain		@
 886              	.LVL64:
 241:../../main_full/voc_task.c ****       {
ARM GAS  /tmp/ccAD7eaF.s 			page 31


 887              		.loc 1 241 7 is_stmt 1 discriminator 3 view .LVU202
 888              	@ ../../main_full/voc_task.c:241:       if(!bRet)
 241:../../main_full/voc_task.c ****       {
 889              		.loc 1 241 9 is_stmt 0 discriminator 3 view .LVU203
 890 0108 18B9     		cbnz	r0, .L73	@,
 243:../../main_full/voc_task.c ****       }
 891              		.loc 1 243 9 is_stmt 1 view .LVU204
 892 010a D9F80030 		ldr	r3, [r9]	@ gu32MosDbgLevel, gu32MosDbgLevel
 893 010e D907     		lsls	r1, r3, #31	@, gu32MosDbgLevel,
 894 0110 7AD4     		bmi	.L151		@,
 895              	.LVL65:
 896              	.L73:
 243:../../main_full/voc_task.c ****       }
 897              		.loc 1 243 9 discriminator 3 view .LVU205
 243:../../main_full/voc_task.c ****       }
 898              		.loc 1 243 47 discriminator 3 view .LVU206
 271:../../main_full/voc_task.c ****       if(!bRet)
 899              		.loc 1 271 7 discriminator 3 view .LVU207
 900              	@ ../../main_full/voc_task.c:271:       bRet = MApi_VOC_MicMap(_ps16VocTaskPcmBuf, &u32ReturnCount)
 271:../../main_full/voc_task.c ****       if(!bRet)
 901              		.loc 1 271 14 is_stmt 0 discriminator 3 view .LVU208
 902 0112 03A9     		add	r1, sp, #12	@ tmp322,,
 903 0114 3046     		mov	r0, r6	@, tmp315
 904 0116 FFF7FEFF 		bl	MApi_VOC_MicMap		@
 905              	.LVL66:
 272:../../main_full/voc_task.c ****       {
 906              		.loc 1 272 7 is_stmt 1 discriminator 3 view .LVU209
 907              	@ ../../main_full/voc_task.c:272:       if(!bRet)
 272:../../main_full/voc_task.c ****       {
 908              		.loc 1 272 9 is_stmt 0 discriminator 3 view .LVU210
 909 011a 18B9     		cbnz	r0, .L74	@,
 274:../../main_full/voc_task.c ****       }
 910              		.loc 1 274 9 is_stmt 1 view .LVU211
 911 011c D9F80030 		ldr	r3, [r9]	@ gu32MosDbgLevel, gu32MosDbgLevel
 912 0120 DA07     		lsls	r2, r3, #31	@, gu32MosDbgLevel,
 913 0122 75D4     		bmi	.L152		@,
 914              	.LVL67:
 915              	.L74:
 274:../../main_full/voc_task.c ****       }
 916              		.loc 1 274 9 discriminator 3 view .LVU212
 274:../../main_full/voc_task.c ****       }
 917              		.loc 1 274 47 discriminator 3 view .LVU213
 278:../../main_full/voc_task.c ****       {
 918              		.loc 1 278 7 discriminator 3 view .LVU214
 919              	@ ../../main_full/voc_task.c:278:       if(uxBits & ebBIT_VP_TEST)
 278:../../main_full/voc_task.c ****       {
 920              		.loc 1 278 9 is_stmt 0 discriminator 3 view .LVU215
 921 0124 2306     		lsls	r3, r4, #24	@, uxBits,
 922 0126 58D4     		bmi	.L153		@,
 923              	.L76:
 284:../../main_full/voc_task.c ****         }
 924              		.loc 1 284 11 is_stmt 1 discriminator 3 view .LVU216
 284:../../main_full/voc_task.c ****         }
 925              		.loc 1 284 65 discriminator 3 view .LVU217
 313:../../main_full/voc_task.c ****       {
 926              		.loc 1 313 7 discriminator 3 view .LVU218
 927              	@ ../../main_full/voc_task.c:313:       if(uxBits & ebBIT_VP)
ARM GAS  /tmp/ccAD7eaF.s 			page 32


 313:../../main_full/voc_task.c ****       {
 928              		.loc 1 313 9 is_stmt 0 discriminator 3 view .LVU219
 929 0128 2107     		lsls	r1, r4, #28	@, uxBits,
 930 012a 44D4     		bmi	.L154		@,
 931              	.L79:
 319:../../main_full/voc_task.c ****         }
 932              		.loc 1 319 11 is_stmt 1 discriminator 3 view .LVU220
 319:../../main_full/voc_task.c ****         }
 933              		.loc 1 319 60 discriminator 3 view .LVU221
 338:../../main_full/voc_task.c ****                             (void *)_ps16VocTaskPcmBuf, u32ReturnCount*2, 0);
 934              		.loc 1 338 7 discriminator 3 view .LVU222
 935              	@ ../../main_full/voc_task.c:339:                             (void *)_ps16VocTaskPcmBuf, u32Return
 339:../../main_full/voc_task.c **** 
 936              		.loc 1 339 71 is_stmt 0 discriminator 3 view .LVU223
 937 012c 039A     		ldr	r2, [sp, #12]	@ u32ReturnCount, u32ReturnCount
 938              	@ ../../main_full/voc_task.c:338:       xBytesSent = xStreamBufferSend( _tVocStreamBuffer,
 338:../../main_full/voc_task.c ****                             (void *)_ps16VocTaskPcmBuf, u32ReturnCount*2, 0);
 939              		.loc 1 338 20 discriminator 3 view .LVU224
 940 012e 484B     		ldr	r3, .L157+16	@ tmp325,
 941 0130 5200     		lsls	r2, r2, #1	@, u32ReturnCount,
 942 0132 1868     		ldr	r0, [r3]	@, _tVocStreamBuffer
 943 0134 3146     		mov	r1, r6	@, tmp315
 944 0136 0023     		movs	r3, #0	@,
 945 0138 FFF7FEFF 		bl	xStreamBufferSend		@
 946              	.LVL68:
 341:../../main_full/voc_task.c ****       {
 947              		.loc 1 341 7 is_stmt 1 discriminator 3 view .LVU225
 948              	@ ../../main_full/voc_task.c:341:       if (xBytesSent != u32ReturnCount*2)
 341:../../main_full/voc_task.c ****       {
 949              		.loc 1 341 39 is_stmt 0 discriminator 3 view .LVU226
 950 013c 039B     		ldr	r3, [sp, #12]	@ u32ReturnCount, u32ReturnCount
 951              	@ ../../main_full/voc_task.c:341:       if (xBytesSent != u32ReturnCount*2)
 341:../../main_full/voc_task.c ****       {
 952              		.loc 1 341 10 discriminator 3 view .LVU227
 953 013e B0EB430F 		cmp	r0, r3, lsl #1	@, u32ReturnCount,
 954 0142 28D0     		beq	.L81		@,
 343:../../main_full/voc_task.c ****         //VOC_ERROR("xStreamBufferSend: buffer full\n");
 955              		.loc 1 343 9 is_stmt 1 view .LVU228
 956 0144 0421     		movs	r1, #4	@,
 957 0146 2868     		ldr	r0, [r5]	@, _tVocProcEvent
 958              	.LVL69:
 343:../../main_full/voc_task.c ****         //VOC_ERROR("xStreamBufferSend: buffer full\n");
 959              		.loc 1 343 9 is_stmt 0 view .LVU229
 960 0148 FFF7FEFF 		bl	xEventGroupClearBits		@
 961              	.LVL70:
 962              	.L82:
 362:../../main_full/voc_task.c ****       {
 963              		.loc 1 362 7 is_stmt 1 view .LVU230
 964              	@ ../../main_full/voc_task.c:362:       if(uxBits & ebBIT_VQ)
 362:../../main_full/voc_task.c ****       {
 965              		.loc 1 362 9 is_stmt 0 view .LVU231
 966 014c A007     		lsls	r0, r4, #30	@, uxBits,
 967 014e 7FF568AF 		bpl	.L65		@,
 364:../../main_full/voc_task.c ****        
 968              		.loc 1 364 9 is_stmt 1 view .LVU232
 969              	@ ../../main_full/voc_task.c:364:         bRet = MApi_VOC_VQPort(_ps16VocTaskPcmBuf, u32ReturnCount
 364:../../main_full/voc_task.c ****        
ARM GAS  /tmp/ccAD7eaF.s 			page 33


 970              		.loc 1 364 16 is_stmt 0 view .LVU233
 971 0152 0399     		ldr	r1, [sp, #12]	@, u32ReturnCount
 972 0154 3046     		mov	r0, r6	@, tmp315
 973 0156 FFF7FEFF 		bl	MApi_VOC_VQPort		@
 974              	.LVL71:
 370:../../main_full/voc_task.c ****         {
 975              		.loc 1 370 8 is_stmt 1 view .LVU234
 976              	@ ../../main_full/voc_task.c:370:        if(bRet)
 370:../../main_full/voc_task.c ****         {
 977              		.loc 1 370 10 is_stmt 0 view .LVU235
 978 015a 0028     		cmp	r0, #0	@
 979 015c 3FF461AF 		beq	.L65	@
 376:../../main_full/voc_task.c ****           printf("wake up num ---%d \n",wakeUpNum);
 980              		.loc 1 376 11 is_stmt 1 view .LVU236
 981              	@ ../../main_full/voc_task.c:376:           wakeUpNum++;
 376:../../main_full/voc_task.c ****           printf("wake up num ---%d \n",wakeUpNum);
 982              		.loc 1 376 20 is_stmt 0 view .LVU237
 983 0160 3C4A     		ldr	r2, .L157+20	@ tmp327,
 984              	@ ../../main_full/voc_task.c:377:           printf("wake up num ---%d \n",wakeUpNum);
 377:../../main_full/voc_task.c ****           VOC_MSG("MApi_VOC_VQPort: VQ process success t = %d\n", xTaskGetTickCount() * portTICK_PE
 985              		.loc 1 377 11 view .LVU238
 986 0162 3D48     		ldr	r0, .L157+24	@,
 987              	.LVL72:
 988              	@ ../../main_full/voc_task.c:376:           wakeUpNum++;
 376:../../main_full/voc_task.c ****           printf("wake up num ---%d \n",wakeUpNum);
 989              		.loc 1 376 20 view .LVU239
 990 0164 1368     		ldr	r3, [r2]	@ wakeUpNum, wakeUpNum
 991 0166 0133     		adds	r3, r3, #1	@ _53, wakeUpNum,
 992              	@ ../../main_full/voc_task.c:377:           printf("wake up num ---%d \n",wakeUpNum);
 377:../../main_full/voc_task.c ****           VOC_MSG("MApi_VOC_VQPort: VQ process success t = %d\n", xTaskGetTickCount() * portTICK_PE
 993              		.loc 1 377 11 view .LVU240
 994 0168 1946     		mov	r1, r3	@, _53
 995              	@ ../../main_full/voc_task.c:376:           wakeUpNum++;
 376:../../main_full/voc_task.c ****           printf("wake up num ---%d \n",wakeUpNum);
 996              		.loc 1 376 20 view .LVU241
 997 016a 1360     		str	r3, [r2]	@ _53, wakeUpNum
 377:../../main_full/voc_task.c ****           VOC_MSG("MApi_VOC_VQPort: VQ process success t = %d\n", xTaskGetTickCount() * portTICK_PE
 998              		.loc 1 377 11 is_stmt 1 view .LVU242
 999 016c FFF7FEFF 		bl	printf		@
 1000              	.LVL73:
 378:../../main_full/voc_task.c ****           VocTaskVQPost();
 1001              		.loc 1 378 11 view .LVU243
 1002 0170 D9F80030 		ldr	r3, [r9]	@ gu32MosDbgLevel, gu32MosDbgLevel
 1003 0174 9907     		lsls	r1, r3, #30	@, gu32MosDbgLevel,
 1004 0176 57D4     		bmi	.L155		@,
 1005              	.L87:
 378:../../main_full/voc_task.c ****           VocTaskVQPost();
 1006              		.loc 1 378 108 discriminator 3 view .LVU244
 379:../../main_full/voc_task.c ****         }
 1007              		.loc 1 379 11 discriminator 3 view .LVU245
 1008 0178 FFF7FEFF 		bl	VocTaskVQPost		@
 1009              	.LVL74:
 1010 017c 51E7     		b	.L65		@
 1011              	.L144:
 174:../../main_full/voc_task.c ****         }
 1012              		.loc 1 174 11 view .LVU246
 1013 017e 5846     		mov	r0, fp	@, tmp191
ARM GAS  /tmp/ccAD7eaF.s 			page 34


 1014 0180 FFF7FEFF 		bl	MApi_VOC_NotifyStatus		@
 1015              	.LVL75:
 1016 0184 72E7     		b	.L68		@
 1017              	.L147:
 418:../../main_full/voc_task.c ****           //VocTaskVQPost();
 1018              		.loc 1 418 11 view .LVU247
 1019 0186 5F21     		movs	r1, #95	@,
 1020 0188 2868     		ldr	r0, [r5]	@, _tVocProcEvent
 1021 018a FFF7FEFF 		bl	xEventGroupClearBits		@
 1022              	.LVL76:
 420:../../main_full/voc_task.c ****         }
 1023              		.loc 1 420 11 view .LVU248
 1024              	@ ../../main_full/voc_task.c:420:           err_try_again = 0;
 420:../../main_full/voc_task.c ****         }
 1025              		.loc 1 420 25 is_stmt 0 view .LVU249
 1026 018e 0023     		movs	r3, #0	@ tmp299,
 1027 0190 CAF80030 		str	r3, [r10]	@ tmp299, err_try_again
 1028 0194 83E7     		b	.L89		@
 1029              	.LVL77:
 1030              	.L81:
 348:../../main_full/voc_task.c ****         {
 1031              		.loc 1 348 9 is_stmt 1 view .LVU250
 1032              	@ ../../main_full/voc_task.c:348:         if (uxBits & ebBIT_VD)
 348:../../main_full/voc_task.c ****         {
 1033              		.loc 1 348 12 is_stmt 0 view .LVU251
 1034 0196 6307     		lsls	r3, r4, #29	@, uxBits,
 1035 0198 31D4     		bmi	.L156		@,
 352:../../main_full/voc_task.c ****         {
 1036              		.loc 1 352 14 is_stmt 1 view .LVU252
 1037              	@ ../../main_full/voc_task.c:352:         else if (uxBits & (ebBIT_VQ | ebBIT_VS))
 352:../../main_full/voc_task.c ****         {
 1038              		.loc 1 352 17 is_stmt 0 view .LVU253
 1039 019a 14F0120F 		tst	r4, #18	@ uxBits,
 1040 019e D5D0     		beq	.L82		@,
 354:../../main_full/voc_task.c ****           {
 1041              		.loc 1 354 11 is_stmt 1 view .LVU254
 1042              	@ ../../main_full/voc_task.c:354:           if (xStreamBufferIsFull(_tVocStreamBuffer))
 354:../../main_full/voc_task.c ****           {
 1043              		.loc 1 354 15 is_stmt 0 view .LVU255
 1044 01a0 2B4B     		ldr	r3, .L157+16	@ tmp326,
 1045 01a2 1868     		ldr	r0, [r3]	@, _tVocStreamBuffer
 1046              	.LVL78:
 354:../../main_full/voc_task.c ****           {
 1047              		.loc 1 354 15 view .LVU256
 1048 01a4 FFF7FEFF 		bl	xStreamBufferIsFull		@
 1049              	.LVL79:
 1050              	@ ../../main_full/voc_task.c:354:           if (xStreamBufferIsFull(_tVocStreamBuffer))
 354:../../main_full/voc_task.c ****           {
 1051              		.loc 1 354 14 view .LVU257
 1052 01a8 0028     		cmp	r0, #0	@
 1053 01aa CFD0     		beq	.L82	@
 356:../../main_full/voc_task.c ****           }
 1054              		.loc 1 356 13 is_stmt 1 view .LVU258
 1055 01ac 0421     		movs	r1, #4	@,
 1056 01ae 3868     		ldr	r0, [r7]	@, _tVdTaskEvent
 1057 01b0 FFF7FEFF 		bl	xEventGroupSetBits		@
 1058              	.LVL80:
ARM GAS  /tmp/ccAD7eaF.s 			page 35


 1059 01b4 CAE7     		b	.L82		@
 1060              	.L154:
 315:../../main_full/voc_task.c ****         if(!bRet)
 1061              		.loc 1 315 9 view .LVU259
 1062              	@ ../../main_full/voc_task.c:315:         bRet = MApi_VOC_VPPort(_ps16VocTaskPcmBuf, &u32ReturnCoun
 315:../../main_full/voc_task.c ****         if(!bRet)
 1063              		.loc 1 315 16 is_stmt 0 view .LVU260
 1064 01b6 03A9     		add	r1, sp, #12	@ tmp324,,
 1065 01b8 3046     		mov	r0, r6	@, tmp315
 1066 01ba FFF7FEFF 		bl	MApi_VOC_VPPort		@
 1067              	.LVL81:
 316:../../main_full/voc_task.c ****         {
 1068              		.loc 1 316 9 is_stmt 1 view .LVU261
 1069              	@ ../../main_full/voc_task.c:316:         if(!bRet)
 316:../../main_full/voc_task.c ****         {
 1070              		.loc 1 316 11 is_stmt 0 view .LVU262
 1071 01be 0028     		cmp	r0, #0	@
 1072 01c0 B4D1     		bne	.L79	@
 318:../../main_full/voc_task.c ****           VOC_ERROR("MApi_VOC_VPPort: VP process failed\n");
 1073              		.loc 1 318 11 is_stmt 1 view .LVU263
 1074 01c2 0821     		movs	r1, #8	@,
 1075 01c4 2868     		ldr	r0, [r5]	@, _tVocProcEvent
 1076              	.LVL82:
 318:../../main_full/voc_task.c ****           VOC_ERROR("MApi_VOC_VPPort: VP process failed\n");
 1077              		.loc 1 318 11 is_stmt 0 view .LVU264
 1078 01c6 FFF7FEFF 		bl	xEventGroupClearBits		@
 1079              	.LVL83:
 319:../../main_full/voc_task.c ****         }
 1080              		.loc 1 319 11 is_stmt 1 view .LVU265
 1081 01ca D9F80030 		ldr	r3, [r9]	@ gu32MosDbgLevel, gu32MosDbgLevel
 1082 01ce DA07     		lsls	r2, r3, #31	@, gu32MosDbgLevel,
 1083 01d0 ACD5     		bpl	.L79		@,
 319:../../main_full/voc_task.c ****         }
 1084              		.loc 1 319 11 discriminator 1 view .LVU266
 1085 01d2 2248     		ldr	r0, .L157+28	@,
 1086 01d4 FFF7FEFF 		bl	UartSendTrace		@
 1087              	.LVL84:
 1088 01d8 A8E7     		b	.L79		@
 1089              	.L153:
 280:../../main_full/voc_task.c ****         if(!bRet)
 1090              		.loc 1 280 9 view .LVU267
 1091              	@ ../../main_full/voc_task.c:280:         bRet = MApi_VOC_VPPort(_ps16VocTaskPcmBuf, &u32ReturnCoun
 280:../../main_full/voc_task.c ****         if(!bRet)
 1092              		.loc 1 280 16 is_stmt 0 view .LVU268
 1093 01da 03A9     		add	r1, sp, #12	@ tmp323,,
 1094 01dc 3046     		mov	r0, r6	@, tmp315
 1095 01de FFF7FEFF 		bl	MApi_VOC_VPPort		@
 1096              	.LVL85:
 281:../../main_full/voc_task.c ****         {
 1097              		.loc 1 281 9 is_stmt 1 view .LVU269
 1098              	@ ../../main_full/voc_task.c:281:         if(!bRet)
 281:../../main_full/voc_task.c ****         {
 1099              		.loc 1 281 11 is_stmt 0 view .LVU270
 1100 01e2 0028     		cmp	r0, #0	@
 1101 01e4 A0D1     		bne	.L76	@
 283:../../main_full/voc_task.c ****           VOC_ERROR("MApi_VOC_VPPort: VP process test failed\n");
 1102              		.loc 1 283 11 is_stmt 1 view .LVU271
ARM GAS  /tmp/ccAD7eaF.s 			page 36


 1103 01e6 8021     		movs	r1, #128	@,
 1104 01e8 2868     		ldr	r0, [r5]	@, _tVocProcEvent
 1105              	.LVL86:
 283:../../main_full/voc_task.c ****           VOC_ERROR("MApi_VOC_VPPort: VP process test failed\n");
 1106              		.loc 1 283 11 is_stmt 0 view .LVU272
 1107 01ea FFF7FEFF 		bl	xEventGroupClearBits		@
 1108              	.LVL87:
 284:../../main_full/voc_task.c ****         }
 1109              		.loc 1 284 11 is_stmt 1 view .LVU273
 1110 01ee D9F80030 		ldr	r3, [r9]	@ gu32MosDbgLevel, gu32MosDbgLevel
 1111 01f2 D807     		lsls	r0, r3, #31	@, gu32MosDbgLevel,
 1112 01f4 98D5     		bpl	.L76		@,
 284:../../main_full/voc_task.c ****         }
 1113              		.loc 1 284 11 discriminator 1 view .LVU274
 1114 01f6 1A48     		ldr	r0, .L157+32	@,
 1115 01f8 FFF7FEFF 		bl	UartSendTrace		@
 1116              	.LVL88:
 1117 01fc 94E7     		b	.L76		@
 1118              	.LVL89:
 1119              	.L156:
 350:../../main_full/voc_task.c ****         }
 1120              		.loc 1 350 11 view .LVU275
 1121 01fe 0221     		movs	r1, #2	@,
 1122 0200 3868     		ldr	r0, [r7]	@, _tVdTaskEvent
 1123              	.LVL90:
 350:../../main_full/voc_task.c ****         }
 1124              		.loc 1 350 11 is_stmt 0 view .LVU276
 1125 0202 FFF7FEFF 		bl	xEventGroupSetBits		@
 1126              	.LVL91:
 1127 0206 A1E7     		b	.L82		@
 1128              	.LVL92:
 1129              	.L151:
 243:../../main_full/voc_task.c ****       }
 1130              		.loc 1 243 9 is_stmt 1 discriminator 1 view .LVU277
 1131 0208 1648     		ldr	r0, .L157+36	@,
 1132              	.LVL93:
 243:../../main_full/voc_task.c ****       }
 1133              		.loc 1 243 9 is_stmt 0 discriminator 1 view .LVU278
 1134 020a FFF7FEFF 		bl	UartSendTrace		@
 1135              	.LVL94:
 1136 020e 80E7     		b	.L73		@
 1137              	.LVL95:
 1138              	.L152:
 274:../../main_full/voc_task.c ****       }
 1139              		.loc 1 274 9 is_stmt 1 discriminator 1 view .LVU279
 1140 0210 1548     		ldr	r0, .L157+40	@,
 1141              	.LVL96:
 274:../../main_full/voc_task.c ****       }
 1142              		.loc 1 274 9 is_stmt 0 discriminator 1 view .LVU280
 1143 0212 FFF7FEFF 		bl	UartSendTrace		@
 1144              	.LVL97:
 1145 0216 85E7     		b	.L74		@
 1146              	.LVL98:
 1147              	.L149:
 208:../../main_full/voc_task.c ****       }
 1148              		.loc 1 208 9 is_stmt 1 discriminator 1 view .LVU281
 1149 0218 1448     		ldr	r0, .L157+44	@,
ARM GAS  /tmp/ccAD7eaF.s 			page 37


 1150              	.LVL99:
 208:../../main_full/voc_task.c ****       }
 1151              		.loc 1 208 9 is_stmt 0 discriminator 1 view .LVU282
 1152 021a FFF7FEFF 		bl	UartSendTrace		@
 1153              	.LVL100:
 1154 021e 61E7     		b	.L71		@
 1155              	.L150:
 236:../../main_full/voc_task.c ****       }
 1156              		.loc 1 236 9 is_stmt 1 discriminator 1 view .LVU283
 1157 0220 1348     		ldr	r0, .L157+48	@,
 1158 0222 FFF7FEFF 		bl	UartSendTrace		@
 1159              	.LVL101:
 1160 0226 69E7     		b	.L72		@
 1161              	.L155:
 378:../../main_full/voc_task.c ****           VocTaskVQPost();
 1162              		.loc 1 378 11 discriminator 1 view .LVU284
 1163 0228 FFF7FEFF 		bl	xTaskGetTickCount		@
 1164              	.LVL102:
 1165 022c 0146     		mov	r1, r0	@,
 1166 022e 1148     		ldr	r0, .L157+52	@,
 1167 0230 FFF7FEFF 		bl	UartSendTrace		@
 1168              	.LVL103:
 1169 0234 A0E7     		b	.L87		@
 1170              	.LVL104:
 1171              	.L143:
 147:../../main_full/voc_task.c **** 
 1172              		.loc 1 147 3 discriminator 1 view .LVU285
 1173 0236 1048     		ldr	r0, .L157+56	@,
 1174              	.LVL105:
 147:../../main_full/voc_task.c **** 
 1175              		.loc 1 147 3 is_stmt 0 discriminator 1 view .LVU286
 1176 0238 FFF7FEFF 		bl	UartSendTrace		@
 1177              	.LVL106:
 1178 023c EAE6     		b	.L64		@
 1179              	.L158:
 1180 023e 00BF     		.align	2
 1181              	.L157:
 1182 0240 00000000 		.word	.LANCHOR4
 1183 0244 00000000 		.word	.LANCHOR0
 1184 0248 00000000 		.word	_ps16VocTaskPcmBuf
 1185 024c 60010000 		.word	.LC17
 1186 0250 00000000 		.word	.LANCHOR1
 1187 0254 00000000 		.word	.LANCHOR6
 1188 0258 18010000 		.word	.LC15
 1189 025c E8000000 		.word	.LC14
 1190 0260 B4000000 		.word	.LC13
 1191 0264 6C000000 		.word	.LC11
 1192 0268 90000000 		.word	.LC12
 1193 026c 1C000000 		.word	.LC9
 1194 0270 48000000 		.word	.LC10
 1195 0274 2C010000 		.word	.LC16
 1196 0278 00000000 		.word	.LC8
 1197 027c 00000000 		.word	gu32MosDbgLevel
 1198 0280 00000000 		.word	.LANCHOR5
 1199 0284 00000000 		.word	.LANCHOR7
 1200              		.cfi_endproc
 1201              	.LFE138:
ARM GAS  /tmp/ccAD7eaF.s 			page 38


 1202              		.size	prvVocProcTask, .-prvVocProcTask
 1203              		.section	.text.VocTaskRegisterCusFunc,"ax",%progbits
 1204              		.align	1
 1205              		.p2align 2,,3
 1206              		.global	VocTaskRegisterCusFunc
 1207              		.syntax unified
 1208              		.thumb
 1209              		.thumb_func
 1210              		.fpu fpv4-sp-d16
 1211              		.type	VocTaskRegisterCusFunc, %function
 1212              	VocTaskRegisterCusFunc:
 1213              	.LVL107:
 1214              	.LFB141:
 488:../../main_full/voc_task.c ****   if (!(xEventGroupGetBits(_tVocProcEvent) & ebBIT_TEST))
 1215              		.loc 1 488 1 is_stmt 1 view -0
 1216              		.cfi_startproc
 1217              		@ args = 0, pretend = 0, frame = 0
 1218              		@ frame_needed = 0, uses_anonymous_args = 0
 489:../../main_full/voc_task.c ****   {
 1219              		.loc 1 489 3 view .LVU288
 1220              	@ ../../main_full/voc_task.c:489:   if (!(xEventGroupGetBits(_tVocProcEvent) & ebBIT_TEST))
 489:../../main_full/voc_task.c ****   {
 1221              		.loc 1 489 9 is_stmt 0 view .LVU289
 1222 0000 0D4B     		ldr	r3, .L170	@ tmp119,
 1223              	@ ../../main_full/voc_task.c:488: {
 488:../../main_full/voc_task.c ****   if (!(xEventGroupGetBits(_tVocProcEvent) & ebBIT_TEST))
 1224              		.loc 1 488 1 view .LVU290
 1225 0002 10B5     		push	{r4, lr}	@
 1226              		.cfi_def_cfa_offset 8
 1227              		.cfi_offset 4, -8
 1228              		.cfi_offset 14, -4
 1229              	@ ../../main_full/voc_task.c:489:   if (!(xEventGroupGetBits(_tVocProcEvent) & ebBIT_TEST))
 489:../../main_full/voc_task.c ****   {
 1230              		.loc 1 489 9 view .LVU291
 1231 0004 0021     		movs	r1, #0	@,
 1232              	@ ../../main_full/voc_task.c:488: {
 488:../../main_full/voc_task.c ****   if (!(xEventGroupGetBits(_tVocProcEvent) & ebBIT_TEST))
 1233              		.loc 1 488 1 view .LVU292
 1234 0006 0446     		mov	r4, r0	@ pdfFunc, pdfFunc
 1235              	@ ../../main_full/voc_task.c:489:   if (!(xEventGroupGetBits(_tVocProcEvent) & ebBIT_TEST))
 489:../../main_full/voc_task.c ****   {
 1236              		.loc 1 489 9 view .LVU293
 1237 0008 1868     		ldr	r0, [r3]	@, _tVocProcEvent
 1238              	.LVL108:
 489:../../main_full/voc_task.c ****   {
 1239              		.loc 1 489 9 view .LVU294
 1240 000a FFF7FEFF 		bl	xEventGroupClearBits		@
 1241              	.LVL109:
 1242              	@ ../../main_full/voc_task.c:492:     VOC_MSG("VocTaskRegisterCusFunc: 0x%x\n", (U32)_pdfVocProcCus
 492:../../main_full/voc_task.c ****   }
 1243              		.loc 1 492 5 view .LVU295
 1244 000e 0B4B     		ldr	r3, .L170+4	@ tmp122,
 1245              	@ ../../main_full/voc_task.c:489:   if (!(xEventGroupGetBits(_tVocProcEvent) & ebBIT_TEST))
 489:../../main_full/voc_task.c ****   {
 1246              		.loc 1 489 6 view .LVU296
 1247 0010 4106     		lsls	r1, r0, #25	@,,
 1248              	@ ../../main_full/voc_task.c:492:     VOC_MSG("VocTaskRegisterCusFunc: 0x%x\n", (U32)_pdfVocProcCus
ARM GAS  /tmp/ccAD7eaF.s 			page 39


 492:../../main_full/voc_task.c ****   }
 1249              		.loc 1 492 5 view .LVU297
 1250 0012 1B68     		ldr	r3, [r3]	@ gu32MosDbgLevel, gu32MosDbgLevel
 1251              	@ ../../main_full/voc_task.c:489:   if (!(xEventGroupGetBits(_tVocProcEvent) & ebBIT_TEST))
 489:../../main_full/voc_task.c ****   {
 1252              		.loc 1 489 6 view .LVU298
 1253 0014 02D4     		bmi	.L160		@,
 491:../../main_full/voc_task.c ****     VOC_MSG("VocTaskRegisterCusFunc: 0x%x\n", (U32)_pdfVocProcCusFunc);
 1254              		.loc 1 491 5 is_stmt 1 view .LVU299
 492:../../main_full/voc_task.c ****   }
 1255              		.loc 1 492 5 view .LVU300
 1256 0016 9A07     		lsls	r2, r3, #30	@, gu32MosDbgLevel,
 1257 0018 07D4     		bmi	.L169		@,
 1258              	.L159:
 1259              	@ ../../main_full/voc_task.c:496: }
 496:../../main_full/voc_task.c **** 
 1260              		.loc 1 496 1 is_stmt 0 view .LVU301
 1261 001a 10BD     		pop	{r4, pc}	@
 1262              	.LVL110:
 1263              	.L160:
 495:../../main_full/voc_task.c **** }
 1264              		.loc 1 495 5 is_stmt 1 view .LVU302
 1265 001c DB07     		lsls	r3, r3, #31	@, gu32MosDbgLevel,
 1266 001e FCD5     		bpl	.L159		@,
 495:../../main_full/voc_task.c **** }
 1267              		.loc 1 495 5 discriminator 1 view .LVU303
 1268 0020 0748     		ldr	r0, .L170+8	@,
 1269              	@ ../../main_full/voc_task.c:496: }
 496:../../main_full/voc_task.c **** 
 1270              		.loc 1 496 1 is_stmt 0 discriminator 1 view .LVU304
 1271 0022 BDE81040 		pop	{r4, lr}	@
 1272              		.cfi_remember_state
 1273              		.cfi_restore 14
 1274              		.cfi_restore 4
 1275              		.cfi_def_cfa_offset 0
 1276              	.LVL111:
 1277              	@ ../../main_full/voc_task.c:495:     VOC_ERROR("VocTaskRegisterCusFunc failed: State not match\n")
 495:../../main_full/voc_task.c **** }
 1278              		.loc 1 495 5 discriminator 1 view .LVU305
 1279 0026 FFF7FEBF 		b	UartSendTrace		@
 1280              	.LVL112:
 1281              	.L169:
 1282              		.cfi_restore_state
 492:../../main_full/voc_task.c ****   }
 1283              		.loc 1 492 5 is_stmt 1 discriminator 1 view .LVU306
 1284 002a 2146     		mov	r1, r4	@, pdfFunc
 1285 002c 0548     		ldr	r0, .L170+12	@,
 1286              	@ ../../main_full/voc_task.c:496: }
 496:../../main_full/voc_task.c **** 
 1287              		.loc 1 496 1 is_stmt 0 discriminator 1 view .LVU307
 1288 002e BDE81040 		pop	{r4, lr}	@
 1289              		.cfi_restore 14
 1290              		.cfi_restore 4
 1291              		.cfi_def_cfa_offset 0
 1292              	.LVL113:
 1293              	@ ../../main_full/voc_task.c:492:     VOC_MSG("VocTaskRegisterCusFunc: 0x%x\n", (U32)_pdfVocProcCus
 492:../../main_full/voc_task.c ****   }
ARM GAS  /tmp/ccAD7eaF.s 			page 40


 1294              		.loc 1 492 5 discriminator 1 view .LVU308
 1295 0032 FFF7FEBF 		b	UartSendTrace		@
 1296              	.LVL114:
 1297              	.L171:
 492:../../main_full/voc_task.c ****   }
 1298              		.loc 1 492 5 discriminator 1 view .LVU309
 1299 0036 00BF     		.align	2
 1300              	.L170:
 1301 0038 00000000 		.word	.LANCHOR4
 1302 003c 00000000 		.word	gu32MosDbgLevel
 1303 0040 24000000 		.word	.LC19
 1304 0044 00000000 		.word	.LC18
 1305              		.cfi_endproc
 1306              	.LFE141:
 1307              		.size	VocTaskRegisterCusFunc, .-VocTaskRegisterCusFunc
 1308              		.section	.text.VocTaskReset,"ax",%progbits
 1309              		.align	1
 1310              		.p2align 2,,3
 1311              		.global	VocTaskReset
 1312              		.syntax unified
 1313              		.thumb
 1314              		.thumb_func
 1315              		.fpu fpv4-sp-d16
 1316              		.type	VocTaskReset, %function
 1317              	VocTaskReset:
 1318              	.LFB142:
 499:../../main_full/voc_task.c ****   xEventGroupSetBits(_tVocProcEvent, ebBIT_RESET);
 1319              		.loc 1 499 1 is_stmt 1 view -0
 1320              		.cfi_startproc
 1321              		@ args = 0, pretend = 0, frame = 0
 1322              		@ frame_needed = 0, uses_anonymous_args = 0
 500:../../main_full/voc_task.c ****   xSemaphoreTake(_tVocSyncSem, portMAX_DELAY);
 1323              		.loc 1 500 3 view .LVU311
 1324              	@ ../../main_full/voc_task.c:499: {
 499:../../main_full/voc_task.c ****   xEventGroupSetBits(_tVocProcEvent, ebBIT_RESET);
 1325              		.loc 1 499 1 is_stmt 0 view .LVU312
 1326 0000 08B5     		push	{r3, lr}	@
 1327              		.cfi_def_cfa_offset 8
 1328              		.cfi_offset 3, -8
 1329              		.cfi_offset 14, -4
 1330              	@ ../../main_full/voc_task.c:500:   xEventGroupSetBits(_tVocProcEvent, ebBIT_RESET);
 500:../../main_full/voc_task.c ****   xSemaphoreTake(_tVocSyncSem, portMAX_DELAY);
 1331              		.loc 1 500 3 view .LVU313
 1332 0002 064B     		ldr	r3, .L174	@ tmp112,
 1333 0004 0121     		movs	r1, #1	@,
 1334 0006 1868     		ldr	r0, [r3]	@, _tVocProcEvent
 1335 0008 FFF7FEFF 		bl	xEventGroupSetBits		@
 1336              	.LVL115:
 501:../../main_full/voc_task.c **** }
 1337              		.loc 1 501 3 is_stmt 1 view .LVU314
 1338 000c 044B     		ldr	r3, .L174+4	@ tmp114,
 1339 000e 4FF0FF31 		mov	r1, #-1	@,
 1340 0012 1868     		ldr	r0, [r3]	@, _tVocSyncSem
 1341              	@ ../../main_full/voc_task.c:502: }
 502:../../main_full/voc_task.c **** 
 1342              		.loc 1 502 1 is_stmt 0 view .LVU315
 1343 0014 BDE80840 		pop	{r3, lr}	@
ARM GAS  /tmp/ccAD7eaF.s 			page 41


 1344              		.cfi_restore 14
 1345              		.cfi_restore 3
 1346              		.cfi_def_cfa_offset 0
 1347              	@ ../../main_full/voc_task.c:501:   xSemaphoreTake(_tVocSyncSem, portMAX_DELAY);
 501:../../main_full/voc_task.c **** }
 1348              		.loc 1 501 3 view .LVU316
 1349 0018 FFF7FEBF 		b	xQueueSemaphoreTake		@
 1350              	.LVL116:
 1351              	.L175:
 1352              		.align	2
 1353              	.L174:
 1354 001c 00000000 		.word	.LANCHOR4
 1355 0020 00000000 		.word	.LANCHOR5
 1356              		.cfi_endproc
 1357              	.LFE142:
 1358              		.size	VocTaskReset, .-VocTaskReset
 1359              		.section	.text.VocTaskEnableFunc,"ax",%progbits
 1360              		.align	1
 1361              		.p2align 2,,3
 1362              		.global	VocTaskEnableFunc
 1363              		.syntax unified
 1364              		.thumb
 1365              		.thumb_func
 1366              		.fpu fpv4-sp-d16
 1367              		.type	VocTaskEnableFunc, %function
 1368              	VocTaskEnableFunc:
 1369              	.LVL117:
 1370              	.LFB143:
 505:../../main_full/voc_task.c ****   if(eFunc != E_FUNC_NONE && eFunc < E_FUNC_NUM)
 1371              		.loc 1 505 1 is_stmt 1 view -0
 1372              		.cfi_startproc
 1373              		@ args = 0, pretend = 0, frame = 0
 1374              		@ frame_needed = 0, uses_anonymous_args = 0
 506:../../main_full/voc_task.c ****   {
 1375              		.loc 1 506 3 view .LVU318
 1376              	@ ../../main_full/voc_task.c:506:   if(eFunc != E_FUNC_NONE && eFunc < E_FUNC_NUM)
 506:../../main_full/voc_task.c ****   {
 1377              		.loc 1 506 5 is_stmt 0 view .LVU319
 1378 0000 4A1E     		subs	r2, r1, #1	@ tmp129, eFunc,
 1379 0002 062A     		cmp	r2, #6	@ tmp129,
 1380              	@ ../../main_full/voc_task.c:505: {
 505:../../main_full/voc_task.c ****   if(eFunc != E_FUNC_NONE && eFunc < E_FUNC_NUM)
 1381              		.loc 1 505 1 view .LVU320
 1382 0004 38B5     		push	{r3, r4, r5, lr}	@
 1383              		.cfi_def_cfa_offset 16
 1384              		.cfi_offset 3, -16
 1385              		.cfi_offset 4, -12
 1386              		.cfi_offset 5, -8
 1387              		.cfi_offset 14, -4
 1388              	@ ../../main_full/voc_task.c:506:   if(eFunc != E_FUNC_NONE && eFunc < E_FUNC_NUM)
 506:../../main_full/voc_task.c ****   {
 1389              		.loc 1 506 5 view .LVU321
 1390 0006 17D8     		bhi	.L177		@,
 508:../../main_full/voc_task.c ****     {
 1391              		.loc 1 508 5 is_stmt 1 view .LVU322
 1392 0008 0C46     		mov	r4, r1	@ eFunc, eFunc
 1393              	@ ../../main_full/voc_task.c:508:     if (bEnable)
ARM GAS  /tmp/ccAD7eaF.s 			page 42


 508:../../main_full/voc_task.c ****     {
 1394              		.loc 1 508 8 is_stmt 0 view .LVU323
 1395 000a 58B1     		cbz	r0, .L178	@ bEnable,
 1396              	.LVL118:
 1397              	.LBB37:
 1398              	.LBI37:
 504:../../main_full/voc_task.c **** {
 1399              		.loc 1 504 6 is_stmt 1 view .LVU324
 1400              	.LBB38:
 510:../../main_full/voc_task.c ****       {
 1401              		.loc 1 510 7 view .LVU325
 1402              	@ ../../main_full/voc_task.c:510:       if(eFunc == E_FUNC_VQ)
 510:../../main_full/voc_task.c ****       {
 1403              		.loc 1 510 9 is_stmt 0 view .LVU326
 1404 000c 0129     		cmp	r1, #1	@ eFunc,
 1405 000e 18D0     		beq	.L188		@,
 528:../../main_full/voc_task.c ****       {
 1406              		.loc 1 528 12 is_stmt 1 view .LVU327
 1407 0010 1D4D     		ldr	r5, .L192	@ tmp134,
 1408              	@ ../../main_full/voc_task.c:528:       else if (eFunc == E_FUNC_VD)
 528:../../main_full/voc_task.c ****       {
 1409              		.loc 1 528 15 is_stmt 0 view .LVU328
 1410 0012 0229     		cmp	r1, #2	@ eFunc,
 1411 0014 2868     		ldr	r0, [r5]	@ prephitmp_33, _tVocProcEvent
 1412              	.LVL119:
 528:../../main_full/voc_task.c ****       {
 1413              		.loc 1 528 15 view .LVU329
 1414 0016 27D0     		beq	.L189		@,
 1415              	.LVL120:
 1416              	.L181:
 536:../../main_full/voc_task.c ****     }
 1417              		.loc 1 536 7 is_stmt 1 view .LVU330
 1418              	@ ../../main_full/voc_task.c:536:       xEventGroupSetBits(_tVocProcEvent, (1 << eFunc));
 536:../../main_full/voc_task.c ****     }
 1419              		.loc 1 536 45 is_stmt 0 view .LVU331
 1420 0018 0121     		movs	r1, #1	@ tmp141,
 1421              	@ ../../main_full/voc_task.c:536:       xEventGroupSetBits(_tVocProcEvent, (1 << eFunc));
 536:../../main_full/voc_task.c ****     }
 1422              		.loc 1 536 7 view .LVU332
 1423 001a A140     		lsls	r1, r1, r4	@, tmp141, eFunc
 1424              	.LBE38:
 1425              	.LBE37:
 1426              	@ ../../main_full/voc_task.c:561: }
 561:../../main_full/voc_task.c **** 
 1427              		.loc 1 561 1 view .LVU333
 1428 001c BDE83840 		pop	{r3, r4, r5, lr}	@
 1429              		.cfi_remember_state
 1430              		.cfi_restore 14
 1431              		.cfi_restore 5
 1432              		.cfi_restore 4
 1433              		.cfi_restore 3
 1434              		.cfi_def_cfa_offset 0
 1435              	.LBB42:
 1436              	.LBB39:
 1437              	@ ../../main_full/voc_task.c:536:       xEventGroupSetBits(_tVocProcEvent, (1 << eFunc));
 536:../../main_full/voc_task.c ****     }
 1438              		.loc 1 536 7 view .LVU334
ARM GAS  /tmp/ccAD7eaF.s 			page 43


 1439 0020 FFF7FEBF 		b	xEventGroupSetBits		@
 1440              	.LVL121:
 1441              	.L178:
 1442              		.cfi_restore_state
 536:../../main_full/voc_task.c ****     }
 1443              		.loc 1 536 7 view .LVU335
 1444              	.LBE39:
 1445              	.LBE42:
 540:../../main_full/voc_task.c ****       {
 1446              		.loc 1 540 7 is_stmt 1 view .LVU336
 1447              	@ ../../main_full/voc_task.c:540:       if(eFunc == E_FUNC_VD)
 540:../../main_full/voc_task.c ****       {
 1448              		.loc 1 540 9 is_stmt 0 view .LVU337
 1449 0024 0229     		cmp	r1, #2	@ eFunc,
 1450 0026 13D0     		beq	.L190		@,
 1451              	.LVL122:
 1452              	.L183:
 554:../../main_full/voc_task.c **** 
 1453              		.loc 1 554 7 is_stmt 1 view .LVU338
 556:../../main_full/voc_task.c ****     }
 1454              		.loc 1 556 7 view .LVU339
 1455 0028 174B     		ldr	r3, .L192	@ tmp146,
 1456              	@ ../../main_full/voc_task.c:556:       xEventGroupClearBits(_tVocProcEvent, (1 << eFunc));
 556:../../main_full/voc_task.c ****     }
 1457              		.loc 1 556 47 is_stmt 0 view .LVU340
 1458 002a 0121     		movs	r1, #1	@ tmp145,
 1459              	@ ../../main_full/voc_task.c:556:       xEventGroupClearBits(_tVocProcEvent, (1 << eFunc));
 556:../../main_full/voc_task.c ****     }
 1460              		.loc 1 556 7 view .LVU341
 1461 002c 1868     		ldr	r0, [r3]	@, _tVocProcEvent
 1462 002e A140     		lsls	r1, r1, r4	@, tmp145, eFunc
 1463              	@ ../../main_full/voc_task.c:561: }
 561:../../main_full/voc_task.c **** 
 1464              		.loc 1 561 1 view .LVU342
 1465 0030 BDE83840 		pop	{r3, r4, r5, lr}	@
 1466              		.cfi_remember_state
 1467              		.cfi_restore 14
 1468              		.cfi_restore 5
 1469              		.cfi_restore 4
 1470              		.cfi_restore 3
 1471              		.cfi_def_cfa_offset 0
 1472              	@ ../../main_full/voc_task.c:556:       xEventGroupClearBits(_tVocProcEvent, (1 << eFunc));
 556:../../main_full/voc_task.c ****     }
 1473              		.loc 1 556 7 view .LVU343
 1474 0034 FFF7FEBF 		b	xEventGroupClearBits		@
 1475              	.LVL123:
 1476              	.L177:
 1477              		.cfi_restore_state
 560:../../main_full/voc_task.c **** }
 1478              		.loc 1 560 5 is_stmt 1 view .LVU344
 1479 0038 144B     		ldr	r3, .L192+4	@ tmp148,
 1480 003a 1B68     		ldr	r3, [r3]	@ gu32MosDbgLevel, gu32MosDbgLevel
 1481 003c DB07     		lsls	r3, r3, #31	@, gu32MosDbgLevel,
 1482 003e 0ED4     		bmi	.L191		@,
 1483              	@ ../../main_full/voc_task.c:561: }
 561:../../main_full/voc_task.c **** 
 1484              		.loc 1 561 1 is_stmt 0 view .LVU345
ARM GAS  /tmp/ccAD7eaF.s 			page 44


 1485 0040 38BD     		pop	{r3, r4, r5, pc}	@
 1486              	.LVL124:
 1487              	.L188:
 1488              	.LBB43:
 1489              	.LBB40:
 512:../../main_full/voc_task.c ****           MDrv_PM_Suspend();
 1490              		.loc 1 512 9 is_stmt 1 view .LVU346
 1491              	@ ../../main_full/voc_task.c:512:         if (_eVocVQMode == E_VQ_MODE_PM)
 512:../../main_full/voc_task.c ****           MDrv_PM_Suspend();
 1492              		.loc 1 512 25 is_stmt 0 view .LVU347
 1493 0042 134B     		ldr	r3, .L192+8	@ tmp130,
 1494              	@ ../../main_full/voc_task.c:512:         if (_eVocVQMode == E_VQ_MODE_PM)
 512:../../main_full/voc_task.c ****           MDrv_PM_Suspend();
 1495              		.loc 1 512 12 view .LVU348
 1496 0044 1B78     		ldrb	r3, [r3]	@ zero_extendqisi2	@ _eVocVQMode, _eVocVQMode
 1497 0046 022B     		cmp	r3, #2	@ _eVocVQMode,
 1498 0048 15D0     		beq	.L180		@,
 1499              	.LVL125:
 1500              	.L186:
 512:../../main_full/voc_task.c ****           MDrv_PM_Suspend();
 1501              		.loc 1 512 12 view .LVU349
 1502 004a 0F4B     		ldr	r3, .L192	@ tmp133,
 1503 004c 1868     		ldr	r0, [r3]	@ prephitmp_33, _tVocProcEvent
 1504 004e E3E7     		b	.L181		@
 1505              	.LVL126:
 1506              	.L190:
 512:../../main_full/voc_task.c ****           MDrv_PM_Suspend();
 1507              		.loc 1 512 12 view .LVU350
 1508              	.LBE40:
 1509              	.LBE43:
 542:../../main_full/voc_task.c ****         MApi_VOC_VDReset();
 1510              		.loc 1 542 9 is_stmt 1 view .LVU351
 1511 0050 104B     		ldr	r3, .L192+12	@ tmp142,
 1512 0052 1868     		ldr	r0, [r3]	@, _tVdTaskEvent
 1513              	.LVL127:
 542:../../main_full/voc_task.c ****         MApi_VOC_VDReset();
 1514              		.loc 1 542 9 is_stmt 0 view .LVU352
 1515 0054 FFF7FEFF 		bl	xEventGroupClearBits		@
 1516              	.LVL128:
 543:../../main_full/voc_task.c ****       }
 1517              		.loc 1 543 9 is_stmt 1 view .LVU353
 1518 0058 FFF7FEFF 		bl	MApi_VOC_VDReset		@
 1519              	.LVL129:
 1520 005c E4E7     		b	.L183		@
 1521              	.LVL130:
 1522              	.L191:
 560:../../main_full/voc_task.c **** }
 1523              		.loc 1 560 5 discriminator 1 view .LVU354
 1524 005e 0E48     		ldr	r0, .L192+16	@,
 1525              	.LVL131:
 1526              	@ ../../main_full/voc_task.c:561: }
 561:../../main_full/voc_task.c **** 
 1527              		.loc 1 561 1 is_stmt 0 discriminator 1 view .LVU355
 1528 0060 BDE83840 		pop	{r3, r4, r5, lr}	@
 1529              		.cfi_remember_state
 1530              		.cfi_restore 14
 1531              		.cfi_restore 5
ARM GAS  /tmp/ccAD7eaF.s 			page 45


 1532              		.cfi_restore 4
 1533              		.cfi_restore 3
 1534              		.cfi_def_cfa_offset 0
 1535              	@ ../../main_full/voc_task.c:560:     VOC_ERROR("VocTaskEnableFunc failed: parameter error\n");
 560:../../main_full/voc_task.c **** }
 1536              		.loc 1 560 5 discriminator 1 view .LVU356
 1537 0064 FFF7FEBF 		b	UartSendTrace		@
 1538              	.LVL132:
 1539              	.L189:
 1540              		.cfi_restore_state
 1541              	.LBB44:
 1542              	.LBB41:
 530:../../main_full/voc_task.c ****           xEventGroupClearBits(_tVocProcEvent, ebBIT_VS); //turn off seamless
 1543              		.loc 1 530 9 is_stmt 1 view .LVU357
 1544              	@ ../../main_full/voc_task.c:530:         if (xEventGroupGetBits(_tVocProcEvent) & ebBIT_VS)
 530:../../main_full/voc_task.c ****           xEventGroupClearBits(_tVocProcEvent, ebBIT_VS); //turn off seamless
 1545              		.loc 1 530 13 is_stmt 0 view .LVU358
 1546 0068 0021     		movs	r1, #0	@,
 1547              	.LVL133:
 530:../../main_full/voc_task.c ****           xEventGroupClearBits(_tVocProcEvent, ebBIT_VS); //turn off seamless
 1548              		.loc 1 530 13 view .LVU359
 1549 006a FFF7FEFF 		bl	xEventGroupClearBits		@
 1550              	.LVL134:
 1551              	@ ../../main_full/voc_task.c:530:         if (xEventGroupGetBits(_tVocProcEvent) & ebBIT_VS)
 530:../../main_full/voc_task.c ****           xEventGroupClearBits(_tVocProcEvent, ebBIT_VS); //turn off seamless
 1552              		.loc 1 530 12 view .LVU360
 1553 006e C206     		lsls	r2, r0, #27	@,,
 1554 0070 04D4     		bmi	.L182		@,
 1555              	.L187:
 1556 0072 2868     		ldr	r0, [r5]	@ prephitmp_33, _tVocProcEvent
 1557 0074 D0E7     		b	.L181		@
 1558              	.LVL135:
 1559              	.L180:
 513:../../main_full/voc_task.c **** #if defined(CONFIG_VOC_SW_VAD)
 1560              		.loc 1 513 11 is_stmt 1 view .LVU361
 1561 0076 FFF7FEFF 		bl	MDrv_PM_Suspend		@
 1562              	.LVL136:
 513:../../main_full/voc_task.c **** #if defined(CONFIG_VOC_SW_VAD)
 1563              		.loc 1 513 11 is_stmt 0 view .LVU362
 1564 007a E6E7     		b	.L186		@
 1565              	.L182:
 531:../../main_full/voc_task.c **** 
 1566              		.loc 1 531 11 is_stmt 1 view .LVU363
 1567 007c 1021     		movs	r1, #16	@,
 1568 007e 2868     		ldr	r0, [r5]	@, _tVocProcEvent
 1569 0080 FFF7FEFF 		bl	xEventGroupClearBits		@
 1570              	.LVL137:
 1571 0084 F5E7     		b	.L187		@
 1572              	.L193:
 1573 0086 00BF     		.align	2
 1574              	.L192:
 1575 0088 00000000 		.word	.LANCHOR4
 1576 008c 00000000 		.word	gu32MosDbgLevel
 1577 0090 00000000 		.word	.LANCHOR3
 1578 0094 00000000 		.word	.LANCHOR0
 1579 0098 00000000 		.word	.LC20
 1580              	.LBE41:
ARM GAS  /tmp/ccAD7eaF.s 			page 46


 1581              	.LBE44:
 1582              		.cfi_endproc
 1583              	.LFE143:
 1584              		.size	VocTaskEnableFunc, .-VocTaskEnableFunc
 1585              		.section	.text.VocTaskIsEnableFunc,"ax",%progbits
 1586              		.align	1
 1587              		.p2align 2,,3
 1588              		.global	VocTaskIsEnableFunc
 1589              		.syntax unified
 1590              		.thumb
 1591              		.thumb_func
 1592              		.fpu fpv4-sp-d16
 1593              		.type	VocTaskIsEnableFunc, %function
 1594              	VocTaskIsEnableFunc:
 1595              	.LVL138:
 1596              	.LFB144:
 564:../../main_full/voc_task.c ****   if (eFunc != E_FUNC_NONE && eFunc < E_FUNC_NUM)
 1597              		.loc 1 564 1 view -0
 1598              		.cfi_startproc
 1599              		@ args = 0, pretend = 0, frame = 0
 1600              		@ frame_needed = 0, uses_anonymous_args = 0
 565:../../main_full/voc_task.c ****   {
 1601              		.loc 1 565 3 view .LVU365
 1602              	@ ../../main_full/voc_task.c:565:   if (eFunc != E_FUNC_NONE && eFunc < E_FUNC_NUM)
 565:../../main_full/voc_task.c ****   {
 1603              		.loc 1 565 6 is_stmt 0 view .LVU366
 1604 0000 431E     		subs	r3, r0, #1	@ tmp122, eFunc,
 1605 0002 062B     		cmp	r3, #6	@ tmp122,
 1606              	@ ../../main_full/voc_task.c:564: {
 564:../../main_full/voc_task.c ****   if (eFunc != E_FUNC_NONE && eFunc < E_FUNC_NUM)
 1607              		.loc 1 564 1 view .LVU367
 1608 0004 10B5     		push	{r4, lr}	@
 1609              		.cfi_def_cfa_offset 8
 1610              		.cfi_offset 4, -8
 1611              		.cfi_offset 14, -4
 1612              	@ ../../main_full/voc_task.c:565:   if (eFunc != E_FUNC_NONE && eFunc < E_FUNC_NUM)
 565:../../main_full/voc_task.c ****   {
 1613              		.loc 1 565 6 view .LVU368
 1614 0006 0AD9     		bls	.L199		@,
 571:../../main_full/voc_task.c ****     return FALSE;
 1615              		.loc 1 571 5 is_stmt 1 view .LVU369
 1616 0008 0A4B     		ldr	r3, .L201	@ tmp130,
 1617 000a 1868     		ldr	r0, [r3]	@ gu32MosDbgLevel, gu32MosDbgLevel
 1618              	.LVL139:
 571:../../main_full/voc_task.c ****     return FALSE;
 1619              		.loc 1 571 5 is_stmt 0 view .LVU370
 1620 000c 10F00100 		ands	r0, r0, #1	@ tmp131, gu32MosDbgLevel,
 1621 0010 00D1     		bne	.L200		@,
 1622              	@ ../../main_full/voc_task.c:574: }
 574:../../main_full/voc_task.c **** 
 1623              		.loc 1 574 1 view .LVU371
 1624 0012 10BD     		pop	{r4, pc}	@
 1625              	.L200:
 571:../../main_full/voc_task.c ****     return FALSE;
 1626              		.loc 1 571 5 is_stmt 1 discriminator 1 view .LVU372
 1627 0014 0848     		ldr	r0, .L201+4	@,
 1628 0016 FFF7FEFF 		bl	UartSendTrace		@
ARM GAS  /tmp/ccAD7eaF.s 			page 47


 1629              	.LVL140:
 1630              	@ ../../main_full/voc_task.c:572:     return FALSE;
 572:../../main_full/voc_task.c ****   }
 1631              		.loc 1 572 12 is_stmt 0 discriminator 1 view .LVU373
 1632 001a 0020     		movs	r0, #0	@ <retval>,
 1633              	@ ../../main_full/voc_task.c:574: }
 574:../../main_full/voc_task.c **** 
 1634              		.loc 1 574 1 discriminator 1 view .LVU374
 1635 001c 10BD     		pop	{r4, pc}	@
 1636              	.LVL141:
 1637              	.L199:
 567:../../main_full/voc_task.c ****   }
 1638              		.loc 1 567 5 is_stmt 1 view .LVU375
 1639              	@ ../../main_full/voc_task.c:567:     return xEventGroupGetBits(_tVocProcEvent) & (1 << eFunc);
 567:../../main_full/voc_task.c ****   }
 1640              		.loc 1 567 12 is_stmt 0 view .LVU376
 1641 001e 074B     		ldr	r3, .L201+8	@ tmp123,
 1642 0020 0446     		mov	r4, r0	@ eFunc, eFunc
 1643 0022 0021     		movs	r1, #0	@,
 1644 0024 1868     		ldr	r0, [r3]	@, _tVocProcEvent
 1645              	.LVL142:
 567:../../main_full/voc_task.c ****   }
 1646              		.loc 1 567 12 view .LVU377
 1647 0026 FFF7FEFF 		bl	xEventGroupClearBits		@
 1648              	.LVL143:
 1649              	@ ../../main_full/voc_task.c:567:     return xEventGroupGetBits(_tVocProcEvent) & (1 << eFunc);
 567:../../main_full/voc_task.c ****   }
 1650              		.loc 1 567 52 view .LVU378
 1651 002a 0123     		movs	r3, #1	@ tmp126,
 1652 002c A340     		lsls	r3, r3, r4	@ tmp125, tmp126, eFunc
 1653              	@ ../../main_full/voc_task.c:567:     return xEventGroupGetBits(_tVocProcEvent) & (1 << eFunc);
 567:../../main_full/voc_task.c ****   }
 1654              		.loc 1 567 47 view .LVU379
 1655 002e 1840     		ands	r0, r0, r3	@, tmp129,, tmp125
 1656 0030 C0B2     		uxtb	r0, r0	@ <retval>, tmp129
 1657              	@ ../../main_full/voc_task.c:574: }
 574:../../main_full/voc_task.c **** 
 1658              		.loc 1 574 1 view .LVU380
 1659 0032 10BD     		pop	{r4, pc}	@
 1660              	.L202:
 1661              		.align	2
 1662              	.L201:
 1663 0034 00000000 		.word	gu32MosDbgLevel
 1664 0038 00000000 		.word	.LC21
 1665 003c 00000000 		.word	.LANCHOR4
 1666              		.cfi_endproc
 1667              	.LFE144:
 1668              		.size	VocTaskIsEnableFunc, .-VocTaskIsEnableFunc
 1669              		.section	.text.VocTaskStart,"ax",%progbits
 1670              		.align	1
 1671              		.p2align 2,,3
 1672              		.global	VocTaskStart
 1673              		.syntax unified
 1674              		.thumb
 1675              		.thumb_func
 1676              		.fpu fpv4-sp-d16
 1677              		.type	VocTaskStart, %function
ARM GAS  /tmp/ccAD7eaF.s 			page 48


 1678              	VocTaskStart:
 1679              	.LFB146:
 637:../../main_full/voc_task.c ****     }
 638:../../main_full/voc_task.c ****   } //for
 639:../../main_full/voc_task.c **** }
 640:../../main_full/voc_task.c **** 
 641:../../main_full/voc_task.c **** void VocTaskStart(void)
 642:../../main_full/voc_task.c **** {
 1680              		.loc 1 642 1 is_stmt 1 view -0
 1681              		.cfi_startproc
 1682              		@ args = 0, pretend = 0, frame = 0
 1683              		@ frame_needed = 0, uses_anonymous_args = 0
 643:../../main_full/voc_task.c ****   _tVocProcEvent = xEventGroupCreate();
 1684              		.loc 1 643 3 view .LVU382
 1685              	@ ../../main_full/voc_task.c:642: {
 642:../../main_full/voc_task.c ****   _tVocProcEvent = xEventGroupCreate();
 1686              		.loc 1 642 1 is_stmt 0 view .LVU383
 1687 0000 00B5     		push	{lr}	@
 1688              		.cfi_def_cfa_offset 4
 1689              		.cfi_offset 14, -4
 1690 0002 85B0     		sub	sp, sp, #20	@,,
 1691              		.cfi_def_cfa_offset 24
 1692              	@ ../../main_full/voc_task.c:643:   _tVocProcEvent = xEventGroupCreate();
 1693              		.loc 1 643 20 view .LVU384
 1694 0004 FFF7FEFF 		bl	xEventGroupCreate		@
 1695              	.LVL144:
 1696              	@ ../../main_full/voc_task.c:643:   _tVocProcEvent = xEventGroupCreate();
 1697              		.loc 1 643 18 view .LVU385
 1698 0008 2F4B     		ldr	r3, .L217	@ tmp118,
 1699 000a 1860     		str	r0, [r3]	@ _1, _tVocProcEvent
 644:../../main_full/voc_task.c ****   configASSERT( _tVocProcEvent );
 1700              		.loc 1 644 3 is_stmt 1 view .LVU386
 1701 000c 0028     		cmp	r0, #0	@ _1
 1702 000e 40D0     		beq	.L213	@
 1703              		.loc 1 644 33 discriminator 2 view .LVU387
 645:../../main_full/voc_task.c **** 
 646:../../main_full/voc_task.c ****   _tVocSyncSem = xSemaphoreCreateBinary();
 1704              		.loc 1 646 3 discriminator 2 view .LVU388
 1705              	@ ../../main_full/voc_task.c:646:   _tVocSyncSem = xSemaphoreCreateBinary();
 1706              		.loc 1 646 18 is_stmt 0 discriminator 2 view .LVU389
 1707 0010 0322     		movs	r2, #3	@,
 1708 0012 0021     		movs	r1, #0	@,
 1709 0014 0120     		movs	r0, #1	@,
 1710 0016 FFF7FEFF 		bl	xQueueGenericCreate		@
 1711              	.LVL145:
 1712              	@ ../../main_full/voc_task.c:646:   _tVocSyncSem = xSemaphoreCreateBinary();
 1713              		.loc 1 646 16 discriminator 2 view .LVU390
 1714 001a 2C4B     		ldr	r3, .L217+4	@ tmp120,
 1715 001c 1860     		str	r0, [r3]	@ _2, _tVocSyncSem
 647:../../main_full/voc_task.c ****   configASSERT( _tVocSyncSem );
 1716              		.loc 1 647 3 is_stmt 1 discriminator 2 view .LVU391
 1717 001e 0028     		cmp	r0, #0	@ _2
 1718 0020 2ED0     		beq	.L214	@
 1719              		.loc 1 647 31 discriminator 2 view .LVU392
 648:../../main_full/voc_task.c **** 
 649:../../main_full/voc_task.c ****   _tVocStreamBuffer = xStreamBufferCreateStatic(sizeof(_ps16VocStreamBuf)-1,
 1720              		.loc 1 649 3 discriminator 2 view .LVU393
ARM GAS  /tmp/ccAD7eaF.s 			page 49


 1721              	@ ../../main_full/voc_task.c:649:   _tVocStreamBuffer = xStreamBufferCreateStatic(sizeof(_ps16VocSt
 1722              		.loc 1 649 23 is_stmt 0 discriminator 2 view .LVU394
 1723 0022 2B4B     		ldr	r3, .L217+8	@ tmp123,
 1724 0024 0093     		str	r3, [sp]	@ tmp123,
 1725 0026 0022     		movs	r2, #0	@,
 1726 0028 2A4B     		ldr	r3, .L217+12	@,
 1727 002a 1146     		mov	r1, r2	@,
 1728 002c 47F60100 		movw	r0, #30721	@,
 1729 0030 FFF7FEFF 		bl	xStreamBufferGenericCreateStatic		@
 1730              	.LVL146:
 1731              	@ ../../main_full/voc_task.c:649:   _tVocStreamBuffer = xStreamBufferCreateStatic(sizeof(_ps16VocSt
 1732              		.loc 1 649 21 discriminator 2 view .LVU395
 1733 0034 284B     		ldr	r3, .L217+16	@ tmp124,
 1734 0036 1860     		str	r0, [r3]	@ _3, _tVocStreamBuffer
 650:../../main_full/voc_task.c ****                                                 0,
 651:../../main_full/voc_task.c ****                                                (U8 *)_ps16VocStreamBuf,
 652:../../main_full/voc_task.c ****                                                &_tVocStreamBufferStruct );
 653:../../main_full/voc_task.c ****   configASSERT( _tVocStreamBuffer );
 1735              		.loc 1 653 3 is_stmt 1 discriminator 2 view .LVU396
 1736 0038 0028     		cmp	r0, #0	@ _3
 1737 003a 33D0     		beq	.L215	@
 1738              		.loc 1 653 36 discriminator 2 view .LVU397
 654:../../main_full/voc_task.c **** 
 655:../../main_full/voc_task.c ****   //VOC_MSG("VocTaskStart: buffer space availabe = %d\n", xStreamBufferSpacesAvailable(_tVocStreamB
 656:../../main_full/voc_task.c **** 
 657:../../main_full/voc_task.c ****   _tVdTaskEvent = xEventGroupCreate();
 1739              		.loc 1 657 3 discriminator 2 view .LVU398
 1740              	@ ../../main_full/voc_task.c:657:   _tVdTaskEvent = xEventGroupCreate();
 1741              		.loc 1 657 19 is_stmt 0 discriminator 2 view .LVU399
 1742 003c FFF7FEFF 		bl	xEventGroupCreate		@
 1743              	.LVL147:
 1744              	@ ../../main_full/voc_task.c:657:   _tVdTaskEvent = xEventGroupCreate();
 1745              		.loc 1 657 17 discriminator 2 view .LVU400
 1746 0040 264B     		ldr	r3, .L217+20	@ tmp126,
 1747 0042 1860     		str	r0, [r3]	@ _4, _tVdTaskEvent
 658:../../main_full/voc_task.c ****   configASSERT( _tVdTaskEvent );
 1748              		.loc 1 658 3 is_stmt 1 discriminator 2 view .LVU401
 1749 0044 0028     		cmp	r0, #0	@ _4
 1750 0046 36D0     		beq	.L216	@
 1751              		.loc 1 658 32 discriminator 2 view .LVU402
 659:../../main_full/voc_task.c **** 
 660:../../main_full/voc_task.c ****   /* Create that task that handles the console itself. */
 661:../../main_full/voc_task.c ****   xTaskCreateStatic(prvVocProcTask, "VOC", VOC_TASK_STACK_SIZE, NULL, VOC_TASK_PRIORITY, _tVocTaskS
 1752              		.loc 1 661 3 discriminator 2 view .LVU403
 1753 0048 254B     		ldr	r3, .L217+24	@ tmp130,
 1754 004a 264A     		ldr	r2, .L217+28	@ tmp131,
 1755 004c 0293     		str	r3, [sp, #8]	@ tmp130,
 1756 004e 0223     		movs	r3, #2	@ tmp132,
 1757 0050 CDE90032 		strd	r3, r2, [sp]	@ tmp132, tmp131,
 1758 0054 2449     		ldr	r1, .L217+32	@,
 1759 0056 2548     		ldr	r0, .L217+36	@,
 1760 0058 0023     		movs	r3, #0	@,
 1761 005a 4FF40072 		mov	r2, #512	@,
 1762 005e FFF7FEFF 		bl	xTaskCreateStatic		@
 1763              	.LVL148:
 662:../../main_full/voc_task.c ****   xTaskCreateStatic(prvVdProcTask, "VD", VD_TASK_STACK_SIZE, NULL, VD_TASK_PRIORITY, _tVdTaskStack,
 1764              		.loc 1 662 3 discriminator 2 view .LVU404
ARM GAS  /tmp/ccAD7eaF.s 			page 50


 1765 0062 234B     		ldr	r3, .L217+40	@ tmp135,
 1766 0064 234A     		ldr	r2, .L217+44	@ tmp136,
 1767 0066 0293     		str	r3, [sp, #8]	@ tmp135,
 1768 0068 0323     		movs	r3, #3	@ tmp137,
 1769 006a CDE90032 		strd	r3, r2, [sp]	@ tmp137, tmp136,
 1770 006e 2249     		ldr	r1, .L217+48	@,
 1771 0070 2248     		ldr	r0, .L217+52	@,
 1772 0072 0023     		movs	r3, #0	@,
 1773 0074 8022     		movs	r2, #128	@,
 1774 0076 FFF7FEFF 		bl	xTaskCreateStatic		@
 1775              	.LVL149:
 1776              	@ ../../main_full/voc_task.c:663: }
 663:../../main_full/voc_task.c **** }
 1777              		.loc 1 663 1 is_stmt 0 discriminator 2 view .LVU405
 1778 007a 05B0     		add	sp, sp, #20	@,,
 1779              		.cfi_remember_state
 1780              		.cfi_def_cfa_offset 4
 1781              		@ sp needed	@
 1782 007c 5DF804FB 		ldr	pc, [sp], #4	@
 1783              	.L214:
 1784              		.cfi_restore_state
 647:../../main_full/voc_task.c **** 
 1785              		.loc 1 647 3 is_stmt 1 view .LVU406
 1786              	.LBB45:
 1787              	.LBI45:
 1788              		.file 2 "../../kernel/FreeRTOS/Source/portable/GCC/ARM_CM4F/portmacro.h"
   1:../../kernel/FreeRTOS/Source/portable/GCC/ARM_CM4F/portmacro.h **** /*
   2:../../kernel/FreeRTOS/Source/portable/GCC/ARM_CM4F/portmacro.h ****  * FreeRTOS Kernel V10.0.1
   3:../../kernel/FreeRTOS/Source/portable/GCC/ARM_CM4F/portmacro.h ****  * Copyright (C) 2017 Amazon.com, Inc. or its affiliates.  All Rights Reserved.
   4:../../kernel/FreeRTOS/Source/portable/GCC/ARM_CM4F/portmacro.h ****  *
   5:../../kernel/FreeRTOS/Source/portable/GCC/ARM_CM4F/portmacro.h ****  * Permission is hereby granted, free of charge, to any person obtaining a copy of
   6:../../kernel/FreeRTOS/Source/portable/GCC/ARM_CM4F/portmacro.h ****  * this software and associated documentation files (the "Software"), to deal in
   7:../../kernel/FreeRTOS/Source/portable/GCC/ARM_CM4F/portmacro.h ****  * the Software without restriction, including without limitation the rights to
   8:../../kernel/FreeRTOS/Source/portable/GCC/ARM_CM4F/portmacro.h ****  * use, copy, modify, merge, publish, distribute, sublicense, and/or sell copies of
   9:../../kernel/FreeRTOS/Source/portable/GCC/ARM_CM4F/portmacro.h ****  * the Software, and to permit persons to whom the Software is furnished to do so,
  10:../../kernel/FreeRTOS/Source/portable/GCC/ARM_CM4F/portmacro.h ****  * subject to the following conditions:
  11:../../kernel/FreeRTOS/Source/portable/GCC/ARM_CM4F/portmacro.h ****  *
  12:../../kernel/FreeRTOS/Source/portable/GCC/ARM_CM4F/portmacro.h ****  * The above copyright notice and this permission notice shall be included in all
  13:../../kernel/FreeRTOS/Source/portable/GCC/ARM_CM4F/portmacro.h ****  * copies or substantial portions of the Software.
  14:../../kernel/FreeRTOS/Source/portable/GCC/ARM_CM4F/portmacro.h ****  *
  15:../../kernel/FreeRTOS/Source/portable/GCC/ARM_CM4F/portmacro.h ****  * THE SOFTWARE IS PROVIDED "AS IS", WITHOUT WARRANTY OF ANY KIND, EXPRESS OR
  16:../../kernel/FreeRTOS/Source/portable/GCC/ARM_CM4F/portmacro.h ****  * IMPLIED, INCLUDING BUT NOT LIMITED TO THE WARRANTIES OF MERCHANTABILITY, FITNESS
  17:../../kernel/FreeRTOS/Source/portable/GCC/ARM_CM4F/portmacro.h ****  * FOR A PARTICULAR PURPOSE AND NONINFRINGEMENT. IN NO EVENT SHALL THE AUTHORS OR
  18:../../kernel/FreeRTOS/Source/portable/GCC/ARM_CM4F/portmacro.h ****  * COPYRIGHT HOLDERS BE LIABLE FOR ANY CLAIM, DAMAGES OR OTHER LIABILITY, WHETHER
  19:../../kernel/FreeRTOS/Source/portable/GCC/ARM_CM4F/portmacro.h ****  * IN AN ACTION OF CONTRACT, TORT OR OTHERWISE, ARISING FROM, OUT OF OR IN
  20:../../kernel/FreeRTOS/Source/portable/GCC/ARM_CM4F/portmacro.h ****  * CONNECTION WITH THE SOFTWARE OR THE USE OR OTHER DEALINGS IN THE SOFTWARE.
  21:../../kernel/FreeRTOS/Source/portable/GCC/ARM_CM4F/portmacro.h ****  *
  22:../../kernel/FreeRTOS/Source/portable/GCC/ARM_CM4F/portmacro.h ****  * http://www.FreeRTOS.org
  23:../../kernel/FreeRTOS/Source/portable/GCC/ARM_CM4F/portmacro.h ****  * http://aws.amazon.com/freertos
  24:../../kernel/FreeRTOS/Source/portable/GCC/ARM_CM4F/portmacro.h ****  *
  25:../../kernel/FreeRTOS/Source/portable/GCC/ARM_CM4F/portmacro.h ****  * 1 tab == 4 spaces!
  26:../../kernel/FreeRTOS/Source/portable/GCC/ARM_CM4F/portmacro.h ****  */
  27:../../kernel/FreeRTOS/Source/portable/GCC/ARM_CM4F/portmacro.h **** 
  28:../../kernel/FreeRTOS/Source/portable/GCC/ARM_CM4F/portmacro.h **** 
  29:../../kernel/FreeRTOS/Source/portable/GCC/ARM_CM4F/portmacro.h **** #ifndef PORTMACRO_H
  30:../../kernel/FreeRTOS/Source/portable/GCC/ARM_CM4F/portmacro.h **** #define PORTMACRO_H
  31:../../kernel/FreeRTOS/Source/portable/GCC/ARM_CM4F/portmacro.h **** 
ARM GAS  /tmp/ccAD7eaF.s 			page 51


  32:../../kernel/FreeRTOS/Source/portable/GCC/ARM_CM4F/portmacro.h **** #ifdef __cplusplus
  33:../../kernel/FreeRTOS/Source/portable/GCC/ARM_CM4F/portmacro.h **** extern "C" {
  34:../../kernel/FreeRTOS/Source/portable/GCC/ARM_CM4F/portmacro.h **** #endif
  35:../../kernel/FreeRTOS/Source/portable/GCC/ARM_CM4F/portmacro.h **** 
  36:../../kernel/FreeRTOS/Source/portable/GCC/ARM_CM4F/portmacro.h **** /*-----------------------------------------------------------
  37:../../kernel/FreeRTOS/Source/portable/GCC/ARM_CM4F/portmacro.h ****  * Port specific definitions.
  38:../../kernel/FreeRTOS/Source/portable/GCC/ARM_CM4F/portmacro.h ****  *
  39:../../kernel/FreeRTOS/Source/portable/GCC/ARM_CM4F/portmacro.h ****  * The settings in this file configure FreeRTOS correctly for the
  40:../../kernel/FreeRTOS/Source/portable/GCC/ARM_CM4F/portmacro.h ****  * given hardware and compiler.
  41:../../kernel/FreeRTOS/Source/portable/GCC/ARM_CM4F/portmacro.h ****  *
  42:../../kernel/FreeRTOS/Source/portable/GCC/ARM_CM4F/portmacro.h ****  * These settings should not be altered.
  43:../../kernel/FreeRTOS/Source/portable/GCC/ARM_CM4F/portmacro.h ****  *-----------------------------------------------------------
  44:../../kernel/FreeRTOS/Source/portable/GCC/ARM_CM4F/portmacro.h ****  */
  45:../../kernel/FreeRTOS/Source/portable/GCC/ARM_CM4F/portmacro.h **** 
  46:../../kernel/FreeRTOS/Source/portable/GCC/ARM_CM4F/portmacro.h **** /* Type definitions. */
  47:../../kernel/FreeRTOS/Source/portable/GCC/ARM_CM4F/portmacro.h **** #define portCHAR		char
  48:../../kernel/FreeRTOS/Source/portable/GCC/ARM_CM4F/portmacro.h **** #define portFLOAT		float
  49:../../kernel/FreeRTOS/Source/portable/GCC/ARM_CM4F/portmacro.h **** #define portDOUBLE		double
  50:../../kernel/FreeRTOS/Source/portable/GCC/ARM_CM4F/portmacro.h **** #define portLONG		long
  51:../../kernel/FreeRTOS/Source/portable/GCC/ARM_CM4F/portmacro.h **** #define portSHORT		short
  52:../../kernel/FreeRTOS/Source/portable/GCC/ARM_CM4F/portmacro.h **** #define portSTACK_TYPE	uint32_t
  53:../../kernel/FreeRTOS/Source/portable/GCC/ARM_CM4F/portmacro.h **** #define portBASE_TYPE	long
  54:../../kernel/FreeRTOS/Source/portable/GCC/ARM_CM4F/portmacro.h **** 
  55:../../kernel/FreeRTOS/Source/portable/GCC/ARM_CM4F/portmacro.h **** typedef portSTACK_TYPE StackType_t;
  56:../../kernel/FreeRTOS/Source/portable/GCC/ARM_CM4F/portmacro.h **** typedef long BaseType_t;
  57:../../kernel/FreeRTOS/Source/portable/GCC/ARM_CM4F/portmacro.h **** typedef unsigned long UBaseType_t;
  58:../../kernel/FreeRTOS/Source/portable/GCC/ARM_CM4F/portmacro.h **** 
  59:../../kernel/FreeRTOS/Source/portable/GCC/ARM_CM4F/portmacro.h **** #if( configUSE_16_BIT_TICKS == 1 )
  60:../../kernel/FreeRTOS/Source/portable/GCC/ARM_CM4F/portmacro.h **** 	typedef uint16_t TickType_t;
  61:../../kernel/FreeRTOS/Source/portable/GCC/ARM_CM4F/portmacro.h **** 	#define portMAX_DELAY ( TickType_t ) 0xffff
  62:../../kernel/FreeRTOS/Source/portable/GCC/ARM_CM4F/portmacro.h **** #else
  63:../../kernel/FreeRTOS/Source/portable/GCC/ARM_CM4F/portmacro.h **** 	typedef uint32_t TickType_t;
  64:../../kernel/FreeRTOS/Source/portable/GCC/ARM_CM4F/portmacro.h **** 	#define portMAX_DELAY ( TickType_t ) 0xffffffffUL
  65:../../kernel/FreeRTOS/Source/portable/GCC/ARM_CM4F/portmacro.h **** 
  66:../../kernel/FreeRTOS/Source/portable/GCC/ARM_CM4F/portmacro.h **** 	/* 32-bit tick type on a 32-bit architecture, so reads of the tick count do
  67:../../kernel/FreeRTOS/Source/portable/GCC/ARM_CM4F/portmacro.h **** 	not need to be guarded with a critical section. */
  68:../../kernel/FreeRTOS/Source/portable/GCC/ARM_CM4F/portmacro.h **** 	#define portTICK_TYPE_IS_ATOMIC 1
  69:../../kernel/FreeRTOS/Source/portable/GCC/ARM_CM4F/portmacro.h **** #endif
  70:../../kernel/FreeRTOS/Source/portable/GCC/ARM_CM4F/portmacro.h **** /*-----------------------------------------------------------*/
  71:../../kernel/FreeRTOS/Source/portable/GCC/ARM_CM4F/portmacro.h **** 
  72:../../kernel/FreeRTOS/Source/portable/GCC/ARM_CM4F/portmacro.h **** /* Architecture specifics. */
  73:../../kernel/FreeRTOS/Source/portable/GCC/ARM_CM4F/portmacro.h **** #define portSTACK_GROWTH			( -1 )
  74:../../kernel/FreeRTOS/Source/portable/GCC/ARM_CM4F/portmacro.h **** #define portTICK_PERIOD_MS			( ( TickType_t ) 1000 / configTICK_RATE_HZ )
  75:../../kernel/FreeRTOS/Source/portable/GCC/ARM_CM4F/portmacro.h **** #define portBYTE_ALIGNMENT			8
  76:../../kernel/FreeRTOS/Source/portable/GCC/ARM_CM4F/portmacro.h **** /*-----------------------------------------------------------*/
  77:../../kernel/FreeRTOS/Source/portable/GCC/ARM_CM4F/portmacro.h **** 
  78:../../kernel/FreeRTOS/Source/portable/GCC/ARM_CM4F/portmacro.h **** /* Scheduler utilities. */
  79:../../kernel/FreeRTOS/Source/portable/GCC/ARM_CM4F/portmacro.h **** #define portYIELD() 															\
  80:../../kernel/FreeRTOS/Source/portable/GCC/ARM_CM4F/portmacro.h **** {																				\
  81:../../kernel/FreeRTOS/Source/portable/GCC/ARM_CM4F/portmacro.h **** 	/* Set a PendSV to request a context switch. */								\
  82:../../kernel/FreeRTOS/Source/portable/GCC/ARM_CM4F/portmacro.h **** 	portNVIC_INT_CTRL_REG = portNVIC_PENDSVSET_BIT;								\
  83:../../kernel/FreeRTOS/Source/portable/GCC/ARM_CM4F/portmacro.h **** 																				\
  84:../../kernel/FreeRTOS/Source/portable/GCC/ARM_CM4F/portmacro.h **** 	/* Barriers are normally not required but do ensure the code is completely	\
  85:../../kernel/FreeRTOS/Source/portable/GCC/ARM_CM4F/portmacro.h **** 	within the specified behaviour for the architecture. */						\
  86:../../kernel/FreeRTOS/Source/portable/GCC/ARM_CM4F/portmacro.h **** 	__asm volatile( "dsb" ::: "memory" );										\
  87:../../kernel/FreeRTOS/Source/portable/GCC/ARM_CM4F/portmacro.h **** 	__asm volatile( "isb" );													\
  88:../../kernel/FreeRTOS/Source/portable/GCC/ARM_CM4F/portmacro.h **** }
ARM GAS  /tmp/ccAD7eaF.s 			page 52


  89:../../kernel/FreeRTOS/Source/portable/GCC/ARM_CM4F/portmacro.h **** 
  90:../../kernel/FreeRTOS/Source/portable/GCC/ARM_CM4F/portmacro.h **** #define portNVIC_INT_CTRL_REG		( * ( ( volatile uint32_t * ) 0xe000ed04 ) )
  91:../../kernel/FreeRTOS/Source/portable/GCC/ARM_CM4F/portmacro.h **** #define portNVIC_PENDSVSET_BIT		( 1UL << 28UL )
  92:../../kernel/FreeRTOS/Source/portable/GCC/ARM_CM4F/portmacro.h **** #define portEND_SWITCHING_ISR( xSwitchRequired ) if( xSwitchRequired != pdFALSE ) portYIELD()
  93:../../kernel/FreeRTOS/Source/portable/GCC/ARM_CM4F/portmacro.h **** #define portYIELD_FROM_ISR( x ) portEND_SWITCHING_ISR( x )
  94:../../kernel/FreeRTOS/Source/portable/GCC/ARM_CM4F/portmacro.h **** /*-----------------------------------------------------------*/
  95:../../kernel/FreeRTOS/Source/portable/GCC/ARM_CM4F/portmacro.h **** 
  96:../../kernel/FreeRTOS/Source/portable/GCC/ARM_CM4F/portmacro.h **** /* Critical section management. */
  97:../../kernel/FreeRTOS/Source/portable/GCC/ARM_CM4F/portmacro.h **** extern void vPortEnterCritical( void );
  98:../../kernel/FreeRTOS/Source/portable/GCC/ARM_CM4F/portmacro.h **** extern void vPortExitCritical( void );
  99:../../kernel/FreeRTOS/Source/portable/GCC/ARM_CM4F/portmacro.h **** #define portSET_INTERRUPT_MASK_FROM_ISR()		ulPortRaiseBASEPRI()
 100:../../kernel/FreeRTOS/Source/portable/GCC/ARM_CM4F/portmacro.h **** #define portCLEAR_INTERRUPT_MASK_FROM_ISR(x)	vPortSetBASEPRI(x)
 101:../../kernel/FreeRTOS/Source/portable/GCC/ARM_CM4F/portmacro.h **** #define portDISABLE_INTERRUPTS()				vPortRaiseBASEPRI()
 102:../../kernel/FreeRTOS/Source/portable/GCC/ARM_CM4F/portmacro.h **** #define portENABLE_INTERRUPTS()					vPortSetBASEPRI(0)
 103:../../kernel/FreeRTOS/Source/portable/GCC/ARM_CM4F/portmacro.h **** #define portENTER_CRITICAL()					vPortEnterCritical()
 104:../../kernel/FreeRTOS/Source/portable/GCC/ARM_CM4F/portmacro.h **** #define portEXIT_CRITICAL()						vPortExitCritical()
 105:../../kernel/FreeRTOS/Source/portable/GCC/ARM_CM4F/portmacro.h **** 
 106:../../kernel/FreeRTOS/Source/portable/GCC/ARM_CM4F/portmacro.h **** /*-----------------------------------------------------------*/
 107:../../kernel/FreeRTOS/Source/portable/GCC/ARM_CM4F/portmacro.h **** 
 108:../../kernel/FreeRTOS/Source/portable/GCC/ARM_CM4F/portmacro.h **** /* Task function macros as described on the FreeRTOS.org WEB site.  These are
 109:../../kernel/FreeRTOS/Source/portable/GCC/ARM_CM4F/portmacro.h **** not necessary for to use this port.  They are defined so the common demo files
 110:../../kernel/FreeRTOS/Source/portable/GCC/ARM_CM4F/portmacro.h **** (which build with all the ports) will build. */
 111:../../kernel/FreeRTOS/Source/portable/GCC/ARM_CM4F/portmacro.h **** #define portTASK_FUNCTION_PROTO( vFunction, pvParameters ) void vFunction( void *pvParameters )
 112:../../kernel/FreeRTOS/Source/portable/GCC/ARM_CM4F/portmacro.h **** #define portTASK_FUNCTION( vFunction, pvParameters ) void vFunction( void *pvParameters )
 113:../../kernel/FreeRTOS/Source/portable/GCC/ARM_CM4F/portmacro.h **** /*-----------------------------------------------------------*/
 114:../../kernel/FreeRTOS/Source/portable/GCC/ARM_CM4F/portmacro.h **** 
 115:../../kernel/FreeRTOS/Source/portable/GCC/ARM_CM4F/portmacro.h **** /* Tickless idle/low power functionality. */
 116:../../kernel/FreeRTOS/Source/portable/GCC/ARM_CM4F/portmacro.h **** #ifndef portSUPPRESS_TICKS_AND_SLEEP
 117:../../kernel/FreeRTOS/Source/portable/GCC/ARM_CM4F/portmacro.h **** 	extern void vPortSuppressTicksAndSleep( TickType_t xExpectedIdleTime );
 118:../../kernel/FreeRTOS/Source/portable/GCC/ARM_CM4F/portmacro.h **** 	#define portSUPPRESS_TICKS_AND_SLEEP( xExpectedIdleTime ) vPortSuppressTicksAndSleep( xExpectedIdl
 119:../../kernel/FreeRTOS/Source/portable/GCC/ARM_CM4F/portmacro.h **** #endif
 120:../../kernel/FreeRTOS/Source/portable/GCC/ARM_CM4F/portmacro.h **** /*-----------------------------------------------------------*/
 121:../../kernel/FreeRTOS/Source/portable/GCC/ARM_CM4F/portmacro.h **** 
 122:../../kernel/FreeRTOS/Source/portable/GCC/ARM_CM4F/portmacro.h **** /* Architecture specific optimisations. */
 123:../../kernel/FreeRTOS/Source/portable/GCC/ARM_CM4F/portmacro.h **** #ifndef configUSE_PORT_OPTIMISED_TASK_SELECTION
 124:../../kernel/FreeRTOS/Source/portable/GCC/ARM_CM4F/portmacro.h **** 	#define configUSE_PORT_OPTIMISED_TASK_SELECTION 1
 125:../../kernel/FreeRTOS/Source/portable/GCC/ARM_CM4F/portmacro.h **** #endif
 126:../../kernel/FreeRTOS/Source/portable/GCC/ARM_CM4F/portmacro.h **** 
 127:../../kernel/FreeRTOS/Source/portable/GCC/ARM_CM4F/portmacro.h **** #if configUSE_PORT_OPTIMISED_TASK_SELECTION == 1
 128:../../kernel/FreeRTOS/Source/portable/GCC/ARM_CM4F/portmacro.h **** 
 129:../../kernel/FreeRTOS/Source/portable/GCC/ARM_CM4F/portmacro.h **** 	/* Generic helper function. */
 130:../../kernel/FreeRTOS/Source/portable/GCC/ARM_CM4F/portmacro.h **** 	__attribute__( ( always_inline ) ) static inline uint8_t ucPortCountLeadingZeros( uint32_t ulBitma
 131:../../kernel/FreeRTOS/Source/portable/GCC/ARM_CM4F/portmacro.h **** 	{
 132:../../kernel/FreeRTOS/Source/portable/GCC/ARM_CM4F/portmacro.h **** 	uint8_t ucReturn;
 133:../../kernel/FreeRTOS/Source/portable/GCC/ARM_CM4F/portmacro.h **** 
 134:../../kernel/FreeRTOS/Source/portable/GCC/ARM_CM4F/portmacro.h **** 		__asm volatile ( "clz %0, %1" : "=r" ( ucReturn ) : "r" ( ulBitmap ) : "memory" );
 135:../../kernel/FreeRTOS/Source/portable/GCC/ARM_CM4F/portmacro.h **** 		return ucReturn;
 136:../../kernel/FreeRTOS/Source/portable/GCC/ARM_CM4F/portmacro.h **** 	}
 137:../../kernel/FreeRTOS/Source/portable/GCC/ARM_CM4F/portmacro.h **** 
 138:../../kernel/FreeRTOS/Source/portable/GCC/ARM_CM4F/portmacro.h **** 	/* Check the configuration. */
 139:../../kernel/FreeRTOS/Source/portable/GCC/ARM_CM4F/portmacro.h **** 	#if( configMAX_PRIORITIES > 32 )
 140:../../kernel/FreeRTOS/Source/portable/GCC/ARM_CM4F/portmacro.h **** 		#error configUSE_PORT_OPTIMISED_TASK_SELECTION can only be set to 1 when configMAX_PRIORITIES is 
 141:../../kernel/FreeRTOS/Source/portable/GCC/ARM_CM4F/portmacro.h **** 	#endif
 142:../../kernel/FreeRTOS/Source/portable/GCC/ARM_CM4F/portmacro.h **** 
 143:../../kernel/FreeRTOS/Source/portable/GCC/ARM_CM4F/portmacro.h **** 	/* Store/clear the ready priorities in a bit map. */
 144:../../kernel/FreeRTOS/Source/portable/GCC/ARM_CM4F/portmacro.h **** 	#define portRECORD_READY_PRIORITY( uxPriority, uxReadyPriorities ) ( uxReadyPriorities ) |= ( 1UL 
 145:../../kernel/FreeRTOS/Source/portable/GCC/ARM_CM4F/portmacro.h **** 	#define portRESET_READY_PRIORITY( uxPriority, uxReadyPriorities ) ( uxReadyPriorities ) &= ~( 1UL 
ARM GAS  /tmp/ccAD7eaF.s 			page 53


 146:../../kernel/FreeRTOS/Source/portable/GCC/ARM_CM4F/portmacro.h **** 
 147:../../kernel/FreeRTOS/Source/portable/GCC/ARM_CM4F/portmacro.h **** 	/*-----------------------------------------------------------*/
 148:../../kernel/FreeRTOS/Source/portable/GCC/ARM_CM4F/portmacro.h **** 
 149:../../kernel/FreeRTOS/Source/portable/GCC/ARM_CM4F/portmacro.h **** 	#define portGET_HIGHEST_PRIORITY( uxTopPriority, uxReadyPriorities ) uxTopPriority = ( 31UL - ( ui
 150:../../kernel/FreeRTOS/Source/portable/GCC/ARM_CM4F/portmacro.h **** 
 151:../../kernel/FreeRTOS/Source/portable/GCC/ARM_CM4F/portmacro.h **** #endif /* configUSE_PORT_OPTIMISED_TASK_SELECTION */
 152:../../kernel/FreeRTOS/Source/portable/GCC/ARM_CM4F/portmacro.h **** 
 153:../../kernel/FreeRTOS/Source/portable/GCC/ARM_CM4F/portmacro.h **** /*-----------------------------------------------------------*/
 154:../../kernel/FreeRTOS/Source/portable/GCC/ARM_CM4F/portmacro.h **** 
 155:../../kernel/FreeRTOS/Source/portable/GCC/ARM_CM4F/portmacro.h **** #ifdef configASSERT
 156:../../kernel/FreeRTOS/Source/portable/GCC/ARM_CM4F/portmacro.h **** 	void vPortValidateInterruptPriority( void );
 157:../../kernel/FreeRTOS/Source/portable/GCC/ARM_CM4F/portmacro.h **** 	#define portASSERT_IF_INTERRUPT_PRIORITY_INVALID() 	vPortValidateInterruptPriority()
 158:../../kernel/FreeRTOS/Source/portable/GCC/ARM_CM4F/portmacro.h **** #endif
 159:../../kernel/FreeRTOS/Source/portable/GCC/ARM_CM4F/portmacro.h **** 
 160:../../kernel/FreeRTOS/Source/portable/GCC/ARM_CM4F/portmacro.h **** /* portNOP() is not required by this port. */
 161:../../kernel/FreeRTOS/Source/portable/GCC/ARM_CM4F/portmacro.h **** #define portNOP()
 162:../../kernel/FreeRTOS/Source/portable/GCC/ARM_CM4F/portmacro.h **** 
 163:../../kernel/FreeRTOS/Source/portable/GCC/ARM_CM4F/portmacro.h **** #define portINLINE	__inline
 164:../../kernel/FreeRTOS/Source/portable/GCC/ARM_CM4F/portmacro.h **** 
 165:../../kernel/FreeRTOS/Source/portable/GCC/ARM_CM4F/portmacro.h **** #ifndef portFORCE_INLINE
 166:../../kernel/FreeRTOS/Source/portable/GCC/ARM_CM4F/portmacro.h **** 	#define portFORCE_INLINE inline __attribute__(( always_inline))
 167:../../kernel/FreeRTOS/Source/portable/GCC/ARM_CM4F/portmacro.h **** #endif
 168:../../kernel/FreeRTOS/Source/portable/GCC/ARM_CM4F/portmacro.h **** 
 169:../../kernel/FreeRTOS/Source/portable/GCC/ARM_CM4F/portmacro.h **** portFORCE_INLINE static BaseType_t xPortIsInsideInterrupt( void )
 170:../../kernel/FreeRTOS/Source/portable/GCC/ARM_CM4F/portmacro.h **** {
 171:../../kernel/FreeRTOS/Source/portable/GCC/ARM_CM4F/portmacro.h **** uint32_t ulCurrentInterrupt;
 172:../../kernel/FreeRTOS/Source/portable/GCC/ARM_CM4F/portmacro.h **** BaseType_t xReturn;
 173:../../kernel/FreeRTOS/Source/portable/GCC/ARM_CM4F/portmacro.h **** 
 174:../../kernel/FreeRTOS/Source/portable/GCC/ARM_CM4F/portmacro.h **** 	/* Obtain the number of the currently executing interrupt. */
 175:../../kernel/FreeRTOS/Source/portable/GCC/ARM_CM4F/portmacro.h **** 	__asm volatile( "mrs %0, ipsr" : "=r"( ulCurrentInterrupt ) :: "memory" );
 176:../../kernel/FreeRTOS/Source/portable/GCC/ARM_CM4F/portmacro.h **** 
 177:../../kernel/FreeRTOS/Source/portable/GCC/ARM_CM4F/portmacro.h **** 	if( ulCurrentInterrupt == 0 )
 178:../../kernel/FreeRTOS/Source/portable/GCC/ARM_CM4F/portmacro.h **** 	{
 179:../../kernel/FreeRTOS/Source/portable/GCC/ARM_CM4F/portmacro.h **** 		xReturn = pdFALSE;
 180:../../kernel/FreeRTOS/Source/portable/GCC/ARM_CM4F/portmacro.h **** 	}
 181:../../kernel/FreeRTOS/Source/portable/GCC/ARM_CM4F/portmacro.h **** 	else
 182:../../kernel/FreeRTOS/Source/portable/GCC/ARM_CM4F/portmacro.h **** 	{
 183:../../kernel/FreeRTOS/Source/portable/GCC/ARM_CM4F/portmacro.h **** 		xReturn = pdTRUE;
 184:../../kernel/FreeRTOS/Source/portable/GCC/ARM_CM4F/portmacro.h **** 	}
 185:../../kernel/FreeRTOS/Source/portable/GCC/ARM_CM4F/portmacro.h **** 
 186:../../kernel/FreeRTOS/Source/portable/GCC/ARM_CM4F/portmacro.h **** 	return xReturn;
 187:../../kernel/FreeRTOS/Source/portable/GCC/ARM_CM4F/portmacro.h **** }
 188:../../kernel/FreeRTOS/Source/portable/GCC/ARM_CM4F/portmacro.h **** 
 189:../../kernel/FreeRTOS/Source/portable/GCC/ARM_CM4F/portmacro.h **** /*-----------------------------------------------------------*/
 190:../../kernel/FreeRTOS/Source/portable/GCC/ARM_CM4F/portmacro.h **** 
 191:../../kernel/FreeRTOS/Source/portable/GCC/ARM_CM4F/portmacro.h **** portFORCE_INLINE static void vPortRaiseBASEPRI( void )
 1789              		.loc 2 191 30 view .LVU407
 1790              	.LBB46:
 192:../../kernel/FreeRTOS/Source/portable/GCC/ARM_CM4F/portmacro.h **** {
 193:../../kernel/FreeRTOS/Source/portable/GCC/ARM_CM4F/portmacro.h **** uint32_t ulNewBASEPRI;
 1791              		.loc 2 193 1 view .LVU408
 194:../../kernel/FreeRTOS/Source/portable/GCC/ARM_CM4F/portmacro.h **** 
 195:../../kernel/FreeRTOS/Source/portable/GCC/ARM_CM4F/portmacro.h **** 	__asm volatile
 1792              		.loc 2 195 2 view .LVU409
 1793              		.syntax unified
 1794              	@ 195 "../../kernel/FreeRTOS/Source/portable/GCC/ARM_CM4F/portmacro.h" 1
 1795 0080 4FF0A003 			mov r3, #160													@ ulNewBASEPRI,
ARM GAS  /tmp/ccAD7eaF.s 			page 54


 1796 0084 83F31188 		msr basepri, r3												@ ulNewBASEPRI
 1797 0088 BFF36F8F 		isb														
 1798 008c BFF34F8F 		dsb														
 1799              	
 1800              	@ 0 "" 2
 1801              	.LVL150:
 1802              		.thumb
 1803              		.syntax unified
 1804              	.L207:
 1805              		.loc 2 195 2 is_stmt 0 view .LVU410
 1806              	.LBE46:
 1807              	.LBE45:
 647:../../main_full/voc_task.c **** 
 1808              		.loc 1 647 3 is_stmt 1 discriminator 2 view .LVU411
 647:../../main_full/voc_task.c **** 
 1809              		.loc 1 647 3 discriminator 2 view .LVU412
 647:../../main_full/voc_task.c **** 
 1810              		.loc 1 647 3 discriminator 2 view .LVU413
 647:../../main_full/voc_task.c **** 
 1811              		.loc 1 647 3 discriminator 2 view .LVU414
 1812 0090 FEE7     		b	.L207		@
 1813              	.L213:
 644:../../main_full/voc_task.c **** 
 1814              		.loc 1 644 3 view .LVU415
 1815              	.LBB47:
 1816              	.LBI47:
 191:../../kernel/FreeRTOS/Source/portable/GCC/ARM_CM4F/portmacro.h **** {
 1817              		.loc 2 191 30 view .LVU416
 1818              	.LBB48:
 193:../../kernel/FreeRTOS/Source/portable/GCC/ARM_CM4F/portmacro.h **** 
 1819              		.loc 2 193 1 view .LVU417
 1820              		.loc 2 195 2 view .LVU418
 1821              		.syntax unified
 1822              	@ 195 "../../kernel/FreeRTOS/Source/portable/GCC/ARM_CM4F/portmacro.h" 1
 1823 0092 4FF0A003 			mov r3, #160													@ ulNewBASEPRI,
 1824 0096 83F31188 		msr basepri, r3												@ ulNewBASEPRI
 1825 009a BFF36F8F 		isb														
 1826 009e BFF34F8F 		dsb														
 1827              	
 1828              	@ 0 "" 2
 1829              	.LVL151:
 1830              		.thumb
 1831              		.syntax unified
 1832              	.L205:
 1833              		.loc 2 195 2 is_stmt 0 view .LVU419
 1834              	.LBE48:
 1835              	.LBE47:
 644:../../main_full/voc_task.c **** 
 1836              		.loc 1 644 3 is_stmt 1 discriminator 1 view .LVU420
 644:../../main_full/voc_task.c **** 
 1837              		.loc 1 644 3 discriminator 1 view .LVU421
 644:../../main_full/voc_task.c **** 
 1838              		.loc 1 644 3 discriminator 1 view .LVU422
 644:../../main_full/voc_task.c **** 
 1839              		.loc 1 644 3 discriminator 1 view .LVU423
 1840 00a2 FEE7     		b	.L205		@
 1841              	.L215:
ARM GAS  /tmp/ccAD7eaF.s 			page 55


 653:../../main_full/voc_task.c **** 
 1842              		.loc 1 653 3 view .LVU424
 1843              	.LBB49:
 1844              	.LBI49:
 191:../../kernel/FreeRTOS/Source/portable/GCC/ARM_CM4F/portmacro.h **** {
 1845              		.loc 2 191 30 view .LVU425
 1846              	.LBB50:
 193:../../kernel/FreeRTOS/Source/portable/GCC/ARM_CM4F/portmacro.h **** 
 1847              		.loc 2 193 1 view .LVU426
 1848              		.loc 2 195 2 view .LVU427
 1849              		.syntax unified
 1850              	@ 195 "../../kernel/FreeRTOS/Source/portable/GCC/ARM_CM4F/portmacro.h" 1
 1851 00a4 4FF0A003 			mov r3, #160													@ ulNewBASEPRI,
 1852 00a8 83F31188 		msr basepri, r3												@ ulNewBASEPRI
 1853 00ac BFF36F8F 		isb														
 1854 00b0 BFF34F8F 		dsb														
 1855              	
 1856              	@ 0 "" 2
 1857              	.LVL152:
 1858              		.thumb
 1859              		.syntax unified
 1860              	.L209:
 1861              		.loc 2 195 2 is_stmt 0 view .LVU428
 1862              	.LBE50:
 1863              	.LBE49:
 653:../../main_full/voc_task.c **** 
 1864              		.loc 1 653 3 is_stmt 1 discriminator 3 view .LVU429
 653:../../main_full/voc_task.c **** 
 1865              		.loc 1 653 3 discriminator 3 view .LVU430
 653:../../main_full/voc_task.c **** 
 1866              		.loc 1 653 3 discriminator 3 view .LVU431
 653:../../main_full/voc_task.c **** 
 1867              		.loc 1 653 3 discriminator 3 view .LVU432
 1868 00b4 FEE7     		b	.L209		@
 1869              	.L216:
 658:../../main_full/voc_task.c **** 
 1870              		.loc 1 658 3 view .LVU433
 1871              	.LBB51:
 1872              	.LBI51:
 191:../../kernel/FreeRTOS/Source/portable/GCC/ARM_CM4F/portmacro.h **** {
 1873              		.loc 2 191 30 view .LVU434
 1874              	.LBB52:
 193:../../kernel/FreeRTOS/Source/portable/GCC/ARM_CM4F/portmacro.h **** 
 1875              		.loc 2 193 1 view .LVU435
 1876              		.loc 2 195 2 view .LVU436
 1877              		.syntax unified
 1878              	@ 195 "../../kernel/FreeRTOS/Source/portable/GCC/ARM_CM4F/portmacro.h" 1
 1879 00b6 4FF0A003 			mov r3, #160													@ ulNewBASEPRI,
 1880 00ba 83F31188 		msr basepri, r3												@ ulNewBASEPRI
 1881 00be BFF36F8F 		isb														
 1882 00c2 BFF34F8F 		dsb														
 1883              	
 1884              	@ 0 "" 2
 1885              	.LVL153:
 1886              		.thumb
 1887              		.syntax unified
 1888              	.L211:
ARM GAS  /tmp/ccAD7eaF.s 			page 56


 1889              		.loc 2 195 2 is_stmt 0 view .LVU437
 1890              	.LBE52:
 1891              	.LBE51:
 658:../../main_full/voc_task.c **** 
 1892              		.loc 1 658 3 is_stmt 1 discriminator 4 view .LVU438
 658:../../main_full/voc_task.c **** 
 1893              		.loc 1 658 3 discriminator 4 view .LVU439
 658:../../main_full/voc_task.c **** 
 1894              		.loc 1 658 3 discriminator 4 view .LVU440
 658:../../main_full/voc_task.c **** 
 1895              		.loc 1 658 3 discriminator 4 view .LVU441
 1896 00c6 FEE7     		b	.L211		@
 1897              	.L218:
 1898              		.align	2
 1899              	.L217:
 1900 00c8 00000000 		.word	.LANCHOR4
 1901 00cc 00000000 		.word	.LANCHOR5
 1902 00d0 00000000 		.word	.LANCHOR8
 1903 00d4 00000000 		.word	_ps16VocStreamBuf
 1904 00d8 00000000 		.word	.LANCHOR1
 1905 00dc 00000000 		.word	.LANCHOR0
 1906 00e0 00000000 		.word	.LANCHOR9
 1907 00e4 00000000 		.word	.LANCHOR10
 1908 00e8 00000000 		.word	.LC22
 1909 00ec 00000000 		.word	prvVocProcTask
 1910 00f0 00000000 		.word	.LANCHOR11
 1911 00f4 00000000 		.word	.LANCHOR12
 1912 00f8 04000000 		.word	.LC23
 1913 00fc 00000000 		.word	prvVdProcTask
 1914              		.cfi_endproc
 1915              	.LFE146:
 1916              		.size	VocTaskStart, .-VocTaskStart
 1917              		.section	.bss._eVocVQMode,"aw",%nobits
 1918              		.set	.LANCHOR3,. + 0
 1919              		.type	_eVocVQMode, %object
 1920              		.size	_eVocVQMode, 1
 1921              	_eVocVQMode:
 1922 0000 00       		.space	1
 1923              		.section	.bss._ps16VdTaskPcmBuf,"aw",%nobits
 1924              		.align	2
 1925              		.set	.LANCHOR2,. + 0
 1926              		.type	_ps16VdTaskPcmBuf, %object
 1927              		.size	_ps16VdTaskPcmBuf, 3072
 1928              	_ps16VdTaskPcmBuf:
 1929 0000 00000000 		.space	3072
 1929      00000000 
 1929      00000000 
 1929      00000000 
 1929      00000000 
 1930              		.section	.bss._ps16VocStreamBuf,"aw",%nobits
 1931              		.align	2
 1932              		.type	_ps16VocStreamBuf, %object
 1933              		.size	_ps16VocStreamBuf, 30722
 1934              	_ps16VocStreamBuf:
 1935 0000 00000000 		.space	30722
 1935      00000000 
 1935      00000000 
ARM GAS  /tmp/ccAD7eaF.s 			page 57


 1935      00000000 
 1935      00000000 
 1936              		.section	.bss._ps16VocTaskPcmBuf,"aw",%nobits
 1937              		.align	2
 1938              		.type	_ps16VocTaskPcmBuf, %object
 1939              		.size	_ps16VocTaskPcmBuf, 9216
 1940              	_ps16VocTaskPcmBuf:
 1941 0000 00000000 		.space	9216
 1941      00000000 
 1941      00000000 
 1941      00000000 
 1941      00000000 
 1942              		.section	.bss._tVdTaskBuffer,"aw",%nobits
 1943              		.align	2
 1944              		.set	.LANCHOR11,. + 0
 1945              		.type	_tVdTaskBuffer, %object
 1946              		.size	_tVdTaskBuffer, 88
 1947              	_tVdTaskBuffer:
 1948 0000 00000000 		.space	88
 1948      00000000 
 1948      00000000 
 1948      00000000 
 1948      00000000 
 1949              		.section	.bss._tVdTaskEvent,"aw",%nobits
 1950              		.align	2
 1951              		.set	.LANCHOR0,. + 0
 1952              		.type	_tVdTaskEvent, %object
 1953              		.size	_tVdTaskEvent, 4
 1954              	_tVdTaskEvent:
 1955 0000 00000000 		.space	4
 1956              		.section	.bss._tVdTaskStack,"aw",%nobits
 1957              		.align	2
 1958              		.set	.LANCHOR12,. + 0
 1959              		.type	_tVdTaskStack, %object
 1960              		.size	_tVdTaskStack, 512
 1961              	_tVdTaskStack:
 1962 0000 00000000 		.space	512
 1962      00000000 
 1962      00000000 
 1962      00000000 
 1962      00000000 
 1963              		.section	.bss._tVocProcEvent,"aw",%nobits
 1964              		.align	2
 1965              		.set	.LANCHOR4,. + 0
 1966              		.type	_tVocProcEvent, %object
 1967              		.size	_tVocProcEvent, 4
 1968              	_tVocProcEvent:
 1969 0000 00000000 		.space	4
 1970              		.section	.bss._tVocStreamBuffer,"aw",%nobits
 1971              		.align	2
 1972              		.set	.LANCHOR1,. + 0
 1973              		.type	_tVocStreamBuffer, %object
 1974              		.size	_tVocStreamBuffer, 4
 1975              	_tVocStreamBuffer:
 1976 0000 00000000 		.space	4
 1977              		.section	.bss._tVocStreamBufferStruct,"aw",%nobits
 1978              		.align	2
ARM GAS  /tmp/ccAD7eaF.s 			page 58


 1979              		.set	.LANCHOR8,. + 0
 1980              		.type	_tVocStreamBufferStruct, %object
 1981              		.size	_tVocStreamBufferStruct, 36
 1982              	_tVocStreamBufferStruct:
 1983 0000 00000000 		.space	36
 1983      00000000 
 1983      00000000 
 1983      00000000 
 1983      00000000 
 1984              		.section	.bss._tVocSyncSem,"aw",%nobits
 1985              		.align	2
 1986              		.set	.LANCHOR5,. + 0
 1987              		.type	_tVocSyncSem, %object
 1988              		.size	_tVocSyncSem, 4
 1989              	_tVocSyncSem:
 1990 0000 00000000 		.space	4
 1991              		.section	.bss._tVocTaskBuffer,"aw",%nobits
 1992              		.align	2
 1993              		.set	.LANCHOR9,. + 0
 1994              		.type	_tVocTaskBuffer, %object
 1995              		.size	_tVocTaskBuffer, 88
 1996              	_tVocTaskBuffer:
 1997 0000 00000000 		.space	88
 1997      00000000 
 1997      00000000 
 1997      00000000 
 1997      00000000 
 1998              		.section	.bss._tVocTaskStack,"aw",%nobits
 1999              		.align	2
 2000              		.set	.LANCHOR10,. + 0
 2001              		.type	_tVocTaskStack, %object
 2002              		.size	_tVocTaskStack, 2048
 2003              	_tVocTaskStack:
 2004 0000 00000000 		.space	2048
 2004      00000000 
 2004      00000000 
 2004      00000000 
 2004      00000000 
 2005              		.section	.bss.err_try_again,"aw",%nobits
 2006              		.align	2
 2007              		.set	.LANCHOR7,. + 0
 2008              		.type	err_try_again, %object
 2009              		.size	err_try_again, 4
 2010              	err_try_again:
 2011 0000 00000000 		.space	4
 2012              		.section	.bss.wakeUpNum.9574,"aw",%nobits
 2013              		.align	2
 2014              		.set	.LANCHOR6,. + 0
 2015              		.type	wakeUpNum.9574, %object
 2016              		.size	wakeUpNum.9574, 4
 2017              	wakeUpNum.9574:
 2018 0000 00000000 		.space	4
 2019              		.section	.rodata.VocTaskEnableFunc.str1.4,"aMS",%progbits,1
 2020              		.align	2
 2021              	.LC20:
 2022 0000 5B564F43 		.ascii	"[VOC ERR] VocTaskEnableFunc failed: parameter error"
 2022      20455252 
ARM GAS  /tmp/ccAD7eaF.s 			page 59


 2022      5D20566F 
 2022      63546173 
 2022      6B456E61 
 2023 0033 0A00     		.ascii	"\012\000"
 2024              		.section	.rodata.VocTaskIsEnableFunc.str1.4,"aMS",%progbits,1
 2025              		.align	2
 2026              	.LC21:
 2027 0000 5B564F43 		.ascii	"[VOC ERR] VocTaskIsEnableFunc failed: parameter err"
 2027      20455252 
 2027      5D20566F 
 2027      63546173 
 2027      6B497345 
 2028 0033 6F720A00 		.ascii	"or\012\000"
 2029              		.section	.rodata.VocTaskRegisterCusFunc.str1.4,"aMS",%progbits,1
 2030              		.align	2
 2031              	.LC18:
 2032 0000 5B564F43 		.ascii	"[VOC] VocTaskRegisterCusFunc: 0x%x\012\000"
 2032      5D20566F 
 2032      63546173 
 2032      6B526567 
 2032      69737465 
 2033              	.LC19:
 2034 0024 5B564F43 		.ascii	"[VOC ERR] VocTaskRegisterCusFunc failed: State not "
 2034      20455252 
 2034      5D20566F 
 2034      63546173 
 2034      6B526567 
 2035 0057 6D617463 		.ascii	"match\012\000"
 2035      680A00
 2036              		.section	.rodata.VocTaskStart.str1.4,"aMS",%progbits,1
 2037              		.align	2
 2038              	.LC22:
 2039 0000 564F4300 		.ascii	"VOC\000"
 2040              	.LC23:
 2041 0004 564400   		.ascii	"VD\000"
 2042              		.section	.rodata.VocTaskVQConfig.str1.4,"aMS",%progbits,1
 2043              		.align	2
 2044              	.LC4:
 2045 0000 5B564F43 		.ascii	"[VOC] MApi_VOC_VQConfig: Mode = %d\012\000"
 2045      5D204D41 
 2045      70695F56 
 2045      4F435F56 
 2045      51436F6E 
 2046              		.section	.rodata.VocTaskVQPost.str1.4,"aMS",%progbits,1
 2047              		.align	2
 2048              	.LC5:
 2049 0000 5B564F43 		.ascii	"[VOC] MApi_VOC_VQPost: Loop again\012\000"
 2049      5D204D41 
 2049      70695F56 
 2049      4F435F56 
 2049      51506F73 
 2050 0023 00       		.space	1
 2051              	.LC6:
 2052 0024 5B564F43 		.ascii	"[VOC] MApi_VOC_VQPost: DWW\012\000"
 2052      5D204D41 
 2052      70695F56 
 2052      4F435F56 
ARM GAS  /tmp/ccAD7eaF.s 			page 60


 2052      51506F73 
 2053              	.LC7:
 2054 0040 5B564F43 		.ascii	"[VOC] MApi_VOC_VQPost: TEST\012\000"
 2054      5D204D41 
 2054      70695F56 
 2054      4F435F56 
 2054      51506F73 
 2055              		.section	.rodata.prvVdProcTask.str1.4,"aMS",%progbits,1
 2056              		.align	2
 2057              	.LC0:
 2058 0000 5B564F43 		.ascii	"[VOC] VdProcTask Start\012\000"
 2058      5D205664 
 2058      50726F63 
 2058      5461736B 
 2058      20537461 
 2059              	.LC1:
 2060 0018 5B564F43 		.ascii	"[VOC] VdTask: Reset\012\000"
 2060      5D205664 
 2060      5461736B 
 2060      3A205265 
 2060      7365740A 
 2061 002d 000000   		.space	3
 2062              	.LC2:
 2063 0030 5B564F43 		.ascii	"[VOC ERR] VdTask: MApi_VOC_VDPort failed\012\000"
 2063      20455252 
 2063      5D205664 
 2063      5461736B 
 2063      3A204D41 
 2064 005a 0000     		.space	2
 2065              	.LC3:
 2066 005c 5B564F43 		.ascii	"[VOC ERR] VdTask: xStreamBufferReceive failed\012\000"
 2066      20455252 
 2066      5D205664 
 2066      5461736B 
 2066      3A207853 
 2067              		.section	.rodata.prvVocProcTask.str1.4,"aMS",%progbits,1
 2068              		.align	2
 2069              	.LC8:
 2070 0000 5B564F43 		.ascii	"[VOC] VocProcTask Start\012\000"
 2070      5D20566F 
 2070      6350726F 
 2070      63546173 
 2070      6B205374 
 2071 0019 000000   		.space	3
 2072              	.LC9:
 2073 001c 5B564F43 		.ascii	"[VOC ERR] MApi_VOC_SrcProcess48k: failed\012\000"
 2073      20455252 
 2073      5D204D41 
 2073      70695F56 
 2073      4F435F53 
 2074 0046 0000     		.space	2
 2075              	.LC10:
 2076 0048 5B564F43 		.ascii	"[VOC ERR] MApi_VOC_Hpf: HPF failed\012\000"
 2076      20455252 
 2076      5D204D41 
 2076      70695F56 
 2076      4F435F48 
ARM GAS  /tmp/ccAD7eaF.s 			page 61


 2077              	.LC11:
 2078 006c 5B564F43 		.ascii	"[VOC ERR] MApi_VOC_SwGain: failed\012\000"
 2078      20455252 
 2078      5D204D41 
 2078      70695F56 
 2078      4F435F53 
 2079 008f 00       		.space	1
 2080              	.LC12:
 2081 0090 5B564F43 		.ascii	"[VOC ERR] MApi_VOC_MicMap: failed\012\000"
 2081      20455252 
 2081      5D204D41 
 2081      70695F56 
 2081      4F435F4D 
 2082 00b3 00       		.space	1
 2083              	.LC13:
 2084 00b4 5B564F43 		.ascii	"[VOC ERR] MApi_VOC_VPPort: VP process test failed\012"
 2084      20455252 
 2084      5D204D41 
 2084      70695F56 
 2084      4F435F56 
 2085 00e6 00       		.ascii	"\000"
 2086 00e7 00       		.space	1
 2087              	.LC14:
 2088 00e8 5B564F43 		.ascii	"[VOC ERR] MApi_VOC_VPPort: VP process failed\012\000"
 2088      20455252 
 2088      5D204D41 
 2088      70695F56 
 2088      4F435F56 
 2089 0116 0000     		.space	2
 2090              	.LC15:
 2091 0118 77616B65 		.ascii	"wake up num ---%d \012\000"
 2091      20757020 
 2091      6E756D20 
 2091      2D2D2D25 
 2091      64200A00 
 2092              	.LC16:
 2093 012c 5B564F43 		.ascii	"[VOC] MApi_VOC_VQPort: VQ process success t = %d\012"
 2093      5D204D41 
 2093      70695F56 
 2093      4F435F56 
 2093      51506F72 
 2094 015d 00       		.ascii	"\000"
 2095 015e 0000     		.space	2
 2096              	.LC17:
 2097 0160 5B564F43 		.ascii	"[VOC ERR] prvVocProcTask: MDrv_AUD_ReadPCM failed\012"
 2097      20455252 
 2097      5D207072 
 2097      76566F63 
 2097      50726F63 
 2098 0192 00       		.ascii	"\000"
 2099              		.text
 2100              	.Letext0:
 2101              		.file 3 "/home/gu/code/freeRTOS10/vendor/mstar/CM4/tools/gcc-arm-none-eabi-8-2018-q4-major/lib/gcc
 2102              		.file 4 "/home/gu/code/freeRTOS10/vendor/mstar/CM4/tools/gcc-arm-none-eabi-8-2018-q4-major/arm-non
 2103              		.file 5 "/home/gu/code/freeRTOS10/vendor/mstar/CM4/tools/gcc-arm-none-eabi-8-2018-q4-major/arm-non
 2104              		.file 6 "/home/gu/code/freeRTOS10/vendor/mstar/CM4/tools/gcc-arm-none-eabi-8-2018-q4-major/arm-non
 2105              		.file 7 "/home/gu/code/freeRTOS10/vendor/mstar/CM4/tools/gcc-arm-none-eabi-8-2018-q4-major/arm-non
ARM GAS  /tmp/ccAD7eaF.s 			page 62


 2106              		.file 8 "/home/gu/code/freeRTOS10/vendor/mstar/CM4/tools/gcc-arm-none-eabi-8-2018-q4-major/arm-non
 2107              		.file 9 "/home/gu/code/freeRTOS10/vendor/mstar/CM4/tools/gcc-arm-none-eabi-8-2018-q4-major/arm-non
 2108              		.file 10 "/home/gu/code/freeRTOS10/vendor/mstar/CM4/tools/gcc-arm-none-eabi-8-2018-q4-major/arm-no
 2109              		.file 11 "../../kernel/FreeRTOS/Source/include/FreeRTOS.h"
 2110              		.file 12 "../../kernel/FreeRTOS/Source/include/queue.h"
 2111              		.file 13 "../../kernel/FreeRTOS/Source/include/semphr.h"
 2112              		.file 14 "../../kernel/FreeRTOS/Source/include/event_groups.h"
 2113              		.file 15 "../../kernel/FreeRTOS/Source/include/stream_buffer.h"
 2114              		.file 16 "../../CMSIS/core_cm4.h"
 2115              		.file 17 "../../peripheral_library/inc/mosWrapper.h"
 2116              		.file 18 "../../main_full/voc_task.h"
 2117              		.file 19 "../../kernel/FreeRTOS/Source/include/task.h"
 2118              		.file 20 "../../peripheral_library/inc/drvAudio.h"
 2119              		.file 21 "../../peripheral_library/hal/m7221/inc/halUART.h"
 2120              		.file 22 "../../peripheral_library/inc/apiVOC.h"
 2121              		.file 23 "/home/gu/code/freeRTOS10/vendor/mstar/CM4/tools/gcc-arm-none-eabi-8-2018-q4-major/arm-no
 2122              		.file 24 "../../peripheral_library/inc/drvPM.h"