ARM GAS  /tmp/ccxvUIDa.s 			page 1


   1              		.cpu cortex-m4
   2              		.eabi_attribute 27, 1	@ Tag_ABI_HardFP_use
   3              		.eabi_attribute 20, 1	@ Tag_ABI_FP_denormal
   4              		.eabi_attribute 21, 1	@ Tag_ABI_FP_exceptions
   5              		.eabi_attribute 23, 3	@ Tag_ABI_FP_number_model
   6              		.eabi_attribute 24, 1	@ Tag_ABI_align8_needed
   7              		.eabi_attribute 25, 1	@ Tag_ABI_align8_preserved
   8              		.eabi_attribute 26, 1	@ Tag_ABI_enum_size
   9              		.eabi_attribute 30, 2	@ Tag_ABI_optimization_goals
  10              		.eabi_attribute 34, 1	@ Tag_CPU_unaligned_access
  11              		.eabi_attribute 18, 4	@ Tag_ABI_PCS_wchar_t
  12              		.file	"drvAudio.c"
  13              	@ GNU C89 (GNU Tools for Arm Embedded Processors 8-2018-q4-major) version 8.2.1 20181213 (release) 
  14              	@	compiled by GNU C version 4.8.4, GMP version 6.1.0, MPFR version 3.1.4, MPC version 1.0.3, isl ve
  15              	
  16              	@ GGC heuristics: --param ggc-min-expand=96 --param ggc-min-heapsize=125422
  17              	@ options passed:  -isystem =/include/newlib-nano -I . -I .
  18              	@ -I ../../kernel/FreeRTOS/Source/include
  19              	@ -I ../../kernel/FreeRTOS/Source/portable/GCC/ARM_CM4F
  20              	@ -I ../../kernel/FreeRTOS/Demo/Common/include
  21              	@ -I ../../kernel/FreeRTOS-Plus/Source/FreeRTOS-Plus-CLI
  22              	@ -I ../../peripheral_library/inc -I ../../peripheral_library/hal/m7221/inc
  23              	@ -I ../../CMSIS -I ../../main_full -I ../../3rd/rokid/./ -I /.
  24              	@ -I /../../kernel/FreeRTOS/Source/include
  25              	@ -I /../../kernel/FreeRTOS/Source/portable/GCC/ARM_CM4F
  26              	@ -I /../../kernel/FreeRTOS/Demo/Common/include
  27              	@ -I /../../kernel/FreeRTOS-Plus/Source/FreeRTOS-Plus-CLI
  28              	@ -I /../../peripheral_library/inc
  29              	@ -I /../../peripheral_library/hal/m7221/inc -I /../../CMSIS
  30              	@ -I /../../main_full -I /../../3rd/rokid/./
  31              	@ -imultilib thumb/v7e-m+fp/softfp
  32              	@ -iprefix /home/gu/code/freeRTOS10/vendor/mstar/CM4/tools/gcc-arm-none-eabi-8-2018-q4-major/bin/..
  33              	@ -isysroot /home/gu/code/freeRTOS10/vendor/mstar/CM4/tools/gcc-arm-none-eabi-8-2018-q4-major/bin/.
  34              	@ -MD out/drvAudio.d -MF out/drvAudio.d -MP -MQ out/drvAudio.o
  35              	@ -D__USES_INITFINI__ -D CONFIG_BENCH=0 -D CONFIG_SYS_DBG_LEVEL=0xFFFFFFFF
  36              	@ -D CONFIG_VOC_MIC=6 -D CONFIG_AUD_I2S -D CONFIG_AUD_AEC
  37              	@ -D CONFIG_VOC_MIC_MAPPING -D CONFIG_VOC_SWHPF -D CONFIG_VOC_SW_SRC48K
  38              	@ -D ARM_MATH_CM4 -D BOOTROM_VERSION_ASIC
  39              	@ ../../peripheral_library/drv/drvAudio.c -mcpu=cortex-m4 -mthumb
  40              	@ -mthumb-interwork -mfloat-abi=softfp -mfpu=fpv4-sp-d16 -march=armv7e-m+fp
  41              	@ -auxbase-strip out/drvAudio.o -g -ggdb3 -O3 -Wall -Wstrict-prototypes
  42              	@ -Wextra -std=gnu90 -ffunction-sections -fdata-sections
  43              	@ -fno-builtin-printf -fverbose-asm
  44              	@ options enabled:  -faggressive-loop-optimizations -falign-jumps
  45              	@ -falign-labels -falign-loops -fauto-inc-dec -fbranch-count-reg
  46              	@ -fcaller-saves -fchkp-check-incomplete-type -fchkp-check-read
  47              	@ -fchkp-check-write -fchkp-instrument-calls -fchkp-narrow-bounds
  48              	@ -fchkp-optimize -fchkp-store-bounds -fchkp-use-static-bounds
  49              	@ -fchkp-use-static-const-bounds -fchkp-use-wrappers -fcode-hoisting
  50              	@ -fcombine-stack-adjustments -fcommon -fcompare-elim -fcprop-registers
  51              	@ -fcrossjumping -fcse-follow-jumps -fdata-sections -fdefer-pop
  52              	@ -fdelete-null-pointer-checks -fdevirtualize -fdevirtualize-speculatively
  53              	@ -fdwarf2-cfi-asm -fearly-inlining -feliminate-unused-debug-types
  54              	@ -fexpensive-optimizations -fforward-propagate -ffp-int-builtin-inexact
  55              	@ -ffunction-cse -ffunction-sections -fgcse -fgcse-after-reload -fgcse-lm
  56              	@ -fgnu-runtime -fgnu-unique -fguess-branch-probability
  57              	@ -fhoist-adjacent-loads -fident -fif-conversion -fif-conversion2
ARM GAS  /tmp/ccxvUIDa.s 			page 2


  58              	@ -findirect-inlining -finline -finline-atomics -finline-functions
  59              	@ -finline-functions-called-once -finline-small-functions -fipa-bit-cp
  60              	@ -fipa-cp -fipa-cp-clone -fipa-icf -fipa-icf-functions -fipa-icf-variables
  61              	@ -fipa-profile -fipa-pure-const -fipa-ra -fipa-reference -fipa-sra
  62              	@ -fipa-vrp -fira-hoist-pressure -fira-share-save-slots
  63              	@ -fira-share-spill-slots -fisolate-erroneous-paths-dereference -fivopts
  64              	@ -fkeep-static-consts -fleading-underscore -flifetime-dse
  65              	@ -floop-interchange -floop-unroll-and-jam -flra-remat
  66              	@ -flto-odr-type-merging -fmath-errno -fmerge-constants
  67              	@ -fmerge-debug-strings -fmove-loop-invariants -fomit-frame-pointer
  68              	@ -foptimize-sibling-calls -foptimize-strlen -fpartial-inlining
  69              	@ -fpeel-loops -fpeephole -fpeephole2 -fplt -fpredictive-commoning
  70              	@ -fprefetch-loop-arrays -freg-struct-return -freorder-blocks
  71              	@ -freorder-functions -frerun-cse-after-loop
  72              	@ -fsched-critical-path-heuristic -fsched-dep-count-heuristic
  73              	@ -fsched-group-heuristic -fsched-interblock -fsched-last-insn-heuristic
  74              	@ -fsched-pressure -fsched-rank-heuristic -fsched-spec
  75              	@ -fsched-spec-insn-heuristic -fsched-stalled-insns-dep -fschedule-insns
  76              	@ -fschedule-insns2 -fsection-anchors -fsemantic-interposition
  77              	@ -fshow-column -fshrink-wrap -fshrink-wrap-separate -fsigned-zeros
  78              	@ -fsplit-ivs-in-unroller -fsplit-loops -fsplit-paths -fsplit-wide-types
  79              	@ -fssa-backprop -fssa-phiopt -fstdarg-opt -fstore-merging
  80              	@ -fstrict-aliasing -fstrict-volatile-bitfields -fsync-libcalls
  81              	@ -fthread-jumps -ftoplevel-reorder -ftrapping-math -ftree-bit-ccp
  82              	@ -ftree-builtin-call-dce -ftree-ccp -ftree-ch -ftree-coalesce-vars
  83              	@ -ftree-copy-prop -ftree-cselim -ftree-dce -ftree-dominator-opts
  84              	@ -ftree-dse -ftree-forwprop -ftree-fre -ftree-loop-distribute-patterns
  85              	@ -ftree-loop-distribution -ftree-loop-if-convert -ftree-loop-im
  86              	@ -ftree-loop-ivcanon -ftree-loop-optimize -ftree-loop-vectorize
  87              	@ -ftree-parallelize-loops= -ftree-partial-pre -ftree-phiprop -ftree-pre
  88              	@ -ftree-pta -ftree-reassoc -ftree-scev-cprop -ftree-sink
  89              	@ -ftree-slp-vectorize -ftree-slsr -ftree-sra -ftree-switch-conversion
  90              	@ -ftree-tail-merge -ftree-ter -ftree-vrp -funit-at-a-time -funswitch-loops
  91              	@ -fvar-tracking -fvar-tracking-assignments -fverbose-asm
  92              	@ -fzero-initialized-in-bss -masm-syntax-unified -mbe32 -mlittle-endian
  93              	@ -mpic-data-is-text-relative -msched-prolog -mthumb -munaligned-access
  94              	@ -mvectorize-with-neon-quad
  95              	
  96              		.text
  97              	.Ltext0:
  98              		.cfi_sections	.debug_frame
  99              		.section	.text.NVIC_Handler_AUDIO,"ax",%progbits
 100              		.align	1
 101              		.p2align 2,,3
 102              		.global	NVIC_Handler_AUDIO
 103              		.arch armv7e-m
 104              		.syntax unified
 105              		.thumb
 106              		.thumb_func
 107              		.fpu fpv4-sp-d16
 108              		.type	NVIC_Handler_AUDIO, %function
 109              	NVIC_Handler_AUDIO:
 110              	.LFB134:
 111              		.file 1 "../../peripheral_library/drv/drvAudio.c"
   1:../../peripheral_library/drv/drvAudio.c **** ////////////////////////////////////////////////////////////////////////////////
   2:../../peripheral_library/drv/drvAudio.c **** //
   3:../../peripheral_library/drv/drvAudio.c **** // Copyright (c) 2018 MStar Semiconductor, Inc.
ARM GAS  /tmp/ccxvUIDa.s 			page 3


   4:../../peripheral_library/drv/drvAudio.c **** // All rights reserved.
   5:../../peripheral_library/drv/drvAudio.c **** //
   6:../../peripheral_library/drv/drvAudio.c **** // Unless otherwise stipulated in writing, any and all information contained
   7:../../peripheral_library/drv/drvAudio.c **** // herein regardless in any format shall remain the sole proprietary of
   8:../../peripheral_library/drv/drvAudio.c **** // MStar Semiconductor Inc. and be kept in strict confidence
   9:../../peripheral_library/drv/drvAudio.c **** // ("MStar Confidential Information") by the recipient.
  10:../../peripheral_library/drv/drvAudio.c **** // Any unauthorized act including without limitation unauthorized disclosure,
  11:../../peripheral_library/drv/drvAudio.c **** // copying, use, reproduction, sale, distribution, modification, disassembling,
  12:../../peripheral_library/drv/drvAudio.c **** // reverse engineering and compiling of the contents of MStar Confidential
  13:../../peripheral_library/drv/drvAudio.c **** // Information is unlawful and strictly prohibited. MStar hereby reserves the
  14:../../peripheral_library/drv/drvAudio.c **** // rights to any and all damages, losses, costs and expenses resulting therefrom.
  15:../../peripheral_library/drv/drvAudio.c **** //
  16:../../peripheral_library/drv/drvAudio.c **** ////////////////////////////////////////////////////////////////////////////////
  17:../../peripheral_library/drv/drvAudio.c **** 
  18:../../peripheral_library/drv/drvAudio.c **** ///////////////////////////////////////////////////////////////////////////////////////////////////
  19:../../peripheral_library/drv/drvAudio.c **** ///
  20:../../peripheral_library/drv/drvAudio.c **** /// file    drvMBX.c
  21:../../peripheral_library/drv/drvAudio.c **** /// @brief  MStar MailBox DDI
  22:../../peripheral_library/drv/drvAudio.c **** /// @author MStar Semiconductor Inc.
  23:../../peripheral_library/drv/drvAudio.c **** ///////////////////////////////////////////////////////////////////////////////////////////////////
  24:../../peripheral_library/drv/drvAudio.c **** 
  25:../../peripheral_library/drv/drvAudio.c **** #define _DRV_AUDIO_C
  26:../../peripheral_library/drv/drvAudio.c **** /* Standard includes. */
  27:../../peripheral_library/drv/drvAudio.c **** #include <string.h>
  28:../../peripheral_library/drv/drvAudio.c **** 
  29:../../peripheral_library/drv/drvAudio.c **** /* Kernel includes. */
  30:../../peripheral_library/drv/drvAudio.c **** #include "mosWrapper.h"
  31:../../peripheral_library/drv/drvAudio.c **** 
  32:../../peripheral_library/drv/drvAudio.c **** /* driver includes. */
  33:../../peripheral_library/drv/drvAudio.c **** #include "drvAudio.h"
  34:../../peripheral_library/drv/drvAudio.c **** #include "halAudio.h"
  35:../../peripheral_library/drv/drvAudio.c **** #include "halUART.h"
  36:../../peripheral_library/drv/drvAudio.c **** #include "halRTC.h"
  37:../../peripheral_library/drv/drvAudio.c **** #include "halTimer.h"
  38:../../peripheral_library/drv/drvAudio.c **** 
  39:../../peripheral_library/drv/drvAudio.c **** //#define CONFIG_AUD_I2S //move to makefile
  40:../../peripheral_library/drv/drvAudio.c **** /*-----------------------------------------------------------*/
  41:../../peripheral_library/drv/drvAudio.c **** 
  42:../../peripheral_library/drv/drvAudio.c **** #define AUDIO_UNDERRUN_MS 10 //10 ms
  43:../../peripheral_library/drv/drvAudio.c **** #define AUDIO_UNDERRUN_SIZE (AUDIO_DMA_WR_SAMPLE_RATE * 2 * AUDIO_DMIC_NO * AUDIO_UNDERRUN_MS/1000)
  44:../../peripheral_library/drv/drvAudio.c **** 
  45:../../peripheral_library/drv/drvAudio.c **** #if defined(CONFIG_VOC_DKWS)
  46:../../peripheral_library/drv/drvAudio.c **** #define AUDIO_OVERRUN_MS (AUDIO_DMA_BUFFER_PERIOD_MS/4) //1/4 buffer size
  47:../../peripheral_library/drv/drvAudio.c **** #else
  48:../../peripheral_library/drv/drvAudio.c **** #define AUDIO_OVERRUN_MS (AUDIO_DMA_BUFFER_PERIOD_MS/12) //1/12 buffer size
  49:../../peripheral_library/drv/drvAudio.c **** #endif
  50:../../peripheral_library/drv/drvAudio.c **** 
  51:../../peripheral_library/drv/drvAudio.c **** #define AUDIO_OVERRUN_SIZE  (AUDIO_DMA_WR_SAMPLE_RATE * 2 * AUDIO_DMIC_NO * AUDIO_OVERRUN_MS/1000)
  52:../../peripheral_library/drv/drvAudio.c **** 
  53:../../peripheral_library/drv/drvAudio.c **** //#define AUDIO_WAIT_OVERRUN_TIME pdMS_TO_TICKS( AUDIO_OVERRUN_MS*2 )
  54:../../peripheral_library/drv/drvAudio.c **** #define AUDIO_WAIT_OVERRUN_TIME portMAX_DELAY
  55:../../peripheral_library/drv/drvAudio.c **** 
  56:../../peripheral_library/drv/drvAudio.c **** #define AUDIO_INT_PRIORITY		( configLIBRARY_MAX_SYSCALL_INTERRUPT_PRIORITY + 1 )
  57:../../peripheral_library/drv/drvAudio.c **** #define AUDIO_VAD_INT_PRIORITY		( configLIBRARY_MAX_SYSCALL_INTERRUPT_PRIORITY - 1 )
  58:../../peripheral_library/drv/drvAudio.c **** 
  59:../../peripheral_library/drv/drvAudio.c **** /*-----------------------------------------------------------*/
  60:../../peripheral_library/drv/drvAudio.c **** 
ARM GAS  /tmp/ccxvUIDa.s 			page 4


  61:../../peripheral_library/drv/drvAudio.c **** #define AUD_MSG(fmt, args...) MOS_DBG_PRINT(MOS_DBG_LEVEL_AUD, "[AUD] " fmt, ##args)
  62:../../peripheral_library/drv/drvAudio.c **** #define AUD_ERROR(fmt, args...) MOS_DBG_ERROR("[AUD] " fmt, ##args);
  63:../../peripheral_library/drv/drvAudio.c **** 
  64:../../peripheral_library/drv/drvAudio.c **** typedef enum
  65:../../peripheral_library/drv/drvAudio.c **** {
  66:../../peripheral_library/drv/drvAudio.c ****   E_AUD_STATE_NONE = 0,
  67:../../peripheral_library/drv/drvAudio.c ****   E_AUD_STATE_INIT,
  68:../../peripheral_library/drv/drvAudio.c ****   E_AUD_STATE_START,
  69:../../peripheral_library/drv/drvAudio.c ****   E_AUD_STATE_STOP,
  70:../../peripheral_library/drv/drvAudio.c ****   E_AUD_STATE_XRUN
  71:../../peripheral_library/drv/drvAudio.c **** } AUD_State_e;
  72:../../peripheral_library/drv/drvAudio.c **** 
  73:../../peripheral_library/drv/drvAudio.c **** static SemaphoreHandle_t _tAudIntSem;
  74:../../peripheral_library/drv/drvAudio.c **** static SemaphoreHandle_t _tAudMutex;
  75:../../peripheral_library/drv/drvAudio.c **** 
  76:../../peripheral_library/drv/drvAudio.c **** #if defined(CONFIG_AUD_VAD)
  77:../../peripheral_library/drv/drvAudio.c **** static Bool _bAudVadEable = FALSE;
  78:../../peripheral_library/drv/drvAudio.c **** static U8 _u8AudVadThr = 0x36;
  79:../../peripheral_library/drv/drvAudio.c **** static U32 _u8AudVadNum = 0;
  80:../../peripheral_library/drv/drvAudio.c **** #endif
  81:../../peripheral_library/drv/drvAudio.c **** 
  82:../../peripheral_library/drv/drvAudio.c **** static AUD_State_e _eAudState = 0;
  83:../../peripheral_library/drv/drvAudio.c **** static AUD_MIC_e _eAudMicNo = AUD_MIC_NO2;
  84:../../peripheral_library/drv/drvAudio.c **** static AUD_Width_e _eAudWidth = AUD_WIDTH_16;
  85:../../peripheral_library/drv/drvAudio.c **** static AUD_Rate_e _eAudRate = AUD_RATE_16K;
  86:../../peripheral_library/drv/drvAudio.c **** #if defined(CONFIG_AUD_HWGAIN)
  87:../../peripheral_library/drv/drvAudio.c **** //static U16 _u16AudDmaMode = 10; //16k
  88:../../peripheral_library/drv/drvAudio.c **** static U8  _u8AudDmicGain = 0; //16k
  89:../../peripheral_library/drv/drvAudio.c **** #endif
  90:../../peripheral_library/drv/drvAudio.c **** static Bool _bAudGenEable = FALSE;
  91:../../peripheral_library/drv/drvAudio.c **** 
  92:../../peripheral_library/drv/drvAudio.c **** #if defined(CONFIG_AUD_AMIC)
  93:../../peripheral_library/drv/drvAudio.c **** static Bool _bAudAmicEable = FALSE;
  94:../../peripheral_library/drv/drvAudio.c **** #endif
  95:../../peripheral_library/drv/drvAudio.c **** static U32 _u32AudStartTime = 0;
  96:../../peripheral_library/drv/drvAudio.c **** static U16 _u16AudStartSubTime = 0;
  97:../../peripheral_library/drv/drvAudio.c **** static U32 _u32AudDeltaTime = 0;
  98:../../peripheral_library/drv/drvAudio.c **** 
  99:../../peripheral_library/drv/drvAudio.c **** __attribute__((section(".dma_buffer_64"))) __attribute__((aligned(64))) static U8 _gMcuDmaBuf[AUDIO
 100:../../peripheral_library/drv/drvAudio.c **** 
 101:../../peripheral_library/drv/drvAudio.c **** 
 102:../../peripheral_library/drv/drvAudio.c **** #if defined(CONFIG_AUD_I2S)
 103:../../peripheral_library/drv/drvAudio.c **** typedef struct
 104:../../peripheral_library/drv/drvAudio.c **** {
 105:../../peripheral_library/drv/drvAudio.c ****   AudI2sFmt_e eI2sFmt;
 106:../../peripheral_library/drv/drvAudio.c ****   Bool bEnable;
 107:../../peripheral_library/drv/drvAudio.c **** } I2S_Mgr;
 108:../../peripheral_library/drv/drvAudio.c **** 
 109:../../peripheral_library/drv/drvAudio.c **** 
 110:../../peripheral_library/drv/drvAudio.c **** static I2S_Mgr _mgrI2S =
 111:../../peripheral_library/drv/drvAudio.c **** {
 112:../../peripheral_library/drv/drvAudio.c ****   .eI2sFmt = AUD_I2S_FMT_I2S,
 113:../../peripheral_library/drv/drvAudio.c ****   .bEnable = FALSE,
 114:../../peripheral_library/drv/drvAudio.c **** };
 115:../../peripheral_library/drv/drvAudio.c **** #endif
 116:../../peripheral_library/drv/drvAudio.c **** 
 117:../../peripheral_library/drv/drvAudio.c **** #if defined(CONFIG_AUD_AEC)
ARM GAS  /tmp/ccxvUIDa.s 			page 5


 118:../../peripheral_library/drv/drvAudio.c **** static Bool _bAudAecEnable = FALSE;
 119:../../peripheral_library/drv/drvAudio.c **** #endif
 120:../../peripheral_library/drv/drvAudio.c **** /*-----------------------------------------------------------*/
 121:../../peripheral_library/drv/drvAudio.c **** 
 122:../../peripheral_library/drv/drvAudio.c **** #if defined(CONFIG_AUD_VAD)
 123:../../peripheral_library/drv/drvAudio.c **** void NVIC_Handler_AUDIO_VAD(void)
 124:../../peripheral_library/drv/drvAudio.c **** {
 125:../../peripheral_library/drv/drvAudio.c **** #if 0
 126:../../peripheral_library/drv/drvAudio.c ****   BaseType_t xHigherPriorityTaskWoken = pdFALSE;
 127:../../peripheral_library/drv/drvAudio.c ****   uint32_t nCmd = AUDIO_CMD_START;
 128:../../peripheral_library/drv/drvAudio.c **** 
 129:../../peripheral_library/drv/drvAudio.c ****   AUD_MSG("NVIC_Handler_AUDIO_VAD\n");
 130:../../peripheral_library/drv/drvAudio.c **** 
 131:../../peripheral_library/drv/drvAudio.c ****   if(xQueueIsQueueFullFromISR(xAudioQueue) != pdTRUE && nCmd)
 132:../../peripheral_library/drv/drvAudio.c ****   {
 133:../../peripheral_library/drv/drvAudio.c ****     UBaseType_t uxSavedInterruptStatus;
 134:../../peripheral_library/drv/drvAudio.c ****     uxSavedInterruptStatus = portSET_INTERRUPT_MASK_FROM_ISR();
 135:../../peripheral_library/drv/drvAudio.c ****     {
 136:../../peripheral_library/drv/drvAudio.c ****       if(xQueueSendFromISR(xAudioQueue, (void *) &nCmd, &xHigherPriorityTaskWoken) != pdPASS)
 137:../../peripheral_library/drv/drvAudio.c ****       {
 138:../../peripheral_library/drv/drvAudio.c ****         AUD_MSG("NVIC_Handler_AUDIO_VAD: xQueueSendFromISR sent failed");
 139:../../peripheral_library/drv/drvAudio.c ****       }
 140:../../peripheral_library/drv/drvAudio.c ****     }
 141:../../peripheral_library/drv/drvAudio.c ****     portCLEAR_INTERRUPT_MASK_FROM_ISR(uxSavedInterruptStatus);
 142:../../peripheral_library/drv/drvAudio.c ****   }
 143:../../peripheral_library/drv/drvAudio.c **** 
 144:../../peripheral_library/drv/drvAudio.c ****   /* Call the IntQ test function for this channel. */
 145:../../peripheral_library/drv/drvAudio.c ****   portYIELD_FROM_ISR(xHigherPriorityTaskWoken);
 146:../../peripheral_library/drv/drvAudio.c **** #endif
 147:../../peripheral_library/drv/drvAudio.c **** 
 148:../../peripheral_library/drv/drvAudio.c ****   AUD_MSG("NVIC_Handler_AUDIO_VAD = %d\r\n", _u8AudVadNum);
 149:../../peripheral_library/drv/drvAudio.c ****   _u8AudVadNum++;
 150:../../peripheral_library/drv/drvAudio.c ****   MHAL_AUD_VADClearInt();
 151:../../peripheral_library/drv/drvAudio.c **** }
 152:../../peripheral_library/drv/drvAudio.c **** #endif
 153:../../peripheral_library/drv/drvAudio.c **** 
 154:../../peripheral_library/drv/drvAudio.c **** void NVIC_Handler_AUDIO(void)
 155:../../peripheral_library/drv/drvAudio.c **** {
 112              		.loc 1 155 1 view -0
 113              		.cfi_startproc
 114              		@ args = 0, pretend = 0, frame = 8
 115              		@ frame_needed = 0, uses_anonymous_args = 0
 156:../../peripheral_library/drv/drvAudio.c ****   BaseType_t xHigherPriorityTaskWoken = pdFALSE;
 116              		.loc 1 156 3 view .LVU1
 117              	@ ../../peripheral_library/drv/drvAudio.c:155: {
 155:../../peripheral_library/drv/drvAudio.c ****   BaseType_t xHigherPriorityTaskWoken = pdFALSE;
 118              		.loc 1 155 1 is_stmt 0 view .LVU2
 119 0000 10B5     		push	{r4, lr}	@
 120              		.cfi_def_cfa_offset 8
 121              		.cfi_offset 4, -8
 122              		.cfi_offset 14, -4
 123 0002 82B0     		sub	sp, sp, #8	@,,
 124              		.cfi_def_cfa_offset 16
 125              	@ ../../peripheral_library/drv/drvAudio.c:156:   BaseType_t xHigherPriorityTaskWoken = pdFALSE;
 126              		.loc 1 156 14 view .LVU3
 127 0004 0024     		movs	r4, #0	@ tmp119,
 128 0006 0194     		str	r4, [sp, #4]	@ tmp119, xHigherPriorityTaskWoken
ARM GAS  /tmp/ccxvUIDa.s 			page 6


 157:../../peripheral_library/drv/drvAudio.c ****   Bool bFull, bOverrun;
 129              		.loc 1 157 3 is_stmt 1 view .LVU4
 158:../../peripheral_library/drv/drvAudio.c ****   //uint32_t nCmd = AUDIO_CMD_NONE;
 159:../../peripheral_library/drv/drvAudio.c **** 
 160:../../peripheral_library/drv/drvAudio.c ****   //AUD_MSG("NVIC_Handler_AUDIO ms = %d\n", xTaskGetTickCount()*portTICK_PERIOD_MS);
 161:../../peripheral_library/drv/drvAudio.c ****   //AUD_MSG("NVIC_Handler_AUDIO ms2 = %d\n", (timer_get_count()/TIMER_DELAY_1ms));
 162:../../peripheral_library/drv/drvAudio.c **** 
 163:../../peripheral_library/drv/drvAudio.c ****   if (MHAL_AUD_DMAIsRunning())
 130              		.loc 1 163 3 view .LVU5
 131              	@ ../../peripheral_library/drv/drvAudio.c:163:   if (MHAL_AUD_DMAIsRunning())
 132              		.loc 1 163 7 is_stmt 0 view .LVU6
 133 0008 FFF7FEFF 		bl	MHAL_AUD_DMAIsRunning		@
 134              	.LVL0:
 135              	@ ../../peripheral_library/drv/drvAudio.c:163:   if (MHAL_AUD_DMAIsRunning())
 136              		.loc 1 163 6 view .LVU7
 137 000c 58B9     		cbnz	r0, .L22	@,
 138              	.L3:
 164:../../peripheral_library/drv/drvAudio.c ****   {
 165:../../peripheral_library/drv/drvAudio.c ****     MHAL_AUD_DMAGetIntStatus(&bFull, &bOverrun);
 166:../../peripheral_library/drv/drvAudio.c **** 
 167:../../peripheral_library/drv/drvAudio.c ****     if(bFull)
 168:../../peripheral_library/drv/drvAudio.c ****     {
 169:../../peripheral_library/drv/drvAudio.c ****       //nCmd = AUDIO_CMD_STOP;
 170:../../peripheral_library/drv/drvAudio.c ****       MHAL_AUD_DMAEnableInt(FALSE, FALSE);
 171:../../peripheral_library/drv/drvAudio.c ****       MHAL_AUD_DMAStop();
 172:../../peripheral_library/drv/drvAudio.c ****       MHAL_AUD_DMAClearInt();
 173:../../peripheral_library/drv/drvAudio.c ****       AUD_MSG("AUDIO ISR: FULL (STOP), delta = 0x%x\r\n", _u32AudDeltaTime);
 174:../../peripheral_library/drv/drvAudio.c ****       _u32AudDeltaTime = 0;
 175:../../peripheral_library/drv/drvAudio.c ****       _eAudState = E_AUD_STATE_XRUN;
 176:../../peripheral_library/drv/drvAudio.c ****     }
 177:../../peripheral_library/drv/drvAudio.c ****     else if(bOverrun)
 178:../../peripheral_library/drv/drvAudio.c ****     {
 179:../../peripheral_library/drv/drvAudio.c ****       //nCmd = AUDIO_CMD_READ;
 180:../../peripheral_library/drv/drvAudio.c ****       MHAL_AUD_DMAEnableInt(TRUE, FALSE);
 181:../../peripheral_library/drv/drvAudio.c ****       if(MHAL_AUD_DMAIsRunning())
 182:../../peripheral_library/drv/drvAudio.c ****         xSemaphoreGiveFromISR(_tAudIntSem, &xHigherPriorityTaskWoken);
 183:../../peripheral_library/drv/drvAudio.c **** 
 184:../../peripheral_library/drv/drvAudio.c ****       //AUD_MSG("AUDIO ISR: OVERRUN, delta = 0x%x\n", _u32AudDeltaTime);
 185:../../peripheral_library/drv/drvAudio.c ****     }
 186:../../peripheral_library/drv/drvAudio.c ****   }
 187:../../peripheral_library/drv/drvAudio.c **** 
 188:../../peripheral_library/drv/drvAudio.c ****   /* Call the IntQ test function for this channel. */
 189:../../peripheral_library/drv/drvAudio.c ****   portYIELD_FROM_ISR(xHigherPriorityTaskWoken);
 139              		.loc 1 189 3 is_stmt 1 view .LVU8
 140 000e 019B     		ldr	r3, [sp, #4]	@ xHigherPriorityTaskWoken, xHigherPriorityTaskWoken
 141 0010 3BB1     		cbz	r3, .L1	@ xHigherPriorityTaskWoken,
 142              		.loc 1 189 3 discriminator 1 view .LVU9
 143 0012 1E4B     		ldr	r3, .L24	@ tmp141,
 144 0014 4FF08052 		mov	r2, #268435456	@ tmp142,
 145 0018 1A60     		str	r2, [r3]	@ tmp142, MEM[(volatile uint32_t *)3758157060B]
 146              		.loc 1 189 3 discriminator 1 view .LVU10
 147              		.syntax unified
 148              	@ 189 "../../peripheral_library/drv/drvAudio.c" 1
 149 001a BFF34F8F 		dsb	
 150              	@ 0 "" 2
 151              		.loc 1 189 3 discriminator 1 view .LVU11
 152              	@ 189 "../../peripheral_library/drv/drvAudio.c" 1
ARM GAS  /tmp/ccxvUIDa.s 			page 7


 153 001e BFF36F8F 		isb
 154              	@ 0 "" 2
 155              		.loc 1 189 47 discriminator 1 view .LVU12
 156              		.thumb
 157              		.syntax unified
 158              	.L1:
 159              	@ ../../peripheral_library/drv/drvAudio.c:191: }
 190:../../peripheral_library/drv/drvAudio.c **** 
 191:../../peripheral_library/drv/drvAudio.c **** }
 160              		.loc 1 191 1 is_stmt 0 view .LVU13
 161 0022 02B0     		add	sp, sp, #8	@,,
 162              		.cfi_remember_state
 163              		.cfi_def_cfa_offset 8
 164              		@ sp needed	@
 165 0024 10BD     		pop	{r4, pc}	@
 166              	.L22:
 167              		.cfi_restore_state
 165:../../peripheral_library/drv/drvAudio.c **** 
 168              		.loc 1 165 5 is_stmt 1 view .LVU14
 169 0026 0DF10301 		add	r1, sp, #3	@,,
 170 002a 0DF10200 		add	r0, sp, #2	@,,
 171 002e FFF7FEFF 		bl	MHAL_AUD_DMAGetIntStatus		@
 172              	.LVL1:
 167:../../peripheral_library/drv/drvAudio.c ****     {
 173              		.loc 1 167 5 view .LVU15
 174              	@ ../../peripheral_library/drv/drvAudio.c:167:     if(bFull)
 167:../../peripheral_library/drv/drvAudio.c ****     {
 175              		.loc 1 167 7 is_stmt 0 view .LVU16
 176 0032 9DF80210 		ldrb	r1, [sp, #2]	@ zero_extendqisi2	@ bFull, bFull
 177 0036 81B9     		cbnz	r1, .L23	@ bFull,
 177:../../peripheral_library/drv/drvAudio.c ****     {
 178              		.loc 1 177 10 is_stmt 1 view .LVU17
 179              	@ ../../peripheral_library/drv/drvAudio.c:177:     else if(bOverrun)
 177:../../peripheral_library/drv/drvAudio.c ****     {
 180              		.loc 1 177 12 is_stmt 0 view .LVU18
 181 0038 9DF80330 		ldrb	r3, [sp, #3]	@ zero_extendqisi2	@ bOverrun, bOverrun
 182 003c 002B     		cmp	r3, #0	@ bOverrun
 183 003e E6D0     		beq	.L3	@
 180:../../peripheral_library/drv/drvAudio.c ****       if(MHAL_AUD_DMAIsRunning())
 184              		.loc 1 180 7 is_stmt 1 view .LVU19
 185 0040 0120     		movs	r0, #1	@,
 186 0042 FFF7FEFF 		bl	MHAL_AUD_DMAEnableInt		@
 187              	.LVL2:
 181:../../peripheral_library/drv/drvAudio.c ****         xSemaphoreGiveFromISR(_tAudIntSem, &xHigherPriorityTaskWoken);
 188              		.loc 1 181 7 view .LVU20
 189              	@ ../../peripheral_library/drv/drvAudio.c:181:       if(MHAL_AUD_DMAIsRunning())
 181:../../peripheral_library/drv/drvAudio.c ****         xSemaphoreGiveFromISR(_tAudIntSem, &xHigherPriorityTaskWoken);
 190              		.loc 1 181 10 is_stmt 0 view .LVU21
 191 0046 FFF7FEFF 		bl	MHAL_AUD_DMAIsRunning		@
 192              	.LVL3:
 193              	@ ../../peripheral_library/drv/drvAudio.c:181:       if(MHAL_AUD_DMAIsRunning())
 181:../../peripheral_library/drv/drvAudio.c ****         xSemaphoreGiveFromISR(_tAudIntSem, &xHigherPriorityTaskWoken);
 194              		.loc 1 181 9 view .LVU22
 195 004a 0028     		cmp	r0, #0	@
 196 004c DFD0     		beq	.L3	@
 182:../../peripheral_library/drv/drvAudio.c **** 
 197              		.loc 1 182 9 is_stmt 1 view .LVU23
ARM GAS  /tmp/ccxvUIDa.s 			page 8


 198 004e 104B     		ldr	r3, .L24+4	@ tmp138,
 199 0050 01A9     		add	r1, sp, #4	@,,
 200 0052 1868     		ldr	r0, [r3]	@, _tAudIntSem
 201 0054 FFF7FEFF 		bl	xQueueGiveFromISR		@
 202              	.LVL4:
 203 0058 D9E7     		b	.L3		@
 204              	.L23:
 170:../../peripheral_library/drv/drvAudio.c ****       MHAL_AUD_DMAStop();
 205              		.loc 1 170 7 view .LVU24
 206 005a 2146     		mov	r1, r4	@, tmp119
 207 005c 2046     		mov	r0, r4	@, tmp1
 208 005e FFF7FEFF 		bl	MHAL_AUD_DMAEnableInt		@
 209              	.LVL5:
 171:../../peripheral_library/drv/drvAudio.c ****       MHAL_AUD_DMAClearInt();
 210              		.loc 1 171 7 view .LVU25
 211 0062 FFF7FEFF 		bl	MHAL_AUD_DMAStop		@
 212              	.LVL6:
 172:../../peripheral_library/drv/drvAudio.c ****       AUD_MSG("AUDIO ISR: FULL (STOP), delta = 0x%x\r\n", _u32AudDeltaTime);
 213              		.loc 1 172 7 view .LVU26
 214 0066 FFF7FEFF 		bl	MHAL_AUD_DMAClearInt		@
 215              	.LVL7:
 173:../../peripheral_library/drv/drvAudio.c ****       _u32AudDeltaTime = 0;
 216              		.loc 1 173 7 view .LVU27
 217 006a 0A4B     		ldr	r3, .L24+8	@ tmp124,
 218 006c 0A4C     		ldr	r4, .L24+12	@ tmp143,
 219 006e 1B68     		ldr	r3, [r3]	@ gu32MosDbgLevel, gu32MosDbgLevel
 220 0070 DB03     		lsls	r3, r3, #15	@, gu32MosDbgLevel,
 221 0072 05D4     		bmi	.L19		@,
 222              	.L5:
 173:../../peripheral_library/drv/drvAudio.c ****       _u32AudDeltaTime = 0;
 223              		.loc 1 173 76 discriminator 3 view .LVU28
 174:../../peripheral_library/drv/drvAudio.c ****       _eAudState = E_AUD_STATE_XRUN;
 224              		.loc 1 174 7 discriminator 3 view .LVU29
 225              	@ ../../peripheral_library/drv/drvAudio.c:175:       _eAudState = E_AUD_STATE_XRUN;
 175:../../peripheral_library/drv/drvAudio.c ****     }
 226              		.loc 1 175 18 is_stmt 0 discriminator 3 view .LVU30
 227 0074 094A     		ldr	r2, .L24+16	@ tmp132,
 228 0076 0421     		movs	r1, #4	@ tmp133,
 229              	@ ../../peripheral_library/drv/drvAudio.c:174:       _u32AudDeltaTime = 0;
 174:../../peripheral_library/drv/drvAudio.c ****       _eAudState = E_AUD_STATE_XRUN;
 230              		.loc 1 174 24 discriminator 3 view .LVU31
 231 0078 0023     		movs	r3, #0	@ tmp131,
 232              	@ ../../peripheral_library/drv/drvAudio.c:175:       _eAudState = E_AUD_STATE_XRUN;
 175:../../peripheral_library/drv/drvAudio.c ****     }
 233              		.loc 1 175 18 discriminator 3 view .LVU32
 234 007a 1170     		strb	r1, [r2]	@ tmp133, _eAudState
 235              	@ ../../peripheral_library/drv/drvAudio.c:174:       _u32AudDeltaTime = 0;
 174:../../peripheral_library/drv/drvAudio.c ****       _eAudState = E_AUD_STATE_XRUN;
 236              		.loc 1 174 24 discriminator 3 view .LVU33
 237 007c 2360     		str	r3, [r4]	@ tmp131, _u32AudDeltaTime
 175:../../peripheral_library/drv/drvAudio.c ****     }
 238              		.loc 1 175 7 is_stmt 1 discriminator 3 view .LVU34
 239 007e C6E7     		b	.L3		@
 240              	.L19:
 173:../../peripheral_library/drv/drvAudio.c ****       _u32AudDeltaTime = 0;
 241              		.loc 1 173 7 discriminator 1 view .LVU35
 242 0080 2168     		ldr	r1, [r4]	@, _u32AudDeltaTime
ARM GAS  /tmp/ccxvUIDa.s 			page 9


 243 0082 0748     		ldr	r0, .L24+20	@,
 244 0084 FFF7FEFF 		bl	UartSendTrace		@
 245              	.LVL8:
 246 0088 F4E7     		b	.L5		@
 247              	.L25:
 248 008a 00BF     		.align	2
 249              	.L24:
 250 008c 04ED00E0 		.word	-536810236
 251 0090 00000000 		.word	.LANCHOR2
 252 0094 00000000 		.word	gu32MosDbgLevel
 253 0098 00000000 		.word	.LANCHOR0
 254 009c 00000000 		.word	.LANCHOR1
 255 00a0 00000000 		.word	.LC0
 256              		.cfi_endproc
 257              	.LFE134:
 258              		.size	NVIC_Handler_AUDIO, .-NVIC_Handler_AUDIO
 259              		.section	.text.MDrv_AUD_SetSampleRate,"ax",%progbits
 260              		.align	1
 261              		.p2align 2,,3
 262              		.global	MDrv_AUD_SetSampleRate
 263              		.syntax unified
 264              		.thumb
 265              		.thumb_func
 266              		.fpu fpv4-sp-d16
 267              		.type	MDrv_AUD_SetSampleRate, %function
 268              	MDrv_AUD_SetSampleRate:
 269              	.LVL9:
 270              	.LFB136:
 192:../../peripheral_library/drv/drvAudio.c **** 
 193:../../peripheral_library/drv/drvAudio.c **** void MDrv_AUD_Init(void)
 194:../../peripheral_library/drv/drvAudio.c **** {
 195:../../peripheral_library/drv/drvAudio.c ****   U32   nOverrunTh;
 196:../../peripheral_library/drv/drvAudio.c **** 
 197:../../peripheral_library/drv/drvAudio.c ****   // Create the semaphore to guard a shared resource.
 198:../../peripheral_library/drv/drvAudio.c ****   _tAudIntSem = xSemaphoreCreateBinary();
 199:../../peripheral_library/drv/drvAudio.c ****   configASSERT( _tAudIntSem );
 200:../../peripheral_library/drv/drvAudio.c ****   _tAudMutex = xSemaphoreCreateMutex();
 201:../../peripheral_library/drv/drvAudio.c ****   configASSERT( _tAudMutex );
 202:../../peripheral_library/drv/drvAudio.c **** 
 203:../../peripheral_library/drv/drvAudio.c ****   _eAudState = E_AUD_STATE_INIT;
 204:../../peripheral_library/drv/drvAudio.c **** 
 205:../../peripheral_library/drv/drvAudio.c ****   MHAL_AUD_Init();
 206:../../peripheral_library/drv/drvAudio.c **** 
 207:../../peripheral_library/drv/drvAudio.c **** #if defined(CONFIG_AUD_I2S)
 208:../../peripheral_library/drv/drvAudio.c ****   MHAL_AUD_I2SInit();
 209:../../peripheral_library/drv/drvAudio.c ****   //MHAL_AUD_I2SSetSynthRate(_mgrI2S.eRate);
 210:../../peripheral_library/drv/drvAudio.c ****   //MHAL_AUD_I2SSetMode(_mgrI2S.eI2sMode);
 211:../../peripheral_library/drv/drvAudio.c ****   //MHAL_AUD_I2SSetBitWidth(_mgrI2S.eWidth);
 212:../../peripheral_library/drv/drvAudio.c ****   //MHAL_AUD_I2SSetMsMode(_mgrI2S.eMsMode);
 213:../../peripheral_library/drv/drvAudio.c ****   MHAL_AUD_I2SSetFmt(_mgrI2S.eI2sFmt);
 214:../../peripheral_library/drv/drvAudio.c **** #endif
 215:../../peripheral_library/drv/drvAudio.c ****   //MHAL_AUD_DMAReset();
 216:../../peripheral_library/drv/drvAudio.c ****   //MHAL_AUD_VADSetThr(0);
 217:../../peripheral_library/drv/drvAudio.c ****   MDrv_AUD_SetMicNo(_eAudMicNo);
 218:../../peripheral_library/drv/drvAudio.c **** 
 219:../../peripheral_library/drv/drvAudio.c **** #if defined(CONFIG_VOC_SW_SRC)
 220:../../peripheral_library/drv/drvAudio.c ****   MDrv_AUD_SetSampleRate(AUD_RATE_32K);
ARM GAS  /tmp/ccxvUIDa.s 			page 10


 221:../../peripheral_library/drv/drvAudio.c **** #elif defined(CONFIG_VOC_SW_SRC48K)
 222:../../peripheral_library/drv/drvAudio.c ****   MDrv_AUD_SetSampleRate(AUD_RATE_48K);
 223:../../peripheral_library/drv/drvAudio.c **** #else
 224:../../peripheral_library/drv/drvAudio.c ****   MDrv_AUD_SetSampleRate(_eAudRate);
 225:../../peripheral_library/drv/drvAudio.c **** #endif
 226:../../peripheral_library/drv/drvAudio.c **** 
 227:../../peripheral_library/drv/drvAudio.c ****   MDrv_AUD_SetBitWidth(_eAudWidth);
 228:../../peripheral_library/drv/drvAudio.c ****   //MHAL_AUD_DMASetChn(_eAudDmaChn);
 229:../../peripheral_library/drv/drvAudio.c ****   //MHAL_AUD_DMASetMode(_u16AudDmaMode);
 230:../../peripheral_library/drv/drvAudio.c ****   //MHAL_AUD_DMASetWidth(_eAudDmaWidth);
 231:../../peripheral_library/drv/drvAudio.c ****   MHAL_AUD_DMAEnableSigGen(_bAudGenEable);
 232:../../peripheral_library/drv/drvAudio.c **** 
 233:../../peripheral_library/drv/drvAudio.c ****   //memset(_gMcuDmaBuf, 0, DMA_BUF_SIZE);
 234:../../peripheral_library/drv/drvAudio.c ****   memset(_gMcuDmaBuf, 0xa, AUDIO_DMA_BUF_SIZE);
 235:../../peripheral_library/drv/drvAudio.c ****   MHAL_AUD_DMASetBufAddr(_gMcuDmaBuf, AUDIO_DMA_BUF_SIZE);
 236:../../peripheral_library/drv/drvAudio.c ****   AUD_MSG("MDrv_AUD_Init memory size = 0x%x, addr = 0x%x\r\n", AUDIO_DMA_BUF_SIZE, _gMcuDmaBuf);
 237:../../peripheral_library/drv/drvAudio.c **** 
 238:../../peripheral_library/drv/drvAudio.c ****   nOverrunTh = AUDIO_OVERRUN_SIZE;
 239:../../peripheral_library/drv/drvAudio.c ****   MHAL_AUD_DMASetBufOverThr(nOverrunTh);
 240:../../peripheral_library/drv/drvAudio.c **** 
 241:../../peripheral_library/drv/drvAudio.c ****   MHAL_AUD_DMAEnableInt(FALSE, FALSE);
 242:../../peripheral_library/drv/drvAudio.c **** 
 243:../../peripheral_library/drv/drvAudio.c **** /*
 244:../../peripheral_library/drv/drvAudio.c **** extern unsigned long __Vectors[];
 245:../../peripheral_library/drv/drvAudio.c **** 
 246:../../peripheral_library/drv/drvAudio.c ****   __Vectors[AUDIO_IRQn + 16] = (unsigned long)NVIC_Handler_AUDIO;
 247:../../peripheral_library/drv/drvAudio.c **** 
 248:../../peripheral_library/drv/drvAudio.c ****   NVIC_SetPriority(AUDIO_IRQn, AUDIO_INT_PRIORITY);
 249:../../peripheral_library/drv/drvAudio.c ****   NVIC_ClearPendingIRQ(AUDIO_IRQn);
 250:../../peripheral_library/drv/drvAudio.c ****   NVIC_EnableIRQ(AUDIO_IRQn);
 251:../../peripheral_library/drv/drvAudio.c **** */
 252:../../peripheral_library/drv/drvAudio.c **** 
 253:../../peripheral_library/drv/drvAudio.c ****   MOS_IRQn_AttachIsr(NVIC_Handler_AUDIO, AUDIO_IRQn, AUDIO_INT_PRIORITY);
 254:../../peripheral_library/drv/drvAudio.c ****   MOS_IRQn_Unmask(AUDIO_IRQn);
 255:../../peripheral_library/drv/drvAudio.c **** 
 256:../../peripheral_library/drv/drvAudio.c **** #if defined(CONFIG_AUD_VAD)
 257:../../peripheral_library/drv/drvAudio.c ****   MHAL_AUD_VADSetThr(_u8AudVadThr);
 258:../../peripheral_library/drv/drvAudio.c ****   MHAL_AUD_VADEn(FALSE);
 259:../../peripheral_library/drv/drvAudio.c ****   MOS_IRQn_AttachIsr(NVIC_Handler_AUDIO_VAD, AUDIO_VAD_IRQn, AUDIO_VAD_INT_PRIORITY);
 260:../../peripheral_library/drv/drvAudio.c ****   //MOS_IRQn_Unmask(AUDIO_VAD_IRQn);
 261:../../peripheral_library/drv/drvAudio.c **** #endif
 262:../../peripheral_library/drv/drvAudio.c **** 
 263:../../peripheral_library/drv/drvAudio.c **** /*
 264:../../peripheral_library/drv/drvAudio.c ****   NVIC_SetPriority(AUDIO_VAD_IRQn, AUDIO_VAD_INT_PRIORITY);
 265:../../peripheral_library/drv/drvAudio.c ****   NVIC_ClearPendingIRQ(AUDIO_VAD_IRQn);
 266:../../peripheral_library/drv/drvAudio.c ****   NVIC_EnableIRQ(AUDIO_VAD_IRQn);
 267:../../peripheral_library/drv/drvAudio.c **** 
 268:../../peripheral_library/drv/drvAudio.c ****   uIntIsr.pdfNvicIsr = NVIC_Handler_AUDIO_VAD;
 269:../../peripheral_library/drv/drvAudio.c ****   MOS_IRQn_AttachIsr(uIntIsr, AUDIO_VAD_IRQn, AUDIO_VAD_INT_PRIORITY);
 270:../../peripheral_library/drv/drvAudio.c ****   MOS_IRQn_Unmask(AUDIO_VAD_IRQn);
 271:../../peripheral_library/drv/drvAudio.c **** 
 272:../../peripheral_library/drv/drvAudio.c **** */
 273:../../peripheral_library/drv/drvAudio.c **** }
 274:../../peripheral_library/drv/drvAudio.c **** 
 275:../../peripheral_library/drv/drvAudio.c **** void MDrv_AUD_SetSampleRate(AUD_Rate_e eRate)
 276:../../peripheral_library/drv/drvAudio.c **** {
 271              		.loc 1 276 1 view -0
ARM GAS  /tmp/ccxvUIDa.s 			page 11


 272              		.cfi_startproc
 273              		@ args = 0, pretend = 0, frame = 0
 274              		@ frame_needed = 0, uses_anonymous_args = 0
 277:../../peripheral_library/drv/drvAudio.c ****   if( xSemaphoreTake( _tAudMutex, portMAX_DELAY ) == pdPASS )
 275              		.loc 1 277 3 view .LVU37
 276              	@ ../../peripheral_library/drv/drvAudio.c:276: {
 276:../../peripheral_library/drv/drvAudio.c ****   if( xSemaphoreTake( _tAudMutex, portMAX_DELAY ) == pdPASS )
 277              		.loc 1 276 1 is_stmt 0 view .LVU38
 278 0000 70B5     		push	{r4, r5, r6, lr}	@
 279              		.cfi_def_cfa_offset 16
 280              		.cfi_offset 4, -16
 281              		.cfi_offset 5, -12
 282              		.cfi_offset 6, -8
 283              		.cfi_offset 14, -4
 284              	@ ../../peripheral_library/drv/drvAudio.c:277:   if( xSemaphoreTake( _tAudMutex, portMAX_DELAY ) ==
 285              		.loc 1 277 7 view .LVU39
 286 0002 404C     		ldr	r4, .L42	@ tmp142,
 287              	@ ../../peripheral_library/drv/drvAudio.c:276: {
 276:../../peripheral_library/drv/drvAudio.c ****   if( xSemaphoreTake( _tAudMutex, portMAX_DELAY ) == pdPASS )
 288              		.loc 1 276 1 view .LVU40
 289 0004 0546     		mov	r5, r0	@ eRate, eRate
 290              	@ ../../peripheral_library/drv/drvAudio.c:277:   if( xSemaphoreTake( _tAudMutex, portMAX_DELAY ) ==
 291              		.loc 1 277 7 view .LVU41
 292 0006 4FF0FF31 		mov	r1, #-1	@,
 293 000a 2068     		ldr	r0, [r4]	@, _tAudMutex
 294              	.LVL10:
 295              		.loc 1 277 7 view .LVU42
 296 000c FFF7FEFF 		bl	xQueueSemaphoreTake		@
 297              	.LVL11:
 298              	@ ../../peripheral_library/drv/drvAudio.c:277:   if( xSemaphoreTake( _tAudMutex, portMAX_DELAY ) ==
 299              		.loc 1 277 5 view .LVU43
 300 0010 0128     		cmp	r0, #1	@,
 301 0012 00D0     		beq	.L41		@,
 302              	@ ../../peripheral_library/drv/drvAudio.c:356: }
 278:../../peripheral_library/drv/drvAudio.c **** 	{
 279:../../peripheral_library/drv/drvAudio.c ****     switch(eRate)
 280:../../peripheral_library/drv/drvAudio.c ****     {
 281:../../peripheral_library/drv/drvAudio.c **** #if defined(CONFIG_AUD_I2S)
 282:../../peripheral_library/drv/drvAudio.c ****       case AUD_RATE_SLAVE:
 283:../../peripheral_library/drv/drvAudio.c ****         MHAL_AUD_I2SSetSynthRate(AUD_I2S_RATE_8K);
 284:../../peripheral_library/drv/drvAudio.c ****         MHAL_AUD_I2SSetMsMode(AUD_I2S_MSMODE_SLAVE);
 285:../../peripheral_library/drv/drvAudio.c ****         _eAudRate = eRate;
 286:../../peripheral_library/drv/drvAudio.c ****         break;
 287:../../peripheral_library/drv/drvAudio.c ****       case AUD_RATE_96K:
 288:../../peripheral_library/drv/drvAudio.c ****         MHAL_AUD_I2SSetSynthRate(AUD_I2S_RATE_96K);
 289:../../peripheral_library/drv/drvAudio.c ****         MHAL_AUD_I2SSetMsMode(AUD_I2S_MSMODE_MASTER);
 290:../../peripheral_library/drv/drvAudio.c ****         _eAudRate = eRate;
 291:../../peripheral_library/drv/drvAudio.c ****         break;
 292:../../peripheral_library/drv/drvAudio.c **** #endif
 293:../../peripheral_library/drv/drvAudio.c ****       case AUD_RATE_8K:
 294:../../peripheral_library/drv/drvAudio.c ****         MHAL_AUD_DMASetModeExt(0x8000);
 295:../../peripheral_library/drv/drvAudio.c ****         MHAL_AUD_DMASetMode(7);
 296:../../peripheral_library/drv/drvAudio.c **** #if defined(CONFIG_AUD_AMIC)
 297:../../peripheral_library/drv/drvAudio.c ****        if(_bAudAmicEable)
 298:../../peripheral_library/drv/drvAudio.c ****          MHAL_AUD_AdcSetRate(AUD_ADC_RATE_8K);
 299:../../peripheral_library/drv/drvAudio.c **** #endif
 300:../../peripheral_library/drv/drvAudio.c **** #if defined(CONFIG_AUD_I2S)
ARM GAS  /tmp/ccxvUIDa.s 			page 12


 301:../../peripheral_library/drv/drvAudio.c ****         MHAL_AUD_I2SSetSynthRate(AUD_I2S_RATE_8K);
 302:../../peripheral_library/drv/drvAudio.c ****         MHAL_AUD_I2SSetMsMode(AUD_I2S_MSMODE_MASTER);
 303:../../peripheral_library/drv/drvAudio.c **** #endif
 304:../../peripheral_library/drv/drvAudio.c ****         _eAudRate = eRate;
 305:../../peripheral_library/drv/drvAudio.c ****         break;
 306:../../peripheral_library/drv/drvAudio.c ****       case AUD_RATE_16K:
 307:../../peripheral_library/drv/drvAudio.c ****         MHAL_AUD_DMASetModeExt(0x8000);
 308:../../peripheral_library/drv/drvAudio.c ****         MHAL_AUD_DMASetMode(11);
 309:../../peripheral_library/drv/drvAudio.c ****         MHAL_AUD_DMicSelPhase(0x0904);//for 16kHz 2.4M
 310:../../peripheral_library/drv/drvAudio.c **** #if defined(CONFIG_AUD_AMIC)
 311:../../peripheral_library/drv/drvAudio.c ****        if(_bAudAmicEable)
 312:../../peripheral_library/drv/drvAudio.c ****          MHAL_AUD_AdcSetRate(AUD_ADC_RATE_16K);
 313:../../peripheral_library/drv/drvAudio.c **** #endif
 314:../../peripheral_library/drv/drvAudio.c **** #if defined(CONFIG_AUD_I2S)
 315:../../peripheral_library/drv/drvAudio.c ****         MHAL_AUD_I2SSetSynthRate(AUD_I2S_RATE_16K);
 316:../../peripheral_library/drv/drvAudio.c ****         MHAL_AUD_I2SSetMsMode(AUD_I2S_MSMODE_MASTER);
 317:../../peripheral_library/drv/drvAudio.c **** #endif
 318:../../peripheral_library/drv/drvAudio.c ****         _eAudRate = eRate;
 319:../../peripheral_library/drv/drvAudio.c ****         break;
 320:../../peripheral_library/drv/drvAudio.c ****       case AUD_RATE_32K:
 321:../../peripheral_library/drv/drvAudio.c ****         MHAL_AUD_DMASetModeExt(0x8000);
 322:../../peripheral_library/drv/drvAudio.c ****         MHAL_AUD_DMASetMode(15);
 323:../../peripheral_library/drv/drvAudio.c ****         MHAL_AUD_DMicSelPhase(0x0502);//for 32kHz 4M
 324:../../peripheral_library/drv/drvAudio.c **** #if defined(CONFIG_AUD_AMIC)
 325:../../peripheral_library/drv/drvAudio.c ****        if(_bAudAmicEable)
 326:../../peripheral_library/drv/drvAudio.c ****          MHAL_AUD_AdcSetRate(AUD_ADC_RATE_32K);
 327:../../peripheral_library/drv/drvAudio.c **** #endif
 328:../../peripheral_library/drv/drvAudio.c **** #if defined(CONFIG_AUD_I2S)
 329:../../peripheral_library/drv/drvAudio.c ****         MHAL_AUD_I2SSetSynthRate(AUD_I2S_RATE_32K);
 330:../../peripheral_library/drv/drvAudio.c ****         MHAL_AUD_I2SSetMsMode(AUD_I2S_MSMODE_MASTER);
 331:../../peripheral_library/drv/drvAudio.c **** #endif
 332:../../peripheral_library/drv/drvAudio.c ****         _eAudRate = eRate;
 333:../../peripheral_library/drv/drvAudio.c ****         break;
 334:../../peripheral_library/drv/drvAudio.c ****       case AUD_RATE_48K:
 335:../../peripheral_library/drv/drvAudio.c **** //#if defined(CONFIG_VOC_SW_SRC48K)
 336:../../peripheral_library/drv/drvAudio.c ****         MHAL_AUD_DMASetModeExt(0x0317);
 337:../../peripheral_library/drv/drvAudio.c ****         MHAL_AUD_DMicSelPhase(0x0904);//for 48kHz 2.4M
 338:../../peripheral_library/drv/drvAudio.c **** //#else
 339:../../peripheral_library/drv/drvAudio.c **** //        MHAL_AUD_DMASetMode(16);
 340:../../peripheral_library/drv/drvAudio.c **** //#endif
 341:../../peripheral_library/drv/drvAudio.c **** #if defined(CONFIG_AUD_AMIC)
 342:../../peripheral_library/drv/drvAudio.c ****        if(_bAudAmicEable)
 343:../../peripheral_library/drv/drvAudio.c ****          MHAL_AUD_AdcSetRate(AUD_ADC_RATE_48K);
 344:../../peripheral_library/drv/drvAudio.c **** #endif
 345:../../peripheral_library/drv/drvAudio.c **** #if defined(CONFIG_AUD_I2S)
 346:../../peripheral_library/drv/drvAudio.c ****         MHAL_AUD_I2SSetSynthRate(AUD_I2S_RATE_48K);
 347:../../peripheral_library/drv/drvAudio.c ****         MHAL_AUD_I2SSetMsMode(AUD_I2S_MSMODE_MASTER);
 348:../../peripheral_library/drv/drvAudio.c **** #endif
 349:../../peripheral_library/drv/drvAudio.c ****         _eAudRate = eRate;
 350:../../peripheral_library/drv/drvAudio.c ****         break;
 351:../../peripheral_library/drv/drvAudio.c ****       default:
 352:../../peripheral_library/drv/drvAudio.c ****         AUD_ERROR("MDrv_AUD_SetSampleRate failed\r\n");
 353:../../peripheral_library/drv/drvAudio.c ****     }
 354:../../peripheral_library/drv/drvAudio.c ****     xSemaphoreGive(_tAudMutex);
 355:../../peripheral_library/drv/drvAudio.c ****   }
 356:../../peripheral_library/drv/drvAudio.c **** }
 303              		.loc 1 356 1 view .LVU44
ARM GAS  /tmp/ccxvUIDa.s 			page 13


 304 0014 70BD     		pop	{r4, r5, r6, pc}	@
 305              	.L41:
 306              	.LVL12:
 307              	.LBB8:
 308              	.LBI8:
 275:../../peripheral_library/drv/drvAudio.c **** {
 309              		.loc 1 275 6 is_stmt 1 view .LVU45
 310              	.LBB9:
 279:../../peripheral_library/drv/drvAudio.c ****     {
 311              		.loc 1 279 5 view .LVU46
 312 0016 052D     		cmp	r5, #5	@ eRate,
 313 0018 6CD8     		bhi	.L28		@
 314 001a DFE805F0 		tbb	[pc, r5]	@ eRate
 315              	.L30:
 316 001e 14       		.byte	(.L35-.L30)/2
 317 001f 1E       		.byte	(.L34-.L30)/2
 318 0020 2F       		.byte	(.L33-.L30)/2
 319 0021 44       		.byte	(.L32-.L30)/2
 320 0022 59       		.byte	(.L31-.L30)/2
 321 0023 03       		.byte	(.L29-.L30)/2
 322              		.p2align 1
 323              	.L29:
 288:../../peripheral_library/drv/drvAudio.c ****         MHAL_AUD_I2SSetMsMode(AUD_I2S_MSMODE_MASTER);
 324              		.loc 1 288 9 view .LVU47
 325 0024 0520     		movs	r0, #5	@,
 326 0026 FFF7FEFF 		bl	MHAL_AUD_I2SSetSynthRate		@
 327              	.LVL13:
 289:../../peripheral_library/drv/drvAudio.c ****         _eAudRate = eRate;
 328              		.loc 1 289 9 view .LVU48
 329 002a 0120     		movs	r0, #1	@,
 330 002c FFF7FEFF 		bl	MHAL_AUD_I2SSetMsMode		@
 331              	.LVL14:
 290:../../peripheral_library/drv/drvAudio.c ****         break;
 332              		.loc 1 290 9 view .LVU49
 333              	@ ../../peripheral_library/drv/drvAudio.c:290:         _eAudRate = eRate;
 290:../../peripheral_library/drv/drvAudio.c ****         break;
 334              		.loc 1 290 19 is_stmt 0 view .LVU50
 335 0030 354B     		ldr	r3, .L42+4	@ tmp121,
 336 0032 0522     		movs	r2, #5	@ tmp122,
 337 0034 1A70     		strb	r2, [r3]	@ tmp122, _eAudRate
 291:../../peripheral_library/drv/drvAudio.c **** #endif
 338              		.loc 1 291 9 is_stmt 1 view .LVU51
 339              	.L36:
 352:../../peripheral_library/drv/drvAudio.c ****     }
 340              		.loc 1 352 9 view .LVU52
 352:../../peripheral_library/drv/drvAudio.c ****     }
 341              		.loc 1 352 55 view .LVU53
 354:../../peripheral_library/drv/drvAudio.c ****   }
 342              		.loc 1 354 5 view .LVU54
 343 0036 0023     		movs	r3, #0	@,
 344 0038 2068     		ldr	r0, [r4]	@, _tAudMutex
 345 003a 1A46     		mov	r2, r3	@,
 346 003c 1946     		mov	r1, r3	@,
 347              	.LBE9:
 348              	.LBE8:
 349              	@ ../../peripheral_library/drv/drvAudio.c:356: }
 350              		.loc 1 356 1 is_stmt 0 view .LVU55
ARM GAS  /tmp/ccxvUIDa.s 			page 14


 351 003e BDE87040 		pop	{r4, r5, r6, lr}	@
 352              		.cfi_remember_state
 353              		.cfi_restore 14
 354              		.cfi_restore 6
 355              		.cfi_restore 5
 356              		.cfi_restore 4
 357              		.cfi_def_cfa_offset 0
 358              	.LVL15:
 359              	.LBB11:
 360              	.LBB10:
 361              	@ ../../peripheral_library/drv/drvAudio.c:354:     xSemaphoreGive(_tAudMutex);
 354:../../peripheral_library/drv/drvAudio.c ****   }
 362              		.loc 1 354 5 view .LVU56
 363 0042 FFF7FEBF 		b	xQueueGenericSend		@
 364              	.LVL16:
 365              	.L35:
 366              		.cfi_restore_state
 283:../../peripheral_library/drv/drvAudio.c ****         MHAL_AUD_I2SSetMsMode(AUD_I2S_MSMODE_SLAVE);
 367              		.loc 1 283 9 is_stmt 1 view .LVU57
 368 0046 0120     		movs	r0, #1	@,
 369 0048 FFF7FEFF 		bl	MHAL_AUD_I2SSetSynthRate		@
 370              	.LVL17:
 284:../../peripheral_library/drv/drvAudio.c ****         _eAudRate = eRate;
 371              		.loc 1 284 9 view .LVU58
 372 004c 0020     		movs	r0, #0	@,
 373 004e FFF7FEFF 		bl	MHAL_AUD_I2SSetMsMode		@
 374              	.LVL18:
 285:../../peripheral_library/drv/drvAudio.c ****         break;
 375              		.loc 1 285 9 view .LVU59
 376              	@ ../../peripheral_library/drv/drvAudio.c:285:         _eAudRate = eRate;
 285:../../peripheral_library/drv/drvAudio.c ****         break;
 377              		.loc 1 285 19 is_stmt 0 view .LVU60
 378 0052 2D4B     		ldr	r3, .L42+4	@ tmp118,
 379 0054 0022     		movs	r2, #0	@ tmp119,
 380 0056 1A70     		strb	r2, [r3]	@ tmp119, _eAudRate
 286:../../peripheral_library/drv/drvAudio.c ****       case AUD_RATE_96K:
 381              		.loc 1 286 9 is_stmt 1 view .LVU61
 382 0058 EDE7     		b	.L36		@
 383              	.L34:
 294:../../peripheral_library/drv/drvAudio.c ****         MHAL_AUD_DMASetMode(7);
 384              		.loc 1 294 9 view .LVU62
 385 005a 4FF40040 		mov	r0, #32768	@,
 386 005e FFF7FEFF 		bl	MHAL_AUD_DMASetModeExt		@
 387              	.LVL19:
 295:../../peripheral_library/drv/drvAudio.c **** #if defined(CONFIG_AUD_AMIC)
 388              		.loc 1 295 9 view .LVU63
 389 0062 0720     		movs	r0, #7	@,
 390 0064 FFF7FEFF 		bl	MHAL_AUD_DMASetMode		@
 391              	.LVL20:
 301:../../peripheral_library/drv/drvAudio.c ****         MHAL_AUD_I2SSetMsMode(AUD_I2S_MSMODE_MASTER);
 392              		.loc 1 301 9 view .LVU64
 393 0068 0120     		movs	r0, #1	@,
 394 006a FFF7FEFF 		bl	MHAL_AUD_I2SSetSynthRate		@
 395              	.LVL21:
 302:../../peripheral_library/drv/drvAudio.c **** #endif
 396              		.loc 1 302 9 view .LVU65
 397 006e 0120     		movs	r0, #1	@,
ARM GAS  /tmp/ccxvUIDa.s 			page 15


 398 0070 FFF7FEFF 		bl	MHAL_AUD_I2SSetMsMode		@
 399              	.LVL22:
 304:../../peripheral_library/drv/drvAudio.c ****         break;
 400              		.loc 1 304 9 view .LVU66
 401              	@ ../../peripheral_library/drv/drvAudio.c:304:         _eAudRate = eRate;
 304:../../peripheral_library/drv/drvAudio.c ****         break;
 402              		.loc 1 304 19 is_stmt 0 view .LVU67
 403 0074 244B     		ldr	r3, .L42+4	@ tmp124,
 404 0076 0122     		movs	r2, #1	@ tmp125,
 405 0078 1A70     		strb	r2, [r3]	@ tmp125, _eAudRate
 305:../../peripheral_library/drv/drvAudio.c ****       case AUD_RATE_16K:
 406              		.loc 1 305 9 is_stmt 1 view .LVU68
 407 007a DCE7     		b	.L36		@
 408              	.L33:
 307:../../peripheral_library/drv/drvAudio.c ****         MHAL_AUD_DMASetMode(11);
 409              		.loc 1 307 9 view .LVU69
 410 007c 4FF40040 		mov	r0, #32768	@,
 411 0080 FFF7FEFF 		bl	MHAL_AUD_DMASetModeExt		@
 412              	.LVL23:
 308:../../peripheral_library/drv/drvAudio.c ****         MHAL_AUD_DMicSelPhase(0x0904);//for 16kHz 2.4M
 413              		.loc 1 308 9 view .LVU70
 414 0084 0B20     		movs	r0, #11	@,
 415 0086 FFF7FEFF 		bl	MHAL_AUD_DMASetMode		@
 416              	.LVL24:
 309:../../peripheral_library/drv/drvAudio.c **** #if defined(CONFIG_AUD_AMIC)
 417              		.loc 1 309 9 view .LVU71
 418 008a 40F60410 		movw	r0, #2308	@,
 419 008e FFF7FEFF 		bl	MHAL_AUD_DMicSelPhase		@
 420              	.LVL25:
 315:../../peripheral_library/drv/drvAudio.c ****         MHAL_AUD_I2SSetMsMode(AUD_I2S_MSMODE_MASTER);
 421              		.loc 1 315 9 view .LVU72
 422 0092 0220     		movs	r0, #2	@,
 423 0094 FFF7FEFF 		bl	MHAL_AUD_I2SSetSynthRate		@
 424              	.LVL26:
 316:../../peripheral_library/drv/drvAudio.c **** #endif
 425              		.loc 1 316 9 view .LVU73
 426 0098 0120     		movs	r0, #1	@,
 427 009a FFF7FEFF 		bl	MHAL_AUD_I2SSetMsMode		@
 428              	.LVL27:
 318:../../peripheral_library/drv/drvAudio.c ****         break;
 429              		.loc 1 318 9 view .LVU74
 430              	@ ../../peripheral_library/drv/drvAudio.c:318:         _eAudRate = eRate;
 318:../../peripheral_library/drv/drvAudio.c ****         break;
 431              		.loc 1 318 19 is_stmt 0 view .LVU75
 432 009e 1A4B     		ldr	r3, .L42+4	@ tmp127,
 433 00a0 0222     		movs	r2, #2	@ tmp128,
 434 00a2 1A70     		strb	r2, [r3]	@ tmp128, _eAudRate
 319:../../peripheral_library/drv/drvAudio.c ****       case AUD_RATE_32K:
 435              		.loc 1 319 9 is_stmt 1 view .LVU76
 436 00a4 C7E7     		b	.L36		@
 437              	.L32:
 321:../../peripheral_library/drv/drvAudio.c ****         MHAL_AUD_DMASetMode(15);
 438              		.loc 1 321 9 view .LVU77
 439 00a6 4FF40040 		mov	r0, #32768	@,
 440 00aa FFF7FEFF 		bl	MHAL_AUD_DMASetModeExt		@
 441              	.LVL28:
 322:../../peripheral_library/drv/drvAudio.c ****         MHAL_AUD_DMicSelPhase(0x0502);//for 32kHz 4M
ARM GAS  /tmp/ccxvUIDa.s 			page 16


 442              		.loc 1 322 9 view .LVU78
 443 00ae 0F20     		movs	r0, #15	@,
 444 00b0 FFF7FEFF 		bl	MHAL_AUD_DMASetMode		@
 445              	.LVL29:
 323:../../peripheral_library/drv/drvAudio.c **** #if defined(CONFIG_AUD_AMIC)
 446              		.loc 1 323 9 view .LVU79
 447 00b4 40F20250 		movw	r0, #1282	@,
 448 00b8 FFF7FEFF 		bl	MHAL_AUD_DMicSelPhase		@
 449              	.LVL30:
 329:../../peripheral_library/drv/drvAudio.c ****         MHAL_AUD_I2SSetMsMode(AUD_I2S_MSMODE_MASTER);
 450              		.loc 1 329 9 view .LVU80
 451 00bc 0320     		movs	r0, #3	@,
 452 00be FFF7FEFF 		bl	MHAL_AUD_I2SSetSynthRate		@
 453              	.LVL31:
 330:../../peripheral_library/drv/drvAudio.c **** #endif
 454              		.loc 1 330 9 view .LVU81
 455 00c2 0120     		movs	r0, #1	@,
 456 00c4 FFF7FEFF 		bl	MHAL_AUD_I2SSetMsMode		@
 457              	.LVL32:
 332:../../peripheral_library/drv/drvAudio.c ****         break;
 458              		.loc 1 332 9 view .LVU82
 459              	@ ../../peripheral_library/drv/drvAudio.c:332:         _eAudRate = eRate;
 332:../../peripheral_library/drv/drvAudio.c ****         break;
 460              		.loc 1 332 19 is_stmt 0 view .LVU83
 461 00c8 0F4B     		ldr	r3, .L42+4	@ tmp130,
 462 00ca 0322     		movs	r2, #3	@ tmp131,
 463 00cc 1A70     		strb	r2, [r3]	@ tmp131, _eAudRate
 333:../../peripheral_library/drv/drvAudio.c ****       case AUD_RATE_48K:
 464              		.loc 1 333 9 is_stmt 1 view .LVU84
 465 00ce B2E7     		b	.L36		@
 466              	.L31:
 336:../../peripheral_library/drv/drvAudio.c ****         MHAL_AUD_DMicSelPhase(0x0904);//for 48kHz 2.4M
 467              		.loc 1 336 9 view .LVU85
 468 00d0 40F21730 		movw	r0, #791	@,
 469 00d4 FFF7FEFF 		bl	MHAL_AUD_DMASetModeExt		@
 470              	.LVL33:
 337:../../peripheral_library/drv/drvAudio.c **** //#else
 471              		.loc 1 337 9 view .LVU86
 472 00d8 40F60410 		movw	r0, #2308	@,
 473 00dc FFF7FEFF 		bl	MHAL_AUD_DMicSelPhase		@
 474              	.LVL34:
 346:../../peripheral_library/drv/drvAudio.c ****         MHAL_AUD_I2SSetMsMode(AUD_I2S_MSMODE_MASTER);
 475              		.loc 1 346 9 view .LVU87
 476 00e0 0420     		movs	r0, #4	@,
 477 00e2 FFF7FEFF 		bl	MHAL_AUD_I2SSetSynthRate		@
 478              	.LVL35:
 347:../../peripheral_library/drv/drvAudio.c **** #endif
 479              		.loc 1 347 9 view .LVU88
 480 00e6 0120     		movs	r0, #1	@,
 481 00e8 FFF7FEFF 		bl	MHAL_AUD_I2SSetMsMode		@
 482              	.LVL36:
 349:../../peripheral_library/drv/drvAudio.c ****         break;
 483              		.loc 1 349 9 view .LVU89
 484              	@ ../../peripheral_library/drv/drvAudio.c:349:         _eAudRate = eRate;
 349:../../peripheral_library/drv/drvAudio.c ****         break;
 485              		.loc 1 349 19 is_stmt 0 view .LVU90
 486 00ec 064B     		ldr	r3, .L42+4	@ tmp133,
ARM GAS  /tmp/ccxvUIDa.s 			page 17


 487 00ee 0422     		movs	r2, #4	@ tmp134,
 488 00f0 1A70     		strb	r2, [r3]	@ tmp134, _eAudRate
 350:../../peripheral_library/drv/drvAudio.c ****       default:
 489              		.loc 1 350 9 is_stmt 1 view .LVU91
 490 00f2 A0E7     		b	.L36		@
 491              	.L28:
 352:../../peripheral_library/drv/drvAudio.c ****     }
 492              		.loc 1 352 9 view .LVU92
 493 00f4 054B     		ldr	r3, .L42+8	@ tmp136,
 494 00f6 1B68     		ldr	r3, [r3]	@ gu32MosDbgLevel, gu32MosDbgLevel
 495 00f8 DB07     		lsls	r3, r3, #31	@, gu32MosDbgLevel,
 496 00fa 9CD5     		bpl	.L36		@,
 352:../../peripheral_library/drv/drvAudio.c ****     }
 497              		.loc 1 352 9 view .LVU93
 498 00fc 0448     		ldr	r0, .L42+12	@,
 499 00fe FFF7FEFF 		bl	UartSendTrace		@
 500              	.LVL37:
 501 0102 98E7     		b	.L36		@
 502              	.L43:
 503              		.align	2
 504              	.L42:
 505 0104 00000000 		.word	.LANCHOR3
 506 0108 00000000 		.word	.LANCHOR4
 507 010c 00000000 		.word	gu32MosDbgLevel
 508 0110 00000000 		.word	.LC1
 509              	.LBE10:
 510              	.LBE11:
 511              		.cfi_endproc
 512              	.LFE136:
 513              		.size	MDrv_AUD_SetSampleRate, .-MDrv_AUD_SetSampleRate
 514              		.section	.text.MDrv_AUD_SetBitWidth,"ax",%progbits
 515              		.align	1
 516              		.p2align 2,,3
 517              		.global	MDrv_AUD_SetBitWidth
 518              		.syntax unified
 519              		.thumb
 520              		.thumb_func
 521              		.fpu fpv4-sp-d16
 522              		.type	MDrv_AUD_SetBitWidth, %function
 523              	MDrv_AUD_SetBitWidth:
 524              	.LVL38:
 525              	.LFB137:
 357:../../peripheral_library/drv/drvAudio.c **** 
 358:../../peripheral_library/drv/drvAudio.c **** void MDrv_AUD_SetBitWidth(AUD_Width_e eWidth)
 359:../../peripheral_library/drv/drvAudio.c **** {
 526              		.loc 1 359 1 view -0
 527              		.cfi_startproc
 528              		@ args = 0, pretend = 0, frame = 0
 529              		@ frame_needed = 0, uses_anonymous_args = 0
 360:../../peripheral_library/drv/drvAudio.c ****   if( xSemaphoreTake( _tAudMutex, portMAX_DELAY ) == pdPASS )
 530              		.loc 1 360 3 view .LVU95
 531              	@ ../../peripheral_library/drv/drvAudio.c:359: {
 359:../../peripheral_library/drv/drvAudio.c ****   if( xSemaphoreTake( _tAudMutex, portMAX_DELAY ) == pdPASS )
 532              		.loc 1 359 1 is_stmt 0 view .LVU96
 533 0000 70B5     		push	{r4, r5, r6, lr}	@
 534              		.cfi_def_cfa_offset 16
 535              		.cfi_offset 4, -16
ARM GAS  /tmp/ccxvUIDa.s 			page 18


 536              		.cfi_offset 5, -12
 537              		.cfi_offset 6, -8
 538              		.cfi_offset 14, -4
 539              	@ ../../peripheral_library/drv/drvAudio.c:360:   if( xSemaphoreTake( _tAudMutex, portMAX_DELAY ) ==
 540              		.loc 1 360 7 view .LVU97
 541 0002 184D     		ldr	r5, .L59	@ tmp134,
 542              	@ ../../peripheral_library/drv/drvAudio.c:359: {
 359:../../peripheral_library/drv/drvAudio.c ****   if( xSemaphoreTake( _tAudMutex, portMAX_DELAY ) == pdPASS )
 543              		.loc 1 359 1 view .LVU98
 544 0004 0446     		mov	r4, r0	@ eWidth, eWidth
 545              	@ ../../peripheral_library/drv/drvAudio.c:360:   if( xSemaphoreTake( _tAudMutex, portMAX_DELAY ) ==
 546              		.loc 1 360 7 view .LVU99
 547 0006 4FF0FF31 		mov	r1, #-1	@,
 548 000a 2868     		ldr	r0, [r5]	@, _tAudMutex
 549              	.LVL39:
 550              		.loc 1 360 7 view .LVU100
 551 000c FFF7FEFF 		bl	xQueueSemaphoreTake		@
 552              	.LVL40:
 553              	@ ../../peripheral_library/drv/drvAudio.c:360:   if( xSemaphoreTake( _tAudMutex, portMAX_DELAY ) ==
 554              		.loc 1 360 5 view .LVU101
 555 0010 0128     		cmp	r0, #1	@,
 556 0012 00D0     		beq	.L57		@,
 557              	@ ../../peripheral_library/drv/drvAudio.c:390: }
 361:../../peripheral_library/drv/drvAudio.c ****   {
 362:../../peripheral_library/drv/drvAudio.c ****     switch(eWidth)
 363:../../peripheral_library/drv/drvAudio.c ****     {
 364:../../peripheral_library/drv/drvAudio.c ****       case AUD_WIDTH_16:
 365:../../peripheral_library/drv/drvAudio.c ****         MHAL_AUD_DMASetWidth(AUD_DMA_WIDTH16);
 366:../../peripheral_library/drv/drvAudio.c **** #if defined(CONFIG_AUD_I2S)
 367:../../peripheral_library/drv/drvAudio.c ****         MHAL_AUD_I2SSetBitWidth(AUD_I2S_WIDTH16);
 368:../../peripheral_library/drv/drvAudio.c **** #endif
 369:../../peripheral_library/drv/drvAudio.c ****         _eAudWidth = eWidth;
 370:../../peripheral_library/drv/drvAudio.c ****         break;
 371:../../peripheral_library/drv/drvAudio.c ****       case AUD_WIDTH_24:
 372:../../peripheral_library/drv/drvAudio.c ****         MHAL_AUD_DMASetWidth(AUD_DMA_WIDTH24);
 373:../../peripheral_library/drv/drvAudio.c **** #if defined(CONFIG_AUD_I2S)
 374:../../peripheral_library/drv/drvAudio.c ****         MHAL_AUD_I2SSetBitWidth(AUD_I2S_WIDTH24);
 375:../../peripheral_library/drv/drvAudio.c **** #endif
 376:../../peripheral_library/drv/drvAudio.c ****         _eAudWidth = eWidth;
 377:../../peripheral_library/drv/drvAudio.c ****         break;
 378:../../peripheral_library/drv/drvAudio.c ****       case AUD_WIDTH_32:
 379:../../peripheral_library/drv/drvAudio.c ****         MHAL_AUD_DMASetWidth(AUD_DMA_WIDTH32);
 380:../../peripheral_library/drv/drvAudio.c **** #if defined(CONFIG_AUD_I2S)
 381:../../peripheral_library/drv/drvAudio.c ****         MHAL_AUD_I2SSetBitWidth(AUD_I2S_WIDTH32);
 382:../../peripheral_library/drv/drvAudio.c **** #endif
 383:../../peripheral_library/drv/drvAudio.c ****         _eAudWidth = eWidth;
 384:../../peripheral_library/drv/drvAudio.c ****         break;
 385:../../peripheral_library/drv/drvAudio.c ****       default:
 386:../../peripheral_library/drv/drvAudio.c ****         AUD_ERROR("MDrv_AUD_SetBitWidth failed\r\n");
 387:../../peripheral_library/drv/drvAudio.c ****     }
 388:../../peripheral_library/drv/drvAudio.c ****     xSemaphoreGive(_tAudMutex);
 389:../../peripheral_library/drv/drvAudio.c ****   }
 390:../../peripheral_library/drv/drvAudio.c **** }
 558              		.loc 1 390 1 view .LVU102
 559 0014 70BD     		pop	{r4, r5, r6, pc}	@
 560              	.L57:
 362:../../peripheral_library/drv/drvAudio.c ****     {
ARM GAS  /tmp/ccxvUIDa.s 			page 19


 561              		.loc 1 362 5 is_stmt 1 view .LVU103
 562 0016 012C     		cmp	r4, #1	@ eWidth,
 563 0018 04D0     		beq	.L56		@,
 564 001a 66B2     		sxtb	r6, r4	@ eWidth, eWidth
 565 001c CEB1     		cbz	r6, .L47	@ eWidth,
 566 001e 022C     		cmp	r4, #2	@ eWidth,
 567 0020 0FD1     		bne	.L58		@,
 379:../../peripheral_library/drv/drvAudio.c **** #if defined(CONFIG_AUD_I2S)
 568              		.loc 1 379 9 view .LVU104
 569 0022 2046     		mov	r0, r4	@, eWidth
 570              	.L56:
 571 0024 FFF7FEFF 		bl	MHAL_AUD_DMASetWidth		@
 572              	.LVL41:
 381:../../peripheral_library/drv/drvAudio.c **** #endif
 573              		.loc 1 381 9 view .LVU105
 574 0028 2046     		mov	r0, r4	@, eWidth
 575 002a FFF7FEFF 		bl	MHAL_AUD_I2SSetBitWidth		@
 576              	.LVL42:
 383:../../peripheral_library/drv/drvAudio.c ****         break;
 577              		.loc 1 383 9 view .LVU106
 578              	@ ../../peripheral_library/drv/drvAudio.c:383:         _eAudWidth = eWidth;
 383:../../peripheral_library/drv/drvAudio.c ****         break;
 579              		.loc 1 383 20 is_stmt 0 view .LVU107
 580 002e 0E4B     		ldr	r3, .L59+4	@ tmp125,
 581 0030 1C70     		strb	r4, [r3]	@ eWidth, _eAudWidth
 384:../../peripheral_library/drv/drvAudio.c ****       default:
 582              		.loc 1 384 9 is_stmt 1 view .LVU108
 583              	.L50:
 584              	.LBB14:
 585              	.LBI14:
 358:../../peripheral_library/drv/drvAudio.c **** {
 586              		.loc 1 358 6 discriminator 3 view .LVU109
 587              	.LVL43:
 588              	.LBB15:
 386:../../peripheral_library/drv/drvAudio.c ****     }
 589              		.loc 1 386 9 discriminator 3 view .LVU110
 386:../../peripheral_library/drv/drvAudio.c ****     }
 590              		.loc 1 386 53 discriminator 3 view .LVU111
 388:../../peripheral_library/drv/drvAudio.c ****   }
 591              		.loc 1 388 5 discriminator 3 view .LVU112
 592 0032 0023     		movs	r3, #0	@,
 593 0034 2868     		ldr	r0, [r5]	@, _tAudMutex
 594 0036 1A46     		mov	r2, r3	@,
 595 0038 1946     		mov	r1, r3	@,
 596              	.LBE15:
 597              	.LBE14:
 598              	@ ../../peripheral_library/drv/drvAudio.c:390: }
 599              		.loc 1 390 1 is_stmt 0 discriminator 3 view .LVU113
 600 003a BDE87040 		pop	{r4, r5, r6, lr}	@
 601              		.cfi_remember_state
 602              		.cfi_restore 14
 603              		.cfi_restore 6
 604              		.cfi_restore 5
 605              		.cfi_restore 4
 606              		.cfi_def_cfa_offset 0
 607              	.LVL44:
 608              	.LBB17:
ARM GAS  /tmp/ccxvUIDa.s 			page 20


 609              	.LBB16:
 610              	@ ../../peripheral_library/drv/drvAudio.c:388:     xSemaphoreGive(_tAudMutex);
 388:../../peripheral_library/drv/drvAudio.c ****   }
 611              		.loc 1 388 5 discriminator 3 view .LVU114
 612 003e FFF7FEBF 		b	xQueueGenericSend		@
 613              	.LVL45:
 614              	.L58:
 615              		.cfi_restore_state
 388:../../peripheral_library/drv/drvAudio.c ****   }
 616              		.loc 1 388 5 discriminator 3 view .LVU115
 617              	.LBE16:
 618              	.LBE17:
 386:../../peripheral_library/drv/drvAudio.c ****     }
 619              		.loc 1 386 9 is_stmt 1 view .LVU116
 620 0042 0A4B     		ldr	r3, .L59+8	@ tmp128,
 621 0044 1B68     		ldr	r3, [r3]	@ gu32MosDbgLevel, gu32MosDbgLevel
 622 0046 DB07     		lsls	r3, r3, #31	@, gu32MosDbgLevel,
 623 0048 F3D5     		bpl	.L50		@,
 386:../../peripheral_library/drv/drvAudio.c ****     }
 624              		.loc 1 386 9 discriminator 1 view .LVU117
 625 004a 0948     		ldr	r0, .L59+12	@,
 626 004c FFF7FEFF 		bl	UartSendTrace		@
 627              	.LVL46:
 628 0050 EFE7     		b	.L50		@
 629              	.L47:
 365:../../peripheral_library/drv/drvAudio.c **** #if defined(CONFIG_AUD_I2S)
 630              		.loc 1 365 9 view .LVU118
 631 0052 3046     		mov	r0, r6	@, eWidth
 632 0054 FFF7FEFF 		bl	MHAL_AUD_DMASetWidth		@
 633              	.LVL47:
 367:../../peripheral_library/drv/drvAudio.c **** #endif
 634              		.loc 1 367 9 view .LVU119
 635 0058 3046     		mov	r0, r6	@, eWidth
 636 005a FFF7FEFF 		bl	MHAL_AUD_I2SSetBitWidth		@
 637              	.LVL48:
 369:../../peripheral_library/drv/drvAudio.c ****         break;
 638              		.loc 1 369 9 view .LVU120
 639              	@ ../../peripheral_library/drv/drvAudio.c:369:         _eAudWidth = eWidth;
 369:../../peripheral_library/drv/drvAudio.c ****         break;
 640              		.loc 1 369 20 is_stmt 0 view .LVU121
 641 005e 024B     		ldr	r3, .L59+4	@ tmp119,
 642 0060 1E70     		strb	r6, [r3]	@ eWidth, _eAudWidth
 370:../../peripheral_library/drv/drvAudio.c ****       case AUD_WIDTH_24:
 643              		.loc 1 370 9 is_stmt 1 view .LVU122
 644 0062 E6E7     		b	.L50		@
 645              	.L60:
 646              		.align	2
 647              	.L59:
 648 0064 00000000 		.word	.LANCHOR3
 649 0068 00000000 		.word	.LANCHOR5
 650 006c 00000000 		.word	gu32MosDbgLevel
 651 0070 00000000 		.word	.LC2
 652              		.cfi_endproc
 653              	.LFE137:
 654              		.size	MDrv_AUD_SetBitWidth, .-MDrv_AUD_SetBitWidth
 655              		.section	.text.MDrv_AUD_SetMicNo,"ax",%progbits
 656              		.align	1
ARM GAS  /tmp/ccxvUIDa.s 			page 21


 657              		.p2align 2,,3
 658              		.global	MDrv_AUD_SetMicNo
 659              		.syntax unified
 660              		.thumb
 661              		.thumb_func
 662              		.fpu fpv4-sp-d16
 663              		.type	MDrv_AUD_SetMicNo, %function
 664              	MDrv_AUD_SetMicNo:
 665              	.LVL49:
 666              	.LFB138:
 391:../../peripheral_library/drv/drvAudio.c **** 
 392:../../peripheral_library/drv/drvAudio.c **** BOOL MDrv_AUD_SetMicNo(AUD_MIC_e eMicNo)
 393:../../peripheral_library/drv/drvAudio.c **** {
 667              		.loc 1 393 1 view -0
 668              		.cfi_startproc
 669              		@ args = 0, pretend = 0, frame = 0
 670              		@ frame_needed = 0, uses_anonymous_args = 0
 394:../../peripheral_library/drv/drvAudio.c ****   if(eMicNo == AUD_MIC_MAX)
 671              		.loc 1 394 3 view .LVU124
 672              	@ ../../peripheral_library/drv/drvAudio.c:394:   if(eMicNo == AUD_MIC_MAX)
 673              		.loc 1 394 5 is_stmt 0 view .LVU125
 674 0000 0428     		cmp	r0, #4	@ eMicNo,
 675              	@ ../../peripheral_library/drv/drvAudio.c:393: {
 393:../../peripheral_library/drv/drvAudio.c ****   if(eMicNo == AUD_MIC_MAX)
 676              		.loc 1 393 1 view .LVU126
 677 0002 38B5     		push	{r3, r4, r5, lr}	@
 678              		.cfi_def_cfa_offset 16
 679              		.cfi_offset 3, -16
 680              		.cfi_offset 4, -12
 681              		.cfi_offset 5, -8
 682              		.cfi_offset 14, -4
 683              	@ ../../peripheral_library/drv/drvAudio.c:394:   if(eMicNo == AUD_MIC_MAX)
 684              		.loc 1 394 5 view .LVU127
 685 0004 0FD0     		beq	.L79		@,
 395:../../peripheral_library/drv/drvAudio.c ****   {
 396:../../peripheral_library/drv/drvAudio.c ****     AUD_ERROR("MDrv_AUD_SetMICNo failed\r\n");
 397:../../peripheral_library/drv/drvAudio.c ****     return TRUE;
 398:../../peripheral_library/drv/drvAudio.c ****   }
 399:../../peripheral_library/drv/drvAudio.c **** 
 400:../../peripheral_library/drv/drvAudio.c ****   if (AUDIO_DMIC_NO  < (eMicNo+1)*2)
 686              		.loc 1 400 3 is_stmt 1 view .LVU128
 687              	@ ../../peripheral_library/drv/drvAudio.c:400:   if (AUDIO_DMIC_NO  < (eMicNo+1)*2)
 688              		.loc 1 400 31 is_stmt 0 view .LVU129
 689 0006 431C     		adds	r3, r0, #1	@ tmp126, eMicNo,
 690              	@ ../../peripheral_library/drv/drvAudio.c:400:   if (AUDIO_DMIC_NO  < (eMicNo+1)*2)
 691              		.loc 1 400 6 view .LVU130
 692 0008 032B     		cmp	r3, #3	@ tmp126,
 693 000a 0446     		mov	r4, r0	@ eMicNo, eMicNo
 694 000c 01DD     		ble	.L80		@,
 695              	@ ../../peripheral_library/drv/drvAudio.c:401:     return FALSE;
 401:../../peripheral_library/drv/drvAudio.c ****     return FALSE;
 696              		.loc 1 401 12 view .LVU131
 697 000e 0020     		movs	r0, #0	@ <retval>,
 698              	.LVL50:
 699              	@ ../../peripheral_library/drv/drvAudio.c:458: }
 402:../../peripheral_library/drv/drvAudio.c **** 
 403:../../peripheral_library/drv/drvAudio.c ****   if( xSemaphoreTake( _tAudMutex, portMAX_DELAY ) == pdPASS )
ARM GAS  /tmp/ccxvUIDa.s 			page 22


 404:../../peripheral_library/drv/drvAudio.c **** 	{
 405:../../peripheral_library/drv/drvAudio.c ****     switch(eMicNo)
 406:../../peripheral_library/drv/drvAudio.c ****     {
 407:../../peripheral_library/drv/drvAudio.c ****       case AUD_MIC_NO2:
 408:../../peripheral_library/drv/drvAudio.c ****         MHAL_AUD_DMASetChn(AUD_DMA_CHN2);
 409:../../peripheral_library/drv/drvAudio.c **** #if defined(CONFIG_AUD_AMIC)
 410:../../peripheral_library/drv/drvAudio.c ****        if(_bAudAmicEable)
 411:../../peripheral_library/drv/drvAudio.c ****          MHAL_AUD_AdcSetChn(AUD_ADC_CHN2);
 412:../../peripheral_library/drv/drvAudio.c **** #endif
 413:../../peripheral_library/drv/drvAudio.c **** #if defined(CONFIG_AUD_I2S)
 414:../../peripheral_library/drv/drvAudio.c ****         MHAL_AUD_I2SSetChn(AUD_I2S_CHN2);
 415:../../peripheral_library/drv/drvAudio.c **** #endif
 416:../../peripheral_library/drv/drvAudio.c ****         _eAudMicNo = eMicNo;
 417:../../peripheral_library/drv/drvAudio.c ****         break;
 418:../../peripheral_library/drv/drvAudio.c ****       case AUD_MIC_NO4:
 419:../../peripheral_library/drv/drvAudio.c ****         MHAL_AUD_DMASetChn(AUD_DMA_CHN4);
 420:../../peripheral_library/drv/drvAudio.c **** #if defined(CONFIG_AUD_AMIC)
 421:../../peripheral_library/drv/drvAudio.c ****        if(_bAudAmicEable)
 422:../../peripheral_library/drv/drvAudio.c ****          MHAL_AUD_AdcSetChn(AUD_ADC_CHN4);
 423:../../peripheral_library/drv/drvAudio.c **** #endif
 424:../../peripheral_library/drv/drvAudio.c **** #if defined(CONFIG_AUD_I2S)
 425:../../peripheral_library/drv/drvAudio.c ****         MHAL_AUD_I2SSetChn(AUD_I2S_CHN4);
 426:../../peripheral_library/drv/drvAudio.c **** #endif
 427:../../peripheral_library/drv/drvAudio.c ****         _eAudMicNo = eMicNo;
 428:../../peripheral_library/drv/drvAudio.c ****         break;
 429:../../peripheral_library/drv/drvAudio.c ****       case AUD_MIC_NO6:
 430:../../peripheral_library/drv/drvAudio.c ****         MHAL_AUD_DMASetChn(AUD_DMA_CHN6);
 431:../../peripheral_library/drv/drvAudio.c **** #if defined(CONFIG_AUD_AMIC)
 432:../../peripheral_library/drv/drvAudio.c ****        if(_bAudAmicEable)
 433:../../peripheral_library/drv/drvAudio.c ****          return FALSE;
 434:../../peripheral_library/drv/drvAudio.c **** #endif
 435:../../peripheral_library/drv/drvAudio.c **** #if defined(CONFIG_AUD_I2S)
 436:../../peripheral_library/drv/drvAudio.c ****         MHAL_AUD_I2SSetChn(AUD_I2S_CHN8);
 437:../../peripheral_library/drv/drvAudio.c **** #endif
 438:../../peripheral_library/drv/drvAudio.c ****         _eAudMicNo = eMicNo;
 439:../../peripheral_library/drv/drvAudio.c ****         break;
 440:../../peripheral_library/drv/drvAudio.c ****       case AUD_MIC_NO8:
 441:../../peripheral_library/drv/drvAudio.c ****         MHAL_AUD_DMASetChn(AUD_DMA_CHN8);
 442:../../peripheral_library/drv/drvAudio.c **** #if defined(CONFIG_AUD_AMIC)
 443:../../peripheral_library/drv/drvAudio.c ****         if(_bAudAmicEable)
 444:../../peripheral_library/drv/drvAudio.c ****           return FALSE;
 445:../../peripheral_library/drv/drvAudio.c **** #endif
 446:../../peripheral_library/drv/drvAudio.c **** #if defined(CONFIG_AUD_I2S)
 447:../../peripheral_library/drv/drvAudio.c ****         MHAL_AUD_I2SSetChn(AUD_I2S_CHN8);
 448:../../peripheral_library/drv/drvAudio.c **** #endif
 449:../../peripheral_library/drv/drvAudio.c ****         _eAudMicNo = eMicNo;
 450:../../peripheral_library/drv/drvAudio.c ****         break;
 451:../../peripheral_library/drv/drvAudio.c ****       default:
 452:../../peripheral_library/drv/drvAudio.c ****         AUD_ERROR("MDrv_AUD_SetMICNo failed\r\n");
 453:../../peripheral_library/drv/drvAudio.c ****     }
 454:../../peripheral_library/drv/drvAudio.c ****     xSemaphoreGive(_tAudMutex);
 455:../../peripheral_library/drv/drvAudio.c ****   }
 456:../../peripheral_library/drv/drvAudio.c **** 
 457:../../peripheral_library/drv/drvAudio.c ****   return TRUE;
 458:../../peripheral_library/drv/drvAudio.c **** }
 700              		.loc 1 458 1 view .LVU132
 701 0010 38BD     		pop	{r3, r4, r5, pc}	@
ARM GAS  /tmp/ccxvUIDa.s 			page 23


 702              	.LVL51:
 703              	.L80:
 403:../../peripheral_library/drv/drvAudio.c **** 	{
 704              		.loc 1 403 3 is_stmt 1 view .LVU133
 705              	@ ../../peripheral_library/drv/drvAudio.c:403:   if( xSemaphoreTake( _tAudMutex, portMAX_DELAY ) ==
 403:../../peripheral_library/drv/drvAudio.c **** 	{
 706              		.loc 1 403 7 is_stmt 0 view .LVU134
 707 0012 274D     		ldr	r5, .L82	@ tmp149,
 708 0014 4FF0FF31 		mov	r1, #-1	@,
 709 0018 2868     		ldr	r0, [r5]	@, _tAudMutex
 710              	.LVL52:
 403:../../peripheral_library/drv/drvAudio.c **** 	{
 711              		.loc 1 403 7 view .LVU135
 712 001a FFF7FEFF 		bl	xQueueSemaphoreTake		@
 713              	.LVL53:
 714              	@ ../../peripheral_library/drv/drvAudio.c:403:   if( xSemaphoreTake( _tAudMutex, portMAX_DELAY ) ==
 403:../../peripheral_library/drv/drvAudio.c **** 	{
 715              		.loc 1 403 5 view .LVU136
 716 001e 0128     		cmp	r0, #1	@,
 717 0020 09D0     		beq	.L81		@,
 718              	.L78:
 719              	@ ../../peripheral_library/drv/drvAudio.c:397:     return TRUE;
 397:../../peripheral_library/drv/drvAudio.c ****   }
 720              		.loc 1 397 12 discriminator 1 view .LVU137
 721 0022 0120     		movs	r0, #1	@ <retval>,
 722              	@ ../../peripheral_library/drv/drvAudio.c:458: }
 723              		.loc 1 458 1 discriminator 1 view .LVU138
 724 0024 38BD     		pop	{r3, r4, r5, pc}	@
 725              	.LVL54:
 726              	.L79:
 396:../../peripheral_library/drv/drvAudio.c ****     return TRUE;
 727              		.loc 1 396 5 is_stmt 1 view .LVU139
 728 0026 234B     		ldr	r3, .L82+4	@ tmp122,
 729 0028 1B68     		ldr	r3, [r3]	@ gu32MosDbgLevel, gu32MosDbgLevel
 730 002a DA07     		lsls	r2, r3, #31	@, gu32MosDbgLevel,
 731 002c F9D5     		bpl	.L78		@,
 396:../../peripheral_library/drv/drvAudio.c ****     return TRUE;
 732              		.loc 1 396 5 discriminator 1 view .LVU140
 733 002e 2248     		ldr	r0, .L82+8	@,
 734              	.LVL55:
 396:../../peripheral_library/drv/drvAudio.c ****     return TRUE;
 735              		.loc 1 396 5 is_stmt 0 discriminator 1 view .LVU141
 736 0030 FFF7FEFF 		bl	UartSendTrace		@
 737              	.LVL56:
 738 0034 F5E7     		b	.L78		@
 739              	.L81:
 740              	.LVL57:
 741              	.LBB20:
 742              	.LBI20:
 392:../../peripheral_library/drv/drvAudio.c **** {
 743              		.loc 1 392 6 is_stmt 1 view .LVU142
 744              	.LBB21:
 405:../../peripheral_library/drv/drvAudio.c ****     {
 745              		.loc 1 405 5 view .LVU143
 746 0036 032C     		cmp	r4, #3	@ eMicNo,
 747 0038 32D8     		bhi	.L66		@
 748 003a DFE804F0 		tbb	[pc, r4]	@ eMicNo
ARM GAS  /tmp/ccxvUIDa.s 			page 24


 749              	.L68:
 750 003e 27       		.byte	(.L71-.L68)/2
 751 003f 1D       		.byte	(.L70-.L68)/2
 752 0040 13       		.byte	(.L69-.L68)/2
 753 0041 02       		.byte	(.L67-.L68)/2
 754              		.p2align 1
 755              	.L67:
 441:../../peripheral_library/drv/drvAudio.c **** #if defined(CONFIG_AUD_AMIC)
 756              		.loc 1 441 9 view .LVU144
 757 0042 0320     		movs	r0, #3	@,
 758 0044 FFF7FEFF 		bl	MHAL_AUD_DMASetChn		@
 759              	.LVL58:
 447:../../peripheral_library/drv/drvAudio.c **** #endif
 760              		.loc 1 447 9 view .LVU145
 761 0048 0220     		movs	r0, #2	@,
 762 004a FFF7FEFF 		bl	MHAL_AUD_I2SSetChn		@
 763              	.LVL59:
 449:../../peripheral_library/drv/drvAudio.c ****         break;
 764              		.loc 1 449 9 view .LVU146
 765              	@ ../../peripheral_library/drv/drvAudio.c:449:         _eAudMicNo = eMicNo;
 449:../../peripheral_library/drv/drvAudio.c ****         break;
 766              		.loc 1 449 20 is_stmt 0 view .LVU147
 767 004e 1B4B     		ldr	r3, .L82+12	@ tmp139,
 768 0050 0322     		movs	r2, #3	@ tmp140,
 769 0052 1A70     		strb	r2, [r3]	@ tmp140, _eAudMicNo
 450:../../peripheral_library/drv/drvAudio.c ****       default:
 770              		.loc 1 450 9 is_stmt 1 view .LVU148
 771              	.L72:
 452:../../peripheral_library/drv/drvAudio.c ****     }
 772              		.loc 1 452 9 view .LVU149
 452:../../peripheral_library/drv/drvAudio.c ****     }
 773              		.loc 1 452 50 view .LVU150
 454:../../peripheral_library/drv/drvAudio.c ****   }
 774              		.loc 1 454 5 view .LVU151
 775 0054 0023     		movs	r3, #0	@,
 776 0056 2868     		ldr	r0, [r5]	@, _tAudMutex
 777 0058 1A46     		mov	r2, r3	@,
 778 005a 1946     		mov	r1, r3	@,
 779 005c FFF7FEFF 		bl	xQueueGenericSend		@
 780              	.LVL60:
 454:../../peripheral_library/drv/drvAudio.c ****   }
 781              		.loc 1 454 5 is_stmt 0 view .LVU152
 782 0060 0120     		movs	r0, #1	@ <retval>,
 783              	.LBE21:
 784              	.LBE20:
 785              	@ ../../peripheral_library/drv/drvAudio.c:458: }
 786              		.loc 1 458 1 view .LVU153
 787 0062 38BD     		pop	{r3, r4, r5, pc}	@
 788              	.LVL61:
 789              	.L69:
 790              	.LBB23:
 791              	.LBB22:
 430:../../peripheral_library/drv/drvAudio.c **** #if defined(CONFIG_AUD_AMIC)
 792              		.loc 1 430 9 is_stmt 1 view .LVU154
 793 0064 0220     		movs	r0, #2	@,
 794 0066 FFF7FEFF 		bl	MHAL_AUD_DMASetChn		@
 795              	.LVL62:
ARM GAS  /tmp/ccxvUIDa.s 			page 25


 436:../../peripheral_library/drv/drvAudio.c **** #endif
 796              		.loc 1 436 9 view .LVU155
 797 006a 0220     		movs	r0, #2	@,
 798 006c FFF7FEFF 		bl	MHAL_AUD_I2SSetChn		@
 799              	.LVL63:
 438:../../peripheral_library/drv/drvAudio.c ****         break;
 800              		.loc 1 438 9 view .LVU156
 801              	@ ../../peripheral_library/drv/drvAudio.c:438:         _eAudMicNo = eMicNo;
 438:../../peripheral_library/drv/drvAudio.c ****         break;
 802              		.loc 1 438 20 is_stmt 0 view .LVU157
 803 0070 124B     		ldr	r3, .L82+12	@ tmp136,
 804 0072 0222     		movs	r2, #2	@ tmp137,
 805 0074 1A70     		strb	r2, [r3]	@ tmp137, _eAudMicNo
 439:../../peripheral_library/drv/drvAudio.c ****       case AUD_MIC_NO8:
 806              		.loc 1 439 9 is_stmt 1 view .LVU158
 807 0076 EDE7     		b	.L72		@
 808              	.L70:
 419:../../peripheral_library/drv/drvAudio.c **** #if defined(CONFIG_AUD_AMIC)
 809              		.loc 1 419 9 view .LVU159
 810 0078 0120     		movs	r0, #1	@,
 811 007a FFF7FEFF 		bl	MHAL_AUD_DMASetChn		@
 812              	.LVL64:
 425:../../peripheral_library/drv/drvAudio.c **** #endif
 813              		.loc 1 425 9 view .LVU160
 814 007e 0120     		movs	r0, #1	@,
 815 0080 FFF7FEFF 		bl	MHAL_AUD_I2SSetChn		@
 816              	.LVL65:
 427:../../peripheral_library/drv/drvAudio.c ****         break;
 817              		.loc 1 427 9 view .LVU161
 818              	@ ../../peripheral_library/drv/drvAudio.c:427:         _eAudMicNo = eMicNo;
 427:../../peripheral_library/drv/drvAudio.c ****         break;
 819              		.loc 1 427 20 is_stmt 0 view .LVU162
 820 0084 0D4B     		ldr	r3, .L82+12	@ tmp133,
 821 0086 0122     		movs	r2, #1	@ tmp134,
 822 0088 1A70     		strb	r2, [r3]	@ tmp134, _eAudMicNo
 428:../../peripheral_library/drv/drvAudio.c ****       case AUD_MIC_NO6:
 823              		.loc 1 428 9 is_stmt 1 view .LVU163
 824 008a E3E7     		b	.L72		@
 825              	.L71:
 408:../../peripheral_library/drv/drvAudio.c **** #if defined(CONFIG_AUD_AMIC)
 826              		.loc 1 408 9 view .LVU164
 827 008c 0020     		movs	r0, #0	@,
 828 008e FFF7FEFF 		bl	MHAL_AUD_DMASetChn		@
 829              	.LVL66:
 414:../../peripheral_library/drv/drvAudio.c **** #endif
 830              		.loc 1 414 9 view .LVU165
 831 0092 0020     		movs	r0, #0	@,
 832 0094 FFF7FEFF 		bl	MHAL_AUD_I2SSetChn		@
 833              	.LVL67:
 416:../../peripheral_library/drv/drvAudio.c ****         break;
 834              		.loc 1 416 9 view .LVU166
 835              	@ ../../peripheral_library/drv/drvAudio.c:416:         _eAudMicNo = eMicNo;
 416:../../peripheral_library/drv/drvAudio.c ****         break;
 836              		.loc 1 416 20 is_stmt 0 view .LVU167
 837 0098 084B     		ldr	r3, .L82+12	@ tmp130,
 838 009a 0022     		movs	r2, #0	@ tmp131,
 839 009c 1A70     		strb	r2, [r3]	@ tmp131, _eAudMicNo
ARM GAS  /tmp/ccxvUIDa.s 			page 26


 417:../../peripheral_library/drv/drvAudio.c ****       case AUD_MIC_NO4:
 840              		.loc 1 417 9 is_stmt 1 view .LVU168
 841 009e D9E7     		b	.L72		@
 842              	.L66:
 452:../../peripheral_library/drv/drvAudio.c ****     }
 843              		.loc 1 452 9 view .LVU169
 844 00a0 044B     		ldr	r3, .L82+4	@ tmp142,
 845 00a2 1B68     		ldr	r3, [r3]	@ gu32MosDbgLevel, gu32MosDbgLevel
 846 00a4 DB07     		lsls	r3, r3, #31	@, gu32MosDbgLevel,
 847 00a6 D5D5     		bpl	.L72		@,
 452:../../peripheral_library/drv/drvAudio.c ****     }
 848              		.loc 1 452 9 view .LVU170
 849 00a8 0348     		ldr	r0, .L82+8	@,
 850 00aa FFF7FEFF 		bl	UartSendTrace		@
 851              	.LVL68:
 852 00ae D1E7     		b	.L72		@
 853              	.L83:
 854              		.align	2
 855              	.L82:
 856 00b0 00000000 		.word	.LANCHOR3
 857 00b4 00000000 		.word	gu32MosDbgLevel
 858 00b8 00000000 		.word	.LC3
 859 00bc 00000000 		.word	.LANCHOR6
 860              	.LBE22:
 861              	.LBE23:
 862              		.cfi_endproc
 863              	.LFE138:
 864              		.size	MDrv_AUD_SetMicNo, .-MDrv_AUD_SetMicNo
 865              		.section	.text.MDrv_AUD_Init,"ax",%progbits
 866              		.align	1
 867              		.p2align 2,,3
 868              		.global	MDrv_AUD_Init
 869              		.syntax unified
 870              		.thumb
 871              		.thumb_func
 872              		.fpu fpv4-sp-d16
 873              		.type	MDrv_AUD_Init, %function
 874              	MDrv_AUD_Init:
 875              	.LFB135:
 194:../../peripheral_library/drv/drvAudio.c ****   U32   nOverrunTh;
 876              		.loc 1 194 1 view -0
 877              		.cfi_startproc
 878              		@ args = 0, pretend = 0, frame = 0
 879              		@ frame_needed = 0, uses_anonymous_args = 0
 195:../../peripheral_library/drv/drvAudio.c **** 
 880              		.loc 1 195 3 view .LVU172
 198:../../peripheral_library/drv/drvAudio.c ****   configASSERT( _tAudIntSem );
 881              		.loc 1 198 3 view .LVU173
 882              	@ ../../peripheral_library/drv/drvAudio.c:194: {
 194:../../peripheral_library/drv/drvAudio.c ****   U32   nOverrunTh;
 883              		.loc 1 194 1 is_stmt 0 view .LVU174
 884 0000 38B5     		push	{r3, r4, r5, lr}	@
 885              		.cfi_def_cfa_offset 16
 886              		.cfi_offset 3, -16
 887              		.cfi_offset 4, -12
 888              		.cfi_offset 5, -8
 889              		.cfi_offset 14, -4
ARM GAS  /tmp/ccxvUIDa.s 			page 27


 890              	@ ../../peripheral_library/drv/drvAudio.c:198:   _tAudIntSem = xSemaphoreCreateBinary();
 198:../../peripheral_library/drv/drvAudio.c ****   configASSERT( _tAudIntSem );
 891              		.loc 1 198 17 view .LVU175
 892 0002 0322     		movs	r2, #3	@,
 893 0004 0021     		movs	r1, #0	@,
 894 0006 0120     		movs	r0, #1	@,
 895 0008 FFF7FEFF 		bl	xQueueGenericCreate		@
 896              	.LVL69:
 897              	@ ../../peripheral_library/drv/drvAudio.c:198:   _tAudIntSem = xSemaphoreCreateBinary();
 198:../../peripheral_library/drv/drvAudio.c ****   configASSERT( _tAudIntSem );
 898              		.loc 1 198 15 view .LVU176
 899 000c 3D4B     		ldr	r3, .L99	@ tmp123,
 900 000e 1860     		str	r0, [r3]	@ _1, _tAudIntSem
 199:../../peripheral_library/drv/drvAudio.c ****   _tAudMutex = xSemaphoreCreateMutex();
 901              		.loc 1 199 3 is_stmt 1 view .LVU177
 902 0010 0028     		cmp	r0, #0	@ _1
 903 0012 4FD0     		beq	.L95	@
 199:../../peripheral_library/drv/drvAudio.c ****   _tAudMutex = xSemaphoreCreateMutex();
 904              		.loc 1 199 30 discriminator 2 view .LVU178
 200:../../peripheral_library/drv/drvAudio.c ****   configASSERT( _tAudMutex );
 905              		.loc 1 200 3 discriminator 2 view .LVU179
 906              	@ ../../peripheral_library/drv/drvAudio.c:200:   _tAudMutex = xSemaphoreCreateMutex();
 200:../../peripheral_library/drv/drvAudio.c ****   configASSERT( _tAudMutex );
 907              		.loc 1 200 16 is_stmt 0 discriminator 2 view .LVU180
 908 0014 0120     		movs	r0, #1	@,
 909 0016 FFF7FEFF 		bl	xQueueCreateMutex		@
 910              	.LVL70:
 911              	@ ../../peripheral_library/drv/drvAudio.c:200:   _tAudMutex = xSemaphoreCreateMutex();
 200:../../peripheral_library/drv/drvAudio.c ****   configASSERT( _tAudMutex );
 912              		.loc 1 200 14 discriminator 2 view .LVU181
 913 001a 3B4C     		ldr	r4, .L99+4	@ tmp125,
 914 001c 2060     		str	r0, [r4]	@ _2, _tAudMutex
 201:../../peripheral_library/drv/drvAudio.c **** 
 915              		.loc 1 201 3 is_stmt 1 discriminator 2 view .LVU182
 916 001e 0028     		cmp	r0, #0	@ _2
 917 0020 3FD0     		beq	.L96	@
 201:../../peripheral_library/drv/drvAudio.c **** 
 918              		.loc 1 201 29 discriminator 2 view .LVU183
 203:../../peripheral_library/drv/drvAudio.c **** 
 919              		.loc 1 203 3 discriminator 2 view .LVU184
 920              	@ ../../peripheral_library/drv/drvAudio.c:203:   _eAudState = E_AUD_STATE_INIT;
 203:../../peripheral_library/drv/drvAudio.c **** 
 921              		.loc 1 203 14 is_stmt 0 discriminator 2 view .LVU185
 922 0022 3A4B     		ldr	r3, .L99+8	@ tmp127,
 923 0024 0122     		movs	r2, #1	@ tmp128,
 924 0026 1A70     		strb	r2, [r3]	@ tmp128, _eAudState
 205:../../peripheral_library/drv/drvAudio.c **** 
 925              		.loc 1 205 3 is_stmt 1 discriminator 2 view .LVU186
 926 0028 FFF7FEFF 		bl	MHAL_AUD_Init		@
 927              	.LVL71:
 208:../../peripheral_library/drv/drvAudio.c ****   //MHAL_AUD_I2SSetSynthRate(_mgrI2S.eRate);
 928              		.loc 1 208 3 discriminator 2 view .LVU187
 929 002c FFF7FEFF 		bl	MHAL_AUD_I2SInit		@
 930              	.LVL72:
 213:../../peripheral_library/drv/drvAudio.c **** #endif
 931              		.loc 1 213 3 discriminator 2 view .LVU188
 932 0030 374B     		ldr	r3, .L99+12	@ tmp130,
ARM GAS  /tmp/ccxvUIDa.s 			page 28


 933 0032 1878     		ldrb	r0, [r3]	@ zero_extendqisi2	@, _mgrI2S.eI2sFmt
 934 0034 FFF7FEFF 		bl	MHAL_AUD_I2SSetFmt		@
 935              	.LVL73:
 217:../../peripheral_library/drv/drvAudio.c **** 
 936              		.loc 1 217 3 discriminator 2 view .LVU189
 937 0038 364B     		ldr	r3, .L99+16	@ tmp132,
 938 003a 1878     		ldrb	r0, [r3]	@ zero_extendqisi2	@, _eAudMicNo
 939 003c FFF7FEFF 		bl	MDrv_AUD_SetMicNo		@
 940              	.LVL74:
 222:../../peripheral_library/drv/drvAudio.c **** #else
 941              		.loc 1 222 3 discriminator 2 view .LVU190
 942              	.LBB32:
 943              	.LBI32:
 275:../../peripheral_library/drv/drvAudio.c **** {
 944              		.loc 1 275 6 discriminator 2 view .LVU191
 945              	.LBB33:
 277:../../peripheral_library/drv/drvAudio.c **** 	{
 946              		.loc 1 277 3 discriminator 2 view .LVU192
 947              	@ ../../peripheral_library/drv/drvAudio.c:277:   if( xSemaphoreTake( _tAudMutex, portMAX_DELAY ) ==
 277:../../peripheral_library/drv/drvAudio.c **** 	{
 948              		.loc 1 277 7 is_stmt 0 discriminator 2 view .LVU193
 949 0040 4FF0FF31 		mov	r1, #-1	@,
 950 0044 2068     		ldr	r0, [r4]	@, _tAudMutex
 951 0046 FFF7FEFF 		bl	xQueueSemaphoreTake		@
 952              	.LVL75:
 953              	@ ../../peripheral_library/drv/drvAudio.c:277:   if( xSemaphoreTake( _tAudMutex, portMAX_DELAY ) ==
 277:../../peripheral_library/drv/drvAudio.c **** 	{
 954              		.loc 1 277 5 discriminator 2 view .LVU194
 955 004a 0128     		cmp	r0, #1	@ _35,
 956              	@ ../../peripheral_library/drv/drvAudio.c:277:   if( xSemaphoreTake( _tAudMutex, portMAX_DELAY ) ==
 277:../../peripheral_library/drv/drvAudio.c **** 	{
 957              		.loc 1 277 7 discriminator 2 view .LVU195
 958 004c 0546     		mov	r5, r0	@ _35,
 959              	@ ../../peripheral_library/drv/drvAudio.c:277:   if( xSemaphoreTake( _tAudMutex, portMAX_DELAY ) ==
 277:../../peripheral_library/drv/drvAudio.c **** 	{
 960              		.loc 1 277 5 discriminator 2 view .LVU196
 961 004e 3AD0     		beq	.L97		@,
 962              	.L89:
 963              	.LVL76:
 277:../../peripheral_library/drv/drvAudio.c **** 	{
 964              		.loc 1 277 5 discriminator 2 view .LVU197
 965              	.LBE33:
 966              	.LBE32:
 227:../../peripheral_library/drv/drvAudio.c ****   //MHAL_AUD_DMASetChn(_eAudDmaChn);
 967              		.loc 1 227 3 is_stmt 1 discriminator 2 view .LVU198
 968 0050 314B     		ldr	r3, .L99+20	@ tmp141,
 969 0052 1878     		ldrb	r0, [r3]	@ zero_extendqisi2	@, _eAudWidth
 970 0054 FFF7FEFF 		bl	MDrv_AUD_SetBitWidth		@
 971              	.LVL77:
 231:../../peripheral_library/drv/drvAudio.c **** 
 972              		.loc 1 231 3 discriminator 2 view .LVU199
 973 0058 304B     		ldr	r3, .L99+24	@ tmp143,
 974 005a 1878     		ldrb	r0, [r3]	@ zero_extendqisi2	@, _bAudGenEable
 975 005c FFF7FEFF 		bl	MHAL_AUD_DMAEnableSigGen		@
 976              	.LVL78:
 234:../../peripheral_library/drv/drvAudio.c ****   MHAL_AUD_DMASetBufAddr(_gMcuDmaBuf, AUDIO_DMA_BUF_SIZE);
 977              		.loc 1 234 3 discriminator 2 view .LVU200
ARM GAS  /tmp/ccxvUIDa.s 			page 29


 978 0060 4FF41042 		mov	r2, #36864	@,
 979 0064 0A21     		movs	r1, #10	@,
 980 0066 2E48     		ldr	r0, .L99+28	@,
 981 0068 FFF7FEFF 		bl	memset		@
 982              	.LVL79:
 235:../../peripheral_library/drv/drvAudio.c ****   AUD_MSG("MDrv_AUD_Init memory size = 0x%x, addr = 0x%x\r\n", AUDIO_DMA_BUF_SIZE, _gMcuDmaBuf);
 983              		.loc 1 235 3 discriminator 2 view .LVU201
 984 006c 4FF41041 		mov	r1, #36864	@,
 985 0070 2B48     		ldr	r0, .L99+28	@,
 986 0072 FFF7FEFF 		bl	MHAL_AUD_DMASetBufAddr		@
 987              	.LVL80:
 236:../../peripheral_library/drv/drvAudio.c **** 
 988              		.loc 1 236 3 discriminator 2 view .LVU202
 989 0076 2B4B     		ldr	r3, .L99+32	@ tmp148,
 990 0078 1B68     		ldr	r3, [r3]	@ gu32MosDbgLevel, gu32MosDbgLevel
 991 007a DB03     		lsls	r3, r3, #15	@, gu32MosDbgLevel,
 992 007c 3BD4     		bmi	.L98		@,
 993              	.L90:
 236:../../peripheral_library/drv/drvAudio.c **** 
 994              		.loc 1 236 96 discriminator 3 view .LVU203
 238:../../peripheral_library/drv/drvAudio.c ****   MHAL_AUD_DMASetBufOverThr(nOverrunTh);
 995              		.loc 1 238 3 discriminator 3 view .LVU204
 996              	.LVL81:
 239:../../peripheral_library/drv/drvAudio.c **** 
 997              		.loc 1 239 3 discriminator 3 view .LVU205
 998 007e 4FF44060 		mov	r0, #3072	@,
 999 0082 FFF7FEFF 		bl	MHAL_AUD_DMASetBufOverThr		@
 1000              	.LVL82:
 241:../../peripheral_library/drv/drvAudio.c **** 
 1001              		.loc 1 241 3 discriminator 3 view .LVU206
 1002 0086 0021     		movs	r1, #0	@,
 1003 0088 0846     		mov	r0, r1	@,
 1004 008a FFF7FEFF 		bl	MHAL_AUD_DMAEnableInt		@
 1005              	.LVL83:
 253:../../peripheral_library/drv/drvAudio.c ****   MOS_IRQn_Unmask(AUDIO_IRQn);
 1006              		.loc 1 253 3 discriminator 3 view .LVU207
 1007 008e 2648     		ldr	r0, .L99+36	@,
 1008 0090 0622     		movs	r2, #6	@,
 1009 0092 0221     		movs	r1, #2	@,
 1010 0094 FFF7FEFF 		bl	MOS_IRQn_AttachIsr		@
 1011              	.LVL84:
 254:../../peripheral_library/drv/drvAudio.c **** 
 1012              		.loc 1 254 3 discriminator 3 view .LVU208
 1013 0098 0220     		movs	r0, #2	@,
 1014              	@ ../../peripheral_library/drv/drvAudio.c:273: }
 273:../../peripheral_library/drv/drvAudio.c **** 
 1015              		.loc 1 273 1 is_stmt 0 discriminator 3 view .LVU209
 1016 009a BDE83840 		pop	{r3, r4, r5, lr}	@
 1017              		.cfi_remember_state
 1018              		.cfi_restore 14
 1019              		.cfi_restore 5
 1020              		.cfi_restore 4
 1021              		.cfi_restore 3
 1022              		.cfi_def_cfa_offset 0
 1023              	@ ../../peripheral_library/drv/drvAudio.c:254:   MOS_IRQn_Unmask(AUDIO_IRQn);
 254:../../peripheral_library/drv/drvAudio.c **** 
 1024              		.loc 1 254 3 discriminator 3 view .LVU210
ARM GAS  /tmp/ccxvUIDa.s 			page 30


 1025 009e FFF7FEBF 		b	MOS_IRQn_Unmask		@
 1026              	.LVL85:
 1027              	.L96:
 1028              		.cfi_restore_state
 201:../../peripheral_library/drv/drvAudio.c **** 
 1029              		.loc 1 201 3 is_stmt 1 view .LVU211
 1030              	.LBB37:
 1031              	.LBI37:
 1032              		.file 2 "../../kernel/FreeRTOS/Source/portable/GCC/ARM_CM4F/portmacro.h"
   1:../../kernel/FreeRTOS/Source/portable/GCC/ARM_CM4F/portmacro.h **** /*
   2:../../kernel/FreeRTOS/Source/portable/GCC/ARM_CM4F/portmacro.h ****  * FreeRTOS Kernel V10.0.1
   3:../../kernel/FreeRTOS/Source/portable/GCC/ARM_CM4F/portmacro.h ****  * Copyright (C) 2017 Amazon.com, Inc. or its affiliates.  All Rights Reserved.
   4:../../kernel/FreeRTOS/Source/portable/GCC/ARM_CM4F/portmacro.h ****  *
   5:../../kernel/FreeRTOS/Source/portable/GCC/ARM_CM4F/portmacro.h ****  * Permission is hereby granted, free of charge, to any person obtaining a copy of
   6:../../kernel/FreeRTOS/Source/portable/GCC/ARM_CM4F/portmacro.h ****  * this software and associated documentation files (the "Software"), to deal in
   7:../../kernel/FreeRTOS/Source/portable/GCC/ARM_CM4F/portmacro.h ****  * the Software without restriction, including without limitation the rights to
   8:../../kernel/FreeRTOS/Source/portable/GCC/ARM_CM4F/portmacro.h ****  * use, copy, modify, merge, publish, distribute, sublicense, and/or sell copies of
   9:../../kernel/FreeRTOS/Source/portable/GCC/ARM_CM4F/portmacro.h ****  * the Software, and to permit persons to whom the Software is furnished to do so,
  10:../../kernel/FreeRTOS/Source/portable/GCC/ARM_CM4F/portmacro.h ****  * subject to the following conditions:
  11:../../kernel/FreeRTOS/Source/portable/GCC/ARM_CM4F/portmacro.h ****  *
  12:../../kernel/FreeRTOS/Source/portable/GCC/ARM_CM4F/portmacro.h ****  * The above copyright notice and this permission notice shall be included in all
  13:../../kernel/FreeRTOS/Source/portable/GCC/ARM_CM4F/portmacro.h ****  * copies or substantial portions of the Software.
  14:../../kernel/FreeRTOS/Source/portable/GCC/ARM_CM4F/portmacro.h ****  *
  15:../../kernel/FreeRTOS/Source/portable/GCC/ARM_CM4F/portmacro.h ****  * THE SOFTWARE IS PROVIDED "AS IS", WITHOUT WARRANTY OF ANY KIND, EXPRESS OR
  16:../../kernel/FreeRTOS/Source/portable/GCC/ARM_CM4F/portmacro.h ****  * IMPLIED, INCLUDING BUT NOT LIMITED TO THE WARRANTIES OF MERCHANTABILITY, FITNESS
  17:../../kernel/FreeRTOS/Source/portable/GCC/ARM_CM4F/portmacro.h ****  * FOR A PARTICULAR PURPOSE AND NONINFRINGEMENT. IN NO EVENT SHALL THE AUTHORS OR
  18:../../kernel/FreeRTOS/Source/portable/GCC/ARM_CM4F/portmacro.h ****  * COPYRIGHT HOLDERS BE LIABLE FOR ANY CLAIM, DAMAGES OR OTHER LIABILITY, WHETHER
  19:../../kernel/FreeRTOS/Source/portable/GCC/ARM_CM4F/portmacro.h ****  * IN AN ACTION OF CONTRACT, TORT OR OTHERWISE, ARISING FROM, OUT OF OR IN
  20:../../kernel/FreeRTOS/Source/portable/GCC/ARM_CM4F/portmacro.h ****  * CONNECTION WITH THE SOFTWARE OR THE USE OR OTHER DEALINGS IN THE SOFTWARE.
  21:../../kernel/FreeRTOS/Source/portable/GCC/ARM_CM4F/portmacro.h ****  *
  22:../../kernel/FreeRTOS/Source/portable/GCC/ARM_CM4F/portmacro.h ****  * http://www.FreeRTOS.org
  23:../../kernel/FreeRTOS/Source/portable/GCC/ARM_CM4F/portmacro.h ****  * http://aws.amazon.com/freertos
  24:../../kernel/FreeRTOS/Source/portable/GCC/ARM_CM4F/portmacro.h ****  *
  25:../../kernel/FreeRTOS/Source/portable/GCC/ARM_CM4F/portmacro.h ****  * 1 tab == 4 spaces!
  26:../../kernel/FreeRTOS/Source/portable/GCC/ARM_CM4F/portmacro.h ****  */
  27:../../kernel/FreeRTOS/Source/portable/GCC/ARM_CM4F/portmacro.h **** 
  28:../../kernel/FreeRTOS/Source/portable/GCC/ARM_CM4F/portmacro.h **** 
  29:../../kernel/FreeRTOS/Source/portable/GCC/ARM_CM4F/portmacro.h **** #ifndef PORTMACRO_H
  30:../../kernel/FreeRTOS/Source/portable/GCC/ARM_CM4F/portmacro.h **** #define PORTMACRO_H
  31:../../kernel/FreeRTOS/Source/portable/GCC/ARM_CM4F/portmacro.h **** 
  32:../../kernel/FreeRTOS/Source/portable/GCC/ARM_CM4F/portmacro.h **** #ifdef __cplusplus
  33:../../kernel/FreeRTOS/Source/portable/GCC/ARM_CM4F/portmacro.h **** extern "C" {
  34:../../kernel/FreeRTOS/Source/portable/GCC/ARM_CM4F/portmacro.h **** #endif
  35:../../kernel/FreeRTOS/Source/portable/GCC/ARM_CM4F/portmacro.h **** 
  36:../../kernel/FreeRTOS/Source/portable/GCC/ARM_CM4F/portmacro.h **** /*-----------------------------------------------------------
  37:../../kernel/FreeRTOS/Source/portable/GCC/ARM_CM4F/portmacro.h ****  * Port specific definitions.
  38:../../kernel/FreeRTOS/Source/portable/GCC/ARM_CM4F/portmacro.h ****  *
  39:../../kernel/FreeRTOS/Source/portable/GCC/ARM_CM4F/portmacro.h ****  * The settings in this file configure FreeRTOS correctly for the
  40:../../kernel/FreeRTOS/Source/portable/GCC/ARM_CM4F/portmacro.h ****  * given hardware and compiler.
  41:../../kernel/FreeRTOS/Source/portable/GCC/ARM_CM4F/portmacro.h ****  *
  42:../../kernel/FreeRTOS/Source/portable/GCC/ARM_CM4F/portmacro.h ****  * These settings should not be altered.
  43:../../kernel/FreeRTOS/Source/portable/GCC/ARM_CM4F/portmacro.h ****  *-----------------------------------------------------------
  44:../../kernel/FreeRTOS/Source/portable/GCC/ARM_CM4F/portmacro.h ****  */
  45:../../kernel/FreeRTOS/Source/portable/GCC/ARM_CM4F/portmacro.h **** 
  46:../../kernel/FreeRTOS/Source/portable/GCC/ARM_CM4F/portmacro.h **** /* Type definitions. */
  47:../../kernel/FreeRTOS/Source/portable/GCC/ARM_CM4F/portmacro.h **** #define portCHAR		char
  48:../../kernel/FreeRTOS/Source/portable/GCC/ARM_CM4F/portmacro.h **** #define portFLOAT		float
ARM GAS  /tmp/ccxvUIDa.s 			page 31


  49:../../kernel/FreeRTOS/Source/portable/GCC/ARM_CM4F/portmacro.h **** #define portDOUBLE		double
  50:../../kernel/FreeRTOS/Source/portable/GCC/ARM_CM4F/portmacro.h **** #define portLONG		long
  51:../../kernel/FreeRTOS/Source/portable/GCC/ARM_CM4F/portmacro.h **** #define portSHORT		short
  52:../../kernel/FreeRTOS/Source/portable/GCC/ARM_CM4F/portmacro.h **** #define portSTACK_TYPE	uint32_t
  53:../../kernel/FreeRTOS/Source/portable/GCC/ARM_CM4F/portmacro.h **** #define portBASE_TYPE	long
  54:../../kernel/FreeRTOS/Source/portable/GCC/ARM_CM4F/portmacro.h **** 
  55:../../kernel/FreeRTOS/Source/portable/GCC/ARM_CM4F/portmacro.h **** typedef portSTACK_TYPE StackType_t;
  56:../../kernel/FreeRTOS/Source/portable/GCC/ARM_CM4F/portmacro.h **** typedef long BaseType_t;
  57:../../kernel/FreeRTOS/Source/portable/GCC/ARM_CM4F/portmacro.h **** typedef unsigned long UBaseType_t;
  58:../../kernel/FreeRTOS/Source/portable/GCC/ARM_CM4F/portmacro.h **** 
  59:../../kernel/FreeRTOS/Source/portable/GCC/ARM_CM4F/portmacro.h **** #if( configUSE_16_BIT_TICKS == 1 )
  60:../../kernel/FreeRTOS/Source/portable/GCC/ARM_CM4F/portmacro.h **** 	typedef uint16_t TickType_t;
  61:../../kernel/FreeRTOS/Source/portable/GCC/ARM_CM4F/portmacro.h **** 	#define portMAX_DELAY ( TickType_t ) 0xffff
  62:../../kernel/FreeRTOS/Source/portable/GCC/ARM_CM4F/portmacro.h **** #else
  63:../../kernel/FreeRTOS/Source/portable/GCC/ARM_CM4F/portmacro.h **** 	typedef uint32_t TickType_t;
  64:../../kernel/FreeRTOS/Source/portable/GCC/ARM_CM4F/portmacro.h **** 	#define portMAX_DELAY ( TickType_t ) 0xffffffffUL
  65:../../kernel/FreeRTOS/Source/portable/GCC/ARM_CM4F/portmacro.h **** 
  66:../../kernel/FreeRTOS/Source/portable/GCC/ARM_CM4F/portmacro.h **** 	/* 32-bit tick type on a 32-bit architecture, so reads of the tick count do
  67:../../kernel/FreeRTOS/Source/portable/GCC/ARM_CM4F/portmacro.h **** 	not need to be guarded with a critical section. */
  68:../../kernel/FreeRTOS/Source/portable/GCC/ARM_CM4F/portmacro.h **** 	#define portTICK_TYPE_IS_ATOMIC 1
  69:../../kernel/FreeRTOS/Source/portable/GCC/ARM_CM4F/portmacro.h **** #endif
  70:../../kernel/FreeRTOS/Source/portable/GCC/ARM_CM4F/portmacro.h **** /*-----------------------------------------------------------*/
  71:../../kernel/FreeRTOS/Source/portable/GCC/ARM_CM4F/portmacro.h **** 
  72:../../kernel/FreeRTOS/Source/portable/GCC/ARM_CM4F/portmacro.h **** /* Architecture specifics. */
  73:../../kernel/FreeRTOS/Source/portable/GCC/ARM_CM4F/portmacro.h **** #define portSTACK_GROWTH			( -1 )
  74:../../kernel/FreeRTOS/Source/portable/GCC/ARM_CM4F/portmacro.h **** #define portTICK_PERIOD_MS			( ( TickType_t ) 1000 / configTICK_RATE_HZ )
  75:../../kernel/FreeRTOS/Source/portable/GCC/ARM_CM4F/portmacro.h **** #define portBYTE_ALIGNMENT			8
  76:../../kernel/FreeRTOS/Source/portable/GCC/ARM_CM4F/portmacro.h **** /*-----------------------------------------------------------*/
  77:../../kernel/FreeRTOS/Source/portable/GCC/ARM_CM4F/portmacro.h **** 
  78:../../kernel/FreeRTOS/Source/portable/GCC/ARM_CM4F/portmacro.h **** /* Scheduler utilities. */
  79:../../kernel/FreeRTOS/Source/portable/GCC/ARM_CM4F/portmacro.h **** #define portYIELD() 															\
  80:../../kernel/FreeRTOS/Source/portable/GCC/ARM_CM4F/portmacro.h **** {																				\
  81:../../kernel/FreeRTOS/Source/portable/GCC/ARM_CM4F/portmacro.h **** 	/* Set a PendSV to request a context switch. */								\
  82:../../kernel/FreeRTOS/Source/portable/GCC/ARM_CM4F/portmacro.h **** 	portNVIC_INT_CTRL_REG = portNVIC_PENDSVSET_BIT;								\
  83:../../kernel/FreeRTOS/Source/portable/GCC/ARM_CM4F/portmacro.h **** 																				\
  84:../../kernel/FreeRTOS/Source/portable/GCC/ARM_CM4F/portmacro.h **** 	/* Barriers are normally not required but do ensure the code is completely	\
  85:../../kernel/FreeRTOS/Source/portable/GCC/ARM_CM4F/portmacro.h **** 	within the specified behaviour for the architecture. */						\
  86:../../kernel/FreeRTOS/Source/portable/GCC/ARM_CM4F/portmacro.h **** 	__asm volatile( "dsb" ::: "memory" );										\
  87:../../kernel/FreeRTOS/Source/portable/GCC/ARM_CM4F/portmacro.h **** 	__asm volatile( "isb" );													\
  88:../../kernel/FreeRTOS/Source/portable/GCC/ARM_CM4F/portmacro.h **** }
  89:../../kernel/FreeRTOS/Source/portable/GCC/ARM_CM4F/portmacro.h **** 
  90:../../kernel/FreeRTOS/Source/portable/GCC/ARM_CM4F/portmacro.h **** #define portNVIC_INT_CTRL_REG		( * ( ( volatile uint32_t * ) 0xe000ed04 ) )
  91:../../kernel/FreeRTOS/Source/portable/GCC/ARM_CM4F/portmacro.h **** #define portNVIC_PENDSVSET_BIT		( 1UL << 28UL )
  92:../../kernel/FreeRTOS/Source/portable/GCC/ARM_CM4F/portmacro.h **** #define portEND_SWITCHING_ISR( xSwitchRequired ) if( xSwitchRequired != pdFALSE ) portYIELD()
  93:../../kernel/FreeRTOS/Source/portable/GCC/ARM_CM4F/portmacro.h **** #define portYIELD_FROM_ISR( x ) portEND_SWITCHING_ISR( x )
  94:../../kernel/FreeRTOS/Source/portable/GCC/ARM_CM4F/portmacro.h **** /*-----------------------------------------------------------*/
  95:../../kernel/FreeRTOS/Source/portable/GCC/ARM_CM4F/portmacro.h **** 
  96:../../kernel/FreeRTOS/Source/portable/GCC/ARM_CM4F/portmacro.h **** /* Critical section management. */
  97:../../kernel/FreeRTOS/Source/portable/GCC/ARM_CM4F/portmacro.h **** extern void vPortEnterCritical( void );
  98:../../kernel/FreeRTOS/Source/portable/GCC/ARM_CM4F/portmacro.h **** extern void vPortExitCritical( void );
  99:../../kernel/FreeRTOS/Source/portable/GCC/ARM_CM4F/portmacro.h **** #define portSET_INTERRUPT_MASK_FROM_ISR()		ulPortRaiseBASEPRI()
 100:../../kernel/FreeRTOS/Source/portable/GCC/ARM_CM4F/portmacro.h **** #define portCLEAR_INTERRUPT_MASK_FROM_ISR(x)	vPortSetBASEPRI(x)
 101:../../kernel/FreeRTOS/Source/portable/GCC/ARM_CM4F/portmacro.h **** #define portDISABLE_INTERRUPTS()				vPortRaiseBASEPRI()
 102:../../kernel/FreeRTOS/Source/portable/GCC/ARM_CM4F/portmacro.h **** #define portENABLE_INTERRUPTS()					vPortSetBASEPRI(0)
 103:../../kernel/FreeRTOS/Source/portable/GCC/ARM_CM4F/portmacro.h **** #define portENTER_CRITICAL()					vPortEnterCritical()
 104:../../kernel/FreeRTOS/Source/portable/GCC/ARM_CM4F/portmacro.h **** #define portEXIT_CRITICAL()						vPortExitCritical()
 105:../../kernel/FreeRTOS/Source/portable/GCC/ARM_CM4F/portmacro.h **** 
ARM GAS  /tmp/ccxvUIDa.s 			page 32


 106:../../kernel/FreeRTOS/Source/portable/GCC/ARM_CM4F/portmacro.h **** /*-----------------------------------------------------------*/
 107:../../kernel/FreeRTOS/Source/portable/GCC/ARM_CM4F/portmacro.h **** 
 108:../../kernel/FreeRTOS/Source/portable/GCC/ARM_CM4F/portmacro.h **** /* Task function macros as described on the FreeRTOS.org WEB site.  These are
 109:../../kernel/FreeRTOS/Source/portable/GCC/ARM_CM4F/portmacro.h **** not necessary for to use this port.  They are defined so the common demo files
 110:../../kernel/FreeRTOS/Source/portable/GCC/ARM_CM4F/portmacro.h **** (which build with all the ports) will build. */
 111:../../kernel/FreeRTOS/Source/portable/GCC/ARM_CM4F/portmacro.h **** #define portTASK_FUNCTION_PROTO( vFunction, pvParameters ) void vFunction( void *pvParameters )
 112:../../kernel/FreeRTOS/Source/portable/GCC/ARM_CM4F/portmacro.h **** #define portTASK_FUNCTION( vFunction, pvParameters ) void vFunction( void *pvParameters )
 113:../../kernel/FreeRTOS/Source/portable/GCC/ARM_CM4F/portmacro.h **** /*-----------------------------------------------------------*/
 114:../../kernel/FreeRTOS/Source/portable/GCC/ARM_CM4F/portmacro.h **** 
 115:../../kernel/FreeRTOS/Source/portable/GCC/ARM_CM4F/portmacro.h **** /* Tickless idle/low power functionality. */
 116:../../kernel/FreeRTOS/Source/portable/GCC/ARM_CM4F/portmacro.h **** #ifndef portSUPPRESS_TICKS_AND_SLEEP
 117:../../kernel/FreeRTOS/Source/portable/GCC/ARM_CM4F/portmacro.h **** 	extern void vPortSuppressTicksAndSleep( TickType_t xExpectedIdleTime );
 118:../../kernel/FreeRTOS/Source/portable/GCC/ARM_CM4F/portmacro.h **** 	#define portSUPPRESS_TICKS_AND_SLEEP( xExpectedIdleTime ) vPortSuppressTicksAndSleep( xExpectedIdl
 119:../../kernel/FreeRTOS/Source/portable/GCC/ARM_CM4F/portmacro.h **** #endif
 120:../../kernel/FreeRTOS/Source/portable/GCC/ARM_CM4F/portmacro.h **** /*-----------------------------------------------------------*/
 121:../../kernel/FreeRTOS/Source/portable/GCC/ARM_CM4F/portmacro.h **** 
 122:../../kernel/FreeRTOS/Source/portable/GCC/ARM_CM4F/portmacro.h **** /* Architecture specific optimisations. */
 123:../../kernel/FreeRTOS/Source/portable/GCC/ARM_CM4F/portmacro.h **** #ifndef configUSE_PORT_OPTIMISED_TASK_SELECTION
 124:../../kernel/FreeRTOS/Source/portable/GCC/ARM_CM4F/portmacro.h **** 	#define configUSE_PORT_OPTIMISED_TASK_SELECTION 1
 125:../../kernel/FreeRTOS/Source/portable/GCC/ARM_CM4F/portmacro.h **** #endif
 126:../../kernel/FreeRTOS/Source/portable/GCC/ARM_CM4F/portmacro.h **** 
 127:../../kernel/FreeRTOS/Source/portable/GCC/ARM_CM4F/portmacro.h **** #if configUSE_PORT_OPTIMISED_TASK_SELECTION == 1
 128:../../kernel/FreeRTOS/Source/portable/GCC/ARM_CM4F/portmacro.h **** 
 129:../../kernel/FreeRTOS/Source/portable/GCC/ARM_CM4F/portmacro.h **** 	/* Generic helper function. */
 130:../../kernel/FreeRTOS/Source/portable/GCC/ARM_CM4F/portmacro.h **** 	__attribute__( ( always_inline ) ) static inline uint8_t ucPortCountLeadingZeros( uint32_t ulBitma
 131:../../kernel/FreeRTOS/Source/portable/GCC/ARM_CM4F/portmacro.h **** 	{
 132:../../kernel/FreeRTOS/Source/portable/GCC/ARM_CM4F/portmacro.h **** 	uint8_t ucReturn;
 133:../../kernel/FreeRTOS/Source/portable/GCC/ARM_CM4F/portmacro.h **** 
 134:../../kernel/FreeRTOS/Source/portable/GCC/ARM_CM4F/portmacro.h **** 		__asm volatile ( "clz %0, %1" : "=r" ( ucReturn ) : "r" ( ulBitmap ) : "memory" );
 135:../../kernel/FreeRTOS/Source/portable/GCC/ARM_CM4F/portmacro.h **** 		return ucReturn;
 136:../../kernel/FreeRTOS/Source/portable/GCC/ARM_CM4F/portmacro.h **** 	}
 137:../../kernel/FreeRTOS/Source/portable/GCC/ARM_CM4F/portmacro.h **** 
 138:../../kernel/FreeRTOS/Source/portable/GCC/ARM_CM4F/portmacro.h **** 	/* Check the configuration. */
 139:../../kernel/FreeRTOS/Source/portable/GCC/ARM_CM4F/portmacro.h **** 	#if( configMAX_PRIORITIES > 32 )
 140:../../kernel/FreeRTOS/Source/portable/GCC/ARM_CM4F/portmacro.h **** 		#error configUSE_PORT_OPTIMISED_TASK_SELECTION can only be set to 1 when configMAX_PRIORITIES is 
 141:../../kernel/FreeRTOS/Source/portable/GCC/ARM_CM4F/portmacro.h **** 	#endif
 142:../../kernel/FreeRTOS/Source/portable/GCC/ARM_CM4F/portmacro.h **** 
 143:../../kernel/FreeRTOS/Source/portable/GCC/ARM_CM4F/portmacro.h **** 	/* Store/clear the ready priorities in a bit map. */
 144:../../kernel/FreeRTOS/Source/portable/GCC/ARM_CM4F/portmacro.h **** 	#define portRECORD_READY_PRIORITY( uxPriority, uxReadyPriorities ) ( uxReadyPriorities ) |= ( 1UL 
 145:../../kernel/FreeRTOS/Source/portable/GCC/ARM_CM4F/portmacro.h **** 	#define portRESET_READY_PRIORITY( uxPriority, uxReadyPriorities ) ( uxReadyPriorities ) &= ~( 1UL 
 146:../../kernel/FreeRTOS/Source/portable/GCC/ARM_CM4F/portmacro.h **** 
 147:../../kernel/FreeRTOS/Source/portable/GCC/ARM_CM4F/portmacro.h **** 	/*-----------------------------------------------------------*/
 148:../../kernel/FreeRTOS/Source/portable/GCC/ARM_CM4F/portmacro.h **** 
 149:../../kernel/FreeRTOS/Source/portable/GCC/ARM_CM4F/portmacro.h **** 	#define portGET_HIGHEST_PRIORITY( uxTopPriority, uxReadyPriorities ) uxTopPriority = ( 31UL - ( ui
 150:../../kernel/FreeRTOS/Source/portable/GCC/ARM_CM4F/portmacro.h **** 
 151:../../kernel/FreeRTOS/Source/portable/GCC/ARM_CM4F/portmacro.h **** #endif /* configUSE_PORT_OPTIMISED_TASK_SELECTION */
 152:../../kernel/FreeRTOS/Source/portable/GCC/ARM_CM4F/portmacro.h **** 
 153:../../kernel/FreeRTOS/Source/portable/GCC/ARM_CM4F/portmacro.h **** /*-----------------------------------------------------------*/
 154:../../kernel/FreeRTOS/Source/portable/GCC/ARM_CM4F/portmacro.h **** 
 155:../../kernel/FreeRTOS/Source/portable/GCC/ARM_CM4F/portmacro.h **** #ifdef configASSERT
 156:../../kernel/FreeRTOS/Source/portable/GCC/ARM_CM4F/portmacro.h **** 	void vPortValidateInterruptPriority( void );
 157:../../kernel/FreeRTOS/Source/portable/GCC/ARM_CM4F/portmacro.h **** 	#define portASSERT_IF_INTERRUPT_PRIORITY_INVALID() 	vPortValidateInterruptPriority()
 158:../../kernel/FreeRTOS/Source/portable/GCC/ARM_CM4F/portmacro.h **** #endif
 159:../../kernel/FreeRTOS/Source/portable/GCC/ARM_CM4F/portmacro.h **** 
 160:../../kernel/FreeRTOS/Source/portable/GCC/ARM_CM4F/portmacro.h **** /* portNOP() is not required by this port. */
 161:../../kernel/FreeRTOS/Source/portable/GCC/ARM_CM4F/portmacro.h **** #define portNOP()
 162:../../kernel/FreeRTOS/Source/portable/GCC/ARM_CM4F/portmacro.h **** 
ARM GAS  /tmp/ccxvUIDa.s 			page 33


 163:../../kernel/FreeRTOS/Source/portable/GCC/ARM_CM4F/portmacro.h **** #define portINLINE	__inline
 164:../../kernel/FreeRTOS/Source/portable/GCC/ARM_CM4F/portmacro.h **** 
 165:../../kernel/FreeRTOS/Source/portable/GCC/ARM_CM4F/portmacro.h **** #ifndef portFORCE_INLINE
 166:../../kernel/FreeRTOS/Source/portable/GCC/ARM_CM4F/portmacro.h **** 	#define portFORCE_INLINE inline __attribute__(( always_inline))
 167:../../kernel/FreeRTOS/Source/portable/GCC/ARM_CM4F/portmacro.h **** #endif
 168:../../kernel/FreeRTOS/Source/portable/GCC/ARM_CM4F/portmacro.h **** 
 169:../../kernel/FreeRTOS/Source/portable/GCC/ARM_CM4F/portmacro.h **** portFORCE_INLINE static BaseType_t xPortIsInsideInterrupt( void )
 170:../../kernel/FreeRTOS/Source/portable/GCC/ARM_CM4F/portmacro.h **** {
 171:../../kernel/FreeRTOS/Source/portable/GCC/ARM_CM4F/portmacro.h **** uint32_t ulCurrentInterrupt;
 172:../../kernel/FreeRTOS/Source/portable/GCC/ARM_CM4F/portmacro.h **** BaseType_t xReturn;
 173:../../kernel/FreeRTOS/Source/portable/GCC/ARM_CM4F/portmacro.h **** 
 174:../../kernel/FreeRTOS/Source/portable/GCC/ARM_CM4F/portmacro.h **** 	/* Obtain the number of the currently executing interrupt. */
 175:../../kernel/FreeRTOS/Source/portable/GCC/ARM_CM4F/portmacro.h **** 	__asm volatile( "mrs %0, ipsr" : "=r"( ulCurrentInterrupt ) :: "memory" );
 176:../../kernel/FreeRTOS/Source/portable/GCC/ARM_CM4F/portmacro.h **** 
 177:../../kernel/FreeRTOS/Source/portable/GCC/ARM_CM4F/portmacro.h **** 	if( ulCurrentInterrupt == 0 )
 178:../../kernel/FreeRTOS/Source/portable/GCC/ARM_CM4F/portmacro.h **** 	{
 179:../../kernel/FreeRTOS/Source/portable/GCC/ARM_CM4F/portmacro.h **** 		xReturn = pdFALSE;
 180:../../kernel/FreeRTOS/Source/portable/GCC/ARM_CM4F/portmacro.h **** 	}
 181:../../kernel/FreeRTOS/Source/portable/GCC/ARM_CM4F/portmacro.h **** 	else
 182:../../kernel/FreeRTOS/Source/portable/GCC/ARM_CM4F/portmacro.h **** 	{
 183:../../kernel/FreeRTOS/Source/portable/GCC/ARM_CM4F/portmacro.h **** 		xReturn = pdTRUE;
 184:../../kernel/FreeRTOS/Source/portable/GCC/ARM_CM4F/portmacro.h **** 	}
 185:../../kernel/FreeRTOS/Source/portable/GCC/ARM_CM4F/portmacro.h **** 
 186:../../kernel/FreeRTOS/Source/portable/GCC/ARM_CM4F/portmacro.h **** 	return xReturn;
 187:../../kernel/FreeRTOS/Source/portable/GCC/ARM_CM4F/portmacro.h **** }
 188:../../kernel/FreeRTOS/Source/portable/GCC/ARM_CM4F/portmacro.h **** 
 189:../../kernel/FreeRTOS/Source/portable/GCC/ARM_CM4F/portmacro.h **** /*-----------------------------------------------------------*/
 190:../../kernel/FreeRTOS/Source/portable/GCC/ARM_CM4F/portmacro.h **** 
 191:../../kernel/FreeRTOS/Source/portable/GCC/ARM_CM4F/portmacro.h **** portFORCE_INLINE static void vPortRaiseBASEPRI( void )
 1033              		.loc 2 191 30 view .LVU212
 1034              	.LBB38:
 192:../../kernel/FreeRTOS/Source/portable/GCC/ARM_CM4F/portmacro.h **** {
 193:../../kernel/FreeRTOS/Source/portable/GCC/ARM_CM4F/portmacro.h **** uint32_t ulNewBASEPRI;
 1035              		.loc 2 193 1 view .LVU213
 194:../../kernel/FreeRTOS/Source/portable/GCC/ARM_CM4F/portmacro.h **** 
 195:../../kernel/FreeRTOS/Source/portable/GCC/ARM_CM4F/portmacro.h **** 	__asm volatile
 1036              		.loc 2 195 2 view .LVU214
 1037              		.syntax unified
 1038              	@ 195 "../../kernel/FreeRTOS/Source/portable/GCC/ARM_CM4F/portmacro.h" 1
 1039 00a2 4FF0A003 			mov r3, #160													@ ulNewBASEPRI,
 1040 00a6 83F31188 		msr basepri, r3												@ ulNewBASEPRI
 1041 00aa BFF36F8F 		isb														
 1042 00ae BFF34F8F 		dsb														
 1043              	
 1044              	@ 0 "" 2
 1045              	.LVL86:
 1046              		.thumb
 1047              		.syntax unified
 1048              	.L88:
 1049              		.loc 2 195 2 is_stmt 0 view .LVU215
 1050              	.LBE38:
 1051              	.LBE37:
 201:../../peripheral_library/drv/drvAudio.c **** 
 1052              		.loc 1 201 3 is_stmt 1 discriminator 2 view .LVU216
 201:../../peripheral_library/drv/drvAudio.c **** 
 1053              		.loc 1 201 3 discriminator 2 view .LVU217
 201:../../peripheral_library/drv/drvAudio.c **** 
ARM GAS  /tmp/ccxvUIDa.s 			page 34


 1054              		.loc 1 201 3 discriminator 2 view .LVU218
 201:../../peripheral_library/drv/drvAudio.c **** 
 1055              		.loc 1 201 3 discriminator 2 view .LVU219
 1056 00b2 FEE7     		b	.L88		@
 1057              	.L95:
 199:../../peripheral_library/drv/drvAudio.c ****   _tAudMutex = xSemaphoreCreateMutex();
 1058              		.loc 1 199 3 view .LVU220
 1059              	.LBB39:
 1060              	.LBI39:
 191:../../kernel/FreeRTOS/Source/portable/GCC/ARM_CM4F/portmacro.h **** {
 1061              		.loc 2 191 30 view .LVU221
 1062              	.LBB40:
 193:../../kernel/FreeRTOS/Source/portable/GCC/ARM_CM4F/portmacro.h **** 
 1063              		.loc 2 193 1 view .LVU222
 1064              		.loc 2 195 2 view .LVU223
 1065              		.syntax unified
 1066              	@ 195 "../../kernel/FreeRTOS/Source/portable/GCC/ARM_CM4F/portmacro.h" 1
 1067 00b4 4FF0A003 			mov r3, #160													@ ulNewBASEPRI,
 1068 00b8 83F31188 		msr basepri, r3												@ ulNewBASEPRI
 1069 00bc BFF36F8F 		isb														
 1070 00c0 BFF34F8F 		dsb														
 1071              	
 1072              	@ 0 "" 2
 1073              	.LVL87:
 1074              		.thumb
 1075              		.syntax unified
 1076              	.L86:
 1077              		.loc 2 195 2 is_stmt 0 view .LVU224
 1078              	.LBE40:
 1079              	.LBE39:
 199:../../peripheral_library/drv/drvAudio.c ****   _tAudMutex = xSemaphoreCreateMutex();
 1080              		.loc 1 199 3 is_stmt 1 discriminator 1 view .LVU225
 199:../../peripheral_library/drv/drvAudio.c ****   _tAudMutex = xSemaphoreCreateMutex();
 1081              		.loc 1 199 3 discriminator 1 view .LVU226
 199:../../peripheral_library/drv/drvAudio.c ****   _tAudMutex = xSemaphoreCreateMutex();
 1082              		.loc 1 199 3 discriminator 1 view .LVU227
 199:../../peripheral_library/drv/drvAudio.c ****   _tAudMutex = xSemaphoreCreateMutex();
 1083              		.loc 1 199 3 discriminator 1 view .LVU228
 1084 00c4 FEE7     		b	.L86		@
 1085              	.LVL88:
 1086              	.L97:
 1087              	.LBB41:
 1088              	.LBB36:
 1089              	.LBB34:
 1090              	.LBI34:
 275:../../peripheral_library/drv/drvAudio.c **** {
 1091              		.loc 1 275 6 view .LVU229
 1092              	.LBB35:
 279:../../peripheral_library/drv/drvAudio.c ****     {
 1093              		.loc 1 279 5 view .LVU230
 336:../../peripheral_library/drv/drvAudio.c ****         MHAL_AUD_DMicSelPhase(0x0904);//for 48kHz 2.4M
 1094              		.loc 1 336 9 view .LVU231
 1095 00c6 40F21730 		movw	r0, #791	@,
 1096 00ca FFF7FEFF 		bl	MHAL_AUD_DMASetModeExt		@
 1097              	.LVL89:
 337:../../peripheral_library/drv/drvAudio.c **** //#else
 1098              		.loc 1 337 9 view .LVU232
ARM GAS  /tmp/ccxvUIDa.s 			page 35


 1099 00ce 40F60410 		movw	r0, #2308	@,
 1100 00d2 FFF7FEFF 		bl	MHAL_AUD_DMicSelPhase		@
 1101              	.LVL90:
 346:../../peripheral_library/drv/drvAudio.c ****         MHAL_AUD_I2SSetMsMode(AUD_I2S_MSMODE_MASTER);
 1102              		.loc 1 346 9 view .LVU233
 1103 00d6 0420     		movs	r0, #4	@,
 1104 00d8 FFF7FEFF 		bl	MHAL_AUD_I2SSetSynthRate		@
 1105              	.LVL91:
 347:../../peripheral_library/drv/drvAudio.c **** #endif
 1106              		.loc 1 347 9 view .LVU234
 1107 00dc 2846     		mov	r0, r5	@, _35
 1108 00de FFF7FEFF 		bl	MHAL_AUD_I2SSetMsMode		@
 1109              	.LVL92:
 349:../../peripheral_library/drv/drvAudio.c ****         break;
 1110              		.loc 1 349 9 view .LVU235
 1111              	@ ../../peripheral_library/drv/drvAudio.c:349:         _eAudRate = eRate;
 349:../../peripheral_library/drv/drvAudio.c ****         break;
 1112              		.loc 1 349 19 is_stmt 0 view .LVU236
 1113 00e2 124D     		ldr	r5, .L99+40	@ tmp136,
 1114              	@ ../../peripheral_library/drv/drvAudio.c:354:     xSemaphoreGive(_tAudMutex);
 354:../../peripheral_library/drv/drvAudio.c ****   }
 1115              		.loc 1 354 5 view .LVU237
 1116 00e4 2068     		ldr	r0, [r4]	@, _tAudMutex
 1117 00e6 0023     		movs	r3, #0	@,
 1118              	@ ../../peripheral_library/drv/drvAudio.c:349:         _eAudRate = eRate;
 349:../../peripheral_library/drv/drvAudio.c ****         break;
 1119              		.loc 1 349 19 view .LVU238
 1120 00e8 0424     		movs	r4, #4	@ tmp137,
 1121              	@ ../../peripheral_library/drv/drvAudio.c:354:     xSemaphoreGive(_tAudMutex);
 354:../../peripheral_library/drv/drvAudio.c ****   }
 1122              		.loc 1 354 5 view .LVU239
 1123 00ea 1A46     		mov	r2, r3	@,
 1124 00ec 1946     		mov	r1, r3	@,
 1125              	@ ../../peripheral_library/drv/drvAudio.c:349:         _eAudRate = eRate;
 349:../../peripheral_library/drv/drvAudio.c ****         break;
 1126              		.loc 1 349 19 view .LVU240
 1127 00ee 2C70     		strb	r4, [r5]	@ tmp137, _eAudRate
 350:../../peripheral_library/drv/drvAudio.c ****       default:
 1128              		.loc 1 350 9 is_stmt 1 view .LVU241
 352:../../peripheral_library/drv/drvAudio.c ****     }
 1129              		.loc 1 352 9 view .LVU242
 352:../../peripheral_library/drv/drvAudio.c ****     }
 1130              		.loc 1 352 55 view .LVU243
 354:../../peripheral_library/drv/drvAudio.c ****   }
 1131              		.loc 1 354 5 view .LVU244
 1132 00f0 FFF7FEFF 		bl	xQueueGenericSend		@
 1133              	.LVL93:
 1134 00f4 ACE7     		b	.L89		@
 1135              	.LVL94:
 1136              	.L98:
 354:../../peripheral_library/drv/drvAudio.c ****   }
 1137              		.loc 1 354 5 is_stmt 0 view .LVU245
 1138              	.LBE35:
 1139              	.LBE34:
 1140              	.LBE36:
 1141              	.LBE41:
 236:../../peripheral_library/drv/drvAudio.c **** 
ARM GAS  /tmp/ccxvUIDa.s 			page 36


 1142              		.loc 1 236 3 is_stmt 1 discriminator 1 view .LVU246
 1143 00f6 0A4A     		ldr	r2, .L99+28	@,
 1144 00f8 0D48     		ldr	r0, .L99+44	@,
 1145 00fa 4FF41041 		mov	r1, #36864	@,
 1146 00fe FFF7FEFF 		bl	UartSendTrace		@
 1147              	.LVL95:
 1148 0102 BCE7     		b	.L90		@
 1149              	.L100:
 1150              		.align	2
 1151              	.L99:
 1152 0104 00000000 		.word	.LANCHOR2
 1153 0108 00000000 		.word	.LANCHOR3
 1154 010c 00000000 		.word	.LANCHOR1
 1155 0110 00000000 		.word	.LANCHOR7
 1156 0114 00000000 		.word	.LANCHOR6
 1157 0118 00000000 		.word	.LANCHOR5
 1158 011c 00000000 		.word	.LANCHOR8
 1159 0120 00000000 		.word	_gMcuDmaBuf
 1160 0124 00000000 		.word	gu32MosDbgLevel
 1161 0128 00000000 		.word	NVIC_Handler_AUDIO
 1162 012c 00000000 		.word	.LANCHOR4
 1163 0130 00000000 		.word	.LC4
 1164              		.cfi_endproc
 1165              	.LFE135:
 1166              		.size	MDrv_AUD_Init, .-MDrv_AUD_Init
 1167              		.section	.text.MDrv_AUD_GetMicNo,"ax",%progbits
 1168              		.align	1
 1169              		.p2align 2,,3
 1170              		.global	MDrv_AUD_GetMicNo
 1171              		.syntax unified
 1172              		.thumb
 1173              		.thumb_func
 1174              		.fpu fpv4-sp-d16
 1175              		.type	MDrv_AUD_GetMicNo, %function
 1176              	MDrv_AUD_GetMicNo:
 1177              	.LFB139:
 459:../../peripheral_library/drv/drvAudio.c **** 
 460:../../peripheral_library/drv/drvAudio.c **** U8 MDrv_AUD_GetMicNo(void)
 461:../../peripheral_library/drv/drvAudio.c **** {
 1178              		.loc 1 461 1 view -0
 1179              		.cfi_startproc
 1180              		@ args = 0, pretend = 0, frame = 0
 1181              		@ frame_needed = 0, uses_anonymous_args = 0
 462:../../peripheral_library/drv/drvAudio.c ****   U8 nChn = 0;
 1182              		.loc 1 462 3 view .LVU248
 1183              	.LVL96:
 463:../../peripheral_library/drv/drvAudio.c ****   if( xSemaphoreTake( _tAudMutex, portMAX_DELAY ) == pdPASS )
 1184              		.loc 1 463 3 view .LVU249
 1185              	@ ../../peripheral_library/drv/drvAudio.c:461: {
 461:../../peripheral_library/drv/drvAudio.c ****   U8 nChn = 0;
 1186              		.loc 1 461 1 is_stmt 0 view .LVU250
 1187 0000 38B5     		push	{r3, r4, r5, lr}	@
 1188              		.cfi_def_cfa_offset 16
 1189              		.cfi_offset 3, -16
 1190              		.cfi_offset 4, -12
 1191              		.cfi_offset 5, -8
 1192              		.cfi_offset 14, -4
ARM GAS  /tmp/ccxvUIDa.s 			page 37


 1193              	@ ../../peripheral_library/drv/drvAudio.c:463:   if( xSemaphoreTake( _tAudMutex, portMAX_DELAY ) ==
 1194              		.loc 1 463 7 view .LVU251
 1195 0002 124D     		ldr	r5, .L111	@ tmp128,
 1196 0004 4FF0FF31 		mov	r1, #-1	@,
 1197 0008 2868     		ldr	r0, [r5]	@, _tAudMutex
 1198 000a FFF7FEFF 		bl	xQueueSemaphoreTake		@
 1199              	.LVL97:
 1200              	@ ../../peripheral_library/drv/drvAudio.c:463:   if( xSemaphoreTake( _tAudMutex, portMAX_DELAY ) ==
 1201              		.loc 1 463 5 view .LVU252
 1202 000e 0128     		cmp	r0, #1	@,
 1203 0010 02D0     		beq	.L108		@,
 1204              	@ ../../peripheral_library/drv/drvAudio.c:462:   U8 nChn = 0;
 462:../../peripheral_library/drv/drvAudio.c ****   U8 nChn = 0;
 1205              		.loc 1 462 6 view .LVU253
 1206 0012 0024     		movs	r4, #0	@ <retval>,
 1207              	.LVL98:
 464:../../peripheral_library/drv/drvAudio.c **** 	{
 465:../../peripheral_library/drv/drvAudio.c ****     switch(_eAudMicNo)
 466:../../peripheral_library/drv/drvAudio.c ****     {
 467:../../peripheral_library/drv/drvAudio.c ****       case AUD_MIC_NO2:
 468:../../peripheral_library/drv/drvAudio.c ****         nChn = 2;
 469:../../peripheral_library/drv/drvAudio.c ****         break;
 470:../../peripheral_library/drv/drvAudio.c ****       case AUD_MIC_NO4:
 471:../../peripheral_library/drv/drvAudio.c ****         nChn = 4;
 472:../../peripheral_library/drv/drvAudio.c ****         break;
 473:../../peripheral_library/drv/drvAudio.c ****       case AUD_MIC_NO6:
 474:../../peripheral_library/drv/drvAudio.c ****         nChn = 6;
 475:../../peripheral_library/drv/drvAudio.c ****         break;
 476:../../peripheral_library/drv/drvAudio.c ****       case AUD_MIC_NO8:
 477:../../peripheral_library/drv/drvAudio.c ****         nChn = 8;
 478:../../peripheral_library/drv/drvAudio.c ****         break;
 479:../../peripheral_library/drv/drvAudio.c ****       default:
 480:../../peripheral_library/drv/drvAudio.c ****         AUD_ERROR("MDrv_AUD_GetMicNo failed\r\n");
 481:../../peripheral_library/drv/drvAudio.c ****     }
 482:../../peripheral_library/drv/drvAudio.c ****     xSemaphoreGive(_tAudMutex);
 483:../../peripheral_library/drv/drvAudio.c ****   }
 484:../../peripheral_library/drv/drvAudio.c ****   return nChn;
 1208              		.loc 1 484 3 is_stmt 1 view .LVU254
 1209              	@ ../../peripheral_library/drv/drvAudio.c:485: }
 485:../../peripheral_library/drv/drvAudio.c **** }
 1210              		.loc 1 485 1 is_stmt 0 view .LVU255
 1211 0014 2046     		mov	r0, r4	@, <retval>
 1212 0016 38BD     		pop	{r3, r4, r5, pc}	@
 1213              	.LVL99:
 1214              	.L108:
 465:../../peripheral_library/drv/drvAudio.c ****     {
 1215              		.loc 1 465 5 is_stmt 1 view .LVU256
 1216 0018 0D4B     		ldr	r3, .L111+4	@ tmp119,
 1217 001a 1B78     		ldrb	r3, [r3]	@ zero_extendqisi2	@ _eAudMicNo.23_3, _eAudMicNo
 1218 001c 032B     		cmp	r3, #3	@ _eAudMicNo.23_3,
 1219 001e 0CD9     		bls	.L109		@,
 480:../../peripheral_library/drv/drvAudio.c ****     }
 1220              		.loc 1 480 9 view .LVU257
 1221 0020 0C4B     		ldr	r3, .L111+8	@ tmp121,
 1222 0022 1C68     		ldr	r4, [r3]	@ gu32MosDbgLevel, gu32MosDbgLevel
 1223 0024 14F00104 		ands	r4, r4, #1	@ tmp122, gu32MosDbgLevel,
 1224 0028 0AD1     		bne	.L110		@,
ARM GAS  /tmp/ccxvUIDa.s 			page 38


 1225              	.L104:
 1226              	.LVL100:
 480:../../peripheral_library/drv/drvAudio.c ****     }
 1227              		.loc 1 480 9 discriminator 3 view .LVU258
 480:../../peripheral_library/drv/drvAudio.c ****     }
 1228              		.loc 1 480 50 discriminator 3 view .LVU259
 482:../../peripheral_library/drv/drvAudio.c ****   }
 1229              		.loc 1 482 5 discriminator 3 view .LVU260
 1230 002a 0023     		movs	r3, #0	@,
 1231 002c 2868     		ldr	r0, [r5]	@, _tAudMutex
 1232 002e 1A46     		mov	r2, r3	@,
 1233 0030 1946     		mov	r1, r3	@,
 1234 0032 FFF7FEFF 		bl	xQueueGenericSend		@
 1235              	.LVL101:
 484:../../peripheral_library/drv/drvAudio.c **** }
 1236              		.loc 1 484 3 discriminator 3 view .LVU261
 1237              	@ ../../peripheral_library/drv/drvAudio.c:485: }
 1238              		.loc 1 485 1 is_stmt 0 discriminator 3 view .LVU262
 1239 0036 2046     		mov	r0, r4	@, <retval>
 1240 0038 38BD     		pop	{r3, r4, r5, pc}	@
 1241              	.LVL102:
 1242              	.L109:
 1243              		.loc 1 485 1 discriminator 3 view .LVU263
 1244 003a 074A     		ldr	r2, .L111+12	@ tmp120,
 1245 003c D45C     		ldrb	r4, [r2, r3]	@ zero_extendqisi2	@ <retval>, CSWTCH.75
 1246 003e F4E7     		b	.L104		@
 1247              	.L110:
 480:../../peripheral_library/drv/drvAudio.c ****     }
 1248              		.loc 1 480 9 is_stmt 1 discriminator 1 view .LVU264
 1249 0040 0648     		ldr	r0, .L111+16	@,
 1250 0042 FFF7FEFF 		bl	UartSendTrace		@
 1251              	.LVL103:
 1252              	@ ../../peripheral_library/drv/drvAudio.c:462:   U8 nChn = 0;
 462:../../peripheral_library/drv/drvAudio.c ****   if( xSemaphoreTake( _tAudMutex, portMAX_DELAY ) == pdPASS )
 1253              		.loc 1 462 6 is_stmt 0 discriminator 1 view .LVU265
 1254 0046 0024     		movs	r4, #0	@ <retval>,
 1255 0048 EFE7     		b	.L104		@
 1256              	.L112:
 1257 004a 00BF     		.align	2
 1258              	.L111:
 1259 004c 00000000 		.word	.LANCHOR3
 1260 0050 00000000 		.word	.LANCHOR6
 1261 0054 00000000 		.word	gu32MosDbgLevel
 1262 0058 00000000 		.word	.LANCHOR9
 1263 005c 00000000 		.word	.LC5
 1264              		.cfi_endproc
 1265              	.LFE139:
 1266              		.size	MDrv_AUD_GetMicNo, .-MDrv_AUD_GetMicNo
 1267              		.section	.text.MDrv_AUD_GetBitWidth,"ax",%progbits
 1268              		.align	1
 1269              		.p2align 2,,3
 1270              		.global	MDrv_AUD_GetBitWidth
 1271              		.syntax unified
 1272              		.thumb
 1273              		.thumb_func
 1274              		.fpu fpv4-sp-d16
 1275              		.type	MDrv_AUD_GetBitWidth, %function
ARM GAS  /tmp/ccxvUIDa.s 			page 39


 1276              	MDrv_AUD_GetBitWidth:
 1277              	.LFB140:
 486:../../peripheral_library/drv/drvAudio.c **** 
 487:../../peripheral_library/drv/drvAudio.c **** U8 MDrv_AUD_GetBitWidth(void)
 488:../../peripheral_library/drv/drvAudio.c **** {
 1278              		.loc 1 488 1 is_stmt 1 view -0
 1279              		.cfi_startproc
 1280              		@ args = 0, pretend = 0, frame = 0
 1281              		@ frame_needed = 0, uses_anonymous_args = 0
 489:../../peripheral_library/drv/drvAudio.c ****   U8 nWidth = 0;
 1282              		.loc 1 489 3 view .LVU267
 1283              	.LVL104:
 490:../../peripheral_library/drv/drvAudio.c ****   if( xSemaphoreTake( _tAudMutex, portMAX_DELAY ) == pdPASS )
 1284              		.loc 1 490 3 view .LVU268
 1285              	@ ../../peripheral_library/drv/drvAudio.c:488: {
 488:../../peripheral_library/drv/drvAudio.c ****   U8 nWidth = 0;
 1286              		.loc 1 488 1 is_stmt 0 view .LVU269
 1287 0000 38B5     		push	{r3, r4, r5, lr}	@
 1288              		.cfi_def_cfa_offset 16
 1289              		.cfi_offset 3, -16
 1290              		.cfi_offset 4, -12
 1291              		.cfi_offset 5, -8
 1292              		.cfi_offset 14, -4
 1293              	@ ../../peripheral_library/drv/drvAudio.c:490:   if( xSemaphoreTake( _tAudMutex, portMAX_DELAY ) ==
 1294              		.loc 1 490 7 view .LVU270
 1295 0002 124D     		ldr	r5, .L123	@ tmp128,
 1296 0004 4FF0FF31 		mov	r1, #-1	@,
 1297 0008 2868     		ldr	r0, [r5]	@, _tAudMutex
 1298 000a FFF7FEFF 		bl	xQueueSemaphoreTake		@
 1299              	.LVL105:
 1300              	@ ../../peripheral_library/drv/drvAudio.c:490:   if( xSemaphoreTake( _tAudMutex, portMAX_DELAY ) ==
 1301              		.loc 1 490 5 view .LVU271
 1302 000e 0128     		cmp	r0, #1	@,
 1303 0010 02D0     		beq	.L120		@,
 1304              	@ ../../peripheral_library/drv/drvAudio.c:489:   U8 nWidth = 0;
 489:../../peripheral_library/drv/drvAudio.c ****   U8 nWidth = 0;
 1305              		.loc 1 489 6 view .LVU272
 1306 0012 0024     		movs	r4, #0	@ <retval>,
 1307              	.LVL106:
 491:../../peripheral_library/drv/drvAudio.c **** 	{
 492:../../peripheral_library/drv/drvAudio.c ****     switch(_eAudWidth)
 493:../../peripheral_library/drv/drvAudio.c ****     {
 494:../../peripheral_library/drv/drvAudio.c ****       case AUD_WIDTH_16:
 495:../../peripheral_library/drv/drvAudio.c ****         nWidth = 16;
 496:../../peripheral_library/drv/drvAudio.c ****         break;
 497:../../peripheral_library/drv/drvAudio.c ****       case AUD_WIDTH_24:
 498:../../peripheral_library/drv/drvAudio.c ****         nWidth = 24;
 499:../../peripheral_library/drv/drvAudio.c ****         break;
 500:../../peripheral_library/drv/drvAudio.c ****       case AUD_WIDTH_32:
 501:../../peripheral_library/drv/drvAudio.c ****         nWidth = 32;
 502:../../peripheral_library/drv/drvAudio.c ****         break;
 503:../../peripheral_library/drv/drvAudio.c ****       default:
 504:../../peripheral_library/drv/drvAudio.c ****         AUD_ERROR("MDrv_AUD_GetBitWidth failed\r\n");
 505:../../peripheral_library/drv/drvAudio.c ****     }
 506:../../peripheral_library/drv/drvAudio.c ****     xSemaphoreGive(_tAudMutex);
 507:../../peripheral_library/drv/drvAudio.c ****   }
 508:../../peripheral_library/drv/drvAudio.c ****   return nWidth;
ARM GAS  /tmp/ccxvUIDa.s 			page 40


 1308              		.loc 1 508 3 is_stmt 1 view .LVU273
 1309              	@ ../../peripheral_library/drv/drvAudio.c:509: }
 509:../../peripheral_library/drv/drvAudio.c **** }
 1310              		.loc 1 509 1 is_stmt 0 view .LVU274
 1311 0014 2046     		mov	r0, r4	@, <retval>
 1312 0016 38BD     		pop	{r3, r4, r5, pc}	@
 1313              	.LVL107:
 1314              	.L120:
 492:../../peripheral_library/drv/drvAudio.c ****     {
 1315              		.loc 1 492 5 is_stmt 1 view .LVU275
 1316 0018 0D4B     		ldr	r3, .L123+4	@ tmp119,
 1317 001a 1B78     		ldrb	r3, [r3]	@ zero_extendqisi2	@ _eAudWidth.27_3, _eAudWidth
 1318 001c 022B     		cmp	r3, #2	@ _eAudWidth.27_3,
 1319 001e 0CD9     		bls	.L121		@,
 504:../../peripheral_library/drv/drvAudio.c ****     }
 1320              		.loc 1 504 9 view .LVU276
 1321 0020 0C4B     		ldr	r3, .L123+8	@ tmp121,
 1322 0022 1C68     		ldr	r4, [r3]	@ gu32MosDbgLevel, gu32MosDbgLevel
 1323 0024 14F00104 		ands	r4, r4, #1	@ tmp122, gu32MosDbgLevel,
 1324 0028 0AD1     		bne	.L122		@,
 1325              	.L116:
 1326              	.LVL108:
 504:../../peripheral_library/drv/drvAudio.c ****     }
 1327              		.loc 1 504 9 discriminator 3 view .LVU277
 504:../../peripheral_library/drv/drvAudio.c ****     }
 1328              		.loc 1 504 53 discriminator 3 view .LVU278
 506:../../peripheral_library/drv/drvAudio.c ****   }
 1329              		.loc 1 506 5 discriminator 3 view .LVU279
 1330 002a 0023     		movs	r3, #0	@,
 1331 002c 2868     		ldr	r0, [r5]	@, _tAudMutex
 1332 002e 1A46     		mov	r2, r3	@,
 1333 0030 1946     		mov	r1, r3	@,
 1334 0032 FFF7FEFF 		bl	xQueueGenericSend		@
 1335              	.LVL109:
 508:../../peripheral_library/drv/drvAudio.c **** }
 1336              		.loc 1 508 3 discriminator 3 view .LVU280
 1337              	@ ../../peripheral_library/drv/drvAudio.c:509: }
 1338              		.loc 1 509 1 is_stmt 0 discriminator 3 view .LVU281
 1339 0036 2046     		mov	r0, r4	@, <retval>
 1340 0038 38BD     		pop	{r3, r4, r5, pc}	@
 1341              	.LVL110:
 1342              	.L121:
 1343              		.loc 1 509 1 discriminator 3 view .LVU282
 1344 003a 074A     		ldr	r2, .L123+12	@ tmp120,
 1345 003c D45C     		ldrb	r4, [r2, r3]	@ zero_extendqisi2	@ <retval>, CSWTCH.76
 1346 003e F4E7     		b	.L116		@
 1347              	.L122:
 504:../../peripheral_library/drv/drvAudio.c ****     }
 1348              		.loc 1 504 9 is_stmt 1 discriminator 1 view .LVU283
 1349 0040 0648     		ldr	r0, .L123+16	@,
 1350 0042 FFF7FEFF 		bl	UartSendTrace		@
 1351              	.LVL111:
 1352              	@ ../../peripheral_library/drv/drvAudio.c:489:   U8 nWidth = 0;
 489:../../peripheral_library/drv/drvAudio.c ****   if( xSemaphoreTake( _tAudMutex, portMAX_DELAY ) == pdPASS )
 1353              		.loc 1 489 6 is_stmt 0 discriminator 1 view .LVU284
 1354 0046 0024     		movs	r4, #0	@ <retval>,
 1355 0048 EFE7     		b	.L116		@
ARM GAS  /tmp/ccxvUIDa.s 			page 41


 1356              	.L124:
 1357 004a 00BF     		.align	2
 1358              	.L123:
 1359 004c 00000000 		.word	.LANCHOR3
 1360 0050 00000000 		.word	.LANCHOR5
 1361 0054 00000000 		.word	gu32MosDbgLevel
 1362 0058 00000000 		.word	.LANCHOR10
 1363 005c 00000000 		.word	.LC6
 1364              		.cfi_endproc
 1365              	.LFE140:
 1366              		.size	MDrv_AUD_GetBitWidth, .-MDrv_AUD_GetBitWidth
 1367              		.section	.text.MDrv_AUD_GetSampleRate,"ax",%progbits
 1368              		.align	1
 1369              		.p2align 2,,3
 1370              		.global	MDrv_AUD_GetSampleRate
 1371              		.syntax unified
 1372              		.thumb
 1373              		.thumb_func
 1374              		.fpu fpv4-sp-d16
 1375              		.type	MDrv_AUD_GetSampleRate, %function
 1376              	MDrv_AUD_GetSampleRate:
 1377              	.LFB141:
 510:../../peripheral_library/drv/drvAudio.c **** 
 511:../../peripheral_library/drv/drvAudio.c **** U32 MDrv_AUD_GetSampleRate(void)
 512:../../peripheral_library/drv/drvAudio.c **** {
 1378              		.loc 1 512 1 is_stmt 1 view -0
 1379              		.cfi_startproc
 1380              		@ args = 0, pretend = 0, frame = 0
 1381              		@ frame_needed = 0, uses_anonymous_args = 0
 513:../../peripheral_library/drv/drvAudio.c ****   U32 nRate = 0;
 1382              		.loc 1 513 3 view .LVU286
 1383              	.LVL112:
 514:../../peripheral_library/drv/drvAudio.c ****   if( xSemaphoreTake( _tAudMutex, portMAX_DELAY ) == pdPASS )
 1384              		.loc 1 514 3 view .LVU287
 1385              	@ ../../peripheral_library/drv/drvAudio.c:512: {
 512:../../peripheral_library/drv/drvAudio.c ****   U32 nRate = 0;
 1386              		.loc 1 512 1 is_stmt 0 view .LVU288
 1387 0000 38B5     		push	{r3, r4, r5, lr}	@
 1388              		.cfi_def_cfa_offset 16
 1389              		.cfi_offset 3, -16
 1390              		.cfi_offset 4, -12
 1391              		.cfi_offset 5, -8
 1392              		.cfi_offset 14, -4
 1393              	@ ../../peripheral_library/drv/drvAudio.c:514:   if( xSemaphoreTake( _tAudMutex, portMAX_DELAY ) ==
 1394              		.loc 1 514 7 view .LVU289
 1395 0002 124D     		ldr	r5, .L137	@ tmp126,
 1396 0004 4FF0FF31 		mov	r1, #-1	@,
 1397 0008 2868     		ldr	r0, [r5]	@, _tAudMutex
 1398 000a FFF7FEFF 		bl	xQueueSemaphoreTake		@
 1399              	.LVL113:
 1400              	@ ../../peripheral_library/drv/drvAudio.c:514:   if( xSemaphoreTake( _tAudMutex, portMAX_DELAY ) ==
 1401              		.loc 1 514 5 view .LVU290
 1402 000e 0128     		cmp	r0, #1	@,
 1403 0010 02D0     		beq	.L134		@,
 1404              	@ ../../peripheral_library/drv/drvAudio.c:513:   U32 nRate = 0;
 513:../../peripheral_library/drv/drvAudio.c ****   U32 nRate = 0;
 1405              		.loc 1 513 7 view .LVU291
ARM GAS  /tmp/ccxvUIDa.s 			page 42


 1406 0012 0024     		movs	r4, #0	@ <retval>,
 515:../../peripheral_library/drv/drvAudio.c **** 	{
 516:../../peripheral_library/drv/drvAudio.c ****     switch(_eAudRate)
 517:../../peripheral_library/drv/drvAudio.c ****     {
 518:../../peripheral_library/drv/drvAudio.c ****       case AUD_RATE_SLAVE:
 519:../../peripheral_library/drv/drvAudio.c ****         nRate = 0;
 520:../../peripheral_library/drv/drvAudio.c ****         break;
 521:../../peripheral_library/drv/drvAudio.c ****       case AUD_RATE_8K:
 522:../../peripheral_library/drv/drvAudio.c ****         nRate = 8000;
 523:../../peripheral_library/drv/drvAudio.c ****         break;
 524:../../peripheral_library/drv/drvAudio.c ****       case AUD_RATE_16K:
 525:../../peripheral_library/drv/drvAudio.c ****         nRate = 16000;
 526:../../peripheral_library/drv/drvAudio.c ****         break;
 527:../../peripheral_library/drv/drvAudio.c ****       case AUD_RATE_32K:
 528:../../peripheral_library/drv/drvAudio.c ****         nRate = 32000;
 529:../../peripheral_library/drv/drvAudio.c ****         break;
 530:../../peripheral_library/drv/drvAudio.c ****       case AUD_RATE_48K:
 531:../../peripheral_library/drv/drvAudio.c ****         nRate = 48000;
 532:../../peripheral_library/drv/drvAudio.c ****         break;
 533:../../peripheral_library/drv/drvAudio.c ****       case AUD_RATE_96K:
 534:../../peripheral_library/drv/drvAudio.c ****         nRate = 96000;
 535:../../peripheral_library/drv/drvAudio.c ****         break;
 536:../../peripheral_library/drv/drvAudio.c ****       default:
 537:../../peripheral_library/drv/drvAudio.c ****         AUD_ERROR("MDrv_AUD_GetSampleRate failed\r\n");
 538:../../peripheral_library/drv/drvAudio.c ****     }
 539:../../peripheral_library/drv/drvAudio.c ****     xSemaphoreGive(_tAudMutex);
 540:../../peripheral_library/drv/drvAudio.c ****   }
 541:../../peripheral_library/drv/drvAudio.c ****   return nRate;
 1407              		.loc 1 541 3 is_stmt 1 view .LVU292
 1408              	@ ../../peripheral_library/drv/drvAudio.c:542: }
 542:../../peripheral_library/drv/drvAudio.c **** }
 1409              		.loc 1 542 1 is_stmt 0 view .LVU293
 1410 0014 2046     		mov	r0, r4	@, <retval>
 1411 0016 38BD     		pop	{r3, r4, r5, pc}	@
 1412              	.L134:
 516:../../peripheral_library/drv/drvAudio.c ****     {
 1413              		.loc 1 516 5 is_stmt 1 view .LVU294
 1414 0018 0D4B     		ldr	r3, .L137+4	@ tmp118,
 1415 001a 1B78     		ldrb	r3, [r3]	@ zero_extendqisi2	@ _eAudRate.31_3, _eAudRate
 1416 001c 052B     		cmp	r3, #5	@ _eAudRate.31_3,
 1417 001e 0CD9     		bls	.L135		@,
 537:../../peripheral_library/drv/drvAudio.c ****     }
 1418              		.loc 1 537 9 view .LVU295
 1419 0020 0C4B     		ldr	r3, .L137+8	@ tmp120,
 1420 0022 1C68     		ldr	r4, [r3]	@ gu32MosDbgLevel, gu32MosDbgLevel
 1421 0024 14F00104 		ands	r4, r4, #1	@ <retval>, gu32MosDbgLevel,
 1422 0028 0BD1     		bne	.L136		@,
 1423              	.L128:
 1424              	.LVL114:
 537:../../peripheral_library/drv/drvAudio.c ****     }
 1425              		.loc 1 537 9 discriminator 3 view .LVU296
 537:../../peripheral_library/drv/drvAudio.c ****     }
 1426              		.loc 1 537 55 discriminator 3 view .LVU297
 539:../../peripheral_library/drv/drvAudio.c ****   }
 1427              		.loc 1 539 5 discriminator 3 view .LVU298
 1428 002a 0023     		movs	r3, #0	@,
 1429 002c 2868     		ldr	r0, [r5]	@, _tAudMutex
ARM GAS  /tmp/ccxvUIDa.s 			page 43


 1430 002e 1A46     		mov	r2, r3	@,
 1431 0030 1946     		mov	r1, r3	@,
 1432 0032 FFF7FEFF 		bl	xQueueGenericSend		@
 1433              	.LVL115:
 1434              	@ ../../peripheral_library/drv/drvAudio.c:542: }
 1435              		.loc 1 542 1 is_stmt 0 discriminator 3 view .LVU299
 1436 0036 2046     		mov	r0, r4	@, <retval>
 1437 0038 38BD     		pop	{r3, r4, r5, pc}	@
 1438              	.LVL116:
 1439              	.L135:
 1440              		.loc 1 542 1 discriminator 3 view .LVU300
 1441 003a 074A     		ldr	r2, .L137+12	@ tmp119,
 1442 003c 52F82340 		ldr	r4, [r2, r3, lsl #2]	@ <retval>, CSWTCH.77
 1443 0040 F3E7     		b	.L128		@
 1444              	.L136:
 537:../../peripheral_library/drv/drvAudio.c ****     }
 1445              		.loc 1 537 9 is_stmt 1 discriminator 1 view .LVU301
 1446 0042 0648     		ldr	r0, .L137+16	@,
 1447 0044 FFF7FEFF 		bl	UartSendTrace		@
 1448              	.LVL117:
 1449              	@ ../../peripheral_library/drv/drvAudio.c:513:   U32 nRate = 0;
 513:../../peripheral_library/drv/drvAudio.c ****   if( xSemaphoreTake( _tAudMutex, portMAX_DELAY ) == pdPASS )
 1450              		.loc 1 513 7 is_stmt 0 discriminator 1 view .LVU302
 1451 0048 0024     		movs	r4, #0	@ <retval>,
 1452 004a EEE7     		b	.L128		@
 1453              	.L138:
 1454              		.align	2
 1455              	.L137:
 1456 004c 00000000 		.word	.LANCHOR3
 1457 0050 00000000 		.word	.LANCHOR4
 1458 0054 00000000 		.word	gu32MosDbgLevel
 1459 0058 00000000 		.word	.LANCHOR11
 1460 005c 00000000 		.word	.LC7
 1461              		.cfi_endproc
 1462              	.LFE141:
 1463              		.size	MDrv_AUD_GetSampleRate, .-MDrv_AUD_GetSampleRate
 1464              		.section	.text.MDrv_AUD_GetBufferLevel,"ax",%progbits
 1465              		.align	1
 1466              		.p2align 2,,3
 1467              		.global	MDrv_AUD_GetBufferLevel
 1468              		.syntax unified
 1469              		.thumb
 1470              		.thumb_func
 1471              		.fpu fpv4-sp-d16
 1472              		.type	MDrv_AUD_GetBufferLevel, %function
 1473              	MDrv_AUD_GetBufferLevel:
 1474              	.LFB142:
 543:../../peripheral_library/drv/drvAudio.c **** 
 544:../../peripheral_library/drv/drvAudio.c **** U32 MDrv_AUD_GetBufferLevel(void)
 545:../../peripheral_library/drv/drvAudio.c **** {
 1475              		.loc 1 545 1 is_stmt 1 view -0
 1476              		.cfi_startproc
 1477              		@ args = 0, pretend = 0, frame = 0
 1478              		@ frame_needed = 0, uses_anonymous_args = 0
 546:../../peripheral_library/drv/drvAudio.c ****   U32 nLevel = 0;
 1479              		.loc 1 546 3 view .LVU304
 1480              	.LVL118:
ARM GAS  /tmp/ccxvUIDa.s 			page 44


 547:../../peripheral_library/drv/drvAudio.c ****   if( xSemaphoreTake( _tAudMutex, portMAX_DELAY ) == pdPASS )
 1481              		.loc 1 547 3 view .LVU305
 1482              	@ ../../peripheral_library/drv/drvAudio.c:545: {
 545:../../peripheral_library/drv/drvAudio.c ****   U32 nLevel = 0;
 1483              		.loc 1 545 1 is_stmt 0 view .LVU306
 1484 0000 38B5     		push	{r3, r4, r5, lr}	@
 1485              		.cfi_def_cfa_offset 16
 1486              		.cfi_offset 3, -16
 1487              		.cfi_offset 4, -12
 1488              		.cfi_offset 5, -8
 1489              		.cfi_offset 14, -4
 1490              	@ ../../peripheral_library/drv/drvAudio.c:547:   if( xSemaphoreTake( _tAudMutex, portMAX_DELAY ) ==
 1491              		.loc 1 547 7 view .LVU307
 1492 0002 0D4D     		ldr	r5, .L147	@ tmp121,
 1493 0004 4FF0FF31 		mov	r1, #-1	@,
 1494 0008 2868     		ldr	r0, [r5]	@, _tAudMutex
 1495 000a FFF7FEFF 		bl	xQueueSemaphoreTake		@
 1496              	.LVL119:
 1497              	@ ../../peripheral_library/drv/drvAudio.c:547:   if( xSemaphoreTake( _tAudMutex, portMAX_DELAY ) ==
 1498              		.loc 1 547 5 view .LVU308
 1499 000e 0128     		cmp	r0, #1	@,
 1500 0010 02D0     		beq	.L145		@,
 1501              	@ ../../peripheral_library/drv/drvAudio.c:546:   U32 nLevel = 0;
 546:../../peripheral_library/drv/drvAudio.c ****   U32 nLevel = 0;
 1502              		.loc 1 546 7 view .LVU309
 1503 0012 0024     		movs	r4, #0	@ <retval>,
 548:../../peripheral_library/drv/drvAudio.c **** 	{
 549:../../peripheral_library/drv/drvAudio.c ****     if(MHAL_AUD_DMAIsRunning())
 550:../../peripheral_library/drv/drvAudio.c ****       nLevel = MHAL_AUD_DMAGetBufLevel();
 551:../../peripheral_library/drv/drvAudio.c **** 
 552:../../peripheral_library/drv/drvAudio.c ****     xSemaphoreGive(_tAudMutex);
 553:../../peripheral_library/drv/drvAudio.c ****   }
 554:../../peripheral_library/drv/drvAudio.c ****   return nLevel;
 1504              		.loc 1 554 3 is_stmt 1 view .LVU310
 1505              	@ ../../peripheral_library/drv/drvAudio.c:555: }
 555:../../peripheral_library/drv/drvAudio.c **** }
 1506              		.loc 1 555 1 is_stmt 0 view .LVU311
 1507 0014 2046     		mov	r0, r4	@, <retval>
 1508 0016 38BD     		pop	{r3, r4, r5, pc}	@
 1509              	.L145:
 549:../../peripheral_library/drv/drvAudio.c ****       nLevel = MHAL_AUD_DMAGetBufLevel();
 1510              		.loc 1 549 5 is_stmt 1 view .LVU312
 1511              	@ ../../peripheral_library/drv/drvAudio.c:549:     if(MHAL_AUD_DMAIsRunning())
 549:../../peripheral_library/drv/drvAudio.c ****       nLevel = MHAL_AUD_DMAGetBufLevel();
 1512              		.loc 1 549 8 is_stmt 0 view .LVU313
 1513 0018 FFF7FEFF 		bl	MHAL_AUD_DMAIsRunning		@
 1514              	.LVL120:
 1515              	@ ../../peripheral_library/drv/drvAudio.c:549:     if(MHAL_AUD_DMAIsRunning())
 549:../../peripheral_library/drv/drvAudio.c ****       nLevel = MHAL_AUD_DMAGetBufLevel();
 1516              		.loc 1 549 7 view .LVU314
 1517 001c 40B9     		cbnz	r0, .L146	@ tmp117,
 1518              	@ ../../peripheral_library/drv/drvAudio.c:546:   U32 nLevel = 0;
 546:../../peripheral_library/drv/drvAudio.c ****   if( xSemaphoreTake( _tAudMutex, portMAX_DELAY ) == pdPASS )
 1519              		.loc 1 546 7 view .LVU315
 1520 001e 0446     		mov	r4, r0	@ <retval>, tmp117
 1521              	.LVL121:
 1522              	.L141:
ARM GAS  /tmp/ccxvUIDa.s 			page 45


 552:../../peripheral_library/drv/drvAudio.c ****   }
 1523              		.loc 1 552 5 is_stmt 1 view .LVU316
 1524 0020 0023     		movs	r3, #0	@,
 1525 0022 2868     		ldr	r0, [r5]	@, _tAudMutex
 1526 0024 1A46     		mov	r2, r3	@,
 1527 0026 1946     		mov	r1, r3	@,
 1528 0028 FFF7FEFF 		bl	xQueueGenericSend		@
 1529              	.LVL122:
 1530              	@ ../../peripheral_library/drv/drvAudio.c:555: }
 1531              		.loc 1 555 1 is_stmt 0 view .LVU317
 1532 002c 2046     		mov	r0, r4	@, <retval>
 1533 002e 38BD     		pop	{r3, r4, r5, pc}	@
 1534              	.LVL123:
 1535              	.L146:
 550:../../peripheral_library/drv/drvAudio.c **** 
 1536              		.loc 1 550 7 is_stmt 1 view .LVU318
 1537              	@ ../../peripheral_library/drv/drvAudio.c:550:       nLevel = MHAL_AUD_DMAGetBufLevel();
 550:../../peripheral_library/drv/drvAudio.c **** 
 1538              		.loc 1 550 16 is_stmt 0 view .LVU319
 1539 0030 FFF7FEFF 		bl	MHAL_AUD_DMAGetBufLevel		@
 1540              	.LVL124:
 1541 0034 0446     		mov	r4, r0	@ <retval>,
 1542              	.LVL125:
 550:../../peripheral_library/drv/drvAudio.c **** 
 1543              		.loc 1 550 16 view .LVU320
 1544 0036 F3E7     		b	.L141		@
 1545              	.L148:
 1546              		.align	2
 1547              	.L147:
 1548 0038 00000000 		.word	.LANCHOR3
 1549              		.cfi_endproc
 1550              	.LFE142:
 1551              		.size	MDrv_AUD_GetBufferLevel, .-MDrv_AUD_GetBufferLevel
 1552              		.section	.text.MDrv_AUD_SigGenEnable,"ax",%progbits
 1553              		.align	1
 1554              		.p2align 2,,3
 1555              		.global	MDrv_AUD_SigGenEnable
 1556              		.syntax unified
 1557              		.thumb
 1558              		.thumb_func
 1559              		.fpu fpv4-sp-d16
 1560              		.type	MDrv_AUD_SigGenEnable, %function
 1561              	MDrv_AUD_SigGenEnable:
 1562              	.LVL126:
 1563              	.LFB143:
 556:../../peripheral_library/drv/drvAudio.c **** 
 557:../../peripheral_library/drv/drvAudio.c **** #if defined(CONFIG_AUD_HWGAIN)
 558:../../peripheral_library/drv/drvAudio.c **** void MDrv_AUD_DMICSetGain(U8 nStep)
 559:../../peripheral_library/drv/drvAudio.c **** {
 560:../../peripheral_library/drv/drvAudio.c ****   if (nStep >= 8)
 561:../../peripheral_library/drv/drvAudio.c ****     return;
 562:../../peripheral_library/drv/drvAudio.c **** 
 563:../../peripheral_library/drv/drvAudio.c ****   if( xSemaphoreTake( _tAudMutex, portMAX_DELAY ) == pdPASS )
 564:../../peripheral_library/drv/drvAudio.c **** 	{
 565:../../peripheral_library/drv/drvAudio.c ****     _u8AudDmicGain = nStep;
 566:../../peripheral_library/drv/drvAudio.c **** 
 567:../../peripheral_library/drv/drvAudio.c ****     if (E_AUD_STATE_NONE != _eAudState)
ARM GAS  /tmp/ccxvUIDa.s 			page 46


 568:../../peripheral_library/drv/drvAudio.c ****     {
 569:../../peripheral_library/drv/drvAudio.c ****       MHAL_AUD_DMicSetGain(nStep);
 570:../../peripheral_library/drv/drvAudio.c ****     }
 571:../../peripheral_library/drv/drvAudio.c ****     xSemaphoreGive(_tAudMutex);
 572:../../peripheral_library/drv/drvAudio.c ****   }
 573:../../peripheral_library/drv/drvAudio.c **** }
 574:../../peripheral_library/drv/drvAudio.c **** #endif
 575:../../peripheral_library/drv/drvAudio.c **** 
 576:../../peripheral_library/drv/drvAudio.c **** void MDrv_AUD_SigGenEnable(Bool bEn)
 577:../../peripheral_library/drv/drvAudio.c **** {
 1564              		.loc 1 577 1 is_stmt 1 view -0
 1565              		.cfi_startproc
 1566              		@ args = 0, pretend = 0, frame = 0
 1567              		@ frame_needed = 0, uses_anonymous_args = 0
 578:../../peripheral_library/drv/drvAudio.c ****   if( xSemaphoreTake( _tAudMutex, portMAX_DELAY ) == pdPASS )
 1568              		.loc 1 578 3 view .LVU322
 1569              	@ ../../peripheral_library/drv/drvAudio.c:577: {
 577:../../peripheral_library/drv/drvAudio.c ****   if( xSemaphoreTake( _tAudMutex, portMAX_DELAY ) == pdPASS )
 1570              		.loc 1 577 1 is_stmt 0 view .LVU323
 1571 0000 70B5     		push	{r4, r5, r6, lr}	@
 1572              		.cfi_def_cfa_offset 16
 1573              		.cfi_offset 4, -16
 1574              		.cfi_offset 5, -12
 1575              		.cfi_offset 6, -8
 1576              		.cfi_offset 14, -4
 1577              	@ ../../peripheral_library/drv/drvAudio.c:578:   if( xSemaphoreTake( _tAudMutex, portMAX_DELAY ) ==
 1578              		.loc 1 578 7 view .LVU324
 1579 0002 0D4C     		ldr	r4, .L158	@ tmp123,
 1580              	@ ../../peripheral_library/drv/drvAudio.c:577: {
 577:../../peripheral_library/drv/drvAudio.c ****   if( xSemaphoreTake( _tAudMutex, portMAX_DELAY ) == pdPASS )
 1581              		.loc 1 577 1 view .LVU325
 1582 0004 0546     		mov	r5, r0	@ bEn, bEn
 1583              	@ ../../peripheral_library/drv/drvAudio.c:578:   if( xSemaphoreTake( _tAudMutex, portMAX_DELAY ) ==
 1584              		.loc 1 578 7 view .LVU326
 1585 0006 4FF0FF31 		mov	r1, #-1	@,
 1586 000a 2068     		ldr	r0, [r4]	@, _tAudMutex
 1587              	.LVL127:
 1588              		.loc 1 578 7 view .LVU327
 1589 000c FFF7FEFF 		bl	xQueueSemaphoreTake		@
 1590              	.LVL128:
 1591              	@ ../../peripheral_library/drv/drvAudio.c:578:   if( xSemaphoreTake( _tAudMutex, portMAX_DELAY ) ==
 1592              		.loc 1 578 5 view .LVU328
 1593 0010 0128     		cmp	r0, #1	@,
 1594 0012 00D0     		beq	.L156		@,
 1595              	@ ../../peripheral_library/drv/drvAudio.c:588: }
 579:../../peripheral_library/drv/drvAudio.c **** 	{
 580:../../peripheral_library/drv/drvAudio.c ****     _bAudGenEable = bEn;
 581:../../peripheral_library/drv/drvAudio.c **** 
 582:../../peripheral_library/drv/drvAudio.c ****     if (E_AUD_STATE_NONE != _eAudState)
 583:../../peripheral_library/drv/drvAudio.c ****     {
 584:../../peripheral_library/drv/drvAudio.c ****       MHAL_AUD_DMAEnableSigGen(_bAudGenEable);
 585:../../peripheral_library/drv/drvAudio.c ****     }
 586:../../peripheral_library/drv/drvAudio.c ****     xSemaphoreGive(_tAudMutex);
 587:../../peripheral_library/drv/drvAudio.c ****   }
 588:../../peripheral_library/drv/drvAudio.c **** }
 1596              		.loc 1 588 1 view .LVU329
 1597 0014 70BD     		pop	{r4, r5, r6, pc}	@
ARM GAS  /tmp/ccxvUIDa.s 			page 47


 1598              	.L156:
 580:../../peripheral_library/drv/drvAudio.c **** 
 1599              		.loc 1 580 5 is_stmt 1 view .LVU330
 1600              	@ ../../peripheral_library/drv/drvAudio.c:582:     if (E_AUD_STATE_NONE != _eAudState)
 582:../../peripheral_library/drv/drvAudio.c ****     {
 1601              		.loc 1 582 26 is_stmt 0 view .LVU331
 1602 0016 094B     		ldr	r3, .L158+4	@ tmp119,
 1603              	@ ../../peripheral_library/drv/drvAudio.c:580:     _bAudGenEable = bEn;
 580:../../peripheral_library/drv/drvAudio.c **** 
 1604              		.loc 1 580 19 view .LVU332
 1605 0018 094A     		ldr	r2, .L158+8	@ tmp117,
 1606              	@ ../../peripheral_library/drv/drvAudio.c:582:     if (E_AUD_STATE_NONE != _eAudState)
 582:../../peripheral_library/drv/drvAudio.c ****     {
 1607              		.loc 1 582 8 view .LVU333
 1608 001a 1B78     		ldrb	r3, [r3]	@ zero_extendqisi2	@ _eAudState, _eAudState
 1609              	@ ../../peripheral_library/drv/drvAudio.c:580:     _bAudGenEable = bEn;
 580:../../peripheral_library/drv/drvAudio.c **** 
 1610              		.loc 1 580 19 view .LVU334
 1611 001c 1570     		strb	r5, [r2]	@ bEn, _bAudGenEable
 582:../../peripheral_library/drv/drvAudio.c ****     {
 1612              		.loc 1 582 5 is_stmt 1 view .LVU335
 1613              	@ ../../peripheral_library/drv/drvAudio.c:582:     if (E_AUD_STATE_NONE != _eAudState)
 582:../../peripheral_library/drv/drvAudio.c ****     {
 1614              		.loc 1 582 8 is_stmt 0 view .LVU336
 1615 001e 3BB9     		cbnz	r3, .L157	@ _eAudState,
 1616              	.L151:
 586:../../peripheral_library/drv/drvAudio.c ****   }
 1617              		.loc 1 586 5 is_stmt 1 view .LVU337
 1618 0020 0023     		movs	r3, #0	@,
 1619 0022 2068     		ldr	r0, [r4]	@, _tAudMutex
 1620 0024 1A46     		mov	r2, r3	@,
 1621 0026 1946     		mov	r1, r3	@,
 1622              	@ ../../peripheral_library/drv/drvAudio.c:588: }
 1623              		.loc 1 588 1 is_stmt 0 view .LVU338
 1624 0028 BDE87040 		pop	{r4, r5, r6, lr}	@
 1625              		.cfi_remember_state
 1626              		.cfi_restore 14
 1627              		.cfi_restore 6
 1628              		.cfi_restore 5
 1629              		.cfi_restore 4
 1630              		.cfi_def_cfa_offset 0
 1631              	@ ../../peripheral_library/drv/drvAudio.c:586:     xSemaphoreGive(_tAudMutex);
 586:../../peripheral_library/drv/drvAudio.c ****   }
 1632              		.loc 1 586 5 view .LVU339
 1633 002c FFF7FEBF 		b	xQueueGenericSend		@
 1634              	.LVL129:
 1635              	.L157:
 1636              		.cfi_restore_state
 584:../../peripheral_library/drv/drvAudio.c ****     }
 1637              		.loc 1 584 7 is_stmt 1 view .LVU340
 1638 0030 2846     		mov	r0, r5	@, bEn
 1639 0032 FFF7FEFF 		bl	MHAL_AUD_DMAEnableSigGen		@
 1640              	.LVL130:
 1641 0036 F3E7     		b	.L151		@
 1642              	.L159:
 1643              		.align	2
 1644              	.L158:
ARM GAS  /tmp/ccxvUIDa.s 			page 48


 1645 0038 00000000 		.word	.LANCHOR3
 1646 003c 00000000 		.word	.LANCHOR1
 1647 0040 00000000 		.word	.LANCHOR8
 1648              		.cfi_endproc
 1649              	.LFE143:
 1650              		.size	MDrv_AUD_SigGenEnable, .-MDrv_AUD_SigGenEnable
 1651              		.section	.text.MDrv_AUD_Start,"ax",%progbits
 1652              		.align	1
 1653              		.p2align 2,,3
 1654              		.global	MDrv_AUD_Start
 1655              		.syntax unified
 1656              		.thumb
 1657              		.thumb_func
 1658              		.fpu fpv4-sp-d16
 1659              		.type	MDrv_AUD_Start, %function
 1660              	MDrv_AUD_Start:
 1661              	.LFB144:
 589:../../peripheral_library/drv/drvAudio.c **** 
 590:../../peripheral_library/drv/drvAudio.c **** 
 591:../../peripheral_library/drv/drvAudio.c **** BOOL MDrv_AUD_Start(void)
 592:../../peripheral_library/drv/drvAudio.c **** {
 1662              		.loc 1 592 1 view -0
 1663              		.cfi_startproc
 1664              		@ args = 0, pretend = 0, frame = 0
 1665              		@ frame_needed = 0, uses_anonymous_args = 0
 593:../../peripheral_library/drv/drvAudio.c ****   BOOL bRet = FALSE;
 1666              		.loc 1 593 3 view .LVU342
 1667              	.LVL131:
 594:../../peripheral_library/drv/drvAudio.c ****   if( xSemaphoreTake( _tAudMutex, portMAX_DELAY ) == pdPASS )
 1668              		.loc 1 594 3 view .LVU343
 1669              	@ ../../peripheral_library/drv/drvAudio.c:592: {
 592:../../peripheral_library/drv/drvAudio.c ****   BOOL bRet = FALSE;
 1670              		.loc 1 592 1 is_stmt 0 view .LVU344
 1671 0000 38B5     		push	{r3, r4, r5, lr}	@
 1672              		.cfi_def_cfa_offset 16
 1673              		.cfi_offset 3, -16
 1674              		.cfi_offset 4, -12
 1675              		.cfi_offset 5, -8
 1676              		.cfi_offset 14, -4
 1677              	@ ../../peripheral_library/drv/drvAudio.c:594:   if( xSemaphoreTake( _tAudMutex, portMAX_DELAY ) ==
 1678              		.loc 1 594 7 view .LVU345
 1679 0002 174C     		ldr	r4, .L173	@ tmp131,
 1680 0004 4FF0FF31 		mov	r1, #-1	@,
 1681 0008 2068     		ldr	r0, [r4]	@, _tAudMutex
 1682 000a FFF7FEFF 		bl	xQueueSemaphoreTake		@
 1683              	.LVL132:
 1684              	@ ../../peripheral_library/drv/drvAudio.c:594:   if( xSemaphoreTake( _tAudMutex, portMAX_DELAY ) ==
 1685              		.loc 1 594 5 view .LVU346
 1686 000e 0128     		cmp	r0, #1	@,
 1687 0010 02D0     		beq	.L170		@,
 1688              	@ ../../peripheral_library/drv/drvAudio.c:593:   BOOL bRet = FALSE;
 593:../../peripheral_library/drv/drvAudio.c ****   BOOL bRet = FALSE;
 1689              		.loc 1 593 8 view .LVU347
 1690 0012 0025     		movs	r5, #0	@ <retval>,
 1691              	.LVL133:
 595:../../peripheral_library/drv/drvAudio.c **** 	{
 596:../../peripheral_library/drv/drvAudio.c ****     if(!MHAL_AUD_DMAIsRunning())
ARM GAS  /tmp/ccxvUIDa.s 			page 49


 597:../../peripheral_library/drv/drvAudio.c ****     {
 598:../../peripheral_library/drv/drvAudio.c ****       MHAL_AUD_DMAReset();
 599:../../peripheral_library/drv/drvAudio.c **** 
 600:../../peripheral_library/drv/drvAudio.c ****       taskENTER_CRITICAL();
 601:../../peripheral_library/drv/drvAudio.c ****       AUD_MSG("MDrv_AUD_Start: ms = %d\r\n", xTaskGetTickCount()*portTICK_PERIOD_MS);
 602:../../peripheral_library/drv/drvAudio.c ****       //AUD_MSG("MDrv_AUD_Start ms2 = %d\n", (timer_get_count()/TIMER_DELAY_1ms));
 603:../../peripheral_library/drv/drvAudio.c ****       MHAL_AUD_DMAStart();
 604:../../peripheral_library/drv/drvAudio.c ****       //MHal_RTC_GetTime(&_u32AudStartTime, &_u16AudStartSubTime);
 605:../../peripheral_library/drv/drvAudio.c ****       taskEXIT_CRITICAL();
 606:../../peripheral_library/drv/drvAudio.c ****       //MHAL_AUD_DMAEnableInt(TRUE, FALSE);
 607:../../peripheral_library/drv/drvAudio.c ****       bRet = TRUE;
 608:../../peripheral_library/drv/drvAudio.c ****     }
 609:../../peripheral_library/drv/drvAudio.c ****     _eAudState = E_AUD_STATE_START;
 610:../../peripheral_library/drv/drvAudio.c ****     xSemaphoreGive(_tAudMutex);
 611:../../peripheral_library/drv/drvAudio.c ****   }
 612:../../peripheral_library/drv/drvAudio.c ****   return bRet;
 1692              		.loc 1 612 3 is_stmt 1 view .LVU348
 1693              	@ ../../peripheral_library/drv/drvAudio.c:613: }
 613:../../peripheral_library/drv/drvAudio.c **** }
 1694              		.loc 1 613 1 is_stmt 0 view .LVU349
 1695 0014 2846     		mov	r0, r5	@, <retval>
 1696 0016 38BD     		pop	{r3, r4, r5, pc}	@
 1697              	.LVL134:
 1698              	.L170:
 596:../../peripheral_library/drv/drvAudio.c ****     {
 1699              		.loc 1 596 5 is_stmt 1 view .LVU350
 1700              	@ ../../peripheral_library/drv/drvAudio.c:596:     if(!MHAL_AUD_DMAIsRunning())
 596:../../peripheral_library/drv/drvAudio.c ****     {
 1701              		.loc 1 596 9 is_stmt 0 view .LVU351
 1702 0018 FFF7FEFF 		bl	MHAL_AUD_DMAIsRunning		@
 1703              	.LVL135:
 1704              	@ ../../peripheral_library/drv/drvAudio.c:596:     if(!MHAL_AUD_DMAIsRunning())
 596:../../peripheral_library/drv/drvAudio.c ****     {
 1705              		.loc 1 596 7 view .LVU352
 1706 001c 58B1     		cbz	r0, .L171	@,
 1707              	@ ../../peripheral_library/drv/drvAudio.c:593:   BOOL bRet = FALSE;
 593:../../peripheral_library/drv/drvAudio.c ****   if( xSemaphoreTake( _tAudMutex, portMAX_DELAY ) == pdPASS )
 1708              		.loc 1 593 8 view .LVU353
 1709 001e 0025     		movs	r5, #0	@ <retval>,
 1710              	.LVL136:
 1711              	.L162:
 609:../../peripheral_library/drv/drvAudio.c ****     xSemaphoreGive(_tAudMutex);
 1712              		.loc 1 609 5 is_stmt 1 view .LVU354
 1713              	@ ../../peripheral_library/drv/drvAudio.c:609:     _eAudState = E_AUD_STATE_START;
 609:../../peripheral_library/drv/drvAudio.c ****     xSemaphoreGive(_tAudMutex);
 1714              		.loc 1 609 16 is_stmt 0 view .LVU355
 1715 0020 1049     		ldr	r1, .L173+4	@ tmp125,
 1716              	@ ../../peripheral_library/drv/drvAudio.c:610:     xSemaphoreGive(_tAudMutex);
 610:../../peripheral_library/drv/drvAudio.c ****   }
 1717              		.loc 1 610 5 view .LVU356
 1718 0022 2068     		ldr	r0, [r4]	@, _tAudMutex
 1719 0024 0023     		movs	r3, #0	@,
 1720              	@ ../../peripheral_library/drv/drvAudio.c:609:     _eAudState = E_AUD_STATE_START;
 609:../../peripheral_library/drv/drvAudio.c ****     xSemaphoreGive(_tAudMutex);
 1721              		.loc 1 609 16 view .LVU357
 1722 0026 0224     		movs	r4, #2	@ tmp126,
 1723 0028 0C70     		strb	r4, [r1]	@ tmp126, _eAudState
ARM GAS  /tmp/ccxvUIDa.s 			page 50


 610:../../peripheral_library/drv/drvAudio.c ****   }
 1724              		.loc 1 610 5 is_stmt 1 view .LVU358
 1725 002a 1A46     		mov	r2, r3	@,
 1726 002c 1946     		mov	r1, r3	@,
 1727 002e FFF7FEFF 		bl	xQueueGenericSend		@
 1728              	.LVL137:
 612:../../peripheral_library/drv/drvAudio.c **** }
 1729              		.loc 1 612 3 view .LVU359
 1730              	@ ../../peripheral_library/drv/drvAudio.c:613: }
 1731              		.loc 1 613 1 is_stmt 0 view .LVU360
 1732 0032 2846     		mov	r0, r5	@, <retval>
 1733 0034 38BD     		pop	{r3, r4, r5, pc}	@
 1734              	.LVL138:
 1735              	.L171:
 598:../../peripheral_library/drv/drvAudio.c **** 
 1736              		.loc 1 598 7 is_stmt 1 view .LVU361
 1737 0036 FFF7FEFF 		bl	MHAL_AUD_DMAReset		@
 1738              	.LVL139:
 600:../../peripheral_library/drv/drvAudio.c ****       AUD_MSG("MDrv_AUD_Start: ms = %d\r\n", xTaskGetTickCount()*portTICK_PERIOD_MS);
 1739              		.loc 1 600 7 view .LVU362
 1740 003a FFF7FEFF 		bl	vPortEnterCritical		@
 1741              	.LVL140:
 601:../../peripheral_library/drv/drvAudio.c ****       //AUD_MSG("MDrv_AUD_Start ms2 = %d\n", (timer_get_count()/TIMER_DELAY_1ms));
 1742              		.loc 1 601 7 view .LVU363
 1743 003e 0A4B     		ldr	r3, .L173+8	@ tmp121,
 1744 0040 1B68     		ldr	r3, [r3]	@ gu32MosDbgLevel, gu32MosDbgLevel
 1745 0042 DB03     		lsls	r3, r3, #15	@, gu32MosDbgLevel,
 1746 0044 05D4     		bmi	.L172		@,
 1747              	.L163:
 601:../../peripheral_library/drv/drvAudio.c ****       //AUD_MSG("MDrv_AUD_Start ms2 = %d\n", (timer_get_count()/TIMER_DELAY_1ms));
 1748              		.loc 1 601 85 discriminator 3 view .LVU364
 603:../../peripheral_library/drv/drvAudio.c ****       //MHal_RTC_GetTime(&_u32AudStartTime, &_u16AudStartSubTime);
 1749              		.loc 1 603 7 discriminator 3 view .LVU365
 1750 0046 FFF7FEFF 		bl	MHAL_AUD_DMAStart		@
 1751              	.LVL141:
 605:../../peripheral_library/drv/drvAudio.c ****       //MHAL_AUD_DMAEnableInt(TRUE, FALSE);
 1752              		.loc 1 605 7 discriminator 3 view .LVU366
 1753              	@ ../../peripheral_library/drv/drvAudio.c:607:       bRet = TRUE;
 607:../../peripheral_library/drv/drvAudio.c ****     }
 1754              		.loc 1 607 12 is_stmt 0 discriminator 3 view .LVU367
 1755 004a 0125     		movs	r5, #1	@ <retval>,
 1756              	@ ../../peripheral_library/drv/drvAudio.c:605:       taskEXIT_CRITICAL();
 605:../../peripheral_library/drv/drvAudio.c ****       //MHAL_AUD_DMAEnableInt(TRUE, FALSE);
 1757              		.loc 1 605 7 discriminator 3 view .LVU368
 1758 004c FFF7FEFF 		bl	vPortExitCritical		@
 1759              	.LVL142:
 607:../../peripheral_library/drv/drvAudio.c ****     }
 1760              		.loc 1 607 7 is_stmt 1 discriminator 3 view .LVU369
 607:../../peripheral_library/drv/drvAudio.c ****     }
 1761              		.loc 1 607 7 is_stmt 0 discriminator 3 view .LVU370
 1762 0050 E6E7     		b	.L162		@
 1763              	.LVL143:
 1764              	.L172:
 601:../../peripheral_library/drv/drvAudio.c ****       //AUD_MSG("MDrv_AUD_Start ms2 = %d\n", (timer_get_count()/TIMER_DELAY_1ms));
 1765              		.loc 1 601 7 is_stmt 1 discriminator 1 view .LVU371
 1766 0052 FFF7FEFF 		bl	xTaskGetTickCount		@
 1767              	.LVL144:
ARM GAS  /tmp/ccxvUIDa.s 			page 51


 1768 0056 0146     		mov	r1, r0	@,
 1769 0058 0448     		ldr	r0, .L173+12	@,
 1770 005a FFF7FEFF 		bl	UartSendTrace		@
 1771              	.LVL145:
 1772 005e F2E7     		b	.L163		@
 1773              	.L174:
 1774              		.align	2
 1775              	.L173:
 1776 0060 00000000 		.word	.LANCHOR3
 1777 0064 00000000 		.word	.LANCHOR1
 1778 0068 00000000 		.word	gu32MosDbgLevel
 1779 006c 00000000 		.word	.LC8
 1780              		.cfi_endproc
 1781              	.LFE144:
 1782              		.size	MDrv_AUD_Start, .-MDrv_AUD_Start
 1783              		.section	.text.MDrv_AUD_Stop,"ax",%progbits
 1784              		.align	1
 1785              		.p2align 2,,3
 1786              		.global	MDrv_AUD_Stop
 1787              		.syntax unified
 1788              		.thumb
 1789              		.thumb_func
 1790              		.fpu fpv4-sp-d16
 1791              		.type	MDrv_AUD_Stop, %function
 1792              	MDrv_AUD_Stop:
 1793              	.LFB145:
 614:../../peripheral_library/drv/drvAudio.c **** 
 615:../../peripheral_library/drv/drvAudio.c **** void MDrv_AUD_Stop(void)
 616:../../peripheral_library/drv/drvAudio.c **** {
 1794              		.loc 1 616 1 view -0
 1795              		.cfi_startproc
 1796              		@ args = 0, pretend = 0, frame = 0
 1797              		@ frame_needed = 0, uses_anonymous_args = 0
 617:../../peripheral_library/drv/drvAudio.c ****   if( xSemaphoreTake( _tAudMutex, portMAX_DELAY ) == pdPASS )
 1798              		.loc 1 617 3 view .LVU373
 1799              	@ ../../peripheral_library/drv/drvAudio.c:616: {
 616:../../peripheral_library/drv/drvAudio.c ****   if( xSemaphoreTake( _tAudMutex, portMAX_DELAY ) == pdPASS )
 1800              		.loc 1 616 1 is_stmt 0 view .LVU374
 1801 0000 70B5     		push	{r4, r5, r6, lr}	@
 1802              		.cfi_def_cfa_offset 16
 1803              		.cfi_offset 4, -16
 1804              		.cfi_offset 5, -12
 1805              		.cfi_offset 6, -8
 1806              		.cfi_offset 14, -4
 1807              	@ ../../peripheral_library/drv/drvAudio.c:617:   if( xSemaphoreTake( _tAudMutex, portMAX_DELAY ) ==
 1808              		.loc 1 617 7 view .LVU375
 1809 0002 144C     		ldr	r4, .L188	@ tmp130,
 1810 0004 4FF0FF31 		mov	r1, #-1	@,
 1811 0008 2068     		ldr	r0, [r4]	@, _tAudMutex
 1812 000a FFF7FEFF 		bl	xQueueSemaphoreTake		@
 1813              	.LVL146:
 1814              	@ ../../peripheral_library/drv/drvAudio.c:617:   if( xSemaphoreTake( _tAudMutex, portMAX_DELAY ) ==
 1815              		.loc 1 617 5 view .LVU376
 1816 000e 0128     		cmp	r0, #1	@,
 1817 0010 00D0     		beq	.L186		@,
 1818              	@ ../../peripheral_library/drv/drvAudio.c:629: }
 618:../../peripheral_library/drv/drvAudio.c **** 	{
ARM GAS  /tmp/ccxvUIDa.s 			page 52


 619:../../peripheral_library/drv/drvAudio.c ****     if(MHAL_AUD_DMAIsRunning())
 620:../../peripheral_library/drv/drvAudio.c ****     {
 621:../../peripheral_library/drv/drvAudio.c ****       AUD_MSG("MDrv_AUD_Stop\r\n");
 622:../../peripheral_library/drv/drvAudio.c ****       MHAL_AUD_DMAEnableInt(FALSE, FALSE);
 623:../../peripheral_library/drv/drvAudio.c ****       MHAL_AUD_DMAStop();
 624:../../peripheral_library/drv/drvAudio.c ****     }
 625:../../peripheral_library/drv/drvAudio.c ****     _u32AudDeltaTime = 0;
 626:../../peripheral_library/drv/drvAudio.c ****     _eAudState = E_AUD_STATE_STOP;
 627:../../peripheral_library/drv/drvAudio.c ****     xSemaphoreGive(_tAudMutex);
 628:../../peripheral_library/drv/drvAudio.c ****   }
 629:../../peripheral_library/drv/drvAudio.c **** }
 1819              		.loc 1 629 1 view .LVU377
 1820 0012 70BD     		pop	{r4, r5, r6, pc}	@
 1821              	.L186:
 619:../../peripheral_library/drv/drvAudio.c ****     {
 1822              		.loc 1 619 5 is_stmt 1 view .LVU378
 1823              	@ ../../peripheral_library/drv/drvAudio.c:619:     if(MHAL_AUD_DMAIsRunning())
 619:../../peripheral_library/drv/drvAudio.c ****     {
 1824              		.loc 1 619 8 is_stmt 0 view .LVU379
 1825 0014 FFF7FEFF 		bl	MHAL_AUD_DMAIsRunning		@
 1826              	.LVL147:
 1827              	@ ../../peripheral_library/drv/drvAudio.c:619:     if(MHAL_AUD_DMAIsRunning())
 619:../../peripheral_library/drv/drvAudio.c ****     {
 1828              		.loc 1 619 7 view .LVU380
 1829 0018 48B1     		cbz	r0, .L177	@,
 621:../../peripheral_library/drv/drvAudio.c ****       MHAL_AUD_DMAEnableInt(FALSE, FALSE);
 1830              		.loc 1 621 7 is_stmt 1 view .LVU381
 1831 001a 0F4B     		ldr	r3, .L188+4	@ tmp119,
 1832 001c 1B68     		ldr	r3, [r3]	@ gu32MosDbgLevel, gu32MosDbgLevel
 1833 001e DB03     		lsls	r3, r3, #15	@, gu32MosDbgLevel,
 1834 0020 13D4     		bmi	.L187		@,
 1835              	.L178:
 621:../../peripheral_library/drv/drvAudio.c ****       MHAL_AUD_DMAEnableInt(FALSE, FALSE);
 1836              		.loc 1 621 35 discriminator 3 view .LVU382
 622:../../peripheral_library/drv/drvAudio.c ****       MHAL_AUD_DMAStop();
 1837              		.loc 1 622 7 discriminator 3 view .LVU383
 1838 0022 0021     		movs	r1, #0	@,
 1839 0024 0846     		mov	r0, r1	@,
 1840 0026 FFF7FEFF 		bl	MHAL_AUD_DMAEnableInt		@
 1841              	.LVL148:
 623:../../peripheral_library/drv/drvAudio.c ****     }
 1842              		.loc 1 623 7 discriminator 3 view .LVU384
 1843 002a FFF7FEFF 		bl	MHAL_AUD_DMAStop		@
 1844              	.LVL149:
 1845              	.L177:
 625:../../peripheral_library/drv/drvAudio.c ****     _eAudState = E_AUD_STATE_STOP;
 1846              		.loc 1 625 5 view .LVU385
 1847              	@ ../../peripheral_library/drv/drvAudio.c:625:     _u32AudDeltaTime = 0;
 625:../../peripheral_library/drv/drvAudio.c ****     _eAudState = E_AUD_STATE_STOP;
 1848              		.loc 1 625 22 is_stmt 0 view .LVU386
 1849 002e 0B4E     		ldr	r6, .L188+8	@ tmp123,
 1850              	@ ../../peripheral_library/drv/drvAudio.c:626:     _eAudState = E_AUD_STATE_STOP;
 626:../../peripheral_library/drv/drvAudio.c ****     xSemaphoreGive(_tAudMutex);
 1851              		.loc 1 626 16 view .LVU387
 1852 0030 0B4D     		ldr	r5, .L188+12	@ tmp125,
 1853              	@ ../../peripheral_library/drv/drvAudio.c:627:     xSemaphoreGive(_tAudMutex);
 627:../../peripheral_library/drv/drvAudio.c ****   }
ARM GAS  /tmp/ccxvUIDa.s 			page 53


 1854              		.loc 1 627 5 view .LVU388
 1855 0032 2068     		ldr	r0, [r4]	@, _tAudMutex
 1856              	@ ../../peripheral_library/drv/drvAudio.c:625:     _u32AudDeltaTime = 0;
 625:../../peripheral_library/drv/drvAudio.c ****     _eAudState = E_AUD_STATE_STOP;
 1857              		.loc 1 625 22 view .LVU389
 1858 0034 0024     		movs	r4, #0	@ tmp124,
 1859 0036 3460     		str	r4, [r6]	@ tmp124, _u32AudDeltaTime
 626:../../peripheral_library/drv/drvAudio.c ****     xSemaphoreGive(_tAudMutex);
 1860              		.loc 1 626 5 is_stmt 1 view .LVU390
 1861              	@ ../../peripheral_library/drv/drvAudio.c:627:     xSemaphoreGive(_tAudMutex);
 627:../../peripheral_library/drv/drvAudio.c ****   }
 1862              		.loc 1 627 5 is_stmt 0 view .LVU391
 1863 0038 2346     		mov	r3, r4	@, tmp124
 1864 003a 2246     		mov	r2, r4	@, tmp3
 1865 003c 2146     		mov	r1, r4	@, tmp3
 1866              	@ ../../peripheral_library/drv/drvAudio.c:626:     _eAudState = E_AUD_STATE_STOP;
 626:../../peripheral_library/drv/drvAudio.c ****     xSemaphoreGive(_tAudMutex);
 1867              		.loc 1 626 16 view .LVU392
 1868 003e 0324     		movs	r4, #3	@ tmp126,
 1869 0040 2C70     		strb	r4, [r5]	@ tmp126, _eAudState
 627:../../peripheral_library/drv/drvAudio.c ****   }
 1870              		.loc 1 627 5 is_stmt 1 view .LVU393
 1871              	@ ../../peripheral_library/drv/drvAudio.c:629: }
 1872              		.loc 1 629 1 is_stmt 0 view .LVU394
 1873 0042 BDE87040 		pop	{r4, r5, r6, lr}	@
 1874              		.cfi_remember_state
 1875              		.cfi_restore 14
 1876              		.cfi_restore 6
 1877              		.cfi_restore 5
 1878              		.cfi_restore 4
 1879              		.cfi_def_cfa_offset 0
 1880              	@ ../../peripheral_library/drv/drvAudio.c:627:     xSemaphoreGive(_tAudMutex);
 627:../../peripheral_library/drv/drvAudio.c ****   }
 1881              		.loc 1 627 5 view .LVU395
 1882 0046 FFF7FEBF 		b	xQueueGenericSend		@
 1883              	.LVL150:
 1884              	.L187:
 1885              		.cfi_restore_state
 621:../../peripheral_library/drv/drvAudio.c ****       MHAL_AUD_DMAEnableInt(FALSE, FALSE);
 1886              		.loc 1 621 7 is_stmt 1 discriminator 1 view .LVU396
 1887 004a 0648     		ldr	r0, .L188+16	@,
 1888 004c FFF7FEFF 		bl	UartSendTrace		@
 1889              	.LVL151:
 1890 0050 E7E7     		b	.L178		@
 1891              	.L189:
 1892 0052 00BF     		.align	2
 1893              	.L188:
 1894 0054 00000000 		.word	.LANCHOR3
 1895 0058 00000000 		.word	gu32MosDbgLevel
 1896 005c 00000000 		.word	.LANCHOR0
 1897 0060 00000000 		.word	.LANCHOR1
 1898 0064 00000000 		.word	.LC9
 1899              		.cfi_endproc
 1900              	.LFE145:
 1901              		.size	MDrv_AUD_Stop, .-MDrv_AUD_Stop
 1902              		.section	.text.MDrv_AUD_IsXrun,"ax",%progbits
 1903              		.align	1
ARM GAS  /tmp/ccxvUIDa.s 			page 54


 1904              		.p2align 2,,3
 1905              		.global	MDrv_AUD_IsXrun
 1906              		.syntax unified
 1907              		.thumb
 1908              		.thumb_func
 1909              		.fpu fpv4-sp-d16
 1910              		.type	MDrv_AUD_IsXrun, %function
 1911              	MDrv_AUD_IsXrun:
 1912              	.LFB146:
 630:../../peripheral_library/drv/drvAudio.c **** 
 631:../../peripheral_library/drv/drvAudio.c **** BOOL MDrv_AUD_IsXrun(void)
 632:../../peripheral_library/drv/drvAudio.c **** {
 1913              		.loc 1 632 1 view -0
 1914              		.cfi_startproc
 1915              		@ args = 0, pretend = 0, frame = 0
 1916              		@ frame_needed = 0, uses_anonymous_args = 0
 1917              		@ link register save eliminated.
 633:../../peripheral_library/drv/drvAudio.c ****     return (_eAudState==E_AUD_STATE_XRUN?TRUE:FALSE);
 1918              		.loc 1 633 5 view .LVU398
 1919              	@ ../../peripheral_library/drv/drvAudio.c:633:     return (_eAudState==E_AUD_STATE_XRUN?TRUE:FALSE)
 1920              		.loc 1 633 46 is_stmt 0 view .LVU399
 1921 0000 034B     		ldr	r3, .L191	@ tmp114,
 1922 0002 1878     		ldrb	r0, [r3]	@ zero_extendqisi2	@ _eAudState, _eAudState
 1923              	@ ../../peripheral_library/drv/drvAudio.c:634: }
 634:../../peripheral_library/drv/drvAudio.c **** }
 1924              		.loc 1 634 1 view .LVU400
 1925 0004 A0F10400 		sub	r0, #4	@,
 1926 0008 B0FA80F0 		clz	r0, r0	@,
 1927 000c 4009     		lsrs	r0, r0, #5	@,,
 1928 000e 7047     		bx	lr	@
 1929              	.L192:
 1930              		.align	2
 1931              	.L191:
 1932 0010 00000000 		.word	.LANCHOR1
 1933              		.cfi_endproc
 1934              	.LFE146:
 1935              		.size	MDrv_AUD_IsXrun, .-MDrv_AUD_IsXrun
 1936              		.section	.text.MDrv_AUD_ReadPCM,"ax",%progbits
 1937              		.align	1
 1938              		.p2align 2,,3
 1939              		.global	MDrv_AUD_ReadPCM
 1940              		.syntax unified
 1941              		.thumb
 1942              		.thumb_func
 1943              		.fpu fpv4-sp-d16
 1944              		.type	MDrv_AUD_ReadPCM, %function
 1945              	MDrv_AUD_ReadPCM:
 1946              	.LVL152:
 1947              	.LFB147:
 635:../../peripheral_library/drv/drvAudio.c **** 
 636:../../peripheral_library/drv/drvAudio.c **** BOOL MDrv_AUD_ReadPCM(S16 *psSampleBuffer, U32 u32SampleCount, U32 *pu32ReturnCount, BOOL bBlock )
 637:../../peripheral_library/drv/drvAudio.c **** {
 1948              		.loc 1 637 1 is_stmt 1 view -0
 1949              		.cfi_startproc
 1950              		@ args = 0, pretend = 0, frame = 16
 1951              		@ frame_needed = 0, uses_anonymous_args = 0
 638:../../peripheral_library/drv/drvAudio.c ****   //UBaseType_t ret;
ARM GAS  /tmp/ccxvUIDa.s 			page 55


 639:../../peripheral_library/drv/drvAudio.c ****   U32 nReadSize;
 1952              		.loc 1 639 3 view .LVU402
 640:../../peripheral_library/drv/drvAudio.c **** 
 641:../../peripheral_library/drv/drvAudio.c ****   U32 u32ReturnSize = 0;
 1953              		.loc 1 641 3 view .LVU403
 642:../../peripheral_library/drv/drvAudio.c ****   U32 u32UnderrunSize = AUDIO_UNDERRUN_SIZE;
 1954              		.loc 1 642 3 view .LVU404
 643:../../peripheral_library/drv/drvAudio.c **** 
 644:../../peripheral_library/drv/drvAudio.c ****   U32 u32BufferSize = u32SampleCount * 2; //2 bytes per pcm sample
 1955              		.loc 1 644 3 view .LVU405
 645:../../peripheral_library/drv/drvAudio.c ****   U8 *pcBuffer = (U8 *)psSampleBuffer;
 1956              		.loc 1 645 3 view .LVU406
 646:../../peripheral_library/drv/drvAudio.c **** 
 647:../../peripheral_library/drv/drvAudio.c ****   *pu32ReturnCount = 0;
 1957              		.loc 1 647 3 view .LVU407
 1958              	@ ../../peripheral_library/drv/drvAudio.c:637: {
 637:../../peripheral_library/drv/drvAudio.c ****   //UBaseType_t ret;
 1959              		.loc 1 637 1 is_stmt 0 view .LVU408
 1960 0000 2DE9F04F 		push	{r4, r5, r6, r7, r8, r9, r10, fp, lr}	@
 1961              		.cfi_def_cfa_offset 36
 1962              		.cfi_offset 4, -36
 1963              		.cfi_offset 5, -32
 1964              		.cfi_offset 6, -28
 1965              		.cfi_offset 7, -24
 1966              		.cfi_offset 8, -20
 1967              		.cfi_offset 9, -16
 1968              		.cfi_offset 10, -12
 1969              		.cfi_offset 11, -8
 1970              		.cfi_offset 14, -4
 1971 0004 85B0     		sub	sp, sp, #20	@,,
 1972              		.cfi_def_cfa_offset 56
 1973              	@ ../../peripheral_library/drv/drvAudio.c:647:   *pu32ReturnCount = 0;
 1974              		.loc 1 647 20 view .LVU409
 1975 0006 0026     		movs	r6, #0	@ tmp146,
 1976              	@ ../../peripheral_library/drv/drvAudio.c:649:   if (0 == u32BufferSize)
 648:../../peripheral_library/drv/drvAudio.c **** 
 649:../../peripheral_library/drv/drvAudio.c ****   if (0 == u32BufferSize)
 1977              		.loc 1 649 6 view .LVU410
 1978 0008 4F00     		lsls	r7, r1, #1	@ u32BufferSize, u32SampleCount,
 1979              	.LVL153:
 1980              	@ ../../peripheral_library/drv/drvAudio.c:637: {
 637:../../peripheral_library/drv/drvAudio.c ****   //UBaseType_t ret;
 1981              		.loc 1 637 1 view .LVU411
 1982 000a 0192     		str	r2, [sp, #4]	@ pu32ReturnCount, %sfp
 1983 000c 9946     		mov	r9, r3	@ bBlock, bBlock
 1984              	@ ../../peripheral_library/drv/drvAudio.c:647:   *pu32ReturnCount = 0;
 647:../../peripheral_library/drv/drvAudio.c **** 
 1985              		.loc 1 647 20 view .LVU412
 1986 000e 1660     		str	r6, [r2]	@ tmp146, *pu32ReturnCount_48(D)
 1987              		.loc 1 649 3 is_stmt 1 view .LVU413
 1988              	@ ../../peripheral_library/drv/drvAudio.c:649:   if (0 == u32BufferSize)
 1989              		.loc 1 649 6 is_stmt 0 view .LVU414
 1990 0010 6BD0     		beq	.L227		@,
 1991              	@ ../../peripheral_library/drv/drvAudio.c:652:   if (u32BufferSize < AUDIO_UNDERRUN_SIZE)
 650:../../peripheral_library/drv/drvAudio.c ****     return FALSE;
 651:../../peripheral_library/drv/drvAudio.c **** 
 652:../../peripheral_library/drv/drvAudio.c ****   if (u32BufferSize < AUDIO_UNDERRUN_SIZE)
ARM GAS  /tmp/ccxvUIDa.s 			page 56


 1992              		.loc 1 652 6 view .LVU415
 1993 0012 B7F5F06F 		cmp	r7, #1920	@ u32BufferSize,
 1994 0016 434C     		ldr	r4, .L231	@ tmp190,
 1995 0018 8046     		mov	r8, r0	@ psSampleBuffer, psSampleBuffer
 1996              		.loc 1 652 3 is_stmt 1 view .LVU416
 1997              	@ ../../peripheral_library/drv/drvAudio.c:652:   if (u32BufferSize < AUDIO_UNDERRUN_SIZE)
 1998              		.loc 1 652 6 is_stmt 0 view .LVU417
 1999 001a 34BF     		ite	cc
 2000 001c BB46     		movcc	fp, r7	@ u32UnderrunSize, u32BufferSize
 2001 001e 4FF4F06B 		movcs	fp, #1920	@ u32UnderrunSize,
 2002              	.LVL154:
 2003              	.L198:
 653:../../peripheral_library/drv/drvAudio.c ****     u32UnderrunSize = u32BufferSize;
 654:../../peripheral_library/drv/drvAudio.c **** 
 655:../../peripheral_library/drv/drvAudio.c ****   do {
 2004              		.loc 1 655 3 is_stmt 1 view .LVU418
 656:../../peripheral_library/drv/drvAudio.c ****       if( xSemaphoreTake(_tAudMutex, portMAX_DELAY ) == pdPASS )
 2005              		.loc 1 656 7 view .LVU419
 2006              	@ ../../peripheral_library/drv/drvAudio.c:656:       if( xSemaphoreTake(_tAudMutex, portMAX_DELAY )
 2007              		.loc 1 656 11 is_stmt 0 view .LVU420
 2008 0022 4FF0FF31 		mov	r1, #-1	@,
 2009 0026 2068     		ldr	r0, [r4]	@, _tAudMutex
 2010 0028 FFF7FEFF 		bl	xQueueSemaphoreTake		@
 2011              	.LVL155:
 2012              	@ ../../peripheral_library/drv/drvAudio.c:656:       if( xSemaphoreTake(_tAudMutex, portMAX_DELAY )
 2013              		.loc 1 656 9 view .LVU421
 2014 002c 0128     		cmp	r0, #1	@ _2,
 2015              	@ ../../peripheral_library/drv/drvAudio.c:656:       if( xSemaphoreTake(_tAudMutex, portMAX_DELAY )
 2016              		.loc 1 656 11 view .LVU422
 2017 002e 8246     		mov	r10, r0	@ _2,
 2018              	@ ../../peripheral_library/drv/drvAudio.c:656:       if( xSemaphoreTake(_tAudMutex, portMAX_DELAY )
 2019              		.loc 1 656 9 view .LVU423
 2020 0030 F7D1     		bne	.L198		@,
 657:../../peripheral_library/drv/drvAudio.c ****     	{
 658:../../peripheral_library/drv/drvAudio.c ****         if (!MHAL_AUD_DMAIsRunning())
 2021              		.loc 1 658 9 is_stmt 1 view .LVU424
 2022              	@ ../../peripheral_library/drv/drvAudio.c:658:         if (!MHAL_AUD_DMAIsRunning())
 2023              		.loc 1 658 14 is_stmt 0 view .LVU425
 2024 0032 FFF7FEFF 		bl	MHAL_AUD_DMAIsRunning		@
 2025              	.LVL156:
 659:../../peripheral_library/drv/drvAudio.c ****         {
 660:../../peripheral_library/drv/drvAudio.c ****           if (uxSemaphoreGetCount(_tAudIntSem))
 661:../../peripheral_library/drv/drvAudio.c ****             xSemaphoreTake(_tAudIntSem, 0);
 662:../../peripheral_library/drv/drvAudio.c ****           xSemaphoreGive(_tAudMutex);
 663:../../peripheral_library/drv/drvAudio.c ****           AUD_ERROR("MDrv_AUD_ReadPCM: audio is not active\n");
 664:../../peripheral_library/drv/drvAudio.c ****           return FALSE;
 665:../../peripheral_library/drv/drvAudio.c ****         }
 666:../../peripheral_library/drv/drvAudio.c ****         else if (MHAL_AUD_DMAGetBufLevel() > u32UnderrunSize || !bBlock)
 2026              		.loc 1 666 14 is_stmt 1 view .LVU426
 2027              	@ ../../peripheral_library/drv/drvAudio.c:658:         if (!MHAL_AUD_DMAIsRunning())
 658:../../peripheral_library/drv/drvAudio.c ****         {
 2028              		.loc 1 658 12 is_stmt 0 view .LVU427
 2029 0036 0546     		mov	r5, r0	@ <retval>,
 2030 0038 0028     		cmp	r0, #0	@ <retval>
 2031 003a 5BD0     		beq	.L228	@
 2032              	@ ../../peripheral_library/drv/drvAudio.c:666:         else if (MHAL_AUD_DMAGetBufLevel() > u32Unde
 2033              		.loc 1 666 18 view .LVU428
ARM GAS  /tmp/ccxvUIDa.s 			page 57


 2034 003c FFF7FEFF 		bl	MHAL_AUD_DMAGetBufLevel		@
 2035              	.LVL157:
 2036              	@ ../../peripheral_library/drv/drvAudio.c:666:         else if (MHAL_AUD_DMAGetBufLevel() > u32Unde
 2037              		.loc 1 666 17 view .LVU429
 2038 0040 5845     		cmp	r0, fp	@, u32UnderrunSize
 2039 0042 22D8     		bhi	.L202		@,
 2040              	@ ../../peripheral_library/drv/drvAudio.c:666:         else if (MHAL_AUD_DMAGetBufLevel() > u32Unde
 2041              		.loc 1 666 62 discriminator 1 view .LVU430
 2042 0044 B9F1000F 		cmp	r9, #0	@ bBlock
 2043 0048 34D1     		bne	.L229	@
 667:../../peripheral_library/drv/drvAudio.c ****         {
 668:../../peripheral_library/drv/drvAudio.c ****           MHAL_AUD_DMAReadData((U8 *)pcBuffer, u32BufferSize, &nReadSize);
 2044              		.loc 1 668 11 is_stmt 1 view .LVU431
 2045 004a 3946     		mov	r1, r7	@, u32BufferSize
 2046 004c 4046     		mov	r0, r8	@, psSampleBuffer
 2047 004e 03AA     		add	r2, sp, #12	@,,
 2048 0050 FFF7FEFF 		bl	MHAL_AUD_DMAReadData		@
 2049              	.LVL158:
 669:../../peripheral_library/drv/drvAudio.c ****           pcBuffer += nReadSize;
 2050              		.loc 1 669 11 view .LVU432
 670:../../peripheral_library/drv/drvAudio.c ****           u32BufferSize -= nReadSize;
 2051              		.loc 1 670 11 view .LVU433
 671:../../peripheral_library/drv/drvAudio.c ****           u32ReturnSize +=  nReadSize;
 2052              		.loc 1 671 11 view .LVU434
 2053              	@ ../../peripheral_library/drv/drvAudio.c:671:           u32ReturnSize +=  nReadSize;
 2054              		.loc 1 671 25 is_stmt 0 view .LVU435
 2055 0054 039D     		ldr	r5, [sp, #12]	@ nReadSize, nReadSize
 2056              	@ ../../peripheral_library/drv/drvAudio.c:672:           xSemaphoreGive(_tAudMutex);
 672:../../peripheral_library/drv/drvAudio.c ****           xSemaphoreGive(_tAudMutex);
 2057              		.loc 1 672 11 view .LVU436
 2058 0056 2068     		ldr	r0, [r4]	@, _tAudMutex
 2059 0058 4B46     		mov	r3, r9	@, bBlock
 2060 005a 4A46     		mov	r2, r9	@, tmp3
 2061 005c 4946     		mov	r1, r9	@, tmp3
 2062              	@ ../../peripheral_library/drv/drvAudio.c:671:           u32ReturnSize +=  nReadSize;
 671:../../peripheral_library/drv/drvAudio.c ****           u32ReturnSize +=  nReadSize;
 2063              		.loc 1 671 25 view .LVU437
 2064 005e 2E44     		add	r6, r6, r5	@ u32ReturnSize, nReadSize
 2065              	.LVL159:
 2066              		.loc 1 672 11 is_stmt 1 view .LVU438
 2067 0060 FFF7FEFF 		bl	xQueueGenericSend		@
 2068              	.LVL160:
 673:../../peripheral_library/drv/drvAudio.c **** 
 674:../../peripheral_library/drv/drvAudio.c ****           if ((bBlock && (0 == u32BufferSize)) || !bBlock)
 2069              		.loc 1 674 11 view .LVU439
 2070              	.L205:
 675:../../peripheral_library/drv/drvAudio.c ****           {
 676:../../peripheral_library/drv/drvAudio.c ****             *pu32ReturnCount = u32ReturnSize / 2; //2 bytes per pcm sample
 2071              		.loc 1 676 13 view .LVU440
 2072              	@ ../../peripheral_library/drv/drvAudio.c:677:             _u32AudDeltaTime += (*pu32ReturnCount/16
 677:../../peripheral_library/drv/drvAudio.c ****             _u32AudDeltaTime += (*pu32ReturnCount/16)/((_eAudMicNo+1)*2); //FIX me
 2073              		.loc 1 677 67 is_stmt 0 view .LVU441
 2074 0064 304B     		ldr	r3, .L231+4	@ tmp166,
 2075              	@ ../../peripheral_library/drv/drvAudio.c:677:             _u32AudDeltaTime += (*pu32ReturnCount/16
 2076              		.loc 1 677 30 view .LVU442
 2077 0066 3148     		ldr	r0, .L231+8	@ tmp164,
 2078              	@ ../../peripheral_library/drv/drvAudio.c:677:             _u32AudDeltaTime += (*pu32ReturnCount/16
ARM GAS  /tmp/ccxvUIDa.s 			page 58


 2079              		.loc 1 677 67 view .LVU443
 2080 0068 1B78     		ldrb	r3, [r3]	@ zero_extendqisi2	@ _eAudMicNo, _eAudMicNo
 2081              	@ ../../peripheral_library/drv/drvAudio.c:677:             _u32AudDeltaTime += (*pu32ReturnCount/16
 2082              		.loc 1 677 30 view .LVU444
 2083 006a 0168     		ldr	r1, [r0]	@ _u32AudDeltaTime, _u32AudDeltaTime
 2084              	@ ../../peripheral_library/drv/drvAudio.c:677:             _u32AudDeltaTime += (*pu32ReturnCount/16
 2085              		.loc 1 677 67 view .LVU445
 2086 006c 0133     		adds	r3, r3, #1	@ tmp168, _eAudMicNo,
 2087              	@ ../../peripheral_library/drv/drvAudio.c:677:             _u32AudDeltaTime += (*pu32ReturnCount/16
 2088              		.loc 1 677 70 view .LVU446
 2089 006e 5A00     		lsls	r2, r3, #1	@ tmp169, tmp168,
 2090              	@ ../../peripheral_library/drv/drvAudio.c:677:             _u32AudDeltaTime += (*pu32ReturnCount/16
 2091              		.loc 1 677 50 view .LVU447
 2092 0070 7309     		lsrs	r3, r6, #5	@ tmp165, u32ReturnSize,
 2093              	@ ../../peripheral_library/drv/drvAudio.c:677:             _u32AudDeltaTime += (*pu32ReturnCount/16
 2094              		.loc 1 677 54 view .LVU448
 2095 0072 B3FBF2F3 		udiv	r3, r3, r2	@ tmp171, tmp165, tmp169
 2096              	@ ../../peripheral_library/drv/drvAudio.c:676:             *pu32ReturnCount = u32ReturnSize / 2; //
 676:../../peripheral_library/drv/drvAudio.c ****             _u32AudDeltaTime += (*pu32ReturnCount/16)/((_eAudMicNo+1)*2); //FIX me
 2097              		.loc 1 676 30 view .LVU449
 2098 0076 019A     		ldr	r2, [sp, #4]	@ pu32ReturnCount, %sfp
 2099              	@ ../../peripheral_library/drv/drvAudio.c:676:             *pu32ReturnCount = u32ReturnSize / 2; //
 676:../../peripheral_library/drv/drvAudio.c ****             _u32AudDeltaTime += (*pu32ReturnCount/16)/((_eAudMicNo+1)*2); //FIX me
 2100              		.loc 1 676 46 view .LVU450
 2101 0078 7608     		lsrs	r6, r6, #1	@ tmp163, u32ReturnSize,
 2102              	.LVL161:
 2103              	@ ../../peripheral_library/drv/drvAudio.c:677:             _u32AudDeltaTime += (*pu32ReturnCount/16
 2104              		.loc 1 677 30 view .LVU451
 2105 007a 0B44     		add	r3, r3, r1	@ tmp175, _u32AudDeltaTime
 2106              	@ ../../peripheral_library/drv/drvAudio.c:676:             *pu32ReturnCount = u32ReturnSize / 2; //
 676:../../peripheral_library/drv/drvAudio.c ****             _u32AudDeltaTime += (*pu32ReturnCount/16)/((_eAudMicNo+1)*2); //FIX me
 2107              		.loc 1 676 30 view .LVU452
 2108 007c 1660     		str	r6, [r2]	@ tmp163, *pu32ReturnCount_48(D)
 2109              		.loc 1 677 13 is_stmt 1 view .LVU453
 2110              	@ ../../peripheral_library/drv/drvAudio.c:677:             _u32AudDeltaTime += (*pu32ReturnCount/16
 2111              		.loc 1 677 30 is_stmt 0 view .LVU454
 2112 007e 0360     		str	r3, [r0]	@ tmp175, _u32AudDeltaTime
 678:../../peripheral_library/drv/drvAudio.c ****             return TRUE;
 2113              		.loc 1 678 13 is_stmt 1 view .LVU455
 2114              	@ ../../peripheral_library/drv/drvAudio.c:678:             return TRUE;
 2115              		.loc 1 678 20 is_stmt 0 view .LVU456
 2116 0080 0125     		movs	r5, #1	@ <retval>,
 2117              	.L224:
 2118              	@ ../../peripheral_library/drv/drvAudio.c:699: }
 679:../../peripheral_library/drv/drvAudio.c ****           }
 680:../../peripheral_library/drv/drvAudio.c ****         }
 681:../../peripheral_library/drv/drvAudio.c ****         else
 682:../../peripheral_library/drv/drvAudio.c ****         {
 683:../../peripheral_library/drv/drvAudio.c ****           MHAL_AUD_DMAClearInt();
 684:../../peripheral_library/drv/drvAudio.c ****           MHAL_AUD_DMAEnableInt(TRUE, TRUE);
 685:../../peripheral_library/drv/drvAudio.c ****           xSemaphoreGive(_tAudMutex);
 686:../../peripheral_library/drv/drvAudio.c **** 
 687:../../peripheral_library/drv/drvAudio.c ****           //AUD_MSG("MDrv_AUD_ReadPCM: uxSemaphoreGetCount = %d\n", uxSemaphoreGetCount(_tAudIntSem
 688:../../peripheral_library/drv/drvAudio.c ****           if (xSemaphoreTake(_tAudIntSem, AUDIO_WAIT_OVERRUN_TIME) == pdTRUE)
 689:../../peripheral_library/drv/drvAudio.c ****             continue;
 690:../../peripheral_library/drv/drvAudio.c ****           else
 691:../../peripheral_library/drv/drvAudio.c ****           {
ARM GAS  /tmp/ccxvUIDa.s 			page 59


 692:../../peripheral_library/drv/drvAudio.c ****             AUD_ERROR("MDrv_AUD_ReadPCM: AUDIO_WAIT_OVERRUN_TIME failed\r\n");
 693:../../peripheral_library/drv/drvAudio.c ****             return FALSE;
 694:../../peripheral_library/drv/drvAudio.c ****           }
 695:../../peripheral_library/drv/drvAudio.c ****         }
 696:../../peripheral_library/drv/drvAudio.c ****       }
 697:../../peripheral_library/drv/drvAudio.c **** 
 698:../../peripheral_library/drv/drvAudio.c ****    } while(1);
 699:../../peripheral_library/drv/drvAudio.c **** }
 2119              		.loc 1 699 1 view .LVU457
 2120 0082 2846     		mov	r0, r5	@, <retval>
 2121 0084 05B0     		add	sp, sp, #20	@,,
 2122              		.cfi_remember_state
 2123              		.cfi_def_cfa_offset 36
 2124              		@ sp needed	@
 2125 0086 BDE8F08F 		pop	{r4, r5, r6, r7, r8, r9, r10, fp, pc}	@
 2126              	.LVL162:
 2127              	.L202:
 2128              		.cfi_restore_state
 668:../../peripheral_library/drv/drvAudio.c ****           pcBuffer += nReadSize;
 2129              		.loc 1 668 11 is_stmt 1 view .LVU458
 2130 008a 3946     		mov	r1, r7	@, u32BufferSize
 2131 008c 4046     		mov	r0, r8	@, psSampleBuffer
 2132 008e 03AA     		add	r2, sp, #12	@ tmp196,,
 2133 0090 FFF7FEFF 		bl	MHAL_AUD_DMAReadData		@
 2134              	.LVL163:
 669:../../peripheral_library/drv/drvAudio.c ****           u32BufferSize -= nReadSize;
 2135              		.loc 1 669 11 view .LVU459
 2136              	@ ../../peripheral_library/drv/drvAudio.c:669:           pcBuffer += nReadSize;
 669:../../peripheral_library/drv/drvAudio.c ****           u32BufferSize -= nReadSize;
 2137              		.loc 1 669 20 is_stmt 0 view .LVU460
 2138 0094 039D     		ldr	r5, [sp, #12]	@ nReadSize.52_11, nReadSize
 2139              	.LVL164:
 2140              	@ ../../peripheral_library/drv/drvAudio.c:672:           xSemaphoreGive(_tAudMutex);
 672:../../peripheral_library/drv/drvAudio.c **** 
 2141              		.loc 1 672 11 view .LVU461
 2142 0096 2068     		ldr	r0, [r4]	@, _tAudMutex
 2143 0098 0023     		movs	r3, #0	@,
 2144 009a 1A46     		mov	r2, r3	@,
 2145 009c 1946     		mov	r1, r3	@,
 2146              	@ ../../peripheral_library/drv/drvAudio.c:669:           pcBuffer += nReadSize;
 669:../../peripheral_library/drv/drvAudio.c ****           u32BufferSize -= nReadSize;
 2147              		.loc 1 669 20 view .LVU462
 2148 009e A844     		add	r8, r8, r5	@ psSampleBuffer, nReadSize.52_11
 2149              	.LVL165:
 670:../../peripheral_library/drv/drvAudio.c ****           u32ReturnSize +=  nReadSize;
 2150              		.loc 1 670 11 is_stmt 1 view .LVU463
 2151              	@ ../../peripheral_library/drv/drvAudio.c:670:           u32BufferSize -= nReadSize;
 670:../../peripheral_library/drv/drvAudio.c ****           u32ReturnSize +=  nReadSize;
 2152              		.loc 1 670 25 is_stmt 0 view .LVU464
 2153 00a0 7F1B     		subs	r7, r7, r5	@ u32BufferSize, u32BufferSize, nReadSize.52_11
 2154              	.LVL166:
 671:../../peripheral_library/drv/drvAudio.c ****           xSemaphoreGive(_tAudMutex);
 2155              		.loc 1 671 11 is_stmt 1 view .LVU465
 2156              	@ ../../peripheral_library/drv/drvAudio.c:671:           u32ReturnSize +=  nReadSize;
 671:../../peripheral_library/drv/drvAudio.c ****           xSemaphoreGive(_tAudMutex);
 2157              		.loc 1 671 25 is_stmt 0 view .LVU466
 2158 00a2 2E44     		add	r6, r6, r5	@ u32ReturnSize, nReadSize.52_11
ARM GAS  /tmp/ccxvUIDa.s 			page 60


 2159              	.LVL167:
 672:../../peripheral_library/drv/drvAudio.c **** 
 2160              		.loc 1 672 11 is_stmt 1 view .LVU467
 2161 00a4 FFF7FEFF 		bl	xQueueGenericSend		@
 2162              	.LVL168:
 674:../../peripheral_library/drv/drvAudio.c ****           {
 2163              		.loc 1 674 11 view .LVU468
 2164              	@ ../../peripheral_library/drv/drvAudio.c:674:           if ((bBlock && (0 == u32BufferSize)) || !b
 674:../../peripheral_library/drv/drvAudio.c ****           {
 2165              		.loc 1 674 14 is_stmt 0 view .LVU469
 2166 00a8 B9F1000F 		cmp	r9, #0	@ bBlock
 2167 00ac DAD0     		beq	.L205	@
 2168              	@ ../../peripheral_library/drv/drvAudio.c:674:           if ((bBlock && (0 == u32BufferSize)) || !b
 674:../../peripheral_library/drv/drvAudio.c ****           {
 2169              		.loc 1 674 23 discriminator 1 view .LVU470
 2170 00ae 002F     		cmp	r7, #0	@ u32BufferSize
 2171 00b0 B7D1     		bne	.L198	@
 2172 00b2 D7E7     		b	.L205		@
 2173              	.LVL169:
 2174              	.L229:
 683:../../peripheral_library/drv/drvAudio.c ****           MHAL_AUD_DMAEnableInt(TRUE, TRUE);
 2175              		.loc 1 683 11 is_stmt 1 view .LVU471
 2176 00b4 FFF7FEFF 		bl	MHAL_AUD_DMAClearInt		@
 2177              	.LVL170:
 684:../../peripheral_library/drv/drvAudio.c ****           xSemaphoreGive(_tAudMutex);
 2178              		.loc 1 684 11 view .LVU472
 2179 00b8 5146     		mov	r1, r10	@, _2
 2180 00ba 5046     		mov	r0, r10	@, tmp1
 2181 00bc FFF7FEFF 		bl	MHAL_AUD_DMAEnableInt		@
 2182              	.LVL171:
 685:../../peripheral_library/drv/drvAudio.c **** 
 2183              		.loc 1 685 11 view .LVU473
 2184 00c0 0023     		movs	r3, #0	@,
 2185 00c2 1A46     		mov	r2, r3	@,
 2186 00c4 1946     		mov	r1, r3	@,
 2187 00c6 2068     		ldr	r0, [r4]	@, _tAudMutex
 2188 00c8 FFF7FEFF 		bl	xQueueGenericSend		@
 2189              	.LVL172:
 688:../../peripheral_library/drv/drvAudio.c ****             continue;
 2190              		.loc 1 688 11 view .LVU474
 2191              	@ ../../peripheral_library/drv/drvAudio.c:688:           if (xSemaphoreTake(_tAudIntSem, AUDIO_WAIT
 688:../../peripheral_library/drv/drvAudio.c ****             continue;
 2192              		.loc 1 688 15 is_stmt 0 view .LVU475
 2193 00cc 184B     		ldr	r3, .L231+12	@ tmp199,
 2194 00ce 4FF0FF31 		mov	r1, #-1	@,
 2195 00d2 1868     		ldr	r0, [r3]	@, _tAudIntSem
 2196 00d4 FFF7FEFF 		bl	xQueueSemaphoreTake		@
 2197              	.LVL173:
 2198              	@ ../../peripheral_library/drv/drvAudio.c:688:           if (xSemaphoreTake(_tAudIntSem, AUDIO_WAIT
 688:../../peripheral_library/drv/drvAudio.c ****             continue;
 2199              		.loc 1 688 14 view .LVU476
 2200 00d8 0128     		cmp	r0, #1	@,
 2201 00da A2D0     		beq	.L198		@,
 692:../../peripheral_library/drv/drvAudio.c ****             return FALSE;
 2202              		.loc 1 692 13 is_stmt 1 view .LVU477
 2203 00dc 154B     		ldr	r3, .L231+16	@ tmp181,
 2204 00de 1B68     		ldr	r3, [r3]	@ gu32MosDbgLevel, gu32MosDbgLevel
ARM GAS  /tmp/ccxvUIDa.s 			page 61


 2205 00e0 DB07     		lsls	r3, r3, #31	@, gu32MosDbgLevel,
 2206 00e2 02D5     		bpl	.L227		@,
 692:../../peripheral_library/drv/drvAudio.c ****             return FALSE;
 2207              		.loc 1 692 13 discriminator 1 view .LVU478
 2208 00e4 1448     		ldr	r0, .L231+20	@,
 2209 00e6 FFF7FEFF 		bl	UartSendTrace		@
 2210              	.LVL174:
 2211              	.L227:
 2212              	@ ../../peripheral_library/drv/drvAudio.c:693:             return FALSE;
 693:../../peripheral_library/drv/drvAudio.c ****           }
 2213              		.loc 1 693 20 is_stmt 0 discriminator 1 view .LVU479
 2214 00ea 0025     		movs	r5, #0	@ <retval>,
 2215              	@ ../../peripheral_library/drv/drvAudio.c:699: }
 2216              		.loc 1 699 1 discriminator 1 view .LVU480
 2217 00ec 2846     		mov	r0, r5	@, <retval>
 2218 00ee 05B0     		add	sp, sp, #20	@,,
 2219              		.cfi_remember_state
 2220              		.cfi_def_cfa_offset 36
 2221              		@ sp needed	@
 2222 00f0 BDE8F08F 		pop	{r4, r5, r6, r7, r8, r9, r10, fp, pc}	@
 2223              	.LVL175:
 2224              	.L228:
 2225              		.cfi_restore_state
 660:../../peripheral_library/drv/drvAudio.c ****             xSemaphoreTake(_tAudIntSem, 0);
 2226              		.loc 1 660 11 is_stmt 1 view .LVU481
 2227              	@ ../../peripheral_library/drv/drvAudio.c:660:           if (uxSemaphoreGetCount(_tAudIntSem))
 660:../../peripheral_library/drv/drvAudio.c ****             xSemaphoreTake(_tAudIntSem, 0);
 2228              		.loc 1 660 15 is_stmt 0 view .LVU482
 2229 00f4 0E4E     		ldr	r6, .L231+12	@ tmp150,
 2230 00f6 3068     		ldr	r0, [r6]	@, _tAudIntSem
 2231 00f8 FFF7FEFF 		bl	uxQueueMessagesWaiting		@
 2232              	.LVL176:
 2233              	@ ../../peripheral_library/drv/drvAudio.c:660:           if (uxSemaphoreGetCount(_tAudIntSem))
 660:../../peripheral_library/drv/drvAudio.c ****             xSemaphoreTake(_tAudIntSem, 0);
 2234              		.loc 1 660 14 view .LVU483
 2235 00fc 68B9     		cbnz	r0, .L230	@,
 2236              	.L200:
 662:../../peripheral_library/drv/drvAudio.c ****           AUD_ERROR("MDrv_AUD_ReadPCM: audio is not active\n");
 2237              		.loc 1 662 11 is_stmt 1 view .LVU484
 2238 00fe 0023     		movs	r3, #0	@,
 2239 0100 1A46     		mov	r2, r3	@,
 2240 0102 1946     		mov	r1, r3	@,
 2241 0104 2068     		ldr	r0, [r4]	@, _tAudMutex
 2242 0106 FFF7FEFF 		bl	xQueueGenericSend		@
 2243              	.LVL177:
 663:../../peripheral_library/drv/drvAudio.c ****           return FALSE;
 2244              		.loc 1 663 11 view .LVU485
 2245 010a 0A4B     		ldr	r3, .L231+16	@ tmp156,
 2246 010c 1B68     		ldr	r3, [r3]	@ gu32MosDbgLevel, gu32MosDbgLevel
 2247 010e DA07     		lsls	r2, r3, #31	@, gu32MosDbgLevel,
 2248 0110 EBD5     		bpl	.L227		@,
 663:../../peripheral_library/drv/drvAudio.c ****           return FALSE;
 2249              		.loc 1 663 11 discriminator 1 view .LVU486
 2250 0112 0A48     		ldr	r0, .L231+24	@,
 2251 0114 FFF7FEFF 		bl	UartSendTrace		@
 2252              	.LVL178:
 2253 0118 B3E7     		b	.L224		@
ARM GAS  /tmp/ccxvUIDa.s 			page 62


 2254              	.L230:
 661:../../peripheral_library/drv/drvAudio.c ****           xSemaphoreGive(_tAudMutex);
 2255              		.loc 1 661 13 view .LVU487
 2256 011a 3068     		ldr	r0, [r6]	@, _tAudIntSem
 2257 011c 2946     		mov	r1, r5	@, <retval>
 2258 011e FFF7FEFF 		bl	xQueueSemaphoreTake		@
 2259              	.LVL179:
 2260 0122 ECE7     		b	.L200		@
 2261              	.L232:
 2262              		.align	2
 2263              	.L231:
 2264 0124 00000000 		.word	.LANCHOR3
 2265 0128 00000000 		.word	.LANCHOR6
 2266 012c 00000000 		.word	.LANCHOR0
 2267 0130 00000000 		.word	.LANCHOR2
 2268 0134 00000000 		.word	gu32MosDbgLevel
 2269 0138 30000000 		.word	.LC11
 2270 013c 00000000 		.word	.LC10
 2271              		.cfi_endproc
 2272              	.LFE147:
 2273              		.size	MDrv_AUD_ReadPCM, .-MDrv_AUD_ReadPCM
 2274              		.section	.text.MDrv_AUD_I2SEnable,"ax",%progbits
 2275              		.align	1
 2276              		.p2align 2,,3
 2277              		.global	MDrv_AUD_I2SEnable
 2278              		.syntax unified
 2279              		.thumb
 2280              		.thumb_func
 2281              		.fpu fpv4-sp-d16
 2282              		.type	MDrv_AUD_I2SEnable, %function
 2283              	MDrv_AUD_I2SEnable:
 2284              	.LVL180:
 2285              	.LFB148:
 700:../../peripheral_library/drv/drvAudio.c **** 
 701:../../peripheral_library/drv/drvAudio.c **** #if defined(CONFIG_AUD_VAD)
 702:../../peripheral_library/drv/drvAudio.c **** BOOL MDrv_AUD_VadIsEnable(void)
 703:../../peripheral_library/drv/drvAudio.c **** {
 704:../../peripheral_library/drv/drvAudio.c ****   return _bAudVadEable;
 705:../../peripheral_library/drv/drvAudio.c **** }
 706:../../peripheral_library/drv/drvAudio.c **** 
 707:../../peripheral_library/drv/drvAudio.c **** void MDrv_AUD_VadEnable(Bool bEn)
 708:../../peripheral_library/drv/drvAudio.c **** {
 709:../../peripheral_library/drv/drvAudio.c ****   //if( xSemaphoreTake( _tAudMutex, portMAX_DELAY ) == pdPASS )
 710:../../peripheral_library/drv/drvAudio.c **** 	{
 711:../../peripheral_library/drv/drvAudio.c ****     if (E_AUD_STATE_NONE != _eAudState)
 712:../../peripheral_library/drv/drvAudio.c ****     {
 713:../../peripheral_library/drv/drvAudio.c ****       //AUD_MSG("MDrv_AUD_VadEnable: Enable = %d\n", (U8)bEn);
 714:../../peripheral_library/drv/drvAudio.c ****       if (bEn)
 715:../../peripheral_library/drv/drvAudio.c ****       {
 716:../../peripheral_library/drv/drvAudio.c ****         MOS_IRQn_Unmask(AUDIO_VAD_IRQn);
 717:../../peripheral_library/drv/drvAudio.c ****       }
 718:../../peripheral_library/drv/drvAudio.c ****       else
 719:../../peripheral_library/drv/drvAudio.c ****       {
 720:../../peripheral_library/drv/drvAudio.c ****         MOS_IRQn_Mask(AUDIO_VAD_IRQn);
 721:../../peripheral_library/drv/drvAudio.c ****       }
 722:../../peripheral_library/drv/drvAudio.c ****       MHAL_AUD_VADEn(bEn);
 723:../../peripheral_library/drv/drvAudio.c ****       _bAudVadEable = bEn;
ARM GAS  /tmp/ccxvUIDa.s 			page 63


 724:../../peripheral_library/drv/drvAudio.c ****     }
 725:../../peripheral_library/drv/drvAudio.c ****     //xSemaphoreGive(_tAudMutex);
 726:../../peripheral_library/drv/drvAudio.c ****   }
 727:../../peripheral_library/drv/drvAudio.c **** }
 728:../../peripheral_library/drv/drvAudio.c **** 
 729:../../peripheral_library/drv/drvAudio.c **** void MDrv_AUD_VadSetThr(U8 u8Thr)
 730:../../peripheral_library/drv/drvAudio.c **** {
 731:../../peripheral_library/drv/drvAudio.c ****   //if( xSemaphoreTake( _tAudMutex, portMAX_DELAY ) == pdPASS )
 732:../../peripheral_library/drv/drvAudio.c **** 	{
 733:../../peripheral_library/drv/drvAudio.c ****     if (E_AUD_STATE_NONE != _eAudState)
 734:../../peripheral_library/drv/drvAudio.c ****     {
 735:../../peripheral_library/drv/drvAudio.c ****       //AUD_ERROR("MDrv_AUD_VadSetThr: Threshold = %d\n", u8Thr);
 736:../../peripheral_library/drv/drvAudio.c ****       MHAL_AUD_VADSetThr(u8Thr);
 737:../../peripheral_library/drv/drvAudio.c ****       _u8AudVadThr = u8Thr;
 738:../../peripheral_library/drv/drvAudio.c ****     }
 739:../../peripheral_library/drv/drvAudio.c ****     //xSemaphoreGive(_tAudMutex);
 740:../../peripheral_library/drv/drvAudio.c ****   }
 741:../../peripheral_library/drv/drvAudio.c **** }
 742:../../peripheral_library/drv/drvAudio.c **** 
 743:../../peripheral_library/drv/drvAudio.c **** void MDrv_AUD_VadClear(void)
 744:../../peripheral_library/drv/drvAudio.c **** {
 745:../../peripheral_library/drv/drvAudio.c ****    MHAL_AUD_VADClearInt();
 746:../../peripheral_library/drv/drvAudio.c **** }
 747:../../peripheral_library/drv/drvAudio.c **** 
 748:../../peripheral_library/drv/drvAudio.c **** void MDrv_AUD_VadSetIsr(IRQn_ISR_t pdfIsr)
 749:../../peripheral_library/drv/drvAudio.c **** {
 750:../../peripheral_library/drv/drvAudio.c ****   if( xSemaphoreTake( _tAudMutex, portMAX_DELAY ) == pdPASS )
 751:../../peripheral_library/drv/drvAudio.c **** 	{
 752:../../peripheral_library/drv/drvAudio.c ****     if (E_AUD_STATE_NONE != _eAudState)
 753:../../peripheral_library/drv/drvAudio.c ****     {
 754:../../peripheral_library/drv/drvAudio.c ****       AUD_ERROR("MDrv_AUD_VadSetIsr: isr = 0x%x\r\n", (U32)pdfIsr);
 755:../../peripheral_library/drv/drvAudio.c ****       if (!pdfIsr)
 756:../../peripheral_library/drv/drvAudio.c ****         MOS_IRQn_AttachIsr(NVIC_Handler_AUDIO_VAD, AUDIO_VAD_IRQn, AUDIO_VAD_INT_PRIORITY);
 757:../../peripheral_library/drv/drvAudio.c ****       else
 758:../../peripheral_library/drv/drvAudio.c ****         MOS_IRQn_AttachIsr(pdfIsr, AUDIO_VAD_IRQn, AUDIO_INT_PRIORITY);
 759:../../peripheral_library/drv/drvAudio.c ****     }
 760:../../peripheral_library/drv/drvAudio.c ****     xSemaphoreGive(_tAudMutex);
 761:../../peripheral_library/drv/drvAudio.c ****   }
 762:../../peripheral_library/drv/drvAudio.c **** }
 763:../../peripheral_library/drv/drvAudio.c **** #endif
 764:../../peripheral_library/drv/drvAudio.c **** 
 765:../../peripheral_library/drv/drvAudio.c **** #if defined(CONFIG_AUD_I2S)
 766:../../peripheral_library/drv/drvAudio.c **** void MDrv_AUD_I2SEnable(Bool bEn)
 767:../../peripheral_library/drv/drvAudio.c **** {
 2286              		.loc 1 767 1 view -0
 2287              		.cfi_startproc
 2288              		@ args = 0, pretend = 0, frame = 0
 2289              		@ frame_needed = 0, uses_anonymous_args = 0
 768:../../peripheral_library/drv/drvAudio.c ****   if( xSemaphoreTake( _tAudMutex, portMAX_DELAY ) == pdPASS )
 2290              		.loc 1 768 3 view .LVU489
 2291              	@ ../../peripheral_library/drv/drvAudio.c:767: {
 767:../../peripheral_library/drv/drvAudio.c ****   if( xSemaphoreTake( _tAudMutex, portMAX_DELAY ) == pdPASS )
 2292              		.loc 1 767 1 is_stmt 0 view .LVU490
 2293 0000 70B5     		push	{r4, r5, r6, lr}	@
 2294              		.cfi_def_cfa_offset 16
 2295              		.cfi_offset 4, -16
 2296              		.cfi_offset 5, -12
ARM GAS  /tmp/ccxvUIDa.s 			page 64


 2297              		.cfi_offset 6, -8
 2298              		.cfi_offset 14, -4
 2299              	@ ../../peripheral_library/drv/drvAudio.c:768:   if( xSemaphoreTake( _tAudMutex, portMAX_DELAY ) ==
 2300              		.loc 1 768 7 view .LVU491
 2301 0002 0D4C     		ldr	r4, .L242	@ tmp123,
 2302              	@ ../../peripheral_library/drv/drvAudio.c:767: {
 767:../../peripheral_library/drv/drvAudio.c ****   if( xSemaphoreTake( _tAudMutex, portMAX_DELAY ) == pdPASS )
 2303              		.loc 1 767 1 view .LVU492
 2304 0004 0546     		mov	r5, r0	@ bEn, bEn
 2305              	@ ../../peripheral_library/drv/drvAudio.c:768:   if( xSemaphoreTake( _tAudMutex, portMAX_DELAY ) ==
 2306              		.loc 1 768 7 view .LVU493
 2307 0006 4FF0FF31 		mov	r1, #-1	@,
 2308 000a 2068     		ldr	r0, [r4]	@, _tAudMutex
 2309              	.LVL181:
 2310              		.loc 1 768 7 view .LVU494
 2311 000c FFF7FEFF 		bl	xQueueSemaphoreTake		@
 2312              	.LVL182:
 2313              	@ ../../peripheral_library/drv/drvAudio.c:768:   if( xSemaphoreTake( _tAudMutex, portMAX_DELAY ) ==
 2314              		.loc 1 768 5 view .LVU495
 2315 0010 0128     		cmp	r0, #1	@,
 2316 0012 00D0     		beq	.L240		@,
 2317              	@ ../../peripheral_library/drv/drvAudio.c:778: }
 769:../../peripheral_library/drv/drvAudio.c **** 	{
 770:../../peripheral_library/drv/drvAudio.c ****     _mgrI2S.bEnable = bEn;
 771:../../peripheral_library/drv/drvAudio.c **** 
 772:../../peripheral_library/drv/drvAudio.c ****     if (E_AUD_STATE_NONE != _eAudState)
 773:../../peripheral_library/drv/drvAudio.c ****     {
 774:../../peripheral_library/drv/drvAudio.c ****       MHAL_AUD_I2SEnable(_mgrI2S.bEnable);
 775:../../peripheral_library/drv/drvAudio.c ****     }
 776:../../peripheral_library/drv/drvAudio.c ****     xSemaphoreGive(_tAudMutex);
 777:../../peripheral_library/drv/drvAudio.c ****   }
 778:../../peripheral_library/drv/drvAudio.c **** }
 2318              		.loc 1 778 1 view .LVU496
 2319 0014 70BD     		pop	{r4, r5, r6, pc}	@
 2320              	.L240:
 770:../../peripheral_library/drv/drvAudio.c **** 
 2321              		.loc 1 770 5 is_stmt 1 view .LVU497
 2322              	@ ../../peripheral_library/drv/drvAudio.c:772:     if (E_AUD_STATE_NONE != _eAudState)
 772:../../peripheral_library/drv/drvAudio.c ****     {
 2323              		.loc 1 772 26 is_stmt 0 view .LVU498
 2324 0016 094B     		ldr	r3, .L242+4	@ tmp119,
 2325              	@ ../../peripheral_library/drv/drvAudio.c:770:     _mgrI2S.bEnable = bEn;
 770:../../peripheral_library/drv/drvAudio.c **** 
 2326              		.loc 1 770 21 view .LVU499
 2327 0018 094A     		ldr	r2, .L242+8	@ tmp117,
 2328              	@ ../../peripheral_library/drv/drvAudio.c:772:     if (E_AUD_STATE_NONE != _eAudState)
 772:../../peripheral_library/drv/drvAudio.c ****     {
 2329              		.loc 1 772 8 view .LVU500
 2330 001a 1B78     		ldrb	r3, [r3]	@ zero_extendqisi2	@ _eAudState, _eAudState
 2331              	@ ../../peripheral_library/drv/drvAudio.c:770:     _mgrI2S.bEnable = bEn;
 770:../../peripheral_library/drv/drvAudio.c **** 
 2332              		.loc 1 770 21 view .LVU501
 2333 001c 5570     		strb	r5, [r2, #1]	@ bEn, _mgrI2S.bEnable
 772:../../peripheral_library/drv/drvAudio.c ****     {
 2334              		.loc 1 772 5 is_stmt 1 view .LVU502
 2335              	@ ../../peripheral_library/drv/drvAudio.c:772:     if (E_AUD_STATE_NONE != _eAudState)
 772:../../peripheral_library/drv/drvAudio.c ****     {
ARM GAS  /tmp/ccxvUIDa.s 			page 65


 2336              		.loc 1 772 8 is_stmt 0 view .LVU503
 2337 001e 3BB9     		cbnz	r3, .L241	@ _eAudState,
 2338              	.L235:
 776:../../peripheral_library/drv/drvAudio.c ****   }
 2339              		.loc 1 776 5 is_stmt 1 view .LVU504
 2340 0020 0023     		movs	r3, #0	@,
 2341 0022 2068     		ldr	r0, [r4]	@, _tAudMutex
 2342 0024 1A46     		mov	r2, r3	@,
 2343 0026 1946     		mov	r1, r3	@,
 2344              	@ ../../peripheral_library/drv/drvAudio.c:778: }
 2345              		.loc 1 778 1 is_stmt 0 view .LVU505
 2346 0028 BDE87040 		pop	{r4, r5, r6, lr}	@
 2347              		.cfi_remember_state
 2348              		.cfi_restore 14
 2349              		.cfi_restore 6
 2350              		.cfi_restore 5
 2351              		.cfi_restore 4
 2352              		.cfi_def_cfa_offset 0
 2353              	@ ../../peripheral_library/drv/drvAudio.c:776:     xSemaphoreGive(_tAudMutex);
 776:../../peripheral_library/drv/drvAudio.c ****   }
 2354              		.loc 1 776 5 view .LVU506
 2355 002c FFF7FEBF 		b	xQueueGenericSend		@
 2356              	.LVL183:
 2357              	.L241:
 2358              		.cfi_restore_state
 774:../../peripheral_library/drv/drvAudio.c ****     }
 2359              		.loc 1 774 7 is_stmt 1 view .LVU507
 2360 0030 2846     		mov	r0, r5	@, bEn
 2361 0032 FFF7FEFF 		bl	MHAL_AUD_I2SEnable		@
 2362              	.LVL184:
 2363 0036 F3E7     		b	.L235		@
 2364              	.L243:
 2365              		.align	2
 2366              	.L242:
 2367 0038 00000000 		.word	.LANCHOR3
 2368 003c 00000000 		.word	.LANCHOR1
 2369 0040 00000000 		.word	.LANCHOR7
 2370              		.cfi_endproc
 2371              	.LFE148:
 2372              		.size	MDrv_AUD_I2SEnable, .-MDrv_AUD_I2SEnable
 2373              		.section	.text.MDrv_AUD_AECEnable,"ax",%progbits
 2374              		.align	1
 2375              		.p2align 2,,3
 2376              		.global	MDrv_AUD_AECEnable
 2377              		.syntax unified
 2378              		.thumb
 2379              		.thumb_func
 2380              		.fpu fpv4-sp-d16
 2381              		.type	MDrv_AUD_AECEnable, %function
 2382              	MDrv_AUD_AECEnable:
 2383              	.LVL185:
 2384              	.LFB149:
 779:../../peripheral_library/drv/drvAudio.c **** #endif
 780:../../peripheral_library/drv/drvAudio.c **** 
 781:../../peripheral_library/drv/drvAudio.c **** #if defined(CONFIG_AUD_AEC)
 782:../../peripheral_library/drv/drvAudio.c **** void MDrv_AUD_AECEnable(Bool bEn)
 783:../../peripheral_library/drv/drvAudio.c **** {
ARM GAS  /tmp/ccxvUIDa.s 			page 66


 2385              		.loc 1 783 1 view -0
 2386              		.cfi_startproc
 2387              		@ args = 0, pretend = 0, frame = 0
 2388              		@ frame_needed = 0, uses_anonymous_args = 0
 784:../../peripheral_library/drv/drvAudio.c ****   if( xSemaphoreTake( _tAudMutex, portMAX_DELAY ) == pdPASS )
 2389              		.loc 1 784 3 view .LVU509
 2390              	@ ../../peripheral_library/drv/drvAudio.c:783: {
 783:../../peripheral_library/drv/drvAudio.c ****   if( xSemaphoreTake( _tAudMutex, portMAX_DELAY ) == pdPASS )
 2391              		.loc 1 783 1 is_stmt 0 view .LVU510
 2392 0000 70B5     		push	{r4, r5, r6, lr}	@
 2393              		.cfi_def_cfa_offset 16
 2394              		.cfi_offset 4, -16
 2395              		.cfi_offset 5, -12
 2396              		.cfi_offset 6, -8
 2397              		.cfi_offset 14, -4
 2398              	@ ../../peripheral_library/drv/drvAudio.c:784:   if( xSemaphoreTake( _tAudMutex, portMAX_DELAY ) ==
 2399              		.loc 1 784 7 view .LVU511
 2400 0002 0D4C     		ldr	r4, .L253	@ tmp123,
 2401              	@ ../../peripheral_library/drv/drvAudio.c:783: {
 783:../../peripheral_library/drv/drvAudio.c ****   if( xSemaphoreTake( _tAudMutex, portMAX_DELAY ) == pdPASS )
 2402              		.loc 1 783 1 view .LVU512
 2403 0004 0546     		mov	r5, r0	@ bEn, bEn
 2404              	@ ../../peripheral_library/drv/drvAudio.c:784:   if( xSemaphoreTake( _tAudMutex, portMAX_DELAY ) ==
 2405              		.loc 1 784 7 view .LVU513
 2406 0006 4FF0FF31 		mov	r1, #-1	@,
 2407 000a 2068     		ldr	r0, [r4]	@, _tAudMutex
 2408              	.LVL186:
 2409              		.loc 1 784 7 view .LVU514
 2410 000c FFF7FEFF 		bl	xQueueSemaphoreTake		@
 2411              	.LVL187:
 2412              	@ ../../peripheral_library/drv/drvAudio.c:784:   if( xSemaphoreTake( _tAudMutex, portMAX_DELAY ) ==
 2413              		.loc 1 784 5 view .LVU515
 2414 0010 0128     		cmp	r0, #1	@,
 2415 0012 00D0     		beq	.L251		@,
 2416              	@ ../../peripheral_library/drv/drvAudio.c:794: }
 785:../../peripheral_library/drv/drvAudio.c **** 	{
 786:../../peripheral_library/drv/drvAudio.c ****     _bAudAecEnable = bEn;
 787:../../peripheral_library/drv/drvAudio.c **** 
 788:../../peripheral_library/drv/drvAudio.c ****     if (E_AUD_STATE_NONE != _eAudState)
 789:../../peripheral_library/drv/drvAudio.c ****     {
 790:../../peripheral_library/drv/drvAudio.c ****       MHAL_AUD_DMAEnableAEC(_bAudAecEnable);
 791:../../peripheral_library/drv/drvAudio.c ****     }
 792:../../peripheral_library/drv/drvAudio.c ****     xSemaphoreGive(_tAudMutex);
 793:../../peripheral_library/drv/drvAudio.c ****   }
 794:../../peripheral_library/drv/drvAudio.c **** }
 2417              		.loc 1 794 1 view .LVU516
 2418 0014 70BD     		pop	{r4, r5, r6, pc}	@
 2419              	.L251:
 786:../../peripheral_library/drv/drvAudio.c **** 
 2420              		.loc 1 786 5 is_stmt 1 view .LVU517
 2421              	@ ../../peripheral_library/drv/drvAudio.c:788:     if (E_AUD_STATE_NONE != _eAudState)
 788:../../peripheral_library/drv/drvAudio.c ****     {
 2422              		.loc 1 788 26 is_stmt 0 view .LVU518
 2423 0016 094B     		ldr	r3, .L253+4	@ tmp119,
 2424              	@ ../../peripheral_library/drv/drvAudio.c:786:     _bAudAecEnable = bEn;
 786:../../peripheral_library/drv/drvAudio.c **** 
 2425              		.loc 1 786 20 view .LVU519
ARM GAS  /tmp/ccxvUIDa.s 			page 67


 2426 0018 094A     		ldr	r2, .L253+8	@ tmp117,
 2427              	@ ../../peripheral_library/drv/drvAudio.c:788:     if (E_AUD_STATE_NONE != _eAudState)
 788:../../peripheral_library/drv/drvAudio.c ****     {
 2428              		.loc 1 788 8 view .LVU520
 2429 001a 1B78     		ldrb	r3, [r3]	@ zero_extendqisi2	@ _eAudState, _eAudState
 2430              	@ ../../peripheral_library/drv/drvAudio.c:786:     _bAudAecEnable = bEn;
 786:../../peripheral_library/drv/drvAudio.c **** 
 2431              		.loc 1 786 20 view .LVU521
 2432 001c 1570     		strb	r5, [r2]	@ bEn, _bAudAecEnable
 788:../../peripheral_library/drv/drvAudio.c ****     {
 2433              		.loc 1 788 5 is_stmt 1 view .LVU522
 2434              	@ ../../peripheral_library/drv/drvAudio.c:788:     if (E_AUD_STATE_NONE != _eAudState)
 788:../../peripheral_library/drv/drvAudio.c ****     {
 2435              		.loc 1 788 8 is_stmt 0 view .LVU523
 2436 001e 3BB9     		cbnz	r3, .L252	@ _eAudState,
 2437              	.L246:
 792:../../peripheral_library/drv/drvAudio.c ****   }
 2438              		.loc 1 792 5 is_stmt 1 view .LVU524
 2439 0020 0023     		movs	r3, #0	@,
 2440 0022 2068     		ldr	r0, [r4]	@, _tAudMutex
 2441 0024 1A46     		mov	r2, r3	@,
 2442 0026 1946     		mov	r1, r3	@,
 2443              	@ ../../peripheral_library/drv/drvAudio.c:794: }
 2444              		.loc 1 794 1 is_stmt 0 view .LVU525
 2445 0028 BDE87040 		pop	{r4, r5, r6, lr}	@
 2446              		.cfi_remember_state
 2447              		.cfi_restore 14
 2448              		.cfi_restore 6
 2449              		.cfi_restore 5
 2450              		.cfi_restore 4
 2451              		.cfi_def_cfa_offset 0
 2452              	@ ../../peripheral_library/drv/drvAudio.c:792:     xSemaphoreGive(_tAudMutex);
 792:../../peripheral_library/drv/drvAudio.c ****   }
 2453              		.loc 1 792 5 view .LVU526
 2454 002c FFF7FEBF 		b	xQueueGenericSend		@
 2455              	.LVL188:
 2456              	.L252:
 2457              		.cfi_restore_state
 790:../../peripheral_library/drv/drvAudio.c ****     }
 2458              		.loc 1 790 7 is_stmt 1 view .LVU527
 2459 0030 2846     		mov	r0, r5	@, bEn
 2460 0032 FFF7FEFF 		bl	MHAL_AUD_DMAEnableAEC		@
 2461              	.LVL189:
 2462 0036 F3E7     		b	.L246		@
 2463              	.L254:
 2464              		.align	2
 2465              	.L253:
 2466 0038 00000000 		.word	.LANCHOR3
 2467 003c 00000000 		.word	.LANCHOR1
 2468 0040 00000000 		.word	.LANCHOR12
 2469              		.cfi_endproc
 2470              	.LFE149:
 2471              		.size	MDrv_AUD_AECEnable, .-MDrv_AUD_AECEnable
 2472              		.section	.text.MDrv_AUD_AECIsEnable,"ax",%progbits
 2473              		.align	1
 2474              		.p2align 2,,3
 2475              		.global	MDrv_AUD_AECIsEnable
ARM GAS  /tmp/ccxvUIDa.s 			page 68


 2476              		.syntax unified
 2477              		.thumb
 2478              		.thumb_func
 2479              		.fpu fpv4-sp-d16
 2480              		.type	MDrv_AUD_AECIsEnable, %function
 2481              	MDrv_AUD_AECIsEnable:
 2482              	.LFB150:
 795:../../peripheral_library/drv/drvAudio.c **** 
 796:../../peripheral_library/drv/drvAudio.c **** BOOL MDrv_AUD_AECIsEnable(void)
 797:../../peripheral_library/drv/drvAudio.c **** {
 2483              		.loc 1 797 1 view -0
 2484              		.cfi_startproc
 2485              		@ args = 0, pretend = 0, frame = 0
 2486              		@ frame_needed = 0, uses_anonymous_args = 0
 2487              		@ link register save eliminated.
 798:../../peripheral_library/drv/drvAudio.c ****     return _bAudAecEnable;
 2488              		.loc 1 798 5 view .LVU529
 2489              	@ ../../peripheral_library/drv/drvAudio.c:798:     return _bAudAecEnable;
 2490              		.loc 1 798 12 is_stmt 0 view .LVU530
 2491 0000 014B     		ldr	r3, .L256	@ tmp112,
 2492              	@ ../../peripheral_library/drv/drvAudio.c:799: }
 799:../../peripheral_library/drv/drvAudio.c **** }
 2493              		.loc 1 799 1 view .LVU531
 2494 0002 1878     		ldrb	r0, [r3]	@ zero_extendqisi2	@, _bAudAecEnable
 2495 0004 7047     		bx	lr	@
 2496              	.L257:
 2497 0006 00BF     		.align	2
 2498              	.L256:
 2499 0008 00000000 		.word	.LANCHOR12
 2500              		.cfi_endproc
 2501              	.LFE150:
 2502              		.size	MDrv_AUD_AECIsEnable, .-MDrv_AUD_AECIsEnable
 2503              		.section	.text.MDrv_AUD_GetStartTime,"ax",%progbits
 2504              		.align	1
 2505              		.p2align 2,,3
 2506              		.global	MDrv_AUD_GetStartTime
 2507              		.syntax unified
 2508              		.thumb
 2509              		.thumb_func
 2510              		.fpu fpv4-sp-d16
 2511              		.type	MDrv_AUD_GetStartTime, %function
 2512              	MDrv_AUD_GetStartTime:
 2513              	.LFB151:
 800:../../peripheral_library/drv/drvAudio.c **** #endif
 801:../../peripheral_library/drv/drvAudio.c **** 
 802:../../peripheral_library/drv/drvAudio.c **** U64 MDrv_AUD_GetStartTime(void)
 803:../../peripheral_library/drv/drvAudio.c **** {
 2514              		.loc 1 803 1 is_stmt 1 view -0
 2515              		.cfi_startproc
 2516              		@ args = 0, pretend = 0, frame = 0
 2517              		@ frame_needed = 0, uses_anonymous_args = 0
 804:../../peripheral_library/drv/drvAudio.c ****   AUD_MSG("MDrv_AUD_GetStartTime: RTC = 0x%x(0x%x), delta = 0x%x\r\n", _u32AudStartTime, _u16AudSta
 2518              		.loc 1 804 3 view .LVU533
 2519 0000 0B4B     		ldr	r3, .L265	@ tmp115,
 2520 0002 1A68     		ldr	r2, [r3]	@ gu32MosDbgLevel, gu32MosDbgLevel
 2521              	@ ../../peripheral_library/drv/drvAudio.c:803: {
 803:../../peripheral_library/drv/drvAudio.c ****   AUD_MSG("MDrv_AUD_GetStartTime: RTC = 0x%x(0x%x), delta = 0x%x\r\n", _u32AudStartTime, _u16AudSta
ARM GAS  /tmp/ccxvUIDa.s 			page 69


 2522              		.loc 1 803 1 is_stmt 0 view .LVU534
 2523 0004 10B5     		push	{r4, lr}	@
 2524              		.cfi_def_cfa_offset 8
 2525              		.cfi_offset 4, -8
 2526              		.cfi_offset 14, -4
 2527 0006 0B4C     		ldr	r4, .L265+4	@ tmp114,
 2528              	@ ../../peripheral_library/drv/drvAudio.c:804:   AUD_MSG("MDrv_AUD_GetStartTime: RTC = 0x%x(0x%x), 
 2529              		.loc 1 804 3 view .LVU535
 2530 0008 D203     		lsls	r2, r2, #15	@, gu32MosDbgLevel,
 2531 000a 2368     		ldr	r3, [r4]	@ pretmp_5, _u32AudDeltaTime
 2532 000c 04D4     		bmi	.L264		@,
 2533              		.loc 1 804 128 is_stmt 1 discriminator 3 view .LVU536
 805:../../peripheral_library/drv/drvAudio.c ****   return (U64)_u32AudStartTime*1000000 + (U64)_u16AudStartSubTime*1000000/0x8000 + (U64)_u32AudDelt
 2534              		.loc 1 805 3 discriminator 3 view .LVU537
 2535              	@ ../../peripheral_library/drv/drvAudio.c:805:   return (U64)_u32AudStartTime*1000000 + (U64)_u16Au
 2536              		.loc 1 805 105 is_stmt 0 discriminator 3 view .LVU538
 2537 000e 4FF47A70 		mov	r0, #1000	@ tmp121,
 2538              	@ ../../peripheral_library/drv/drvAudio.c:807: }
 806:../../peripheral_library/drv/drvAudio.c ****   //return (U64)_u32AudStartTime;
 807:../../peripheral_library/drv/drvAudio.c **** }
 2539              		.loc 1 807 1 discriminator 3 view .LVU539
 2540 0012 A3FB0001 		umull	r0, r1, r3, r0	@, pretmp_5, tmp121
 2541 0016 10BD     		pop	{r4, pc}	@
 2542              	.L264:
 804:../../peripheral_library/drv/drvAudio.c ****   return (U64)_u32AudStartTime*1000000 + (U64)_u16AudStartSubTime*1000000/0x8000 + (U64)_u32AudDelt
 2543              		.loc 1 804 3 is_stmt 1 discriminator 1 view .LVU540
 2544 0018 0022     		movs	r2, #0	@,
 2545 001a 1146     		mov	r1, r2	@,
 2546 001c 0648     		ldr	r0, .L265+8	@,
 2547 001e FFF7FEFF 		bl	UartSendTrace		@
 2548              	.LVL190:
 2549 0022 2368     		ldr	r3, [r4]	@ pretmp_5, _u32AudDeltaTime
 804:../../peripheral_library/drv/drvAudio.c ****   return (U64)_u32AudStartTime*1000000 + (U64)_u16AudStartSubTime*1000000/0x8000 + (U64)_u32AudDelt
 2550              		.loc 1 804 128 discriminator 1 view .LVU541
 805:../../peripheral_library/drv/drvAudio.c ****   return (U64)_u32AudStartTime*1000000 + (U64)_u16AudStartSubTime*1000000/0x8000 + (U64)_u32AudDelt
 2551              		.loc 1 805 3 discriminator 1 view .LVU542
 2552              	@ ../../peripheral_library/drv/drvAudio.c:805:   return (U64)_u32AudStartTime*1000000 + (U64)_u16Au
 805:../../peripheral_library/drv/drvAudio.c ****   return (U64)_u32AudStartTime*1000000 + (U64)_u16AudStartSubTime*1000000/0x8000 + (U64)_u32AudDelt
 2553              		.loc 1 805 105 is_stmt 0 discriminator 1 view .LVU543
 2554 0024 4FF47A70 		mov	r0, #1000	@ tmp121,
 2555              	@ ../../peripheral_library/drv/drvAudio.c:807: }
 2556              		.loc 1 807 1 discriminator 1 view .LVU544
 2557 0028 A3FB0001 		umull	r0, r1, r3, r0	@, pretmp_5, tmp121
 2558 002c 10BD     		pop	{r4, pc}	@
 2559              	.L266:
 2560 002e 00BF     		.align	2
 2561              	.L265:
 2562 0030 00000000 		.word	gu32MosDbgLevel
 2563 0034 00000000 		.word	.LANCHOR0
 2564 0038 00000000 		.word	.LC12
 2565              		.cfi_endproc
 2566              	.LFE151:
 2567              		.size	MDrv_AUD_GetStartTime, .-MDrv_AUD_GetStartTime
 2568              		.section	.bss._bAudAecEnable,"aw",%nobits
 2569              		.set	.LANCHOR12,. + 0
 2570              		.type	_bAudAecEnable, %object
 2571              		.size	_bAudAecEnable, 1
ARM GAS  /tmp/ccxvUIDa.s 			page 70


 2572              	_bAudAecEnable:
 2573 0000 00       		.space	1
 2574              		.section	.bss._bAudGenEable,"aw",%nobits
 2575              		.set	.LANCHOR8,. + 0
 2576              		.type	_bAudGenEable, %object
 2577              		.size	_bAudGenEable, 1
 2578              	_bAudGenEable:
 2579 0000 00       		.space	1
 2580              		.section	.bss._eAudMicNo,"aw",%nobits
 2581              		.set	.LANCHOR6,. + 0
 2582              		.type	_eAudMicNo, %object
 2583              		.size	_eAudMicNo, 1
 2584              	_eAudMicNo:
 2585 0000 00       		.space	1
 2586              		.section	.bss._eAudState,"aw",%nobits
 2587              		.set	.LANCHOR1,. + 0
 2588              		.type	_eAudState, %object
 2589              		.size	_eAudState, 1
 2590              	_eAudState:
 2591 0000 00       		.space	1
 2592              		.section	.bss._eAudWidth,"aw",%nobits
 2593              		.set	.LANCHOR5,. + 0
 2594              		.type	_eAudWidth, %object
 2595              		.size	_eAudWidth, 1
 2596              	_eAudWidth:
 2597 0000 00       		.space	1
 2598              		.section	.bss._mgrI2S,"aw",%nobits
 2599              		.align	2
 2600              		.set	.LANCHOR7,. + 0
 2601              		.type	_mgrI2S, %object
 2602              		.size	_mgrI2S, 2
 2603              	_mgrI2S:
 2604 0000 0000     		.space	2
 2605              		.section	.bss._tAudIntSem,"aw",%nobits
 2606              		.align	2
 2607              		.set	.LANCHOR2,. + 0
 2608              		.type	_tAudIntSem, %object
 2609              		.size	_tAudIntSem, 4
 2610              	_tAudIntSem:
 2611 0000 00000000 		.space	4
 2612              		.section	.bss._tAudMutex,"aw",%nobits
 2613              		.align	2
 2614              		.set	.LANCHOR3,. + 0
 2615              		.type	_tAudMutex, %object
 2616              		.size	_tAudMutex, 4
 2617              	_tAudMutex:
 2618 0000 00000000 		.space	4
 2619              		.section	.bss._u32AudDeltaTime,"aw",%nobits
 2620              		.align	2
 2621              		.set	.LANCHOR0,. + 0
 2622              		.type	_u32AudDeltaTime, %object
 2623              		.size	_u32AudDeltaTime, 4
 2624              	_u32AudDeltaTime:
 2625 0000 00000000 		.space	4
 2626              		.section	.data._eAudRate,"aw"
 2627              		.set	.LANCHOR4,. + 0
 2628              		.type	_eAudRate, %object
ARM GAS  /tmp/ccxvUIDa.s 			page 71


 2629              		.size	_eAudRate, 1
 2630              	_eAudRate:
 2631 0000 02       		.byte	2
 2632              		.section	.dma_buffer_64,"aw"
 2633              		.align	6
 2634              		.type	_gMcuDmaBuf, %object
 2635              		.size	_gMcuDmaBuf, 36864
 2636              	_gMcuDmaBuf:
 2637 0000 00000000 		.space	36864
 2637      00000000 
 2637      00000000 
 2637      00000000 
 2637      00000000 
 2638              		.section	.rodata.CSWTCH.75,"a"
 2639              		.align	2
 2640              		.set	.LANCHOR9,. + 0
 2641              		.type	CSWTCH.75, %object
 2642              		.size	CSWTCH.75, 4
 2643              	CSWTCH.75:
 2644 0000 02       		.byte	2
 2645 0001 04       		.byte	4
 2646 0002 06       		.byte	6
 2647 0003 08       		.byte	8
 2648              		.section	.rodata.CSWTCH.76,"a"
 2649              		.align	2
 2650              		.set	.LANCHOR10,. + 0
 2651              		.type	CSWTCH.76, %object
 2652              		.size	CSWTCH.76, 3
 2653              	CSWTCH.76:
 2654 0000 10       		.byte	16
 2655 0001 18       		.byte	24
 2656 0002 20       		.byte	32
 2657              		.section	.rodata.CSWTCH.77,"a"
 2658              		.align	2
 2659              		.set	.LANCHOR11,. + 0
 2660              		.type	CSWTCH.77, %object
 2661              		.size	CSWTCH.77, 24
 2662              	CSWTCH.77:
 2663 0000 00000000 		.word	0
 2664 0004 401F0000 		.word	8000
 2665 0008 803E0000 		.word	16000
 2666 000c 007D0000 		.word	32000
 2667 0010 80BB0000 		.word	48000
 2668 0014 00770100 		.word	96000
 2669              		.section	.rodata.MDrv_AUD_GetBitWidth.str1.4,"aMS",%progbits,1
 2670              		.align	2
 2671              	.LC6:
 2672 0000 5B415544 		.ascii	"[AUD] MDrv_AUD_GetBitWidth failed\015\012\000"
 2672      5D204D44 
 2672      72765F41 
 2672      55445F47 
 2672      65744269 
 2673              		.section	.rodata.MDrv_AUD_GetMicNo.str1.4,"aMS",%progbits,1
 2674              		.align	2
 2675              	.LC5:
 2676 0000 5B415544 		.ascii	"[AUD] MDrv_AUD_GetMicNo failed\015\012\000"
 2676      5D204D44 
ARM GAS  /tmp/ccxvUIDa.s 			page 72


 2676      72765F41 
 2676      55445F47 
 2676      65744D69 
 2677              		.section	.rodata.MDrv_AUD_GetSampleRate.str1.4,"aMS",%progbits,1
 2678              		.align	2
 2679              	.LC7:
 2680 0000 5B415544 		.ascii	"[AUD] MDrv_AUD_GetSampleRate failed\015\012\000"
 2680      5D204D44 
 2680      72765F41 
 2680      55445F47 
 2680      65745361 
 2681              		.section	.rodata.MDrv_AUD_GetStartTime.str1.4,"aMS",%progbits,1
 2682              		.align	2
 2683              	.LC12:
 2684 0000 5B415544 		.ascii	"[AUD] MDrv_AUD_GetStartTime: RTC = 0x%x(0x%x), delt"
 2684      5D204D44 
 2684      72765F41 
 2684      55445F47 
 2684      65745374 
 2685 0033 61203D20 		.ascii	"a = 0x%x\015\012\000"
 2685      30782578 
 2685      0D0A00
 2686              		.section	.rodata.MDrv_AUD_Init.str1.4,"aMS",%progbits,1
 2687              		.align	2
 2688              	.LC4:
 2689 0000 5B415544 		.ascii	"[AUD] MDrv_AUD_Init memory size = 0x%x, addr = 0x%x"
 2689      5D204D44 
 2689      72765F41 
 2689      55445F49 
 2689      6E697420 
 2690 0033 0D0A00   		.ascii	"\015\012\000"
 2691              		.section	.rodata.MDrv_AUD_ReadPCM.str1.4,"aMS",%progbits,1
 2692              		.align	2
 2693              	.LC10:
 2694 0000 5B415544 		.ascii	"[AUD] MDrv_AUD_ReadPCM: audio is not active\012\000"
 2694      5D204D44 
 2694      72765F41 
 2694      55445F52 
 2694      65616450 
 2695 002d 000000   		.space	3
 2696              	.LC11:
 2697 0030 5B415544 		.ascii	"[AUD] MDrv_AUD_ReadPCM: AUDIO_WAIT_OVERRUN_TIME fai"
 2697      5D204D44 
 2697      72765F41 
 2697      55445F52 
 2697      65616450 
 2698 0063 6C65640D 		.ascii	"led\015\012\000"
 2698      0A00
 2699              		.section	.rodata.MDrv_AUD_SetBitWidth.str1.4,"aMS",%progbits,1
 2700              		.align	2
 2701              	.LC2:
 2702 0000 5B415544 		.ascii	"[AUD] MDrv_AUD_SetBitWidth failed\015\012\000"
 2702      5D204D44 
 2702      72765F41 
 2702      55445F53 
 2702      65744269 
 2703              		.section	.rodata.MDrv_AUD_SetMicNo.str1.4,"aMS",%progbits,1
ARM GAS  /tmp/ccxvUIDa.s 			page 73


 2704              		.align	2
 2705              	.LC3:
 2706 0000 5B415544 		.ascii	"[AUD] MDrv_AUD_SetMICNo failed\015\012\000"
 2706      5D204D44 
 2706      72765F41 
 2706      55445F53 
 2706      65744D49 
 2707              		.section	.rodata.MDrv_AUD_SetSampleRate.str1.4,"aMS",%progbits,1
 2708              		.align	2
 2709              	.LC1:
 2710 0000 5B415544 		.ascii	"[AUD] MDrv_AUD_SetSampleRate failed\015\012\000"
 2710      5D204D44 
 2710      72765F41 
 2710      55445F53 
 2710      65745361 
 2711              		.section	.rodata.MDrv_AUD_Start.str1.4,"aMS",%progbits,1
 2712              		.align	2
 2713              	.LC8:
 2714 0000 5B415544 		.ascii	"[AUD] MDrv_AUD_Start: ms = %d\015\012\000"
 2714      5D204D44 
 2714      72765F41 
 2714      55445F53 
 2714      74617274 
 2715              		.section	.rodata.MDrv_AUD_Stop.str1.4,"aMS",%progbits,1
 2716              		.align	2
 2717              	.LC9:
 2718 0000 5B415544 		.ascii	"[AUD] MDrv_AUD_Stop\015\012\000"
 2718      5D204D44 
 2718      72765F41 
 2718      55445F53 
 2718      746F700D 
 2719              		.section	.rodata.NVIC_Handler_AUDIO.str1.4,"aMS",%progbits,1
 2720              		.align	2
 2721              	.LC0:
 2722 0000 5B415544 		.ascii	"[AUD] AUDIO ISR: FULL (STOP), delta = 0x%x\015\012\000"
 2722      5D204155 
 2722      44494F20 
 2722      4953523A 
 2722      2046554C 
 2723              		.text
 2724              	.Letext0:
 2725              		.file 3 "/home/gu/code/freeRTOS10/vendor/mstar/CM4/tools/gcc-arm-none-eabi-8-2018-q4-major/arm-non
 2726              		.file 4 "/home/gu/code/freeRTOS10/vendor/mstar/CM4/tools/gcc-arm-none-eabi-8-2018-q4-major/arm-non
 2727              		.file 5 "/home/gu/code/freeRTOS10/vendor/mstar/CM4/tools/gcc-arm-none-eabi-8-2018-q4-major/arm-non
 2728              		.file 6 "/home/gu/code/freeRTOS10/vendor/mstar/CM4/tools/gcc-arm-none-eabi-8-2018-q4-major/lib/gcc
 2729              		.file 7 "/home/gu/code/freeRTOS10/vendor/mstar/CM4/tools/gcc-arm-none-eabi-8-2018-q4-major/arm-non
 2730              		.file 8 "/home/gu/code/freeRTOS10/vendor/mstar/CM4/tools/gcc-arm-none-eabi-8-2018-q4-major/arm-non
 2731              		.file 9 "/home/gu/code/freeRTOS10/vendor/mstar/CM4/tools/gcc-arm-none-eabi-8-2018-q4-major/arm-non
 2732              		.file 10 "/home/gu/code/freeRTOS10/vendor/mstar/CM4/tools/gcc-arm-none-eabi-8-2018-q4-major/arm-no
 2733              		.file 11 "../../kernel/FreeRTOS/Source/include/queue.h"
 2734              		.file 12 "../../kernel/FreeRTOS/Source/include/semphr.h"
 2735              		.file 13 "../../CMSIS/core_cm4.h"
 2736              		.file 14 "../../peripheral_library/inc/mosWrapper.h"
 2737              		.file 15 "../../peripheral_library/hal/m7221/inc/irq.h"
 2738              		.file 16 "../../peripheral_library/inc/drvAudio.h"
 2739              		.file 17 "../../peripheral_library/hal/m7221/inc/halAudio.h"
 2740              		.file 18 "../../peripheral_library/hal/m7221/inc/halUART.h"
ARM GAS  /tmp/ccxvUIDa.s 			page 74


 2741              		.file 19 "../../kernel/FreeRTOS/Source/include/task.h"
 2742              		.file 20 "/home/gu/code/freeRTOS10/vendor/mstar/CM4/tools/gcc-arm-none-eabi-8-2018-q4-major/arm-no