ARM GAS  /tmp/ccyfu2Nq.s 			page 1


   1              		.cpu cortex-m4
   2              		.eabi_attribute 27, 1	@ Tag_ABI_HardFP_use
   3              		.eabi_attribute 20, 1	@ Tag_ABI_FP_denormal
   4              		.eabi_attribute 21, 1	@ Tag_ABI_FP_exceptions
   5              		.eabi_attribute 23, 3	@ Tag_ABI_FP_number_model
   6              		.eabi_attribute 24, 1	@ Tag_ABI_align8_needed
   7              		.eabi_attribute 25, 1	@ Tag_ABI_align8_preserved
   8              		.eabi_attribute 26, 1	@ Tag_ABI_enum_size
   9              		.eabi_attribute 30, 2	@ Tag_ABI_optimization_goals
  10              		.eabi_attribute 34, 1	@ Tag_CPU_unaligned_access
  11              		.eabi_attribute 18, 4	@ Tag_ABI_PCS_wchar_t
  12              		.file	"drvPM.c"
  13              	@ GNU C89 (GNU Tools for Arm Embedded Processors 8-2018-q4-major) version 8.2.1 20181213 (release) 
  14              	@	compiled by GNU C version 4.8.4, GMP version 6.1.0, MPFR version 3.1.4, MPC version 1.0.3, isl ve
  15              	
  16              	@ GGC heuristics: --param ggc-min-expand=96 --param ggc-min-heapsize=125422
  17              	@ options passed:  -isystem =/include/newlib-nano -I . -I .
  18              	@ -I ../../kernel/FreeRTOS/Source/include
  19              	@ -I ../../kernel/FreeRTOS/Source/portable/GCC/ARM_CM4F
  20              	@ -I ../../kernel/FreeRTOS/Demo/Common/include
  21              	@ -I ../../kernel/FreeRTOS-Plus/Source/FreeRTOS-Plus-CLI
  22              	@ -I ../../peripheral_library/inc -I ../../peripheral_library/hal/m7221/inc
  23              	@ -I ../../CMSIS -I ../../main_full -I ../../3rd/rokid/./ -I /.
  24              	@ -I /../../kernel/FreeRTOS/Source/include
  25              	@ -I /../../kernel/FreeRTOS/Source/portable/GCC/ARM_CM4F
  26              	@ -I /../../kernel/FreeRTOS/Demo/Common/include
  27              	@ -I /../../kernel/FreeRTOS-Plus/Source/FreeRTOS-Plus-CLI
  28              	@ -I /../../peripheral_library/inc
  29              	@ -I /../../peripheral_library/hal/m7221/inc -I /../../CMSIS
  30              	@ -I /../../main_full -I /../../3rd/rokid/./
  31              	@ -imultilib thumb/v7e-m+fp/softfp
  32              	@ -iprefix /home/gu/code/freeRTOS10/vendor/mstar/CM4/tools/gcc-arm-none-eabi-8-2018-q4-major/bin/..
  33              	@ -isysroot /home/gu/code/freeRTOS10/vendor/mstar/CM4/tools/gcc-arm-none-eabi-8-2018-q4-major/bin/.
  34              	@ -MD out/drvPM.d -MF out/drvPM.d -MP -MQ out/drvPM.o -D__USES_INITFINI__
  35              	@ -D CONFIG_BENCH=0 -D CONFIG_SYS_DBG_LEVEL=0xFFFFFFFF -D CONFIG_VOC_MIC=6
  36              	@ -D CONFIG_AUD_I2S -D CONFIG_AUD_AEC -D CONFIG_VOC_MIC_MAPPING
  37              	@ -D CONFIG_VOC_SWHPF -D CONFIG_VOC_SW_SRC48K -D ARM_MATH_CM4
  38              	@ -D BOOTROM_VERSION_ASIC ../../peripheral_library/drv/drvPM.c
  39              	@ -mcpu=cortex-m4 -mthumb -mthumb-interwork -mfloat-abi=softfp
  40              	@ -mfpu=fpv4-sp-d16 -march=armv7e-m+fp -auxbase-strip out/drvPM.o -g -ggdb3
  41              	@ -O3 -Wall -Wstrict-prototypes -Wextra -std=gnu90 -ffunction-sections
  42              	@ -fdata-sections -fno-builtin-printf -fverbose-asm
  43              	@ options enabled:  -faggressive-loop-optimizations -falign-jumps
  44              	@ -falign-labels -falign-loops -fauto-inc-dec -fbranch-count-reg
  45              	@ -fcaller-saves -fchkp-check-incomplete-type -fchkp-check-read
  46              	@ -fchkp-check-write -fchkp-instrument-calls -fchkp-narrow-bounds
  47              	@ -fchkp-optimize -fchkp-store-bounds -fchkp-use-static-bounds
  48              	@ -fchkp-use-static-const-bounds -fchkp-use-wrappers -fcode-hoisting
  49              	@ -fcombine-stack-adjustments -fcommon -fcompare-elim -fcprop-registers
  50              	@ -fcrossjumping -fcse-follow-jumps -fdata-sections -fdefer-pop
  51              	@ -fdelete-null-pointer-checks -fdevirtualize -fdevirtualize-speculatively
  52              	@ -fdwarf2-cfi-asm -fearly-inlining -feliminate-unused-debug-types
  53              	@ -fexpensive-optimizations -fforward-propagate -ffp-int-builtin-inexact
  54              	@ -ffunction-cse -ffunction-sections -fgcse -fgcse-after-reload -fgcse-lm
  55              	@ -fgnu-runtime -fgnu-unique -fguess-branch-probability
  56              	@ -fhoist-adjacent-loads -fident -fif-conversion -fif-conversion2
  57              	@ -findirect-inlining -finline -finline-atomics -finline-functions
ARM GAS  /tmp/ccyfu2Nq.s 			page 2


  58              	@ -finline-functions-called-once -finline-small-functions -fipa-bit-cp
  59              	@ -fipa-cp -fipa-cp-clone -fipa-icf -fipa-icf-functions -fipa-icf-variables
  60              	@ -fipa-profile -fipa-pure-const -fipa-ra -fipa-reference -fipa-sra
  61              	@ -fipa-vrp -fira-hoist-pressure -fira-share-save-slots
  62              	@ -fira-share-spill-slots -fisolate-erroneous-paths-dereference -fivopts
  63              	@ -fkeep-static-consts -fleading-underscore -flifetime-dse
  64              	@ -floop-interchange -floop-unroll-and-jam -flra-remat
  65              	@ -flto-odr-type-merging -fmath-errno -fmerge-constants
  66              	@ -fmerge-debug-strings -fmove-loop-invariants -fomit-frame-pointer
  67              	@ -foptimize-sibling-calls -foptimize-strlen -fpartial-inlining
  68              	@ -fpeel-loops -fpeephole -fpeephole2 -fplt -fpredictive-commoning
  69              	@ -fprefetch-loop-arrays -freg-struct-return -freorder-blocks
  70              	@ -freorder-functions -frerun-cse-after-loop
  71              	@ -fsched-critical-path-heuristic -fsched-dep-count-heuristic
  72              	@ -fsched-group-heuristic -fsched-interblock -fsched-last-insn-heuristic
  73              	@ -fsched-pressure -fsched-rank-heuristic -fsched-spec
  74              	@ -fsched-spec-insn-heuristic -fsched-stalled-insns-dep -fschedule-insns
  75              	@ -fschedule-insns2 -fsection-anchors -fsemantic-interposition
  76              	@ -fshow-column -fshrink-wrap -fshrink-wrap-separate -fsigned-zeros
  77              	@ -fsplit-ivs-in-unroller -fsplit-loops -fsplit-paths -fsplit-wide-types
  78              	@ -fssa-backprop -fssa-phiopt -fstdarg-opt -fstore-merging
  79              	@ -fstrict-aliasing -fstrict-volatile-bitfields -fsync-libcalls
  80              	@ -fthread-jumps -ftoplevel-reorder -ftrapping-math -ftree-bit-ccp
  81              	@ -ftree-builtin-call-dce -ftree-ccp -ftree-ch -ftree-coalesce-vars
  82              	@ -ftree-copy-prop -ftree-cselim -ftree-dce -ftree-dominator-opts
  83              	@ -ftree-dse -ftree-forwprop -ftree-fre -ftree-loop-distribute-patterns
  84              	@ -ftree-loop-distribution -ftree-loop-if-convert -ftree-loop-im
  85              	@ -ftree-loop-ivcanon -ftree-loop-optimize -ftree-loop-vectorize
  86              	@ -ftree-parallelize-loops= -ftree-partial-pre -ftree-phiprop -ftree-pre
  87              	@ -ftree-pta -ftree-reassoc -ftree-scev-cprop -ftree-sink
  88              	@ -ftree-slp-vectorize -ftree-slsr -ftree-sra -ftree-switch-conversion
  89              	@ -ftree-tail-merge -ftree-ter -ftree-vrp -funit-at-a-time -funswitch-loops
  90              	@ -fvar-tracking -fvar-tracking-assignments -fverbose-asm
  91              	@ -fzero-initialized-in-bss -masm-syntax-unified -mbe32 -mlittle-endian
  92              	@ -mpic-data-is-text-relative -msched-prolog -mthumb -munaligned-access
  93              	@ -mvectorize-with-neon-quad
  94              	
  95              		.text
  96              	.Ltext0:
  97              		.cfi_sections	.debug_frame
  98              		.section	.text.MDrv_PM_Suspend,"ax",%progbits
  99              		.align	1
 100              		.p2align 2,,3
 101              		.global	MDrv_PM_Suspend
 102              		.arch armv7e-m
 103              		.syntax unified
 104              		.thumb
 105              		.thumb_func
 106              		.fpu fpv4-sp-d16
 107              		.type	MDrv_PM_Suspend, %function
 108              	MDrv_PM_Suspend:
 109              	.LFB134:
 110              		.file 1 "../../peripheral_library/drv/drvPM.c"
   1:../../peripheral_library/drv/drvPM.c **** ////////////////////////////////////////////////////////////////////////////////
   2:../../peripheral_library/drv/drvPM.c **** //
   3:../../peripheral_library/drv/drvPM.c **** // Copyright (c) 2018 MStar Semiconductor, Inc.
   4:../../peripheral_library/drv/drvPM.c **** // All rights reserved.
ARM GAS  /tmp/ccyfu2Nq.s 			page 3


   5:../../peripheral_library/drv/drvPM.c **** //
   6:../../peripheral_library/drv/drvPM.c **** // Unless otherwise stipulated in writing, any and all information contained
   7:../../peripheral_library/drv/drvPM.c **** // herein regardless in any format shall remain the sole proprietary of
   8:../../peripheral_library/drv/drvPM.c **** // MStar Semiconductor Inc. and be kept in strict confidence
   9:../../peripheral_library/drv/drvPM.c **** // ("MStar Confidential Information") by the recipient.
  10:../../peripheral_library/drv/drvPM.c **** // Any unauthorized act including without limitation unauthorized disclosure,
  11:../../peripheral_library/drv/drvPM.c **** // copying, use, reproduction, sale, distribution, modification, disassembling,
  12:../../peripheral_library/drv/drvPM.c **** // reverse engineering and compiling of the contents of MStar Confidential
  13:../../peripheral_library/drv/drvPM.c **** // Information is unlawful and strictly prohibited. MStar hereby reserves the
  14:../../peripheral_library/drv/drvPM.c **** // rights to any and all damages, losses, costs and expenses resulting therefrom.
  15:../../peripheral_library/drv/drvPM.c **** //
  16:../../peripheral_library/drv/drvPM.c **** ////////////////////////////////////////////////////////////////////////////////
  17:../../peripheral_library/drv/drvPM.c **** 
  18:../../peripheral_library/drv/drvPM.c **** ///////////////////////////////////////////////////////////////////////////////////////////////////
  19:../../peripheral_library/drv/drvPM.c **** /// @file   drvPM.c
  20:../../peripheral_library/drv/drvPM.c **** /// @brief  MStar Power Management DRV Driver DDI
  21:../../peripheral_library/drv/drvPM.c **** /// @author MStar Semiconductor Inc.
  22:../../peripheral_library/drv/drvPM.c **** /// @attention
  23:../../peripheral_library/drv/drvPM.c **** /// <b><em></em></b>
  24:../../peripheral_library/drv/drvPM.c **** ///////////////////////////////////////////////////////////////////////////////////////////////////
  25:../../peripheral_library/drv/drvPM.c **** 
  26:../../peripheral_library/drv/drvPM.c **** #define _DRV_INTC_C
  27:../../peripheral_library/drv/drvPM.c **** 
  28:../../peripheral_library/drv/drvPM.c **** /* Kernel includes. */
  29:../../peripheral_library/drv/drvPM.c **** #include "mosWrapper.h"
  30:../../peripheral_library/drv/drvPM.c **** 
  31:../../peripheral_library/drv/drvPM.c **** /* driver includes. */
  32:../../peripheral_library/drv/drvPM.c **** #include "drvPM.h"
  33:../../peripheral_library/drv/drvPM.c **** #include "drvMBX.h"
  34:../../peripheral_library/drv/drvPM.c **** #include "halPM.h"
  35:../../peripheral_library/drv/drvPM.c **** #include "halTimer.h"
  36:../../peripheral_library/drv/drvPM.c **** #include "halBDMA.h"
  37:../../peripheral_library/drv/drvPM.c **** #include "halCPU.h"
  38:../../peripheral_library/drv/drvPM.c **** 
  39:../../peripheral_library/drv/drvPM.c **** #define PM_MSG(fmt, args...) MOS_DBG_PRINT(MOS_DBG_LEVEL_PM, "[PM] " fmt, ##args)
  40:../../peripheral_library/drv/drvPM.c **** #define PM_ERROR(fmt, args...) MOS_DBG_ERROR("[PM] " fmt, ##args);
  41:../../peripheral_library/drv/drvPM.c **** 
  42:../../peripheral_library/drv/drvPM.c **** #define PM_INT_PRIORITY		( configLIBRARY_MAX_SYSCALL_INTERRUPT_PRIORITY - 1 )
  43:../../peripheral_library/drv/drvPM.c **** 
  44:../../peripheral_library/drv/drvPM.c **** typedef enum
  45:../../peripheral_library/drv/drvPM.c **** {
  46:../../peripheral_library/drv/drvPM.c ****   E_PM_STATUS_WAKEUP = 0,
  47:../../peripheral_library/drv/drvPM.c ****   E_PM_STATUS_SLEEP,
  48:../../peripheral_library/drv/drvPM.c ****   E_PM_STATUS_MAX = 0xFF,
  49:../../peripheral_library/drv/drvPM.c **** } PM_Status_e;
  50:../../peripheral_library/drv/drvPM.c **** 
  51:../../peripheral_library/drv/drvPM.c **** static PM_Status_e _ePMStatus = E_PM_STATUS_WAKEUP;
  52:../../peripheral_library/drv/drvPM.c **** 
  53:../../peripheral_library/drv/drvPM.c **** #if defined(CONFIG_PM_GPIO)
  54:../../peripheral_library/drv/drvPM.c **** static PM_GPIO_e _ePMGPIOIn = E_PM_GPIO_MAX;
  55:../../peripheral_library/drv/drvPM.c **** static PM_GPIO_e _ePMGPIOOut = E_PM_GPIO_MAX;
  56:../../peripheral_library/drv/drvPM.c **** static BOOL _bPMGPIOInInitHigh;
  57:../../peripheral_library/drv/drvPM.c **** static BOOL _bPMGPIOOutInitHigh;
  58:../../peripheral_library/drv/drvPM.c **** 
  59:../../peripheral_library/drv/drvPM.c **** void NVIC_Handler_PM(void)
  60:../../peripheral_library/drv/drvPM.c **** {
  61:../../peripheral_library/drv/drvPM.c ****   MBX_Msg tMsg;
ARM GAS  /tmp/ccyfu2Nq.s 			page 4


  62:../../peripheral_library/drv/drvPM.c **** 
  63:../../peripheral_library/drv/drvPM.c ****   if (_ePMGPIOIn == E_PM_GPIO_MAX)
  64:../../peripheral_library/drv/drvPM.c ****   {
  65:../../peripheral_library/drv/drvPM.c ****     PM_MSG("NVIC_Handler_PM: Something worng\n");
  66:../../peripheral_library/drv/drvPM.c ****   }
  67:../../peripheral_library/drv/drvPM.c ****   else if (Mhal_PM_GPIO_IN(_ePMGPIOIn)^_bPMGPIOInInitHigh)
  68:../../peripheral_library/drv/drvPM.c ****   {
  69:../../peripheral_library/drv/drvPM.c ****     tMsg.eRoleID = E_MBX_ROLE_CP;
  70:../../peripheral_library/drv/drvPM.c ****     tMsg.u8Index  = E_MBX_MSG_SLEEP;
  71:../../peripheral_library/drv/drvPM.c ****     tMsg.u8ParameterCount = 1;
  72:../../peripheral_library/drv/drvPM.c ****     tMsg.u8Parameters[0] = 0;
  73:../../peripheral_library/drv/drvPM.c ****     MDrv_MBX_SendMsgExt(&tMsg, E_MBX_ROLE_HK);
  74:../../peripheral_library/drv/drvPM.c **** 
  75:../../peripheral_library/drv/drvPM.c ****     PM_MSG("NVIC_Handler_PM: PM GPIO resume\n");
  76:../../peripheral_library/drv/drvPM.c ****   }
  77:../../peripheral_library/drv/drvPM.c ****   else
  78:../../peripheral_library/drv/drvPM.c ****     PM_MSG("NVIC_Handler_PM: do nothing\n");
  79:../../peripheral_library/drv/drvPM.c **** }
  80:../../peripheral_library/drv/drvPM.c **** 
  81:../../peripheral_library/drv/drvPM.c **** BOOL MDrv_PM_GPIO_OEN(PM_GPIO_e eGPIO, BOOL bOEn, BOOL bInitHigh)
  82:../../peripheral_library/drv/drvPM.c **** {
  83:../../peripheral_library/drv/drvPM.c ****   if (eGPIO >= E_PM_GPIO_MAX || eGPIO <= E_PM_GPIO2)
  84:../../peripheral_library/drv/drvPM.c ****     return FALSE;
  85:../../peripheral_library/drv/drvPM.c **** 
  86:../../peripheral_library/drv/drvPM.c ****   if (bOEn)
  87:../../peripheral_library/drv/drvPM.c ****   {
  88:../../peripheral_library/drv/drvPM.c ****     Mhal_PM_GPIO_OEN((U8)eGPIO, 1);
  89:../../peripheral_library/drv/drvPM.c ****     Mhal_PM_GPIO_PULL((U8)eGPIO, (bInitHigh?1:0));
  90:../../peripheral_library/drv/drvPM.c **** 
  91:../../peripheral_library/drv/drvPM.c ****     _ePMGPIOOut = eGPIO;
  92:../../peripheral_library/drv/drvPM.c ****     _bPMGPIOOutInitHigh = bInitHigh;
  93:../../peripheral_library/drv/drvPM.c ****   }
  94:../../peripheral_library/drv/drvPM.c ****   else
  95:../../peripheral_library/drv/drvPM.c ****   {
  96:../../peripheral_library/drv/drvPM.c ****     Mhal_PM_GPIO_OEN((U8)eGPIO, 0);
  97:../../peripheral_library/drv/drvPM.c **** 
  98:../../peripheral_library/drv/drvPM.c ****     MOS_IRQn_AttachIsr(NVIC_Handler_PM, PM_GPIO0_IRQn + eGPIO, PM_INT_PRIORITY);
  99:../../peripheral_library/drv/drvPM.c ****   //  MOS_IRQn_Unmask(PM_GPIO0_IRQn + eGPIO);
 100:../../peripheral_library/drv/drvPM.c **** 
 101:../../peripheral_library/drv/drvPM.c ****     _ePMGPIOIn = eGPIO;
 102:../../peripheral_library/drv/drvPM.c ****     _bPMGPIOInInitHigh = bInitHigh;
 103:../../peripheral_library/drv/drvPM.c ****   }
 104:../../peripheral_library/drv/drvPM.c **** 
 105:../../peripheral_library/drv/drvPM.c ****   PM_MSG("MDrv_PM_GPIO_OEN: GPIO(%d), OEN = %d, Init = %d\n", eGPIO, bOEn, bInitHigh);
 106:../../peripheral_library/drv/drvPM.c **** 
 107:../../peripheral_library/drv/drvPM.c ****   return TRUE;
 108:../../peripheral_library/drv/drvPM.c **** 
 109:../../peripheral_library/drv/drvPM.c **** }
 110:../../peripheral_library/drv/drvPM.c **** #endif
 111:../../peripheral_library/drv/drvPM.c **** 
 112:../../peripheral_library/drv/drvPM.c **** void MDrv_PM_Suspend(void)
 113:../../peripheral_library/drv/drvPM.c **** {
 111              		.loc 1 113 1 view -0
 112              		.cfi_startproc
 113              		@ args = 0, pretend = 0, frame = 0
 114              		@ frame_needed = 0, uses_anonymous_args = 0
 114:../../peripheral_library/drv/drvPM.c ****   //if (_ePMmode == E_PM_MODE_NORMAL)
ARM GAS  /tmp/ccyfu2Nq.s 			page 5


 115:../../peripheral_library/drv/drvPM.c ****   {
 116:../../peripheral_library/drv/drvPM.c ****     if(_ePMStatus == E_PM_STATUS_WAKEUP)
 115              		.loc 1 116 5 view .LVU1
 116              	@ ../../peripheral_library/drv/drvPM.c:113: {
 113:../../peripheral_library/drv/drvPM.c ****   //if (_ePMmode == E_PM_MODE_NORMAL)
 117              		.loc 1 113 1 is_stmt 0 view .LVU2
 118 0000 10B5     		push	{r4, lr}	@
 119              		.cfi_def_cfa_offset 8
 120              		.cfi_offset 4, -8
 121              		.cfi_offset 14, -4
 122              	@ ../../peripheral_library/drv/drvPM.c:116:     if(_ePMStatus == E_PM_STATUS_WAKEUP)
 123              		.loc 1 116 19 view .LVU3
 124 0002 0A4C     		ldr	r4, .L11	@ tmp114,
 125              	@ ../../peripheral_library/drv/drvPM.c:116:     if(_ePMStatus == E_PM_STATUS_WAKEUP)
 126              		.loc 1 116 7 view .LVU4
 127 0004 2378     		ldrb	r3, [r4]	@ zero_extendqisi2	@ _ePMStatus, _ePMStatus
 128 0006 03B1     		cbz	r3, .L10	@ _ePMStatus,
 129              	.L1:
 130              	@ ../../peripheral_library/drv/drvPM.c:143: }
 117:../../peripheral_library/drv/drvPM.c ****     {
 118:../../peripheral_library/drv/drvPM.c ****       Mhal_PM_Suspend();
 119:../../peripheral_library/drv/drvPM.c **** 
 120:../../peripheral_library/drv/drvPM.c **** #if defined(CONFIG_PM_GPIO)
 121:../../peripheral_library/drv/drvPM.c ****       if (_ePMGPIOOut != E_PM_GPIO_MAX)
 122:../../peripheral_library/drv/drvPM.c ****       {
 123:../../peripheral_library/drv/drvPM.c ****         Mhal_PM_GPIO_OEN((U8)_ePMGPIOOut, 1);
 124:../../peripheral_library/drv/drvPM.c **** #if defined(CONFIG_PM_GPIO_CUST)
 125:../../peripheral_library/drv/drvPM.c ****         Mhal_PM_GPIO_PULL((U8)_ePMGPIOOut, (_bPMGPIOOutInitHigh? 1: 0));
 126:../../peripheral_library/drv/drvPM.c **** #else
 127:../../peripheral_library/drv/drvPM.c ****         Mhal_PM_GPIO_PULL((U8)_ePMGPIOOut, (_bPMGPIOOutInitHigh? 0: 1));
 128:../../peripheral_library/drv/drvPM.c **** #endif
 129:../../peripheral_library/drv/drvPM.c ****       }
 130:../../peripheral_library/drv/drvPM.c **** 
 131:../../peripheral_library/drv/drvPM.c ****       if(_ePMGPIOIn != E_PM_GPIO_MAX)
 132:../../peripheral_library/drv/drvPM.c ****       {
 133:../../peripheral_library/drv/drvPM.c ****         MOS_IRQn_Unmask(PM_GPIO0_IRQn + _ePMGPIOIn);
 134:../../peripheral_library/drv/drvPM.c ****       }
 135:../../peripheral_library/drv/drvPM.c **** #endif
 136:../../peripheral_library/drv/drvPM.c **** 
 137:../../peripheral_library/drv/drvPM.c ****       _ePMStatus = E_PM_STATUS_SLEEP;
 138:../../peripheral_library/drv/drvPM.c **** 
 139:../../peripheral_library/drv/drvPM.c ****       //PM_MSG("MDrv_PM_Suspend: Suspend ACPU (%d)\n", MHal_Timer_GetTick()/TIMER_DELAY_1ms);
 140:../../peripheral_library/drv/drvPM.c ****       PM_MSG("MDrv_PM_Suspend: Suspend ACPU (%d)\r\n",xTaskGetTickCount()*portTICK_PERIOD_MS);
 141:../../peripheral_library/drv/drvPM.c ****     }
 142:../../peripheral_library/drv/drvPM.c ****   }
 143:../../peripheral_library/drv/drvPM.c **** }
 131              		.loc 1 143 1 view .LVU5
 132 0008 10BD     		pop	{r4, pc}	@
 133              	.L10:
 118:../../peripheral_library/drv/drvPM.c **** 
 134              		.loc 1 118 7 is_stmt 1 view .LVU6
 135 000a FFF7FEFF 		bl	Mhal_PM_Suspend		@
 136              	.LVL0:
 137:../../peripheral_library/drv/drvPM.c **** 
 137              		.loc 1 137 7 view .LVU7
 138              	@ ../../peripheral_library/drv/drvPM.c:140:       PM_MSG("MDrv_PM_Suspend: Suspend ACPU (%d)\r\n",x
 140:../../peripheral_library/drv/drvPM.c ****     }
ARM GAS  /tmp/ccyfu2Nq.s 			page 6


 139              		.loc 1 140 7 is_stmt 0 view .LVU8
 140 000e 084B     		ldr	r3, .L11+4	@ tmp119,
 141 0010 1B68     		ldr	r3, [r3]	@ gu32MosDbgLevel, gu32MosDbgLevel
 142              	@ ../../peripheral_library/drv/drvPM.c:137:       _ePMStatus = E_PM_STATUS_SLEEP;
 137:../../peripheral_library/drv/drvPM.c **** 
 143              		.loc 1 137 18 view .LVU9
 144 0012 0122     		movs	r2, #1	@ tmp117,
 145              	@ ../../peripheral_library/drv/drvPM.c:140:       PM_MSG("MDrv_PM_Suspend: Suspend ACPU (%d)\r\n",x
 140:../../peripheral_library/drv/drvPM.c ****     }
 146              		.loc 1 140 7 view .LVU10
 147 0014 9B02     		lsls	r3, r3, #10	@, gu32MosDbgLevel,
 148              	@ ../../peripheral_library/drv/drvPM.c:137:       _ePMStatus = E_PM_STATUS_SLEEP;
 137:../../peripheral_library/drv/drvPM.c **** 
 149              		.loc 1 137 18 view .LVU11
 150 0016 2270     		strb	r2, [r4]	@ tmp117, _ePMStatus
 140:../../peripheral_library/drv/drvPM.c ****     }
 151              		.loc 1 140 7 is_stmt 1 view .LVU12
 152 0018 F6D5     		bpl	.L1		@,
 140:../../peripheral_library/drv/drvPM.c ****     }
 153              		.loc 1 140 7 discriminator 1 view .LVU13
 154 001a FFF7FEFF 		bl	xTaskGetTickCount		@
 155              	.LVL1:
 156              	@ ../../peripheral_library/drv/drvPM.c:143: }
 157              		.loc 1 143 1 is_stmt 0 discriminator 1 view .LVU14
 158 001e BDE81040 		pop	{r4, lr}	@
 159              		.cfi_restore 14
 160              		.cfi_restore 4
 161              		.cfi_def_cfa_offset 0
 162              	@ ../../peripheral_library/drv/drvPM.c:140:       PM_MSG("MDrv_PM_Suspend: Suspend ACPU (%d)\r\n",x
 140:../../peripheral_library/drv/drvPM.c ****     }
 163              		.loc 1 140 7 discriminator 1 view .LVU15
 164 0022 0146     		mov	r1, r0	@,
 165 0024 0348     		ldr	r0, .L11+8	@,
 166 0026 FFF7FEBF 		b	UartSendTrace		@
 167              	.LVL2:
 168              	.L12:
 169 002a 00BF     		.align	2
 170              	.L11:
 171 002c 00000000 		.word	.LANCHOR0
 172 0030 00000000 		.word	gu32MosDbgLevel
 173 0034 00000000 		.word	.LC0
 174              		.cfi_endproc
 175              	.LFE134:
 176              		.size	MDrv_PM_Suspend, .-MDrv_PM_Suspend
 177              		.section	.text.MDrv_PM_Resume,"ax",%progbits
 178              		.align	1
 179              		.p2align 2,,3
 180              		.global	MDrv_PM_Resume
 181              		.syntax unified
 182              		.thumb
 183              		.thumb_func
 184              		.fpu fpv4-sp-d16
 185              		.type	MDrv_PM_Resume, %function
 186              	MDrv_PM_Resume:
 187              	.LFB135:
 144:../../peripheral_library/drv/drvPM.c **** 
 145:../../peripheral_library/drv/drvPM.c **** void MDrv_PM_Resume(void)
ARM GAS  /tmp/ccyfu2Nq.s 			page 7


 146:../../peripheral_library/drv/drvPM.c **** {
 188              		.loc 1 146 1 is_stmt 1 view -0
 189              		.cfi_startproc
 190              		@ args = 0, pretend = 0, frame = 0
 191              		@ frame_needed = 0, uses_anonymous_args = 0
 147:../../peripheral_library/drv/drvPM.c ****   //if (_ePMmode == E_PM_MODE_NORMAL)
 148:../../peripheral_library/drv/drvPM.c ****   {
 149:../../peripheral_library/drv/drvPM.c ****     if(_ePMStatus == E_PM_STATUS_SLEEP)
 192              		.loc 1 149 5 view .LVU17
 193              	@ ../../peripheral_library/drv/drvPM.c:146: {
 146:../../peripheral_library/drv/drvPM.c ****   //if (_ePMmode == E_PM_MODE_NORMAL)
 194              		.loc 1 146 1 is_stmt 0 view .LVU18
 195 0000 10B5     		push	{r4, lr}	@
 196              		.cfi_def_cfa_offset 8
 197              		.cfi_offset 4, -8
 198              		.cfi_offset 14, -4
 199              	@ ../../peripheral_library/drv/drvPM.c:149:     if(_ePMStatus == E_PM_STATUS_SLEEP)
 200              		.loc 1 149 19 view .LVU19
 201 0002 0B4C     		ldr	r4, .L22	@ tmp114,
 202              	@ ../../peripheral_library/drv/drvPM.c:149:     if(_ePMStatus == E_PM_STATUS_SLEEP)
 203              		.loc 1 149 7 view .LVU20
 204 0004 2378     		ldrb	r3, [r4]	@ zero_extendqisi2	@ _ePMStatus, _ePMStatus
 205 0006 012B     		cmp	r3, #1	@ _ePMStatus,
 206 0008 00D0     		beq	.L21		@,
 207              	.L13:
 208              	@ ../../peripheral_library/drv/drvPM.c:178: }
 150:../../peripheral_library/drv/drvPM.c ****     {
 151:../../peripheral_library/drv/drvPM.c ****       Mhal_PM_Resume();
 152:../../peripheral_library/drv/drvPM.c ****       MHal_BDMA_Resume(); //restore cm4 bdma
 153:../../peripheral_library/drv/drvPM.c **** 
 154:../../peripheral_library/drv/drvPM.c **** #if defined(CONFIG_PM_GPIO)
 155:../../peripheral_library/drv/drvPM.c ****       if (_ePMGPIOOut != E_PM_GPIO_MAX)
 156:../../peripheral_library/drv/drvPM.c ****       {
 157:../../peripheral_library/drv/drvPM.c ****         Mhal_PM_GPIO_OEN((U8)_ePMGPIOOut, 1);
 158:../../peripheral_library/drv/drvPM.c **** #if defined(CONFIG_PM_GPIO_CUST)
 159:../../peripheral_library/drv/drvPM.c ****         Mhal_PM_GPIO_PULL((U8)_ePMGPIOOut, (_bPMGPIOOutInitHigh? 0: 1));
 160:../../peripheral_library/drv/drvPM.c **** #else
 161:../../peripheral_library/drv/drvPM.c ****         Mhal_PM_GPIO_PULL((U8)_ePMGPIOOut, (_bPMGPIOOutInitHigh? 1: 0));
 162:../../peripheral_library/drv/drvPM.c **** #endif
 163:../../peripheral_library/drv/drvPM.c ****       }
 164:../../peripheral_library/drv/drvPM.c **** 
 165:../../peripheral_library/drv/drvPM.c ****       if(_ePMGPIOIn != E_PM_GPIO_MAX)
 166:../../peripheral_library/drv/drvPM.c ****       {
 167:../../peripheral_library/drv/drvPM.c ****         MOS_IRQn_Mask(PM_GPIO0_IRQn + _ePMGPIOIn);
 168:../../peripheral_library/drv/drvPM.c ****       }
 169:../../peripheral_library/drv/drvPM.c **** #endif
 170:../../peripheral_library/drv/drvPM.c **** 
 171:../../peripheral_library/drv/drvPM.c **** 
 172:../../peripheral_library/drv/drvPM.c ****       _ePMStatus = E_PM_STATUS_WAKEUP;
 173:../../peripheral_library/drv/drvPM.c **** 
 174:../../peripheral_library/drv/drvPM.c ****       //PM_MSG("MDrv_PM_Resume: Resume ACPU (%d)\n", MHal_Timer_GetTick()/TIMER_DELAY_1ms);
 175:../../peripheral_library/drv/drvPM.c ****       PM_MSG("MDrv_PM_Resume: Resume ACPU (%d)\r\n",xTaskGetTickCount()*portTICK_PERIOD_MS);
 176:../../peripheral_library/drv/drvPM.c ****     }
 177:../../peripheral_library/drv/drvPM.c ****   }
 178:../../peripheral_library/drv/drvPM.c **** }
 209              		.loc 1 178 1 view .LVU21
 210 000a 10BD     		pop	{r4, pc}	@
ARM GAS  /tmp/ccyfu2Nq.s 			page 8


 211              	.L21:
 151:../../peripheral_library/drv/drvPM.c ****       MHal_BDMA_Resume(); //restore cm4 bdma
 212              		.loc 1 151 7 is_stmt 1 view .LVU22
 213 000c FFF7FEFF 		bl	Mhal_PM_Resume		@
 214              	.LVL3:
 152:../../peripheral_library/drv/drvPM.c **** 
 215              		.loc 1 152 7 view .LVU23
 216 0010 FFF7FEFF 		bl	MHal_BDMA_Resume		@
 217              	.LVL4:
 172:../../peripheral_library/drv/drvPM.c **** 
 218              		.loc 1 172 7 view .LVU24
 219              	@ ../../peripheral_library/drv/drvPM.c:175:       PM_MSG("MDrv_PM_Resume: Resume ACPU (%d)\r\n",xTa
 175:../../peripheral_library/drv/drvPM.c ****     }
 220              		.loc 1 175 7 is_stmt 0 view .LVU25
 221 0014 074B     		ldr	r3, .L22+4	@ tmp119,
 222 0016 1B68     		ldr	r3, [r3]	@ gu32MosDbgLevel, gu32MosDbgLevel
 223              	@ ../../peripheral_library/drv/drvPM.c:172:       _ePMStatus = E_PM_STATUS_WAKEUP;
 172:../../peripheral_library/drv/drvPM.c **** 
 224              		.loc 1 172 18 view .LVU26
 225 0018 0022     		movs	r2, #0	@ tmp117,
 226              	@ ../../peripheral_library/drv/drvPM.c:175:       PM_MSG("MDrv_PM_Resume: Resume ACPU (%d)\r\n",xTa
 175:../../peripheral_library/drv/drvPM.c ****     }
 227              		.loc 1 175 7 view .LVU27
 228 001a 9B02     		lsls	r3, r3, #10	@, gu32MosDbgLevel,
 229              	@ ../../peripheral_library/drv/drvPM.c:172:       _ePMStatus = E_PM_STATUS_WAKEUP;
 172:../../peripheral_library/drv/drvPM.c **** 
 230              		.loc 1 172 18 view .LVU28
 231 001c 2270     		strb	r2, [r4]	@ tmp117, _ePMStatus
 175:../../peripheral_library/drv/drvPM.c ****     }
 232              		.loc 1 175 7 is_stmt 1 view .LVU29
 233 001e F4D5     		bpl	.L13		@,
 175:../../peripheral_library/drv/drvPM.c ****     }
 234              		.loc 1 175 7 discriminator 1 view .LVU30
 235 0020 FFF7FEFF 		bl	xTaskGetTickCount		@
 236              	.LVL5:
 237              	@ ../../peripheral_library/drv/drvPM.c:178: }
 238              		.loc 1 178 1 is_stmt 0 discriminator 1 view .LVU31
 239 0024 BDE81040 		pop	{r4, lr}	@
 240              		.cfi_restore 14
 241              		.cfi_restore 4
 242              		.cfi_def_cfa_offset 0
 243              	@ ../../peripheral_library/drv/drvPM.c:175:       PM_MSG("MDrv_PM_Resume: Resume ACPU (%d)\r\n",xTa
 175:../../peripheral_library/drv/drvPM.c ****     }
 244              		.loc 1 175 7 discriminator 1 view .LVU32
 245 0028 0146     		mov	r1, r0	@,
 246 002a 0348     		ldr	r0, .L22+8	@,
 247 002c FFF7FEBF 		b	UartSendTrace		@
 248              	.LVL6:
 249              	.L23:
 250              		.align	2
 251              	.L22:
 252 0030 00000000 		.word	.LANCHOR0
 253 0034 00000000 		.word	gu32MosDbgLevel
 254 0038 00000000 		.word	.LC1
 255              		.cfi_endproc
 256              	.LFE135:
 257              		.size	MDrv_PM_Resume, .-MDrv_PM_Resume
ARM GAS  /tmp/ccyfu2Nq.s 			page 9


 258              		.section	.text.MDrv_PM_LowPower,"ax",%progbits
 259              		.align	1
 260              		.p2align 2,,3
 261              		.global	MDrv_PM_LowPower
 262              		.syntax unified
 263              		.thumb
 264              		.thumb_func
 265              		.fpu fpv4-sp-d16
 266              		.type	MDrv_PM_LowPower, %function
 267              	MDrv_PM_LowPower:
 268              	.LFB136:
 179:../../peripheral_library/drv/drvPM.c **** 
 180:../../peripheral_library/drv/drvPM.c **** void MDrv_PM_LowPower(void)
 181:../../peripheral_library/drv/drvPM.c **** {
 269              		.loc 1 181 1 is_stmt 1 view -0
 270              		.cfi_startproc
 271              		@ args = 0, pretend = 0, frame = 0
 272              		@ frame_needed = 0, uses_anonymous_args = 0
 273              		@ link register save eliminated.
 182:../../peripheral_library/drv/drvPM.c ****   //PM_MSG("MDrv_PM_LowPower: \r\n");
 183:../../peripheral_library/drv/drvPM.c ****   //MHAL_AUD_LowPower();
 184:../../peripheral_library/drv/drvPM.c ****   MHal_CPU_SetFreq(E_CPU_FREQ_LOW);
 274              		.loc 1 184 3 view .LVU34
 275 0000 0120     		movs	r0, #1	@,
 276 0002 FFF7FEBF 		b	MHal_CPU_SetFreq		@
 277              	.LVL7:
 278              		.cfi_endproc
 279              	.LFE136:
 280              		.size	MDrv_PM_LowPower, .-MDrv_PM_LowPower
 281 0006 00BF     		.section	.text.MDrv_PM_HighPower,"ax",%progbits
 282              		.align	1
 283              		.p2align 2,,3
 284              		.global	MDrv_PM_HighPower
 285              		.syntax unified
 286              		.thumb
 287              		.thumb_func
 288              		.fpu fpv4-sp-d16
 289              		.type	MDrv_PM_HighPower, %function
 290              	MDrv_PM_HighPower:
 291              	.LFB137:
 185:../../peripheral_library/drv/drvPM.c **** }
 186:../../peripheral_library/drv/drvPM.c **** 
 187:../../peripheral_library/drv/drvPM.c **** void MDrv_PM_HighPower(void)
 188:../../peripheral_library/drv/drvPM.c **** {
 292              		.loc 1 188 1 view -0
 293              		.cfi_startproc
 294              		@ args = 0, pretend = 0, frame = 0
 295              		@ frame_needed = 0, uses_anonymous_args = 0
 296              		@ link register save eliminated.
 189:../../peripheral_library/drv/drvPM.c ****   //PM_MSG("MDrv_PM_HighPower: \r\n");
 190:../../peripheral_library/drv/drvPM.c ****   //MHAL_AUD_HighPower();
 191:../../peripheral_library/drv/drvPM.c ****   MHal_CPU_SetFreq(E_CPU_FREQ_HIGH);
 297              		.loc 1 191 3 view .LVU36
 298 0000 0220     		movs	r0, #2	@,
 299 0002 FFF7FEBF 		b	MHal_CPU_SetFreq		@
 300              	.LVL8:
 301              		.cfi_endproc
ARM GAS  /tmp/ccyfu2Nq.s 			page 10


 302              	.LFE137:
 303              		.size	MDrv_PM_HighPower, .-MDrv_PM_HighPower
 304 0006 00BF     		.section	.bss._ePMStatus,"aw",%nobits
 305              		.set	.LANCHOR0,. + 0
 306              		.type	_ePMStatus, %object
 307              		.size	_ePMStatus, 1
 308              	_ePMStatus:
 309 0000 00       		.space	1
 310              		.section	.rodata.MDrv_PM_Resume.str1.4,"aMS",%progbits,1
 311              		.align	2
 312              	.LC1:
 313 0000 5B504D5D 		.ascii	"[PM] MDrv_PM_Resume: Resume ACPU (%d)\015\012\000"
 313      204D4472 
 313      765F504D 
 313      5F526573 
 313      756D653A 
 314              		.section	.rodata.MDrv_PM_Suspend.str1.4,"aMS",%progbits,1
 315              		.align	2
 316              	.LC0:
 317 0000 5B504D5D 		.ascii	"[PM] MDrv_PM_Suspend: Suspend ACPU (%d)\015\012\000"
 317      204D4472 
 317      765F504D 
 317      5F537573 
 317      70656E64 
 318              		.text
 319              	.Letext0:
 320              		.file 2 "/home/gu/code/freeRTOS10/vendor/mstar/CM4/tools/gcc-arm-none-eabi-8-2018-q4-major/arm-non
 321              		.file 3 "/home/gu/code/freeRTOS10/vendor/mstar/CM4/tools/gcc-arm-none-eabi-8-2018-q4-major/arm-non
 322              		.file 4 "/home/gu/code/freeRTOS10/vendor/mstar/CM4/tools/gcc-arm-none-eabi-8-2018-q4-major/arm-non
 323              		.file 5 "/home/gu/code/freeRTOS10/vendor/mstar/CM4/tools/gcc-arm-none-eabi-8-2018-q4-major/lib/gcc
 324              		.file 6 "/home/gu/code/freeRTOS10/vendor/mstar/CM4/tools/gcc-arm-none-eabi-8-2018-q4-major/arm-non
 325              		.file 7 "/home/gu/code/freeRTOS10/vendor/mstar/CM4/tools/gcc-arm-none-eabi-8-2018-q4-major/arm-non
 326              		.file 8 "/home/gu/code/freeRTOS10/vendor/mstar/CM4/tools/gcc-arm-none-eabi-8-2018-q4-major/arm-non
 327              		.file 9 "/home/gu/code/freeRTOS10/vendor/mstar/CM4/tools/gcc-arm-none-eabi-8-2018-q4-major/arm-non
 328              		.file 10 "../../kernel/FreeRTOS/Source/portable/GCC/ARM_CM4F/portmacro.h"
 329              		.file 11 "../../CMSIS/core_cm4.h"
 330              		.file 12 "../../peripheral_library/inc/mosWrapper.h"
 331              		.file 13 "../../peripheral_library/inc/drvCPU.h"
 332              		.file 14 "../../peripheral_library/hal/m7221/inc/halCPU.h"
 333              		.file 15 "../../peripheral_library/hal/m7221/inc/halPM.h"
 334              		.file 16 "../../peripheral_library/hal/m7221/inc/halBDMA.h"
 335              		.file 17 "../../kernel/FreeRTOS/Source/include/task.h"
 336              		.file 18 "../../peripheral_library/hal/m7221/inc/halUART.h"