ARM GAS  /tmp/ccQFS2IS.s 			page 1


   1              		.cpu cortex-m4
   2              		.eabi_attribute 27, 1	@ Tag_ABI_HardFP_use
   3              		.eabi_attribute 20, 1	@ Tag_ABI_FP_denormal
   4              		.eabi_attribute 21, 1	@ Tag_ABI_FP_exceptions
   5              		.eabi_attribute 23, 3	@ Tag_ABI_FP_number_model
   6              		.eabi_attribute 24, 1	@ Tag_ABI_align8_needed
   7              		.eabi_attribute 25, 1	@ Tag_ABI_align8_preserved
   8              		.eabi_attribute 26, 1	@ Tag_ABI_enum_size
   9              		.eabi_attribute 30, 2	@ Tag_ABI_optimization_goals
  10              		.eabi_attribute 34, 1	@ Tag_CPU_unaligned_access
  11              		.eabi_attribute 18, 4	@ Tag_ABI_PCS_wchar_t
  12              		.file	"drvSerial.c"
  13              	@ GNU C89 (GNU Tools for Arm Embedded Processors 8-2018-q4-major) version 8.2.1 20181213 (release) 
  14              	@	compiled by GNU C version 4.8.4, GMP version 6.1.0, MPFR version 3.1.4, MPC version 1.0.3, isl ve
  15              	
  16              	@ GGC heuristics: --param ggc-min-expand=96 --param ggc-min-heapsize=125422
  17              	@ options passed:  -isystem =/include/newlib-nano -I . -I .
  18              	@ -I ../../kernel/FreeRTOS/Source/include
  19              	@ -I ../../kernel/FreeRTOS/Source/portable/GCC/ARM_CM4F
  20              	@ -I ../../kernel/FreeRTOS/Demo/Common/include
  21              	@ -I ../../kernel/FreeRTOS-Plus/Source/FreeRTOS-Plus-CLI
  22              	@ -I ../../peripheral_library/inc -I ../../peripheral_library/hal/m7221/inc
  23              	@ -I ../../CMSIS -I ../../main_full -I ../../3rd/rokid/./ -I /.
  24              	@ -I /../../kernel/FreeRTOS/Source/include
  25              	@ -I /../../kernel/FreeRTOS/Source/portable/GCC/ARM_CM4F
  26              	@ -I /../../kernel/FreeRTOS/Demo/Common/include
  27              	@ -I /../../kernel/FreeRTOS-Plus/Source/FreeRTOS-Plus-CLI
  28              	@ -I /../../peripheral_library/inc
  29              	@ -I /../../peripheral_library/hal/m7221/inc -I /../../CMSIS
  30              	@ -I /../../main_full -I /../../3rd/rokid/./
  31              	@ -imultilib thumb/v7e-m+fp/softfp
  32              	@ -iprefix /home/gu/code/freeRTOS10/vendor/mstar/CM4/tools/gcc-arm-none-eabi-8-2018-q4-major/bin/..
  33              	@ -isysroot /home/gu/code/freeRTOS10/vendor/mstar/CM4/tools/gcc-arm-none-eabi-8-2018-q4-major/bin/.
  34              	@ -MD out/drvSerial.d -MF out/drvSerial.d -MP -MQ out/drvSerial.o
  35              	@ -D__USES_INITFINI__ -D CONFIG_BENCH=0 -D CONFIG_SYS_DBG_LEVEL=0xFFFFFFFF
  36              	@ -D CONFIG_VOC_MIC=6 -D CONFIG_AUD_I2S -D CONFIG_AUD_AEC
  37              	@ -D CONFIG_VOC_MIC_MAPPING -D CONFIG_VOC_SWHPF -D CONFIG_VOC_SW_SRC48K
  38              	@ -D ARM_MATH_CM4 -D BOOTROM_VERSION_ASIC
  39              	@ ../../peripheral_library/drv/drvSerial.c -mcpu=cortex-m4 -mthumb
  40              	@ -mthumb-interwork -mfloat-abi=softfp -mfpu=fpv4-sp-d16 -march=armv7e-m+fp
  41              	@ -auxbase-strip out/drvSerial.o -g -ggdb3 -O3 -Wall -Wstrict-prototypes
  42              	@ -Wextra -std=gnu90 -ffunction-sections -fdata-sections
  43              	@ -fno-builtin-printf -fverbose-asm
  44              	@ options enabled:  -faggressive-loop-optimizations -falign-jumps
  45              	@ -falign-labels -falign-loops -fauto-inc-dec -fbranch-count-reg
  46              	@ -fcaller-saves -fchkp-check-incomplete-type -fchkp-check-read
  47              	@ -fchkp-check-write -fchkp-instrument-calls -fchkp-narrow-bounds
  48              	@ -fchkp-optimize -fchkp-store-bounds -fchkp-use-static-bounds
  49              	@ -fchkp-use-static-const-bounds -fchkp-use-wrappers -fcode-hoisting
  50              	@ -fcombine-stack-adjustments -fcommon -fcompare-elim -fcprop-registers
  51              	@ -fcrossjumping -fcse-follow-jumps -fdata-sections -fdefer-pop
  52              	@ -fdelete-null-pointer-checks -fdevirtualize -fdevirtualize-speculatively
  53              	@ -fdwarf2-cfi-asm -fearly-inlining -feliminate-unused-debug-types
  54              	@ -fexpensive-optimizations -fforward-propagate -ffp-int-builtin-inexact
  55              	@ -ffunction-cse -ffunction-sections -fgcse -fgcse-after-reload -fgcse-lm
  56              	@ -fgnu-runtime -fgnu-unique -fguess-branch-probability
  57              	@ -fhoist-adjacent-loads -fident -fif-conversion -fif-conversion2
ARM GAS  /tmp/ccQFS2IS.s 			page 2


  58              	@ -findirect-inlining -finline -finline-atomics -finline-functions
  59              	@ -finline-functions-called-once -finline-small-functions -fipa-bit-cp
  60              	@ -fipa-cp -fipa-cp-clone -fipa-icf -fipa-icf-functions -fipa-icf-variables
  61              	@ -fipa-profile -fipa-pure-const -fipa-ra -fipa-reference -fipa-sra
  62              	@ -fipa-vrp -fira-hoist-pressure -fira-share-save-slots
  63              	@ -fira-share-spill-slots -fisolate-erroneous-paths-dereference -fivopts
  64              	@ -fkeep-static-consts -fleading-underscore -flifetime-dse
  65              	@ -floop-interchange -floop-unroll-and-jam -flra-remat
  66              	@ -flto-odr-type-merging -fmath-errno -fmerge-constants
  67              	@ -fmerge-debug-strings -fmove-loop-invariants -fomit-frame-pointer
  68              	@ -foptimize-sibling-calls -foptimize-strlen -fpartial-inlining
  69              	@ -fpeel-loops -fpeephole -fpeephole2 -fplt -fpredictive-commoning
  70              	@ -fprefetch-loop-arrays -freg-struct-return -freorder-blocks
  71              	@ -freorder-functions -frerun-cse-after-loop
  72              	@ -fsched-critical-path-heuristic -fsched-dep-count-heuristic
  73              	@ -fsched-group-heuristic -fsched-interblock -fsched-last-insn-heuristic
  74              	@ -fsched-pressure -fsched-rank-heuristic -fsched-spec
  75              	@ -fsched-spec-insn-heuristic -fsched-stalled-insns-dep -fschedule-insns
  76              	@ -fschedule-insns2 -fsection-anchors -fsemantic-interposition
  77              	@ -fshow-column -fshrink-wrap -fshrink-wrap-separate -fsigned-zeros
  78              	@ -fsplit-ivs-in-unroller -fsplit-loops -fsplit-paths -fsplit-wide-types
  79              	@ -fssa-backprop -fssa-phiopt -fstdarg-opt -fstore-merging
  80              	@ -fstrict-aliasing -fstrict-volatile-bitfields -fsync-libcalls
  81              	@ -fthread-jumps -ftoplevel-reorder -ftrapping-math -ftree-bit-ccp
  82              	@ -ftree-builtin-call-dce -ftree-ccp -ftree-ch -ftree-coalesce-vars
  83              	@ -ftree-copy-prop -ftree-cselim -ftree-dce -ftree-dominator-opts
  84              	@ -ftree-dse -ftree-forwprop -ftree-fre -ftree-loop-distribute-patterns
  85              	@ -ftree-loop-distribution -ftree-loop-if-convert -ftree-loop-im
  86              	@ -ftree-loop-ivcanon -ftree-loop-optimize -ftree-loop-vectorize
  87              	@ -ftree-parallelize-loops= -ftree-partial-pre -ftree-phiprop -ftree-pre
  88              	@ -ftree-pta -ftree-reassoc -ftree-scev-cprop -ftree-sink
  89              	@ -ftree-slp-vectorize -ftree-slsr -ftree-sra -ftree-switch-conversion
  90              	@ -ftree-tail-merge -ftree-ter -ftree-vrp -funit-at-a-time -funswitch-loops
  91              	@ -fvar-tracking -fvar-tracking-assignments -fverbose-asm
  92              	@ -fzero-initialized-in-bss -masm-syntax-unified -mbe32 -mlittle-endian
  93              	@ -mpic-data-is-text-relative -msched-prolog -mthumb -munaligned-access
  94              	@ -mvectorize-with-neon-quad
  95              	
  96              		.text
  97              	.Ltext0:
  98              		.cfi_sections	.debug_frame
  99              		.section	.text.NVIC_Handler_UART,"ax",%progbits
 100              		.align	1
 101              		.p2align 2,,3
 102              		.global	NVIC_Handler_UART
 103              		.arch armv7e-m
 104              		.syntax unified
 105              		.thumb
 106              		.thumb_func
 107              		.fpu fpv4-sp-d16
 108              		.type	NVIC_Handler_UART, %function
 109              	NVIC_Handler_UART:
 110              	.LFB134:
 111              		.file 1 "../../peripheral_library/drv/drvSerial.c"
   1:../../peripheral_library/drv/drvSerial.c **** /*This file has been prepared for Doxygen automatic documentation generation.*/
   2:../../peripheral_library/drv/drvSerial.c **** /*! \file *********************************************************************
   3:../../peripheral_library/drv/drvSerial.c ****  *
ARM GAS  /tmp/ccQFS2IS.s 			page 3


   4:../../peripheral_library/drv/drvSerial.c ****  * \brief FreeRTOS Serial Port management example for AVR32 UC3.
   5:../../peripheral_library/drv/drvSerial.c ****  *
   6:../../peripheral_library/drv/drvSerial.c ****  * - Compiler:           IAR EWAVR32 and GNU GCC for AVR32
   7:../../peripheral_library/drv/drvSerial.c ****  * - Supported devices:  All AVR32 devices can be used.
   8:../../peripheral_library/drv/drvSerial.c ****  * - AppNote:
   9:../../peripheral_library/drv/drvSerial.c ****  *
  10:../../peripheral_library/drv/drvSerial.c ****  * \author               Atmel Corporation: http://www.atmel.com \n
  11:../../peripheral_library/drv/drvSerial.c ****  *                       Support and FAQ: http://support.atmel.no/
  12:../../peripheral_library/drv/drvSerial.c ****  *
  13:../../peripheral_library/drv/drvSerial.c ****  *****************************************************************************/
  14:../../peripheral_library/drv/drvSerial.c **** 
  15:../../peripheral_library/drv/drvSerial.c **** /* Copyright (c) 2007, Atmel Corporation All rights reserved.
  16:../../peripheral_library/drv/drvSerial.c ****  *
  17:../../peripheral_library/drv/drvSerial.c ****  * Redistribution and use in source and binary forms, with or without
  18:../../peripheral_library/drv/drvSerial.c ****  * modification, are permitted provided that the following conditions are met:
  19:../../peripheral_library/drv/drvSerial.c ****  *
  20:../../peripheral_library/drv/drvSerial.c ****  * 1. Redistributions of source code must retain the above copyright notice,
  21:../../peripheral_library/drv/drvSerial.c ****  * this list of conditions and the following disclaimer.
  22:../../peripheral_library/drv/drvSerial.c ****  *
  23:../../peripheral_library/drv/drvSerial.c ****  * 2. Redistributions in binary form must reproduce the above copyright notice,
  24:../../peripheral_library/drv/drvSerial.c ****  * this list of conditions and the following disclaimer in the documentation
  25:../../peripheral_library/drv/drvSerial.c ****  * and/or other materials provided with the distribution.
  26:../../peripheral_library/drv/drvSerial.c ****  *
  27:../../peripheral_library/drv/drvSerial.c ****  * 3. The name of ATMEL may not be used to endorse or promote products derived
  28:../../peripheral_library/drv/drvSerial.c ****  * from this software without specific prior written permission.
  29:../../peripheral_library/drv/drvSerial.c ****  *
  30:../../peripheral_library/drv/drvSerial.c ****  * THIS SOFTWARE IS PROVIDED BY ATMEL ``AS IS'' AND ANY EXPRESS OR IMPLIED
  31:../../peripheral_library/drv/drvSerial.c ****  * WARRANTIES, INCLUDING, BUT NOT LIMITED TO, THE IMPLIED WARRANTIES OF
  32:../../peripheral_library/drv/drvSerial.c ****  * MERCHANTABILITY AND FITNESS FOR A PARTICULAR PURPOSE ARE EXPRESSLY AND
  33:../../peripheral_library/drv/drvSerial.c ****  * SPECIFICALLY DISCLAIMED. IN NO EVENT SHALL ATMEL BE LIABLE FOR ANY DIRECT,
  34:../../peripheral_library/drv/drvSerial.c ****  * INDIRECT, INCIDENTAL, SPECIAL, EXEMPLARY, OR CONSEQUENTIAL DAMAGES
  35:../../peripheral_library/drv/drvSerial.c ****  * (INCLUDING, BUT NOT LIMITED TO, PROCUREMENT OF SUBSTITUTE GOODS OR SERVICES;
  36:../../peripheral_library/drv/drvSerial.c ****  * LOSS OF USE, DATA, OR PROFITS; OR BUSINESS INTERRUPTION) HOWEVER CAUSED AND
  37:../../peripheral_library/drv/drvSerial.c ****  * ON ANY THEORY OF LIABILITY, WHETHER IN CONTRACT, STRICT LIABILITY, OR TORT
  38:../../peripheral_library/drv/drvSerial.c ****  * (INCLUDING NEGLIGENCE OR OTHERWISE) ARISING IN ANY WAY OUT OF THE USE OF
  39:../../peripheral_library/drv/drvSerial.c ****  * THIS SOFTWARE, EVEN IF ADVISED OF THE POSSIBILITY OF SUCH DAMAGE.
  40:../../peripheral_library/drv/drvSerial.c ****  */
  41:../../peripheral_library/drv/drvSerial.c **** 
  42:../../peripheral_library/drv/drvSerial.c **** 
  43:../../peripheral_library/drv/drvSerial.c **** /*
  44:../../peripheral_library/drv/drvSerial.c ****   BASIC INTERRUPT DRIVEN SERIAL PORT DRIVER FOR USART.
  45:../../peripheral_library/drv/drvSerial.c **** */
  46:../../peripheral_library/drv/drvSerial.c **** 
  47:../../peripheral_library/drv/drvSerial.c **** /* Kernel includes. */
  48:../../peripheral_library/drv/drvSerial.c **** #include "mosWrapper.h"
  49:../../peripheral_library/drv/drvSerial.c **** 
  50:../../peripheral_library/drv/drvSerial.c **** /* Demo application includes. */
  51:../../peripheral_library/drv/drvSerial.c **** #include "serial.h"
  52:../../peripheral_library/drv/drvSerial.c **** #include "halUART.h"
  53:../../peripheral_library/drv/drvSerial.c **** 
  54:../../peripheral_library/drv/drvSerial.c **** /*-----------------------------------------------------------*/
  55:../../peripheral_library/drv/drvSerial.c **** 
  56:../../peripheral_library/drv/drvSerial.c **** /* Constants to setup and access the USART. */
  57:../../peripheral_library/drv/drvSerial.c **** #define serINVALID_COMPORT_HANDLER        ( ( xComPortHandle ) 0 )
  58:../../peripheral_library/drv/drvSerial.c **** #define serINVALID_QUEUE                  ( ( QueueHandle_t ) 0 )
  59:../../peripheral_library/drv/drvSerial.c **** #define serHANDLE                         ( ( xComPortHandle ) 1 )
  60:../../peripheral_library/drv/drvSerial.c **** #define serNO_BLOCK                       ( ( TickType_t ) 0 )
ARM GAS  /tmp/ccQFS2IS.s 			page 4


  61:../../peripheral_library/drv/drvSerial.c **** 
  62:../../peripheral_library/drv/drvSerial.c **** /*-----------------------------------------------------------*/
  63:../../peripheral_library/drv/drvSerial.c **** 
  64:../../peripheral_library/drv/drvSerial.c **** /* Queues used to hold received characters, and characters waiting to be
  65:../../peripheral_library/drv/drvSerial.c **** transmitted. */
  66:../../peripheral_library/drv/drvSerial.c **** static QueueHandle_t xRxedChars;
  67:../../peripheral_library/drv/drvSerial.c **** static QueueHandle_t xCharsForTx;
  68:../../peripheral_library/drv/drvSerial.c **** 
  69:../../peripheral_library/drv/drvSerial.c **** /*-----------------------------------------------------------*/
  70:../../peripheral_library/drv/drvSerial.c **** 
  71:../../peripheral_library/drv/drvSerial.c **** /* Forward declaration. */
  72:../../peripheral_library/drv/drvSerial.c **** static void vprvSerialCreateQueues( unsigned portBASE_TYPE uxQueueLength,
  73:../../peripheral_library/drv/drvSerial.c **** 									QueueHandle_t *pxRxedChars,
  74:../../peripheral_library/drv/drvSerial.c **** 									QueueHandle_t *pxCharsForTx );
  75:../../peripheral_library/drv/drvSerial.c **** 
  76:../../peripheral_library/drv/drvSerial.c **** /*
  77:../../peripheral_library/drv/drvSerial.c ****  * UART interrupt service routine.
  78:../../peripheral_library/drv/drvSerial.c ****  */
  79:../../peripheral_library/drv/drvSerial.c **** #define UART_INT_PRIORITY		( configLIBRARY_MAX_SYSCALL_INTERRUPT_PRIORITY + 1 )
  80:../../peripheral_library/drv/drvSerial.c **** 
  81:../../peripheral_library/drv/drvSerial.c **** 
  82:../../peripheral_library/drv/drvSerial.c **** void NVIC_Handler_UART(void)
  83:../../peripheral_library/drv/drvSerial.c **** {
 112              		.loc 1 83 1 view -0
 113              		.cfi_startproc
 114              		@ args = 0, pretend = 0, frame = 8
 115              		@ frame_needed = 0, uses_anonymous_args = 0
  84:../../peripheral_library/drv/drvSerial.c **** 	/* Now we can declare the local variables. */
  85:../../peripheral_library/drv/drvSerial.c **** 	signed char     cChar;
 116              		.loc 1 85 2 view .LVU1
  86:../../peripheral_library/drv/drvSerial.c **** 	portBASE_TYPE     xHigherPriorityTaskWoken = pdFALSE;
 117              		.loc 1 86 2 view .LVU2
 118              	@ ../../peripheral_library/drv/drvSerial.c:83: {
  83:../../peripheral_library/drv/drvSerial.c **** 	/* Now we can declare the local variables. */
 119              		.loc 1 83 1 is_stmt 0 view .LVU3
 120 0000 70B5     		push	{r4, r5, r6, lr}	@
 121              		.cfi_def_cfa_offset 16
 122              		.cfi_offset 4, -16
 123              		.cfi_offset 5, -12
 124              		.cfi_offset 6, -8
 125              		.cfi_offset 14, -4
 126 0002 82B0     		sub	sp, sp, #8	@,,
 127              		.cfi_def_cfa_offset 24
 128              	@ ../../peripheral_library/drv/drvSerial.c:86: 	portBASE_TYPE     xHigherPriorityTaskWoken = pdFALS
 129              		.loc 1 86 20 view .LVU4
 130 0004 0023     		movs	r3, #0	@ tmp120,
 131 0006 0193     		str	r3, [sp, #4]	@ tmp120, xHigherPriorityTaskWoken
  87:../../peripheral_library/drv/drvSerial.c **** 	//portBASE_TYPE retstatus;
  88:../../peripheral_library/drv/drvSerial.c **** 
  89:../../peripheral_library/drv/drvSerial.c **** 	U8     nSource;
 132              		.loc 1 89 2 is_stmt 1 view .LVU5
  90:../../peripheral_library/drv/drvSerial.c **** 
  91:../../peripheral_library/drv/drvSerial.c **** 	/* What caused the interrupt? */
  92:../../peripheral_library/drv/drvSerial.c ****   nSource = uart_int_source();
 133              		.loc 1 92 3 view .LVU6
 134              	@ ../../peripheral_library/drv/drvSerial.c:92:   nSource = uart_int_source();
 135              		.loc 1 92 13 is_stmt 0 view .LVU7
ARM GAS  /tmp/ccQFS2IS.s 			page 5


 136 0008 FFF7FEFF 		bl	uart_int_source		@
 137              	.LVL0:
  93:../../peripheral_library/drv/drvSerial.c **** 
  94:../../peripheral_library/drv/drvSerial.c ****   //UartSendTrace("NVIC_Handler_UART0 nSource = %d\n", nSource);
  95:../../peripheral_library/drv/drvSerial.c **** 
  96:../../peripheral_library/drv/drvSerial.c ****   while(nSource != UART_IIR_NO_INT)
 138              		.loc 1 96 3 is_stmt 1 view .LVU8
 139              	@ ../../peripheral_library/drv/drvSerial.c:96:   while(nSource != UART_IIR_NO_INT)
 140              		.loc 1 96 8 is_stmt 0 view .LVU9
 141 000c 0128     		cmp	r0, #1	@ nSource,
 142 000e 33D0     		beq	.L2		@,
 143 0010 0446     		mov	r4, r0	@ nSource,
 144              	@ ../../peripheral_library/drv/drvSerial.c:139:       if(xQueueIsQueueFullFromISR(xRxedChars) != pd
  97:../../peripheral_library/drv/drvSerial.c ****   {
  98:../../peripheral_library/drv/drvSerial.c ****   	if (nSource == UART_IIR_THRI)
  99:../../peripheral_library/drv/drvSerial.c ****   	{
 100:../../peripheral_library/drv/drvSerial.c ****       //UartSendTrace("UART_IIR_THRI\n");
 101:../../peripheral_library/drv/drvSerial.c **** 
 102:../../peripheral_library/drv/drvSerial.c **** #if 0
 103:../../peripheral_library/drv/drvSerial.c ****   		/* The interrupt was caused by the THR becoming empty.  Are there any
 104:../../peripheral_library/drv/drvSerial.c ****   		more characters to transmit?
 105:../../peripheral_library/drv/drvSerial.c ****   		Because FreeRTOS is not supposed to run with nested interrupts, put all OS
 106:../../peripheral_library/drv/drvSerial.c ****   		calls in a critical section . */
 107:../../peripheral_library/drv/drvSerial.c ****   		portENTER_CRITICAL();
 108:../../peripheral_library/drv/drvSerial.c ****   			retstatus = xQueueReceiveFromISR( xCharsForTx, &cChar, &xHigherPriorityTaskWoken );
 109:../../peripheral_library/drv/drvSerial.c ****   		portEXIT_CRITICAL();
 110:../../peripheral_library/drv/drvSerial.c **** 
 111:../../peripheral_library/drv/drvSerial.c ****   		if (retstatus == pdTRUE)
 112:../../peripheral_library/drv/drvSerial.c ****   		{
 113:../../peripheral_library/drv/drvSerial.c ****   			/* A character was retrieved from the queue so can be sent to the
 114:../../peripheral_library/drv/drvSerial.c ****   			 THR now. */
 115:../../peripheral_library/drv/drvSerial.c ****   			UART_REG8(UART_TX) = cChar;
 116:../../peripheral_library/drv/drvSerial.c ****   		}
 117:../../peripheral_library/drv/drvSerial.c ****   		else
 118:../../peripheral_library/drv/drvSerial.c ****   		{
 119:../../peripheral_library/drv/drvSerial.c ****   			/* Queue empty, nothing to send so turn off the Tx interrupt. */
 120:../../peripheral_library/drv/drvSerial.c ****         UART_REG8(UART_IER) &= ~UART_IER_THRI ;
 121:../../peripheral_library/drv/drvSerial.c **** 
 122:../../peripheral_library/drv/drvSerial.c ****   		}
 123:../../peripheral_library/drv/drvSerial.c **** #endif
 124:../../peripheral_library/drv/drvSerial.c ****   	}
 125:../../peripheral_library/drv/drvSerial.c **** 
 126:../../peripheral_library/drv/drvSerial.c ****   	if ((nSource == UART_IIR_RDI) || (nSource == UART_IIR_TOI))
 127:../../peripheral_library/drv/drvSerial.c ****   	{
 128:../../peripheral_library/drv/drvSerial.c ****       //UartSendTrace("UART_IIR_RDI\n");
 129:../../peripheral_library/drv/drvSerial.c ****   		/* The interrupt was caused by the receiver getting data. */
 130:../../peripheral_library/drv/drvSerial.c ****   		cChar = uart_read_byte();
 131:../../peripheral_library/drv/drvSerial.c **** 
 132:../../peripheral_library/drv/drvSerial.c ****   		/* Because FreeRTOS is not supposed to run with nested interrupts, put all OS
 133:../../peripheral_library/drv/drvSerial.c ****   		calls in a critical section . */
 134:../../peripheral_library/drv/drvSerial.c ****   		/*
 135:../../peripheral_library/drv/drvSerial.c ****   		portENTER_CRITICAL();
 136:../../peripheral_library/drv/drvSerial.c ****   			xQueueSendFromISR(xRxedChars, &cChar, &xHigherPriorityTaskWoken);
 137:../../peripheral_library/drv/drvSerial.c ****   		portEXIT_CRITICAL();
 138:../../peripheral_library/drv/drvSerial.c ****   		*/
 139:../../peripheral_library/drv/drvSerial.c ****       if(xQueueIsQueueFullFromISR(xRxedChars) != pdTRUE)
 145              		.loc 1 139 10 view .LVU10
ARM GAS  /tmp/ccQFS2IS.s 			page 6


 146 0012 1F4D     		ldr	r5, .L20	@ tmp138,
 147 0014 07E0     		b	.L7		@
 148              	.LVL1:
 149              	.L17:
 150              	@ ../../peripheral_library/drv/drvSerial.c:148:     if(nSource == UART_IIR_MSI)
 140:../../peripheral_library/drv/drvSerial.c ****       {
 141:../../peripheral_library/drv/drvSerial.c ****         UBaseType_t uxSavedInterruptStatus;
 142:../../peripheral_library/drv/drvSerial.c ****         uxSavedInterruptStatus = portSET_INTERRUPT_MASK_FROM_ISR();
 143:../../peripheral_library/drv/drvSerial.c ****         xQueueSendFromISR(xRxedChars, &cChar, &xHigherPriorityTaskWoken);
 144:../../peripheral_library/drv/drvSerial.c ****         portCLEAR_INTERRUPT_MASK_FROM_ISR(uxSavedInterruptStatus);
 145:../../peripheral_library/drv/drvSerial.c ****       }
 146:../../peripheral_library/drv/drvSerial.c ****   	}
 147:../../peripheral_library/drv/drvSerial.c **** 
 148:../../peripheral_library/drv/drvSerial.c ****     if(nSource == UART_IIR_MSI)
 151              		.loc 1 148 7 view .LVU11
 152 0016 34BB     		cbnz	r4, .L5	@ nSource,
 153              	@ ../../peripheral_library/drv/drvSerial.c:151:       uart_clear_msr();
 149:../../peripheral_library/drv/drvSerial.c ****     {
 150:../../peripheral_library/drv/drvSerial.c ****       //UartSendTrace("UART_IIR_MSI\n");
 151:../../peripheral_library/drv/drvSerial.c ****       uart_clear_msr();
 154              		.loc 1 151 7 view .LVU12
 155 0018 FFF7FEFF 		bl	uart_clear_msr		@
 156              	.LVL2:
 152:../../peripheral_library/drv/drvSerial.c ****     }
 153:../../peripheral_library/drv/drvSerial.c **** 
 154:../../peripheral_library/drv/drvSerial.c ****     if(nSource == UART_IIR_RLSI)
 157              		.loc 1 154 5 is_stmt 1 view .LVU13
 158              	.L6:
 155:../../peripheral_library/drv/drvSerial.c ****     {
 156:../../peripheral_library/drv/drvSerial.c ****       //UartSendTrace("UART_IIR_RLSI\n");
 157:../../peripheral_library/drv/drvSerial.c ****       uart_clear_lsr();
 158:../../peripheral_library/drv/drvSerial.c ****     }
 159:../../peripheral_library/drv/drvSerial.c **** 
 160:../../peripheral_library/drv/drvSerial.c ****     nSource = uart_int_source();
 159              		.loc 1 160 5 view .LVU14
 160              	@ ../../peripheral_library/drv/drvSerial.c:160:     nSource = uart_int_source();
 161              		.loc 1 160 15 is_stmt 0 view .LVU15
 162 001c FFF7FEFF 		bl	uart_int_source		@
 163              	.LVL3:
 164              	@ ../../peripheral_library/drv/drvSerial.c:96:   while(nSource != UART_IIR_NO_INT)
  96:../../peripheral_library/drv/drvSerial.c ****   {
 165              		.loc 1 96 8 view .LVU16
 166 0020 0128     		cmp	r0, #1	@ nSource,
 167              	@ ../../peripheral_library/drv/drvSerial.c:160:     nSource = uart_int_source();
 168              		.loc 1 160 15 view .LVU17
 169 0022 0446     		mov	r4, r0	@ nSource,
 170              	.LVL4:
 171              	@ ../../peripheral_library/drv/drvSerial.c:96:   while(nSource != UART_IIR_NO_INT)
  96:../../peripheral_library/drv/drvSerial.c ****   {
 172              		.loc 1 96 8 view .LVU18
 173 0024 28D0     		beq	.L2		@,
 174              	.LVL5:
 175              	.L7:
  98:../../peripheral_library/drv/drvSerial.c ****   	{
 176              		.loc 1 98 4 is_stmt 1 view .LVU19
 124:../../peripheral_library/drv/drvSerial.c **** 
 177              		.loc 1 124 4 view .LVU20
ARM GAS  /tmp/ccQFS2IS.s 			page 7


 126:../../peripheral_library/drv/drvSerial.c ****   	{
 178              		.loc 1 126 4 view .LVU21
 148:../../peripheral_library/drv/drvSerial.c ****     {
 179              		.loc 1 148 5 view .LVU22
 151:../../peripheral_library/drv/drvSerial.c ****     }
 180              		.loc 1 151 7 view .LVU23
 181              	@ ../../peripheral_library/drv/drvSerial.c:126:   	if ((nSource == UART_IIR_RDI) || (nSource == UAR
 126:../../peripheral_library/drv/drvSerial.c ****   	{
 182              		.loc 1 126 7 is_stmt 0 view .LVU24
 183 0026 04F0F703 		and	r3, r4, #247	@ tmp123, nSource,
 184 002a 042B     		cmp	r3, #4	@ tmp123,
 185 002c F3D1     		bne	.L17		@,
 130:../../peripheral_library/drv/drvSerial.c **** 
 186              		.loc 1 130 5 is_stmt 1 view .LVU25
 187              	@ ../../peripheral_library/drv/drvSerial.c:130:   		cChar = uart_read_byte();
 130:../../peripheral_library/drv/drvSerial.c **** 
 188              		.loc 1 130 13 is_stmt 0 view .LVU26
 189 002e FFF7FEFF 		bl	uart_read_byte		@
 190              	.LVL6:
 191              	@ ../../peripheral_library/drv/drvSerial.c:130:   		cChar = uart_read_byte();
 130:../../peripheral_library/drv/drvSerial.c **** 
 192              		.loc 1 130 11 view .LVU27
 193 0032 8DF80300 		strb	r0, [sp, #3]	@, cChar
 139:../../peripheral_library/drv/drvSerial.c ****       {
 194              		.loc 1 139 7 is_stmt 1 view .LVU28
 195              	@ ../../peripheral_library/drv/drvSerial.c:139:       if(xQueueIsQueueFullFromISR(xRxedChars) != pd
 139:../../peripheral_library/drv/drvSerial.c ****       {
 196              		.loc 1 139 10 is_stmt 0 view .LVU29
 197 0036 2868     		ldr	r0, [r5]	@, xRxedChars
 198 0038 FFF7FEFF 		bl	xQueueIsQueueFullFromISR		@
 199              	.LVL7:
 200              	@ ../../peripheral_library/drv/drvSerial.c:139:       if(xQueueIsQueueFullFromISR(xRxedChars) != pd
 139:../../peripheral_library/drv/drvSerial.c ****       {
 201              		.loc 1 139 9 view .LVU30
 202 003c 0128     		cmp	r0, #1	@,
 203 003e 12D0     		beq	.L5		@,
 204              	.LBB9:
 141:../../peripheral_library/drv/drvSerial.c ****         uxSavedInterruptStatus = portSET_INTERRUPT_MASK_FROM_ISR();
 205              		.loc 1 141 9 is_stmt 1 view .LVU31
 142:../../peripheral_library/drv/drvSerial.c ****         xQueueSendFromISR(xRxedChars, &cChar, &xHigherPriorityTaskWoken);
 206              		.loc 1 142 9 view .LVU32
 207              	.LBB10:
 208              	.LBI10:
 209              		.file 2 "../../kernel/FreeRTOS/Source/portable/GCC/ARM_CM4F/portmacro.h"
   1:../../kernel/FreeRTOS/Source/portable/GCC/ARM_CM4F/portmacro.h **** /*
   2:../../kernel/FreeRTOS/Source/portable/GCC/ARM_CM4F/portmacro.h ****  * FreeRTOS Kernel V10.0.1
   3:../../kernel/FreeRTOS/Source/portable/GCC/ARM_CM4F/portmacro.h ****  * Copyright (C) 2017 Amazon.com, Inc. or its affiliates.  All Rights Reserved.
   4:../../kernel/FreeRTOS/Source/portable/GCC/ARM_CM4F/portmacro.h ****  *
   5:../../kernel/FreeRTOS/Source/portable/GCC/ARM_CM4F/portmacro.h ****  * Permission is hereby granted, free of charge, to any person obtaining a copy of
   6:../../kernel/FreeRTOS/Source/portable/GCC/ARM_CM4F/portmacro.h ****  * this software and associated documentation files (the "Software"), to deal in
   7:../../kernel/FreeRTOS/Source/portable/GCC/ARM_CM4F/portmacro.h ****  * the Software without restriction, including without limitation the rights to
   8:../../kernel/FreeRTOS/Source/portable/GCC/ARM_CM4F/portmacro.h ****  * use, copy, modify, merge, publish, distribute, sublicense, and/or sell copies of
   9:../../kernel/FreeRTOS/Source/portable/GCC/ARM_CM4F/portmacro.h ****  * the Software, and to permit persons to whom the Software is furnished to do so,
  10:../../kernel/FreeRTOS/Source/portable/GCC/ARM_CM4F/portmacro.h ****  * subject to the following conditions:
  11:../../kernel/FreeRTOS/Source/portable/GCC/ARM_CM4F/portmacro.h ****  *
  12:../../kernel/FreeRTOS/Source/portable/GCC/ARM_CM4F/portmacro.h ****  * The above copyright notice and this permission notice shall be included in all
  13:../../kernel/FreeRTOS/Source/portable/GCC/ARM_CM4F/portmacro.h ****  * copies or substantial portions of the Software.
ARM GAS  /tmp/ccQFS2IS.s 			page 8


  14:../../kernel/FreeRTOS/Source/portable/GCC/ARM_CM4F/portmacro.h ****  *
  15:../../kernel/FreeRTOS/Source/portable/GCC/ARM_CM4F/portmacro.h ****  * THE SOFTWARE IS PROVIDED "AS IS", WITHOUT WARRANTY OF ANY KIND, EXPRESS OR
  16:../../kernel/FreeRTOS/Source/portable/GCC/ARM_CM4F/portmacro.h ****  * IMPLIED, INCLUDING BUT NOT LIMITED TO THE WARRANTIES OF MERCHANTABILITY, FITNESS
  17:../../kernel/FreeRTOS/Source/portable/GCC/ARM_CM4F/portmacro.h ****  * FOR A PARTICULAR PURPOSE AND NONINFRINGEMENT. IN NO EVENT SHALL THE AUTHORS OR
  18:../../kernel/FreeRTOS/Source/portable/GCC/ARM_CM4F/portmacro.h ****  * COPYRIGHT HOLDERS BE LIABLE FOR ANY CLAIM, DAMAGES OR OTHER LIABILITY, WHETHER
  19:../../kernel/FreeRTOS/Source/portable/GCC/ARM_CM4F/portmacro.h ****  * IN AN ACTION OF CONTRACT, TORT OR OTHERWISE, ARISING FROM, OUT OF OR IN
  20:../../kernel/FreeRTOS/Source/portable/GCC/ARM_CM4F/portmacro.h ****  * CONNECTION WITH THE SOFTWARE OR THE USE OR OTHER DEALINGS IN THE SOFTWARE.
  21:../../kernel/FreeRTOS/Source/portable/GCC/ARM_CM4F/portmacro.h ****  *
  22:../../kernel/FreeRTOS/Source/portable/GCC/ARM_CM4F/portmacro.h ****  * http://www.FreeRTOS.org
  23:../../kernel/FreeRTOS/Source/portable/GCC/ARM_CM4F/portmacro.h ****  * http://aws.amazon.com/freertos
  24:../../kernel/FreeRTOS/Source/portable/GCC/ARM_CM4F/portmacro.h ****  *
  25:../../kernel/FreeRTOS/Source/portable/GCC/ARM_CM4F/portmacro.h ****  * 1 tab == 4 spaces!
  26:../../kernel/FreeRTOS/Source/portable/GCC/ARM_CM4F/portmacro.h ****  */
  27:../../kernel/FreeRTOS/Source/portable/GCC/ARM_CM4F/portmacro.h **** 
  28:../../kernel/FreeRTOS/Source/portable/GCC/ARM_CM4F/portmacro.h **** 
  29:../../kernel/FreeRTOS/Source/portable/GCC/ARM_CM4F/portmacro.h **** #ifndef PORTMACRO_H
  30:../../kernel/FreeRTOS/Source/portable/GCC/ARM_CM4F/portmacro.h **** #define PORTMACRO_H
  31:../../kernel/FreeRTOS/Source/portable/GCC/ARM_CM4F/portmacro.h **** 
  32:../../kernel/FreeRTOS/Source/portable/GCC/ARM_CM4F/portmacro.h **** #ifdef __cplusplus
  33:../../kernel/FreeRTOS/Source/portable/GCC/ARM_CM4F/portmacro.h **** extern "C" {
  34:../../kernel/FreeRTOS/Source/portable/GCC/ARM_CM4F/portmacro.h **** #endif
  35:../../kernel/FreeRTOS/Source/portable/GCC/ARM_CM4F/portmacro.h **** 
  36:../../kernel/FreeRTOS/Source/portable/GCC/ARM_CM4F/portmacro.h **** /*-----------------------------------------------------------
  37:../../kernel/FreeRTOS/Source/portable/GCC/ARM_CM4F/portmacro.h ****  * Port specific definitions.
  38:../../kernel/FreeRTOS/Source/portable/GCC/ARM_CM4F/portmacro.h ****  *
  39:../../kernel/FreeRTOS/Source/portable/GCC/ARM_CM4F/portmacro.h ****  * The settings in this file configure FreeRTOS correctly for the
  40:../../kernel/FreeRTOS/Source/portable/GCC/ARM_CM4F/portmacro.h ****  * given hardware and compiler.
  41:../../kernel/FreeRTOS/Source/portable/GCC/ARM_CM4F/portmacro.h ****  *
  42:../../kernel/FreeRTOS/Source/portable/GCC/ARM_CM4F/portmacro.h ****  * These settings should not be altered.
  43:../../kernel/FreeRTOS/Source/portable/GCC/ARM_CM4F/portmacro.h ****  *-----------------------------------------------------------
  44:../../kernel/FreeRTOS/Source/portable/GCC/ARM_CM4F/portmacro.h ****  */
  45:../../kernel/FreeRTOS/Source/portable/GCC/ARM_CM4F/portmacro.h **** 
  46:../../kernel/FreeRTOS/Source/portable/GCC/ARM_CM4F/portmacro.h **** /* Type definitions. */
  47:../../kernel/FreeRTOS/Source/portable/GCC/ARM_CM4F/portmacro.h **** #define portCHAR		char
  48:../../kernel/FreeRTOS/Source/portable/GCC/ARM_CM4F/portmacro.h **** #define portFLOAT		float
  49:../../kernel/FreeRTOS/Source/portable/GCC/ARM_CM4F/portmacro.h **** #define portDOUBLE		double
  50:../../kernel/FreeRTOS/Source/portable/GCC/ARM_CM4F/portmacro.h **** #define portLONG		long
  51:../../kernel/FreeRTOS/Source/portable/GCC/ARM_CM4F/portmacro.h **** #define portSHORT		short
  52:../../kernel/FreeRTOS/Source/portable/GCC/ARM_CM4F/portmacro.h **** #define portSTACK_TYPE	uint32_t
  53:../../kernel/FreeRTOS/Source/portable/GCC/ARM_CM4F/portmacro.h **** #define portBASE_TYPE	long
  54:../../kernel/FreeRTOS/Source/portable/GCC/ARM_CM4F/portmacro.h **** 
  55:../../kernel/FreeRTOS/Source/portable/GCC/ARM_CM4F/portmacro.h **** typedef portSTACK_TYPE StackType_t;
  56:../../kernel/FreeRTOS/Source/portable/GCC/ARM_CM4F/portmacro.h **** typedef long BaseType_t;
  57:../../kernel/FreeRTOS/Source/portable/GCC/ARM_CM4F/portmacro.h **** typedef unsigned long UBaseType_t;
  58:../../kernel/FreeRTOS/Source/portable/GCC/ARM_CM4F/portmacro.h **** 
  59:../../kernel/FreeRTOS/Source/portable/GCC/ARM_CM4F/portmacro.h **** #if( configUSE_16_BIT_TICKS == 1 )
  60:../../kernel/FreeRTOS/Source/portable/GCC/ARM_CM4F/portmacro.h **** 	typedef uint16_t TickType_t;
  61:../../kernel/FreeRTOS/Source/portable/GCC/ARM_CM4F/portmacro.h **** 	#define portMAX_DELAY ( TickType_t ) 0xffff
  62:../../kernel/FreeRTOS/Source/portable/GCC/ARM_CM4F/portmacro.h **** #else
  63:../../kernel/FreeRTOS/Source/portable/GCC/ARM_CM4F/portmacro.h **** 	typedef uint32_t TickType_t;
  64:../../kernel/FreeRTOS/Source/portable/GCC/ARM_CM4F/portmacro.h **** 	#define portMAX_DELAY ( TickType_t ) 0xffffffffUL
  65:../../kernel/FreeRTOS/Source/portable/GCC/ARM_CM4F/portmacro.h **** 
  66:../../kernel/FreeRTOS/Source/portable/GCC/ARM_CM4F/portmacro.h **** 	/* 32-bit tick type on a 32-bit architecture, so reads of the tick count do
  67:../../kernel/FreeRTOS/Source/portable/GCC/ARM_CM4F/portmacro.h **** 	not need to be guarded with a critical section. */
  68:../../kernel/FreeRTOS/Source/portable/GCC/ARM_CM4F/portmacro.h **** 	#define portTICK_TYPE_IS_ATOMIC 1
  69:../../kernel/FreeRTOS/Source/portable/GCC/ARM_CM4F/portmacro.h **** #endif
  70:../../kernel/FreeRTOS/Source/portable/GCC/ARM_CM4F/portmacro.h **** /*-----------------------------------------------------------*/
ARM GAS  /tmp/ccQFS2IS.s 			page 9


  71:../../kernel/FreeRTOS/Source/portable/GCC/ARM_CM4F/portmacro.h **** 
  72:../../kernel/FreeRTOS/Source/portable/GCC/ARM_CM4F/portmacro.h **** /* Architecture specifics. */
  73:../../kernel/FreeRTOS/Source/portable/GCC/ARM_CM4F/portmacro.h **** #define portSTACK_GROWTH			( -1 )
  74:../../kernel/FreeRTOS/Source/portable/GCC/ARM_CM4F/portmacro.h **** #define portTICK_PERIOD_MS			( ( TickType_t ) 1000 / configTICK_RATE_HZ )
  75:../../kernel/FreeRTOS/Source/portable/GCC/ARM_CM4F/portmacro.h **** #define portBYTE_ALIGNMENT			8
  76:../../kernel/FreeRTOS/Source/portable/GCC/ARM_CM4F/portmacro.h **** /*-----------------------------------------------------------*/
  77:../../kernel/FreeRTOS/Source/portable/GCC/ARM_CM4F/portmacro.h **** 
  78:../../kernel/FreeRTOS/Source/portable/GCC/ARM_CM4F/portmacro.h **** /* Scheduler utilities. */
  79:../../kernel/FreeRTOS/Source/portable/GCC/ARM_CM4F/portmacro.h **** #define portYIELD() 															\
  80:../../kernel/FreeRTOS/Source/portable/GCC/ARM_CM4F/portmacro.h **** {																				\
  81:../../kernel/FreeRTOS/Source/portable/GCC/ARM_CM4F/portmacro.h **** 	/* Set a PendSV to request a context switch. */								\
  82:../../kernel/FreeRTOS/Source/portable/GCC/ARM_CM4F/portmacro.h **** 	portNVIC_INT_CTRL_REG = portNVIC_PENDSVSET_BIT;								\
  83:../../kernel/FreeRTOS/Source/portable/GCC/ARM_CM4F/portmacro.h **** 																				\
  84:../../kernel/FreeRTOS/Source/portable/GCC/ARM_CM4F/portmacro.h **** 	/* Barriers are normally not required but do ensure the code is completely	\
  85:../../kernel/FreeRTOS/Source/portable/GCC/ARM_CM4F/portmacro.h **** 	within the specified behaviour for the architecture. */						\
  86:../../kernel/FreeRTOS/Source/portable/GCC/ARM_CM4F/portmacro.h **** 	__asm volatile( "dsb" ::: "memory" );										\
  87:../../kernel/FreeRTOS/Source/portable/GCC/ARM_CM4F/portmacro.h **** 	__asm volatile( "isb" );													\
  88:../../kernel/FreeRTOS/Source/portable/GCC/ARM_CM4F/portmacro.h **** }
  89:../../kernel/FreeRTOS/Source/portable/GCC/ARM_CM4F/portmacro.h **** 
  90:../../kernel/FreeRTOS/Source/portable/GCC/ARM_CM4F/portmacro.h **** #define portNVIC_INT_CTRL_REG		( * ( ( volatile uint32_t * ) 0xe000ed04 ) )
  91:../../kernel/FreeRTOS/Source/portable/GCC/ARM_CM4F/portmacro.h **** #define portNVIC_PENDSVSET_BIT		( 1UL << 28UL )
  92:../../kernel/FreeRTOS/Source/portable/GCC/ARM_CM4F/portmacro.h **** #define portEND_SWITCHING_ISR( xSwitchRequired ) if( xSwitchRequired != pdFALSE ) portYIELD()
  93:../../kernel/FreeRTOS/Source/portable/GCC/ARM_CM4F/portmacro.h **** #define portYIELD_FROM_ISR( x ) portEND_SWITCHING_ISR( x )
  94:../../kernel/FreeRTOS/Source/portable/GCC/ARM_CM4F/portmacro.h **** /*-----------------------------------------------------------*/
  95:../../kernel/FreeRTOS/Source/portable/GCC/ARM_CM4F/portmacro.h **** 
  96:../../kernel/FreeRTOS/Source/portable/GCC/ARM_CM4F/portmacro.h **** /* Critical section management. */
  97:../../kernel/FreeRTOS/Source/portable/GCC/ARM_CM4F/portmacro.h **** extern void vPortEnterCritical( void );
  98:../../kernel/FreeRTOS/Source/portable/GCC/ARM_CM4F/portmacro.h **** extern void vPortExitCritical( void );
  99:../../kernel/FreeRTOS/Source/portable/GCC/ARM_CM4F/portmacro.h **** #define portSET_INTERRUPT_MASK_FROM_ISR()		ulPortRaiseBASEPRI()
 100:../../kernel/FreeRTOS/Source/portable/GCC/ARM_CM4F/portmacro.h **** #define portCLEAR_INTERRUPT_MASK_FROM_ISR(x)	vPortSetBASEPRI(x)
 101:../../kernel/FreeRTOS/Source/portable/GCC/ARM_CM4F/portmacro.h **** #define portDISABLE_INTERRUPTS()				vPortRaiseBASEPRI()
 102:../../kernel/FreeRTOS/Source/portable/GCC/ARM_CM4F/portmacro.h **** #define portENABLE_INTERRUPTS()					vPortSetBASEPRI(0)
 103:../../kernel/FreeRTOS/Source/portable/GCC/ARM_CM4F/portmacro.h **** #define portENTER_CRITICAL()					vPortEnterCritical()
 104:../../kernel/FreeRTOS/Source/portable/GCC/ARM_CM4F/portmacro.h **** #define portEXIT_CRITICAL()						vPortExitCritical()
 105:../../kernel/FreeRTOS/Source/portable/GCC/ARM_CM4F/portmacro.h **** 
 106:../../kernel/FreeRTOS/Source/portable/GCC/ARM_CM4F/portmacro.h **** /*-----------------------------------------------------------*/
 107:../../kernel/FreeRTOS/Source/portable/GCC/ARM_CM4F/portmacro.h **** 
 108:../../kernel/FreeRTOS/Source/portable/GCC/ARM_CM4F/portmacro.h **** /* Task function macros as described on the FreeRTOS.org WEB site.  These are
 109:../../kernel/FreeRTOS/Source/portable/GCC/ARM_CM4F/portmacro.h **** not necessary for to use this port.  They are defined so the common demo files
 110:../../kernel/FreeRTOS/Source/portable/GCC/ARM_CM4F/portmacro.h **** (which build with all the ports) will build. */
 111:../../kernel/FreeRTOS/Source/portable/GCC/ARM_CM4F/portmacro.h **** #define portTASK_FUNCTION_PROTO( vFunction, pvParameters ) void vFunction( void *pvParameters )
 112:../../kernel/FreeRTOS/Source/portable/GCC/ARM_CM4F/portmacro.h **** #define portTASK_FUNCTION( vFunction, pvParameters ) void vFunction( void *pvParameters )
 113:../../kernel/FreeRTOS/Source/portable/GCC/ARM_CM4F/portmacro.h **** /*-----------------------------------------------------------*/
 114:../../kernel/FreeRTOS/Source/portable/GCC/ARM_CM4F/portmacro.h **** 
 115:../../kernel/FreeRTOS/Source/portable/GCC/ARM_CM4F/portmacro.h **** /* Tickless idle/low power functionality. */
 116:../../kernel/FreeRTOS/Source/portable/GCC/ARM_CM4F/portmacro.h **** #ifndef portSUPPRESS_TICKS_AND_SLEEP
 117:../../kernel/FreeRTOS/Source/portable/GCC/ARM_CM4F/portmacro.h **** 	extern void vPortSuppressTicksAndSleep( TickType_t xExpectedIdleTime );
 118:../../kernel/FreeRTOS/Source/portable/GCC/ARM_CM4F/portmacro.h **** 	#define portSUPPRESS_TICKS_AND_SLEEP( xExpectedIdleTime ) vPortSuppressTicksAndSleep( xExpectedIdl
 119:../../kernel/FreeRTOS/Source/portable/GCC/ARM_CM4F/portmacro.h **** #endif
 120:../../kernel/FreeRTOS/Source/portable/GCC/ARM_CM4F/portmacro.h **** /*-----------------------------------------------------------*/
 121:../../kernel/FreeRTOS/Source/portable/GCC/ARM_CM4F/portmacro.h **** 
 122:../../kernel/FreeRTOS/Source/portable/GCC/ARM_CM4F/portmacro.h **** /* Architecture specific optimisations. */
 123:../../kernel/FreeRTOS/Source/portable/GCC/ARM_CM4F/portmacro.h **** #ifndef configUSE_PORT_OPTIMISED_TASK_SELECTION
 124:../../kernel/FreeRTOS/Source/portable/GCC/ARM_CM4F/portmacro.h **** 	#define configUSE_PORT_OPTIMISED_TASK_SELECTION 1
 125:../../kernel/FreeRTOS/Source/portable/GCC/ARM_CM4F/portmacro.h **** #endif
 126:../../kernel/FreeRTOS/Source/portable/GCC/ARM_CM4F/portmacro.h **** 
 127:../../kernel/FreeRTOS/Source/portable/GCC/ARM_CM4F/portmacro.h **** #if configUSE_PORT_OPTIMISED_TASK_SELECTION == 1
ARM GAS  /tmp/ccQFS2IS.s 			page 10


 128:../../kernel/FreeRTOS/Source/portable/GCC/ARM_CM4F/portmacro.h **** 
 129:../../kernel/FreeRTOS/Source/portable/GCC/ARM_CM4F/portmacro.h **** 	/* Generic helper function. */
 130:../../kernel/FreeRTOS/Source/portable/GCC/ARM_CM4F/portmacro.h **** 	__attribute__( ( always_inline ) ) static inline uint8_t ucPortCountLeadingZeros( uint32_t ulBitma
 131:../../kernel/FreeRTOS/Source/portable/GCC/ARM_CM4F/portmacro.h **** 	{
 132:../../kernel/FreeRTOS/Source/portable/GCC/ARM_CM4F/portmacro.h **** 	uint8_t ucReturn;
 133:../../kernel/FreeRTOS/Source/portable/GCC/ARM_CM4F/portmacro.h **** 
 134:../../kernel/FreeRTOS/Source/portable/GCC/ARM_CM4F/portmacro.h **** 		__asm volatile ( "clz %0, %1" : "=r" ( ucReturn ) : "r" ( ulBitmap ) : "memory" );
 135:../../kernel/FreeRTOS/Source/portable/GCC/ARM_CM4F/portmacro.h **** 		return ucReturn;
 136:../../kernel/FreeRTOS/Source/portable/GCC/ARM_CM4F/portmacro.h **** 	}
 137:../../kernel/FreeRTOS/Source/portable/GCC/ARM_CM4F/portmacro.h **** 
 138:../../kernel/FreeRTOS/Source/portable/GCC/ARM_CM4F/portmacro.h **** 	/* Check the configuration. */
 139:../../kernel/FreeRTOS/Source/portable/GCC/ARM_CM4F/portmacro.h **** 	#if( configMAX_PRIORITIES > 32 )
 140:../../kernel/FreeRTOS/Source/portable/GCC/ARM_CM4F/portmacro.h **** 		#error configUSE_PORT_OPTIMISED_TASK_SELECTION can only be set to 1 when configMAX_PRIORITIES is 
 141:../../kernel/FreeRTOS/Source/portable/GCC/ARM_CM4F/portmacro.h **** 	#endif
 142:../../kernel/FreeRTOS/Source/portable/GCC/ARM_CM4F/portmacro.h **** 
 143:../../kernel/FreeRTOS/Source/portable/GCC/ARM_CM4F/portmacro.h **** 	/* Store/clear the ready priorities in a bit map. */
 144:../../kernel/FreeRTOS/Source/portable/GCC/ARM_CM4F/portmacro.h **** 	#define portRECORD_READY_PRIORITY( uxPriority, uxReadyPriorities ) ( uxReadyPriorities ) |= ( 1UL 
 145:../../kernel/FreeRTOS/Source/portable/GCC/ARM_CM4F/portmacro.h **** 	#define portRESET_READY_PRIORITY( uxPriority, uxReadyPriorities ) ( uxReadyPriorities ) &= ~( 1UL 
 146:../../kernel/FreeRTOS/Source/portable/GCC/ARM_CM4F/portmacro.h **** 
 147:../../kernel/FreeRTOS/Source/portable/GCC/ARM_CM4F/portmacro.h **** 	/*-----------------------------------------------------------*/
 148:../../kernel/FreeRTOS/Source/portable/GCC/ARM_CM4F/portmacro.h **** 
 149:../../kernel/FreeRTOS/Source/portable/GCC/ARM_CM4F/portmacro.h **** 	#define portGET_HIGHEST_PRIORITY( uxTopPriority, uxReadyPriorities ) uxTopPriority = ( 31UL - ( ui
 150:../../kernel/FreeRTOS/Source/portable/GCC/ARM_CM4F/portmacro.h **** 
 151:../../kernel/FreeRTOS/Source/portable/GCC/ARM_CM4F/portmacro.h **** #endif /* configUSE_PORT_OPTIMISED_TASK_SELECTION */
 152:../../kernel/FreeRTOS/Source/portable/GCC/ARM_CM4F/portmacro.h **** 
 153:../../kernel/FreeRTOS/Source/portable/GCC/ARM_CM4F/portmacro.h **** /*-----------------------------------------------------------*/
 154:../../kernel/FreeRTOS/Source/portable/GCC/ARM_CM4F/portmacro.h **** 
 155:../../kernel/FreeRTOS/Source/portable/GCC/ARM_CM4F/portmacro.h **** #ifdef configASSERT
 156:../../kernel/FreeRTOS/Source/portable/GCC/ARM_CM4F/portmacro.h **** 	void vPortValidateInterruptPriority( void );
 157:../../kernel/FreeRTOS/Source/portable/GCC/ARM_CM4F/portmacro.h **** 	#define portASSERT_IF_INTERRUPT_PRIORITY_INVALID() 	vPortValidateInterruptPriority()
 158:../../kernel/FreeRTOS/Source/portable/GCC/ARM_CM4F/portmacro.h **** #endif
 159:../../kernel/FreeRTOS/Source/portable/GCC/ARM_CM4F/portmacro.h **** 
 160:../../kernel/FreeRTOS/Source/portable/GCC/ARM_CM4F/portmacro.h **** /* portNOP() is not required by this port. */
 161:../../kernel/FreeRTOS/Source/portable/GCC/ARM_CM4F/portmacro.h **** #define portNOP()
 162:../../kernel/FreeRTOS/Source/portable/GCC/ARM_CM4F/portmacro.h **** 
 163:../../kernel/FreeRTOS/Source/portable/GCC/ARM_CM4F/portmacro.h **** #define portINLINE	__inline
 164:../../kernel/FreeRTOS/Source/portable/GCC/ARM_CM4F/portmacro.h **** 
 165:../../kernel/FreeRTOS/Source/portable/GCC/ARM_CM4F/portmacro.h **** #ifndef portFORCE_INLINE
 166:../../kernel/FreeRTOS/Source/portable/GCC/ARM_CM4F/portmacro.h **** 	#define portFORCE_INLINE inline __attribute__(( always_inline))
 167:../../kernel/FreeRTOS/Source/portable/GCC/ARM_CM4F/portmacro.h **** #endif
 168:../../kernel/FreeRTOS/Source/portable/GCC/ARM_CM4F/portmacro.h **** 
 169:../../kernel/FreeRTOS/Source/portable/GCC/ARM_CM4F/portmacro.h **** portFORCE_INLINE static BaseType_t xPortIsInsideInterrupt( void )
 170:../../kernel/FreeRTOS/Source/portable/GCC/ARM_CM4F/portmacro.h **** {
 171:../../kernel/FreeRTOS/Source/portable/GCC/ARM_CM4F/portmacro.h **** uint32_t ulCurrentInterrupt;
 172:../../kernel/FreeRTOS/Source/portable/GCC/ARM_CM4F/portmacro.h **** BaseType_t xReturn;
 173:../../kernel/FreeRTOS/Source/portable/GCC/ARM_CM4F/portmacro.h **** 
 174:../../kernel/FreeRTOS/Source/portable/GCC/ARM_CM4F/portmacro.h **** 	/* Obtain the number of the currently executing interrupt. */
 175:../../kernel/FreeRTOS/Source/portable/GCC/ARM_CM4F/portmacro.h **** 	__asm volatile( "mrs %0, ipsr" : "=r"( ulCurrentInterrupt ) :: "memory" );
 176:../../kernel/FreeRTOS/Source/portable/GCC/ARM_CM4F/portmacro.h **** 
 177:../../kernel/FreeRTOS/Source/portable/GCC/ARM_CM4F/portmacro.h **** 	if( ulCurrentInterrupt == 0 )
 178:../../kernel/FreeRTOS/Source/portable/GCC/ARM_CM4F/portmacro.h **** 	{
 179:../../kernel/FreeRTOS/Source/portable/GCC/ARM_CM4F/portmacro.h **** 		xReturn = pdFALSE;
 180:../../kernel/FreeRTOS/Source/portable/GCC/ARM_CM4F/portmacro.h **** 	}
 181:../../kernel/FreeRTOS/Source/portable/GCC/ARM_CM4F/portmacro.h **** 	else
 182:../../kernel/FreeRTOS/Source/portable/GCC/ARM_CM4F/portmacro.h **** 	{
 183:../../kernel/FreeRTOS/Source/portable/GCC/ARM_CM4F/portmacro.h **** 		xReturn = pdTRUE;
 184:../../kernel/FreeRTOS/Source/portable/GCC/ARM_CM4F/portmacro.h **** 	}
ARM GAS  /tmp/ccQFS2IS.s 			page 11


 185:../../kernel/FreeRTOS/Source/portable/GCC/ARM_CM4F/portmacro.h **** 
 186:../../kernel/FreeRTOS/Source/portable/GCC/ARM_CM4F/portmacro.h **** 	return xReturn;
 187:../../kernel/FreeRTOS/Source/portable/GCC/ARM_CM4F/portmacro.h **** }
 188:../../kernel/FreeRTOS/Source/portable/GCC/ARM_CM4F/portmacro.h **** 
 189:../../kernel/FreeRTOS/Source/portable/GCC/ARM_CM4F/portmacro.h **** /*-----------------------------------------------------------*/
 190:../../kernel/FreeRTOS/Source/portable/GCC/ARM_CM4F/portmacro.h **** 
 191:../../kernel/FreeRTOS/Source/portable/GCC/ARM_CM4F/portmacro.h **** portFORCE_INLINE static void vPortRaiseBASEPRI( void )
 192:../../kernel/FreeRTOS/Source/portable/GCC/ARM_CM4F/portmacro.h **** {
 193:../../kernel/FreeRTOS/Source/portable/GCC/ARM_CM4F/portmacro.h **** uint32_t ulNewBASEPRI;
 194:../../kernel/FreeRTOS/Source/portable/GCC/ARM_CM4F/portmacro.h **** 
 195:../../kernel/FreeRTOS/Source/portable/GCC/ARM_CM4F/portmacro.h **** 	__asm volatile
 196:../../kernel/FreeRTOS/Source/portable/GCC/ARM_CM4F/portmacro.h **** 	(
 197:../../kernel/FreeRTOS/Source/portable/GCC/ARM_CM4F/portmacro.h **** 		"	mov %0, %1												\n"	\
 198:../../kernel/FreeRTOS/Source/portable/GCC/ARM_CM4F/portmacro.h **** 		"	msr basepri, %0											\n" \
 199:../../kernel/FreeRTOS/Source/portable/GCC/ARM_CM4F/portmacro.h **** 		"	isb														\n" \
 200:../../kernel/FreeRTOS/Source/portable/GCC/ARM_CM4F/portmacro.h **** 		"	dsb														\n" \
 201:../../kernel/FreeRTOS/Source/portable/GCC/ARM_CM4F/portmacro.h **** 		:"=r" (ulNewBASEPRI) : "i" ( configMAX_SYSCALL_INTERRUPT_PRIORITY ) : "memory"
 202:../../kernel/FreeRTOS/Source/portable/GCC/ARM_CM4F/portmacro.h **** 	);
 203:../../kernel/FreeRTOS/Source/portable/GCC/ARM_CM4F/portmacro.h **** }
 204:../../kernel/FreeRTOS/Source/portable/GCC/ARM_CM4F/portmacro.h **** 
 205:../../kernel/FreeRTOS/Source/portable/GCC/ARM_CM4F/portmacro.h **** /*-----------------------------------------------------------*/
 206:../../kernel/FreeRTOS/Source/portable/GCC/ARM_CM4F/portmacro.h **** 
 207:../../kernel/FreeRTOS/Source/portable/GCC/ARM_CM4F/portmacro.h **** portFORCE_INLINE static uint32_t ulPortRaiseBASEPRI( void )
 210              		.loc 2 207 34 view .LVU33
 211              	.LBB11:
 208:../../kernel/FreeRTOS/Source/portable/GCC/ARM_CM4F/portmacro.h **** {
 209:../../kernel/FreeRTOS/Source/portable/GCC/ARM_CM4F/portmacro.h **** uint32_t ulOriginalBASEPRI, ulNewBASEPRI;
 212              		.loc 2 209 1 view .LVU34
 210:../../kernel/FreeRTOS/Source/portable/GCC/ARM_CM4F/portmacro.h **** 
 211:../../kernel/FreeRTOS/Source/portable/GCC/ARM_CM4F/portmacro.h **** 	__asm volatile
 213              		.loc 2 211 2 view .LVU35
 214              		.syntax unified
 215              	@ 211 "../../kernel/FreeRTOS/Source/portable/GCC/ARM_CM4F/portmacro.h" 1
 216 0040 EFF31186 			mrs r6, basepri												@ ulOriginalBASEPRI
 217 0044 4FF0A003 		mov r3, #160													@ ulNewBASEPRI,
 218 0048 83F31188 		msr basepri, r3												@ ulNewBASEPRI
 219 004c BFF36F8F 		isb														
 220 0050 BFF34F8F 		dsb														
 221              	
 222              	@ 0 "" 2
 223              	.LVL8:
 212:../../kernel/FreeRTOS/Source/portable/GCC/ARM_CM4F/portmacro.h **** 	(
 213:../../kernel/FreeRTOS/Source/portable/GCC/ARM_CM4F/portmacro.h **** 		"	mrs %0, basepri											\n" \
 214:../../kernel/FreeRTOS/Source/portable/GCC/ARM_CM4F/portmacro.h **** 		"	mov %1, %2												\n"	\
 215:../../kernel/FreeRTOS/Source/portable/GCC/ARM_CM4F/portmacro.h **** 		"	msr basepri, %1											\n" \
 216:../../kernel/FreeRTOS/Source/portable/GCC/ARM_CM4F/portmacro.h **** 		"	isb														\n" \
 217:../../kernel/FreeRTOS/Source/portable/GCC/ARM_CM4F/portmacro.h **** 		"	dsb														\n" \
 218:../../kernel/FreeRTOS/Source/portable/GCC/ARM_CM4F/portmacro.h **** 		:"=r" (ulOriginalBASEPRI), "=r" (ulNewBASEPRI) : "i" ( configMAX_SYSCALL_INTERRUPT_PRIORITY ) : "
 219:../../kernel/FreeRTOS/Source/portable/GCC/ARM_CM4F/portmacro.h **** 	);
 220:../../kernel/FreeRTOS/Source/portable/GCC/ARM_CM4F/portmacro.h **** 
 221:../../kernel/FreeRTOS/Source/portable/GCC/ARM_CM4F/portmacro.h **** 	/* This return will not be reached but is necessary to prevent compiler
 222:../../kernel/FreeRTOS/Source/portable/GCC/ARM_CM4F/portmacro.h **** 	warnings. */
 223:../../kernel/FreeRTOS/Source/portable/GCC/ARM_CM4F/portmacro.h **** 	return ulOriginalBASEPRI;
 224              		.loc 2 223 2 view .LVU36
 225              		.loc 2 223 2 is_stmt 0 view .LVU37
 226              		.thumb
 227              		.syntax unified
ARM GAS  /tmp/ccQFS2IS.s 			page 12


 228              	.LBE11:
 229              	.LBE10:
 143:../../peripheral_library/drv/drvSerial.c ****         portCLEAR_INTERRUPT_MASK_FROM_ISR(uxSavedInterruptStatus);
 230              		.loc 1 143 9 is_stmt 1 view .LVU38
 231 0054 0023     		movs	r3, #0	@,
 232 0056 01AA     		add	r2, sp, #4	@ tmp141,,
 233 0058 0DF10301 		add	r1, sp, #3	@ tmp142,,
 234 005c 2868     		ldr	r0, [r5]	@, xRxedChars
 235 005e FFF7FEFF 		bl	xQueueGenericSendFromISR		@
 236              	.LVL9:
 144:../../peripheral_library/drv/drvSerial.c ****       }
 237              		.loc 1 144 9 view .LVU39
 238              	.LBB12:
 239              	.LBI12:
 224:../../kernel/FreeRTOS/Source/portable/GCC/ARM_CM4F/portmacro.h **** }
 225:../../kernel/FreeRTOS/Source/portable/GCC/ARM_CM4F/portmacro.h **** /*-----------------------------------------------------------*/
 226:../../kernel/FreeRTOS/Source/portable/GCC/ARM_CM4F/portmacro.h **** 
 227:../../kernel/FreeRTOS/Source/portable/GCC/ARM_CM4F/portmacro.h **** portFORCE_INLINE static void vPortSetBASEPRI( uint32_t ulNewMaskValue )
 240              		.loc 2 227 30 view .LVU40
 241              	.LBB13:
 228:../../kernel/FreeRTOS/Source/portable/GCC/ARM_CM4F/portmacro.h **** {
 229:../../kernel/FreeRTOS/Source/portable/GCC/ARM_CM4F/portmacro.h **** 	__asm volatile
 242              		.loc 2 229 2 view .LVU41
 243              		.syntax unified
 244              	@ 229 "../../kernel/FreeRTOS/Source/portable/GCC/ARM_CM4F/portmacro.h" 1
 245 0062 86F31188 			msr basepri, r6		@ ulOriginalBASEPRI
 246              	@ 0 "" 2
 247              		.thumb
 248              		.syntax unified
 249              	.LBE13:
 250              	.LBE12:
 251              	.LBE9:
 148:../../peripheral_library/drv/drvSerial.c ****     {
 252              		.loc 1 148 5 view .LVU42
 253              	.LVL10:
 254              	.L5:
 154:../../peripheral_library/drv/drvSerial.c ****     {
 255              		.loc 1 154 5 view .LVU43
 256              	@ ../../peripheral_library/drv/drvSerial.c:154:     if(nSource == UART_IIR_RLSI)
 154:../../peripheral_library/drv/drvSerial.c ****     {
 257              		.loc 1 154 7 is_stmt 0 view .LVU44
 258 0066 062C     		cmp	r4, #6	@ nSource,
 259 0068 D8D1     		bne	.L6		@,
 157:../../peripheral_library/drv/drvSerial.c ****     }
 260              		.loc 1 157 7 is_stmt 1 view .LVU45
 261 006a FFF7FEFF 		bl	uart_clear_lsr		@
 262              	.LVL11:
 263              		.loc 1 160 5 view .LVU46
 264              	@ ../../peripheral_library/drv/drvSerial.c:160:     nSource = uart_int_source();
 265              		.loc 1 160 15 is_stmt 0 view .LVU47
 266 006e FFF7FEFF 		bl	uart_int_source		@
 267              	.LVL12:
 268              	@ ../../peripheral_library/drv/drvSerial.c:96:   while(nSource != UART_IIR_NO_INT)
  96:../../peripheral_library/drv/drvSerial.c ****   {
 269              		.loc 1 96 8 view .LVU48
 270 0072 0128     		cmp	r0, #1	@ nSource,
 271              	@ ../../peripheral_library/drv/drvSerial.c:160:     nSource = uart_int_source();
ARM GAS  /tmp/ccQFS2IS.s 			page 13


 272              		.loc 1 160 15 view .LVU49
 273 0074 0446     		mov	r4, r0	@ nSource,
 274              	.LVL13:
 275              	@ ../../peripheral_library/drv/drvSerial.c:96:   while(nSource != UART_IIR_NO_INT)
  96:../../peripheral_library/drv/drvSerial.c ****   {
 276              		.loc 1 96 8 view .LVU50
 277 0076 D6D1     		bne	.L7		@,
 278              	.LVL14:
 279              	.L2:
 161:../../peripheral_library/drv/drvSerial.c ****   }
 162:../../peripheral_library/drv/drvSerial.c **** 
 163:../../peripheral_library/drv/drvSerial.c ****   /* Call the IntQ test function for this channel. */
 164:../../peripheral_library/drv/drvSerial.c ****   portYIELD_FROM_ISR(xHigherPriorityTaskWoken);
 280              		.loc 1 164 3 is_stmt 1 view .LVU51
 281 0078 019B     		ldr	r3, [sp, #4]	@ xHigherPriorityTaskWoken, xHigherPriorityTaskWoken
 282 007a 3BB1     		cbz	r3, .L1	@ xHigherPriorityTaskWoken,
 283              		.loc 1 164 3 discriminator 1 view .LVU52
 284 007c 054B     		ldr	r3, .L20+4	@ tmp132,
 285 007e 4FF08052 		mov	r2, #268435456	@ tmp133,
 286 0082 1A60     		str	r2, [r3]	@ tmp133, MEM[(volatile uint32_t *)3758157060B]
 287              		.loc 1 164 3 discriminator 1 view .LVU53
 288              		.syntax unified
 289              	@ 164 "../../peripheral_library/drv/drvSerial.c" 1
 290 0084 BFF34F8F 		dsb	
 291              	@ 0 "" 2
 292              		.loc 1 164 3 discriminator 1 view .LVU54
 293              	@ 164 "../../peripheral_library/drv/drvSerial.c" 1
 294 0088 BFF36F8F 		isb
 295              	@ 0 "" 2
 296              		.loc 1 164 47 discriminator 1 view .LVU55
 297              		.thumb
 298              		.syntax unified
 299              	.L1:
 300              	@ ../../peripheral_library/drv/drvSerial.c:166: }
 165:../../peripheral_library/drv/drvSerial.c **** 
 166:../../peripheral_library/drv/drvSerial.c **** }
 301              		.loc 1 166 1 is_stmt 0 view .LVU56
 302 008c 02B0     		add	sp, sp, #8	@,,
 303              		.cfi_def_cfa_offset 16
 304              		@ sp needed	@
 305 008e 70BD     		pop	{r4, r5, r6, pc}	@
 306              	.L21:
 307              		.align	2
 308              	.L20:
 309 0090 00000000 		.word	.LANCHOR0
 310 0094 04ED00E0 		.word	-536810236
 311              		.cfi_endproc
 312              	.LFE134:
 313              		.size	NVIC_Handler_UART, .-NVIC_Handler_UART
 314              		.section	.text.xSerialPortInitMinimal,"ax",%progbits
 315              		.align	1
 316              		.p2align 2,,3
 317              		.global	xSerialPortInitMinimal
 318              		.syntax unified
 319              		.thumb
 320              		.thumb_func
 321              		.fpu fpv4-sp-d16
ARM GAS  /tmp/ccQFS2IS.s 			page 14


 322              		.type	xSerialPortInitMinimal, %function
 323              	xSerialPortInitMinimal:
 324              	.LVL15:
 325              	.LFB135:
 167:../../peripheral_library/drv/drvSerial.c **** 
 168:../../peripheral_library/drv/drvSerial.c **** xComPortHandle xSerialPortInitMinimal( unsigned long ulWantedBaud, unsigned portBASE_TYPE uxQueueLe
 169:../../peripheral_library/drv/drvSerial.c **** {
 326              		.loc 1 169 1 is_stmt 1 view -0
 327              		.cfi_startproc
 328              		@ args = 0, pretend = 0, frame = 0
 329              		@ frame_needed = 0, uses_anonymous_args = 0
 170:../../peripheral_library/drv/drvSerial.c **** xComPortHandle    xReturn = serHANDLE;
 330              		.loc 1 170 1 view .LVU58
 171:../../peripheral_library/drv/drvSerial.c **** //int cd; /* USART Clock Divider. */
 172:../../peripheral_library/drv/drvSerial.c **** 
 173:../../peripheral_library/drv/drvSerial.c **** 	/* Create the rx and tx queues. */
 174:../../peripheral_library/drv/drvSerial.c **** 	vprvSerialCreateQueues( uxQueueLength, &xRxedChars, &xCharsForTx );
 331              		.loc 1 174 2 view .LVU59
 332              	@ ../../peripheral_library/drv/drvSerial.c:169: {
 169:../../peripheral_library/drv/drvSerial.c **** xComPortHandle    xReturn = serHANDLE;
 333              		.loc 1 169 1 is_stmt 0 view .LVU60
 334 0000 70B5     		push	{r4, r5, r6, lr}	@
 335              		.cfi_def_cfa_offset 16
 336              		.cfi_offset 4, -16
 337              		.cfi_offset 5, -12
 338              		.cfi_offset 6, -8
 339              		.cfi_offset 14, -4
 340              	.LBB17:
 341              	.LBB18:
 342              	@ ../../peripheral_library/drv/drvSerial.c:315: 	xRxedChars = xQueueCreate( uxQueueLength, ( unsign
 175:../../peripheral_library/drv/drvSerial.c **** 
 176:../../peripheral_library/drv/drvSerial.c **** 	/* Configure USART. */
 177:../../peripheral_library/drv/drvSerial.c **** 	if( ( xRxedChars != serINVALID_QUEUE ) &&
 178:../../peripheral_library/drv/drvSerial.c **** 	  ( xCharsForTx != serINVALID_QUEUE ) &&
 179:../../peripheral_library/drv/drvSerial.c **** 	  ( ulWantedBaud != ( unsigned long ) 0 ) )
 180:../../peripheral_library/drv/drvSerial.c **** 	{
 181:../../peripheral_library/drv/drvSerial.c **** 		portENTER_CRITICAL();
 182:../../peripheral_library/drv/drvSerial.c **** 		{
 183:../../peripheral_library/drv/drvSerial.c ****       //uart_init();
 184:../../peripheral_library/drv/drvSerial.c ****       uart_int_enable();
 185:../../peripheral_library/drv/drvSerial.c ****       U8 uartId = uart_id();
 186:../../peripheral_library/drv/drvSerial.c **** 
 187:../../peripheral_library/drv/drvSerial.c **** //      if (!uart_id())
 188:../../peripheral_library/drv/drvSerial.c **** //      {
 189:../../peripheral_library/drv/drvSerial.c **** //        MOS_IRQn_AttachIsr(NVIC_Handler_UART, UART0_IRQn, UART_INT_PRIORITY);
 190:../../peripheral_library/drv/drvSerial.c **** //        MOS_IRQn_Unmask(UART0_IRQn);
 191:../../peripheral_library/drv/drvSerial.c **** //      }
 192:../../peripheral_library/drv/drvSerial.c **** //      else
 193:../../peripheral_library/drv/drvSerial.c **** //      {
 194:../../peripheral_library/drv/drvSerial.c **** //        MOS_IRQn_AttachIsr(NVIC_Handler_UART, UART1_IRQn, UART_INT_PRIORITY);
 195:../../peripheral_library/drv/drvSerial.c **** //        MOS_IRQn_Unmask(UART1_IRQn);
 196:../../peripheral_library/drv/drvSerial.c **** //      }
 197:../../peripheral_library/drv/drvSerial.c **** 
 198:../../peripheral_library/drv/drvSerial.c ****       if (uartId == 0)
 199:../../peripheral_library/drv/drvSerial.c ****       {
 200:../../peripheral_library/drv/drvSerial.c ****         MOS_IRQn_AttachIsr(NVIC_Handler_UART, UART0_IRQn, UART_INT_PRIORITY);
 201:../../peripheral_library/drv/drvSerial.c ****         MOS_IRQn_Unmask(UART0_IRQn);
ARM GAS  /tmp/ccQFS2IS.s 			page 15


 202:../../peripheral_library/drv/drvSerial.c ****       }
 203:../../peripheral_library/drv/drvSerial.c ****       else if (uartId == 2)
 204:../../peripheral_library/drv/drvSerial.c ****       {
 205:../../peripheral_library/drv/drvSerial.c ****         MOS_IRQn_AttachIsr(NVIC_Handler_UART, UART2_IRQn, UART_INT_PRIORITY);
 206:../../peripheral_library/drv/drvSerial.c ****         MOS_IRQn_Unmask(UART2_IRQn);
 207:../../peripheral_library/drv/drvSerial.c ****       }
 208:../../peripheral_library/drv/drvSerial.c ****       else
 209:../../peripheral_library/drv/drvSerial.c ****       {
 210:../../peripheral_library/drv/drvSerial.c ****         MOS_IRQn_AttachIsr(NVIC_Handler_UART, UART1_IRQn, UART_INT_PRIORITY);
 211:../../peripheral_library/drv/drvSerial.c ****         MOS_IRQn_Unmask(UART1_IRQn);
 212:../../peripheral_library/drv/drvSerial.c ****       }
 213:../../peripheral_library/drv/drvSerial.c **** 
 214:../../peripheral_library/drv/drvSerial.c **** 
 215:../../peripheral_library/drv/drvSerial.c **** /*
 216:../../peripheral_library/drv/drvSerial.c **** extern unsigned long __Vectors[];
 217:../../peripheral_library/drv/drvSerial.c **** 
 218:../../peripheral_library/drv/drvSerial.c ****       __Vectors[UART0_IRQn + 16] = (unsigned long)NVIC_Handler_UART0;
 219:../../peripheral_library/drv/drvSerial.c **** 
 220:../../peripheral_library/drv/drvSerial.c ****       NVIC_SetPriority(UART0_IRQn, UART0_INT_PRIORITY);
 221:../../peripheral_library/drv/drvSerial.c ****       NVIC_ClearPendingIRQ(UART0_IRQn);
 222:../../peripheral_library/drv/drvSerial.c ****       NVIC_EnableIRQ(UART0_IRQn);
 223:../../peripheral_library/drv/drvSerial.c **** */
 224:../../peripheral_library/drv/drvSerial.c **** 		}
 225:../../peripheral_library/drv/drvSerial.c **** 		portEXIT_CRITICAL();
 226:../../peripheral_library/drv/drvSerial.c **** 	}
 227:../../peripheral_library/drv/drvSerial.c **** 	else
 228:../../peripheral_library/drv/drvSerial.c **** 	{
 229:../../peripheral_library/drv/drvSerial.c **** 		xReturn = serINVALID_COMPORT_HANDLER;
 230:../../peripheral_library/drv/drvSerial.c **** 	}
 231:../../peripheral_library/drv/drvSerial.c **** 
 232:../../peripheral_library/drv/drvSerial.c **** 	return xReturn;
 233:../../peripheral_library/drv/drvSerial.c **** }
 234:../../peripheral_library/drv/drvSerial.c **** /*-----------------------------------------------------------*/
 235:../../peripheral_library/drv/drvSerial.c **** 
 236:../../peripheral_library/drv/drvSerial.c **** signed portBASE_TYPE xSerialGetChar( xComPortHandle pxPort, signed char *pcRxedChar, TickType_t xBl
 237:../../peripheral_library/drv/drvSerial.c **** {
 238:../../peripheral_library/drv/drvSerial.c **** 	/* The port handle is not required as this driver only supports UART0. */
 239:../../peripheral_library/drv/drvSerial.c **** 	( void ) pxPort;
 240:../../peripheral_library/drv/drvSerial.c **** 
 241:../../peripheral_library/drv/drvSerial.c **** 	/* Get the next character from the buffer.  Return false if no characters
 242:../../peripheral_library/drv/drvSerial.c **** 	are available, or arrive before xBlockTime expires. */
 243:../../peripheral_library/drv/drvSerial.c **** 	if( xQueueReceive( xRxedChars, pcRxedChar, xBlockTime ) )
 244:../../peripheral_library/drv/drvSerial.c **** 	{
 245:../../peripheral_library/drv/drvSerial.c **** 		return pdTRUE;
 246:../../peripheral_library/drv/drvSerial.c **** 	}
 247:../../peripheral_library/drv/drvSerial.c **** 	else
 248:../../peripheral_library/drv/drvSerial.c **** 	{
 249:../../peripheral_library/drv/drvSerial.c **** 		return pdFALSE;
 250:../../peripheral_library/drv/drvSerial.c **** 	}
 251:../../peripheral_library/drv/drvSerial.c **** }
 252:../../peripheral_library/drv/drvSerial.c **** /*-----------------------------------------------------------*/
 253:../../peripheral_library/drv/drvSerial.c **** 
 254:../../peripheral_library/drv/drvSerial.c **** void vSerialPutString( xComPortHandle pxPort, const signed char * const pcString, unsigned short us
 255:../../peripheral_library/drv/drvSerial.c **** {
 256:../../peripheral_library/drv/drvSerial.c **** signed char *pxNext;
 257:../../peripheral_library/drv/drvSerial.c **** 
 258:../../peripheral_library/drv/drvSerial.c **** 	/* NOTE: This implementation does not handle the queue being full as no
ARM GAS  /tmp/ccQFS2IS.s 			page 16


 259:../../peripheral_library/drv/drvSerial.c **** 	block time is used! */
 260:../../peripheral_library/drv/drvSerial.c **** 
 261:../../peripheral_library/drv/drvSerial.c **** 	/* The port handle is not required as this driver only supports UART0. */
 262:../../peripheral_library/drv/drvSerial.c **** 	( void ) pxPort;
 263:../../peripheral_library/drv/drvSerial.c **** 	( void ) usStringLength;
 264:../../peripheral_library/drv/drvSerial.c **** 
 265:../../peripheral_library/drv/drvSerial.c **** 	/* Send each character in the string, one at a time. */
 266:../../peripheral_library/drv/drvSerial.c **** 	pxNext = ( signed char * ) pcString;
 267:../../peripheral_library/drv/drvSerial.c **** 	while( *pxNext )
 268:../../peripheral_library/drv/drvSerial.c **** 	{
 269:../../peripheral_library/drv/drvSerial.c **** 		xSerialPutChar( pxPort, *pxNext, serNO_BLOCK );
 270:../../peripheral_library/drv/drvSerial.c **** 		pxNext++;
 271:../../peripheral_library/drv/drvSerial.c **** 	}
 272:../../peripheral_library/drv/drvSerial.c **** }
 273:../../peripheral_library/drv/drvSerial.c **** /*-----------------------------------------------------------*/
 274:../../peripheral_library/drv/drvSerial.c **** 
 275:../../peripheral_library/drv/drvSerial.c **** signed portBASE_TYPE xSerialPutChar( xComPortHandle pxPort, signed char cOutChar, TickType_t xBlock
 276:../../peripheral_library/drv/drvSerial.c **** {
 277:../../peripheral_library/drv/drvSerial.c **** 	( void ) pxPort;
 278:../../peripheral_library/drv/drvSerial.c **** 	( void ) xBlockTime;
 279:../../peripheral_library/drv/drvSerial.c **** 
 280:../../peripheral_library/drv/drvSerial.c ****   uart_write_byte(cOutChar);
 281:../../peripheral_library/drv/drvSerial.c **** 
 282:../../peripheral_library/drv/drvSerial.c **** #if 0
 283:../../peripheral_library/drv/drvSerial.c **** 	/* Place the character in the queue of characters to be transmitted. */
 284:../../peripheral_library/drv/drvSerial.c **** 	if( xQueueSend( xCharsForTx, &cOutChar, xBlockTime ) != pdPASS )
 285:../../peripheral_library/drv/drvSerial.c **** 	{
 286:../../peripheral_library/drv/drvSerial.c **** 		return pdFAIL;
 287:../../peripheral_library/drv/drvSerial.c **** 	}
 288:../../peripheral_library/drv/drvSerial.c **** 
 289:../../peripheral_library/drv/drvSerial.c **** 	/* Turn on the Tx interrupt so the ISR will remove the character from the
 290:../../peripheral_library/drv/drvSerial.c **** 	queue and send it.   This does not need to be in a critical section as
 291:../../peripheral_library/drv/drvSerial.c **** 	if the interrupt has already removed the character the next interrupt
 292:../../peripheral_library/drv/drvSerial.c **** 	will simply turn off the Tx interrupt again. */
 293:../../peripheral_library/drv/drvSerial.c ****   UART_REG8(UART_IER) |= UART_IER_THRI ;
 294:../../peripheral_library/drv/drvSerial.c **** #endif
 295:../../peripheral_library/drv/drvSerial.c **** 
 296:../../peripheral_library/drv/drvSerial.c **** 	return pdPASS;
 297:../../peripheral_library/drv/drvSerial.c **** }
 298:../../peripheral_library/drv/drvSerial.c **** /*-----------------------------------------------------------*/
 299:../../peripheral_library/drv/drvSerial.c **** 
 300:../../peripheral_library/drv/drvSerial.c **** void vSerialClose( xComPortHandle xPort )
 301:../../peripheral_library/drv/drvSerial.c **** {
 302:../../peripheral_library/drv/drvSerial.c **** 	( void ) xPort;
 303:../../peripheral_library/drv/drvSerial.c ****   /* Not supported as not required by the demo application. */
 304:../../peripheral_library/drv/drvSerial.c **** }
 305:../../peripheral_library/drv/drvSerial.c **** /*-----------------------------------------------------------*/
 306:../../peripheral_library/drv/drvSerial.c **** 
 307:../../peripheral_library/drv/drvSerial.c **** /*###########################################################*/
 308:../../peripheral_library/drv/drvSerial.c **** 
 309:../../peripheral_library/drv/drvSerial.c **** /*
 310:../../peripheral_library/drv/drvSerial.c ****  * Create the rx and tx queues.
 311:../../peripheral_library/drv/drvSerial.c ****  */
 312:../../peripheral_library/drv/drvSerial.c **** static void vprvSerialCreateQueues(  unsigned portBASE_TYPE uxQueueLength, QueueHandle_t *pxRxedCha
 313:../../peripheral_library/drv/drvSerial.c **** {
 314:../../peripheral_library/drv/drvSerial.c **** 	/* Create the queues used to hold Rx and Tx characters. */
 315:../../peripheral_library/drv/drvSerial.c **** 	xRxedChars = xQueueCreate( uxQueueLength, ( unsigned portBASE_TYPE ) sizeof( signed char ) );
ARM GAS  /tmp/ccQFS2IS.s 			page 17


 343              		.loc 1 315 15 view .LVU61
 344 0002 0022     		movs	r2, #0	@,
 345              	.LBE18:
 346              	.LBE17:
 347              	@ ../../peripheral_library/drv/drvSerial.c:169: {
 169:../../peripheral_library/drv/drvSerial.c **** xComPortHandle    xReturn = serHANDLE;
 348              		.loc 1 169 1 view .LVU62
 349 0004 0E46     		mov	r6, r1	@ uxQueueLength, uxQueueLength
 350              	.LVL16:
 351              	.LBB22:
 352              	.LBI17:
 312:../../peripheral_library/drv/drvSerial.c **** {
 353              		.loc 1 312 13 is_stmt 1 view .LVU63
 354              	.LBB19:
 355              		.loc 1 315 2 view .LVU64
 356              	.LBE19:
 357              	.LBE22:
 358              	@ ../../peripheral_library/drv/drvSerial.c:169: {
 169:../../peripheral_library/drv/drvSerial.c **** xComPortHandle    xReturn = serHANDLE;
 359              		.loc 1 169 1 is_stmt 0 view .LVU65
 360 0006 0446     		mov	r4, r0	@ ulWantedBaud, ulWantedBaud
 361              	.LBB23:
 362              	.LBB20:
 363              	@ ../../peripheral_library/drv/drvSerial.c:315: 	xRxedChars = xQueueCreate( uxQueueLength, ( unsign
 364              		.loc 1 315 15 view .LVU66
 365 0008 0846     		mov	r0, r1	@, uxQueueLength
 366              	.LVL17:
 367              		.loc 1 315 15 view .LVU67
 368 000a 0121     		movs	r1, #1	@,
 369              	.LVL18:
 370              		.loc 1 315 15 view .LVU68
 371 000c FFF7FEFF 		bl	xQueueGenericCreate		@
 372              	.LVL19:
 373              	@ ../../peripheral_library/drv/drvSerial.c:315: 	xRxedChars = xQueueCreate( uxQueueLength, ( unsign
 374              		.loc 1 315 13 view .LVU69
 375 0010 164D     		ldr	r5, .L31	@ tmp118,
 376              	@ ../../peripheral_library/drv/drvSerial.c:316: 	xCharsForTx = xQueueCreate( uxQueueLength + 1, ( u
 316:../../peripheral_library/drv/drvSerial.c **** 	xCharsForTx = xQueueCreate( uxQueueLength + 1, ( unsigned portBASE_TYPE ) sizeof( signed char ) );
 377              		.loc 1 316 16 view .LVU70
 378 0012 0121     		movs	r1, #1	@,
 379 0014 0022     		movs	r2, #0	@,
 380              	@ ../../peripheral_library/drv/drvSerial.c:315: 	xRxedChars = xQueueCreate( uxQueueLength, ( unsign
 315:../../peripheral_library/drv/drvSerial.c **** 	xCharsForTx = xQueueCreate( uxQueueLength + 1, ( unsigned portBASE_TYPE ) sizeof( signed char ) );
 381              		.loc 1 315 13 view .LVU71
 382 0016 2860     		str	r0, [r5]	@, xRxedChars
 383              		.loc 1 316 2 is_stmt 1 view .LVU72
 384              	@ ../../peripheral_library/drv/drvSerial.c:316: 	xCharsForTx = xQueueCreate( uxQueueLength + 1, ( u
 385              		.loc 1 316 16 is_stmt 0 view .LVU73
 386 0018 7018     		adds	r0, r6, r1	@, uxQueueLength,
 387 001a FFF7FEFF 		bl	xQueueGenericCreate		@
 388              	.LVL20:
 389              	@ ../../peripheral_library/drv/drvSerial.c:316: 	xCharsForTx = xQueueCreate( uxQueueLength + 1, ( u
 390              		.loc 1 316 14 view .LVU74
 391 001e 144A     		ldr	r2, .L31+4	@ tmp120,
 392              	.LBE20:
 393              	.LBE23:
 394              	@ ../../peripheral_library/drv/drvSerial.c:177: 	if( ( xRxedChars != serINVALID_QUEUE ) &&
ARM GAS  /tmp/ccQFS2IS.s 			page 18


 177:../../peripheral_library/drv/drvSerial.c **** 	  ( xCharsForTx != serINVALID_QUEUE ) &&
 395              		.loc 1 177 4 view .LVU75
 396 0020 2B68     		ldr	r3, [r5]	@ xRxedChars, xRxedChars
 397              	.LBB24:
 398              	.LBB21:
 399              	@ ../../peripheral_library/drv/drvSerial.c:316: 	xCharsForTx = xQueueCreate( uxQueueLength + 1, ( u
 400              		.loc 1 316 14 view .LVU76
 401 0022 1060     		str	r0, [r2]	@ _23, xCharsForTx
 317:../../peripheral_library/drv/drvSerial.c **** 
 318:../../peripheral_library/drv/drvSerial.c **** 	/* Pass back a reference to the queues so the serial API file can
 319:../../peripheral_library/drv/drvSerial.c **** 	post/receive characters. */
 320:../../peripheral_library/drv/drvSerial.c **** 	*pxRxedChars = xRxedChars;
 402              		.loc 1 320 2 is_stmt 1 view .LVU77
 321:../../peripheral_library/drv/drvSerial.c **** 	*pxCharsForTx = xCharsForTx;
 403              		.loc 1 321 2 view .LVU78
 404              	.LVL21:
 405              		.loc 1 321 2 is_stmt 0 view .LVU79
 406              	.LBE21:
 407              	.LBE24:
 177:../../peripheral_library/drv/drvSerial.c **** 	  ( xCharsForTx != serINVALID_QUEUE ) &&
 408              		.loc 1 177 2 is_stmt 1 view .LVU80
 409              	@ ../../peripheral_library/drv/drvSerial.c:177: 	if( ( xRxedChars != serINVALID_QUEUE ) &&
 177:../../peripheral_library/drv/drvSerial.c **** 	  ( xCharsForTx != serINVALID_QUEUE ) &&
 410              		.loc 1 177 4 is_stmt 0 view .LVU81
 411 0024 C3B1     		cbz	r3, .L26	@ xRxedChars,
 412              	@ ../../peripheral_library/drv/drvSerial.c:177: 	if( ( xRxedChars != serINVALID_QUEUE ) &&
 177:../../peripheral_library/drv/drvSerial.c **** 	  ( xCharsForTx != serINVALID_QUEUE ) &&
 413              		.loc 1 177 41 discriminator 1 view .LVU82
 414 0026 A0B1     		cbz	r0, .L22	@ _23,
 415              	@ ../../peripheral_library/drv/drvSerial.c:178: 	  ( xCharsForTx != serINVALID_QUEUE ) &&
 178:../../peripheral_library/drv/drvSerial.c **** 	  ( ulWantedBaud != ( unsigned long ) 0 ) )
 416              		.loc 1 178 40 view .LVU83
 417 0028 A4B1     		cbz	r4, .L28	@ ulWantedBaud,
 181:../../peripheral_library/drv/drvSerial.c **** 		{
 418              		.loc 1 181 3 is_stmt 1 view .LVU84
 419 002a FFF7FEFF 		bl	vPortEnterCritical		@
 420              	.LVL22:
 421              	.LBB25:
 184:../../peripheral_library/drv/drvSerial.c ****       U8 uartId = uart_id();
 422              		.loc 1 184 7 view .LVU85
 423 002e FFF7FEFF 		bl	uart_int_enable		@
 424              	.LVL23:
 185:../../peripheral_library/drv/drvSerial.c **** 
 425              		.loc 1 185 7 view .LVU86
 426              	@ ../../peripheral_library/drv/drvSerial.c:185:       U8 uartId = uart_id();
 185:../../peripheral_library/drv/drvSerial.c **** 
 427              		.loc 1 185 19 is_stmt 0 view .LVU87
 428 0032 FFF7FEFF 		bl	uart_id		@
 429              	.LVL24:
 198:../../peripheral_library/drv/drvSerial.c ****       {
 430              		.loc 1 198 7 is_stmt 1 view .LVU88
 431              	@ ../../peripheral_library/drv/drvSerial.c:200:         MOS_IRQn_AttachIsr(NVIC_Handler_UART, UART0
 200:../../peripheral_library/drv/drvSerial.c ****         MOS_IRQn_Unmask(UART0_IRQn);
 432              		.loc 1 200 9 is_stmt 0 view .LVU89
 433 0036 0622     		movs	r2, #6	@,
 434              	@ ../../peripheral_library/drv/drvSerial.c:198:       if (uartId == 0)
 198:../../peripheral_library/drv/drvSerial.c ****       {
ARM GAS  /tmp/ccQFS2IS.s 			page 19


 435              		.loc 1 198 10 view .LVU90
 436 0038 80B1     		cbz	r0, .L30	@,
 203:../../peripheral_library/drv/drvSerial.c ****       {
 437              		.loc 1 203 12 is_stmt 1 view .LVU91
 205:../../peripheral_library/drv/drvSerial.c ****         MOS_IRQn_Unmask(UART2_IRQn);
 438              		.loc 1 205 9 view .LVU92
 439 003a 0E48     		ldr	r0, .L31+8	@,
 440              	.LVL25:
 205:../../peripheral_library/drv/drvSerial.c ****         MOS_IRQn_Unmask(UART2_IRQn);
 441              		.loc 1 205 9 is_stmt 0 view .LVU93
 442 003c 4FF6FF71 		movw	r1, #65535	@,
 443 0040 FFF7FEFF 		bl	MOS_IRQn_AttachIsr		@
 444              	.LVL26:
 206:../../peripheral_library/drv/drvSerial.c ****       }
 445              		.loc 1 206 9 is_stmt 1 view .LVU94
 446 0044 4FF6FF70 		movw	r0, #65535	@,
 447 0048 FFF7FEFF 		bl	MOS_IRQn_Unmask		@
 448              	.LVL27:
 449              	.L25:
 450              	.LBE25:
 225:../../peripheral_library/drv/drvSerial.c **** 	}
 451              		.loc 1 225 3 view .LVU95
 452 004c FFF7FEFF 		bl	vPortExitCritical		@
 453              	.LVL28:
 454              	@ ../../peripheral_library/drv/drvSerial.c:170: xComPortHandle    xReturn = serHANDLE;
 170:../../peripheral_library/drv/drvSerial.c **** //int cd; /* USART Clock Divider. */
 455              		.loc 1 170 19 is_stmt 0 view .LVU96
 456 0050 0120     		movs	r0, #1	@ <retval>,
 457              	.L22:
 458              	@ ../../peripheral_library/drv/drvSerial.c:233: }
 233:../../peripheral_library/drv/drvSerial.c **** /*-----------------------------------------------------------*/
 459              		.loc 1 233 1 view .LVU97
 460 0052 70BD     		pop	{r4, r5, r6, pc}	@
 461              	.LVL29:
 462              	.L28:
 463              	@ ../../peripheral_library/drv/drvSerial.c:229: 		xReturn = serINVALID_COMPORT_HANDLER;
 229:../../peripheral_library/drv/drvSerial.c **** 	}
 464              		.loc 1 229 11 view .LVU98
 465 0054 2046     		mov	r0, r4	@ <retval>, ulWantedBaud
 466              	.LVL30:
 232:../../peripheral_library/drv/drvSerial.c **** }
 467              		.loc 1 232 2 is_stmt 1 view .LVU99
 468              	@ ../../peripheral_library/drv/drvSerial.c:233: }
 233:../../peripheral_library/drv/drvSerial.c **** /*-----------------------------------------------------------*/
 469              		.loc 1 233 1 is_stmt 0 view .LVU100
 470 0056 70BD     		pop	{r4, r5, r6, pc}	@
 471              	.LVL31:
 472              	.L26:
 473              	@ ../../peripheral_library/drv/drvSerial.c:229: 		xReturn = serINVALID_COMPORT_HANDLER;
 229:../../peripheral_library/drv/drvSerial.c **** 	}
 474              		.loc 1 229 11 view .LVU101
 475 0058 1846     		mov	r0, r3	@ <retval>, xRxedChars
 476              	@ ../../peripheral_library/drv/drvSerial.c:233: }
 233:../../peripheral_library/drv/drvSerial.c **** /*-----------------------------------------------------------*/
 477              		.loc 1 233 1 view .LVU102
 478 005a 70BD     		pop	{r4, r5, r6, pc}	@
 479              	.LVL32:
ARM GAS  /tmp/ccQFS2IS.s 			page 20


 480              	.L30:
 481              	.LBB26:
 200:../../peripheral_library/drv/drvSerial.c ****         MOS_IRQn_Unmask(UART0_IRQn);
 482              		.loc 1 200 9 is_stmt 1 view .LVU103
 483 005c 1821     		movs	r1, #24	@,
 484 005e 0548     		ldr	r0, .L31+8	@,
 485              	.LVL33:
 200:../../peripheral_library/drv/drvSerial.c ****         MOS_IRQn_Unmask(UART0_IRQn);
 486              		.loc 1 200 9 is_stmt 0 view .LVU104
 487 0060 FFF7FEFF 		bl	MOS_IRQn_AttachIsr		@
 488              	.LVL34:
 201:../../peripheral_library/drv/drvSerial.c ****       }
 489              		.loc 1 201 9 is_stmt 1 view .LVU105
 490 0064 1820     		movs	r0, #24	@,
 491 0066 FFF7FEFF 		bl	MOS_IRQn_Unmask		@
 492              	.LVL35:
 493 006a EFE7     		b	.L25		@
 494              	.L32:
 495              		.align	2
 496              	.L31:
 497 006c 00000000 		.word	.LANCHOR0
 498 0070 00000000 		.word	.LANCHOR1
 499 0074 00000000 		.word	NVIC_Handler_UART
 500              	.LBE26:
 501              		.cfi_endproc
 502              	.LFE135:
 503              		.size	xSerialPortInitMinimal, .-xSerialPortInitMinimal
 504              		.section	.text.xSerialGetChar,"ax",%progbits
 505              		.align	1
 506              		.p2align 2,,3
 507              		.global	xSerialGetChar
 508              		.syntax unified
 509              		.thumb
 510              		.thumb_func
 511              		.fpu fpv4-sp-d16
 512              		.type	xSerialGetChar, %function
 513              	xSerialGetChar:
 514              	.LVL36:
 515              	.LFB136:
 237:../../peripheral_library/drv/drvSerial.c **** 	/* The port handle is not required as this driver only supports UART0. */
 516              		.loc 1 237 1 view -0
 517              		.cfi_startproc
 518              		@ args = 0, pretend = 0, frame = 0
 519              		@ frame_needed = 0, uses_anonymous_args = 0
 239:../../peripheral_library/drv/drvSerial.c **** 
 520              		.loc 1 239 2 view .LVU107
 243:../../peripheral_library/drv/drvSerial.c **** 	{
 521              		.loc 1 243 2 view .LVU108
 522              	@ ../../peripheral_library/drv/drvSerial.c:237: {
 237:../../peripheral_library/drv/drvSerial.c **** 	/* The port handle is not required as this driver only supports UART0. */
 523              		.loc 1 237 1 is_stmt 0 view .LVU109
 524 0000 08B5     		push	{r3, lr}	@
 525              		.cfi_def_cfa_offset 8
 526              		.cfi_offset 3, -8
 527              		.cfi_offset 14, -4
 528              	@ ../../peripheral_library/drv/drvSerial.c:243: 	if( xQueueReceive( xRxedChars, pcRxedChar, xBlockT
 243:../../peripheral_library/drv/drvSerial.c **** 	{
ARM GAS  /tmp/ccQFS2IS.s 			page 21


 529              		.loc 1 243 6 view .LVU110
 530 0002 044B     		ldr	r3, .L35	@ tmp117,
 531 0004 1868     		ldr	r0, [r3]	@, xRxedChars
 532              	.LVL37:
 243:../../peripheral_library/drv/drvSerial.c **** 	{
 533              		.loc 1 243 6 view .LVU111
 534 0006 FFF7FEFF 		bl	xQueueReceive		@
 535              	.LVL38:
 536              	@ ../../peripheral_library/drv/drvSerial.c:251: }
 251:../../peripheral_library/drv/drvSerial.c **** /*-----------------------------------------------------------*/
 537              		.loc 1 251 1 view .LVU112
 538 000a 0030     		adds	r0, r0, #0	@,,
 539 000c 18BF     		it	ne
 540 000e 0120     		movne	r0, #1	@,
 541 0010 08BD     		pop	{r3, pc}	@
 542              	.L36:
 543 0012 00BF     		.align	2
 544              	.L35:
 545 0014 00000000 		.word	.LANCHOR0
 546              		.cfi_endproc
 547              	.LFE136:
 548              		.size	xSerialGetChar, .-xSerialGetChar
 549              		.section	.text.vSerialPutString,"ax",%progbits
 550              		.align	1
 551              		.p2align 2,,3
 552              		.global	vSerialPutString
 553              		.syntax unified
 554              		.thumb
 555              		.thumb_func
 556              		.fpu fpv4-sp-d16
 557              		.type	vSerialPutString, %function
 558              	vSerialPutString:
 559              	.LVL39:
 560              	.LFB137:
 255:../../peripheral_library/drv/drvSerial.c **** signed char *pxNext;
 561              		.loc 1 255 1 is_stmt 1 view -0
 562              		.cfi_startproc
 563              		@ args = 0, pretend = 0, frame = 0
 564              		@ frame_needed = 0, uses_anonymous_args = 0
 256:../../peripheral_library/drv/drvSerial.c **** 
 565              		.loc 1 256 1 view .LVU114
 262:../../peripheral_library/drv/drvSerial.c **** 	( void ) usStringLength;
 566              		.loc 1 262 2 view .LVU115
 263:../../peripheral_library/drv/drvSerial.c **** 
 567              		.loc 1 263 2 view .LVU116
 266:../../peripheral_library/drv/drvSerial.c **** 	while( *pxNext )
 568              		.loc 1 266 2 view .LVU117
 267:../../peripheral_library/drv/drvSerial.c **** 	{
 569              		.loc 1 267 2 view .LVU118
 570              	@ ../../peripheral_library/drv/drvSerial.c:267: 	while( *pxNext )
 267:../../peripheral_library/drv/drvSerial.c **** 	{
 571              		.loc 1 267 9 is_stmt 0 view .LVU119
 572 0000 91F90000 		ldrsb	r0, [r1]	@ _1, MEM[(signed char *)pcString_4(D)]
 573              	.LVL40:
 574              	@ ../../peripheral_library/drv/drvSerial.c:267: 	while( *pxNext )
 267:../../peripheral_library/drv/drvSerial.c **** 	{
 575              		.loc 1 267 7 view .LVU120
ARM GAS  /tmp/ccQFS2IS.s 			page 22


 576 0004 48B1     		cbz	r0, .L45	@ _1,
 577              	@ ../../peripheral_library/drv/drvSerial.c:255: {
 255:../../peripheral_library/drv/drvSerial.c **** signed char *pxNext;
 578              		.loc 1 255 1 view .LVU121
 579 0006 10B5     		push	{r4, lr}	@
 580              		.cfi_def_cfa_offset 8
 581              		.cfi_offset 4, -8
 582              		.cfi_offset 14, -4
 583 0008 0C46     		mov	r4, r1	@ pcString, pcString
 584              	.LVL41:
 585              	.L39:
 269:../../peripheral_library/drv/drvSerial.c **** 		pxNext++;
 586              		.loc 1 269 3 is_stmt 1 view .LVU122
 587              	.LBB27:
 588              	.LBI27:
 275:../../peripheral_library/drv/drvSerial.c **** {
 589              		.loc 1 275 22 view .LVU123
 590              	.LBB28:
 277:../../peripheral_library/drv/drvSerial.c **** 	( void ) xBlockTime;
 591              		.loc 1 277 2 view .LVU124
 278:../../peripheral_library/drv/drvSerial.c **** 
 592              		.loc 1 278 2 view .LVU125
 280:../../peripheral_library/drv/drvSerial.c **** 
 593              		.loc 1 280 3 view .LVU126
 594 000a C0B2     		uxtb	r0, r0	@, _1
 280:../../peripheral_library/drv/drvSerial.c **** 
 595              		.loc 1 280 3 is_stmt 0 view .LVU127
 596 000c FFF7FEFF 		bl	uart_write_byte		@
 597              	.LVL42:
 296:../../peripheral_library/drv/drvSerial.c **** }
 598              		.loc 1 296 2 is_stmt 1 view .LVU128
 296:../../peripheral_library/drv/drvSerial.c **** }
 599              		.loc 1 296 2 is_stmt 0 view .LVU129
 600              	.LBE28:
 601              	.LBE27:
 270:../../peripheral_library/drv/drvSerial.c **** 	}
 602              		.loc 1 270 3 is_stmt 1 view .LVU130
 603              	@ ../../peripheral_library/drv/drvSerial.c:267: 	while( *pxNext )
 267:../../peripheral_library/drv/drvSerial.c **** 	{
 604              		.loc 1 267 9 is_stmt 0 view .LVU131
 605 0010 14F9010F 		ldrsb	r0, [r4, #1]!	@ _1, MEM[base: pxNext_7, offset: 0B]
 606              	.LVL43:
 607              	@ ../../peripheral_library/drv/drvSerial.c:267: 	while( *pxNext )
 267:../../peripheral_library/drv/drvSerial.c **** 	{
 608              		.loc 1 267 7 view .LVU132
 609 0014 0028     		cmp	r0, #0	@ _1
 610 0016 F8D1     		bne	.L39	@
 611              	@ ../../peripheral_library/drv/drvSerial.c:272: }
 272:../../peripheral_library/drv/drvSerial.c **** /*-----------------------------------------------------------*/
 612              		.loc 1 272 1 view .LVU133
 613 0018 10BD     		pop	{r4, pc}	@
 614              	.LVL44:
 615              	.L45:
 616              		.cfi_def_cfa_offset 0
 617              		.cfi_restore 4
 618              		.cfi_restore 14
 272:../../peripheral_library/drv/drvSerial.c **** /*-----------------------------------------------------------*/
ARM GAS  /tmp/ccQFS2IS.s 			page 23


 619              		.loc 1 272 1 view .LVU134
 620 001a 7047     		bx	lr	@
 621              		.cfi_endproc
 622              	.LFE137:
 623              		.size	vSerialPutString, .-vSerialPutString
 624              		.section	.text.xSerialPutChar,"ax",%progbits
 625              		.align	1
 626              		.p2align 2,,3
 627              		.global	xSerialPutChar
 628              		.syntax unified
 629              		.thumb
 630              		.thumb_func
 631              		.fpu fpv4-sp-d16
 632              		.type	xSerialPutChar, %function
 633              	xSerialPutChar:
 634              	.LVL45:
 635              	.LFB138:
 276:../../peripheral_library/drv/drvSerial.c **** 	( void ) pxPort;
 636              		.loc 1 276 1 is_stmt 1 view -0
 637              		.cfi_startproc
 638              		@ args = 0, pretend = 0, frame = 0
 639              		@ frame_needed = 0, uses_anonymous_args = 0
 277:../../peripheral_library/drv/drvSerial.c **** 	( void ) xBlockTime;
 640              		.loc 1 277 2 view .LVU136
 278:../../peripheral_library/drv/drvSerial.c **** 
 641              		.loc 1 278 2 view .LVU137
 280:../../peripheral_library/drv/drvSerial.c **** 
 642              		.loc 1 280 3 view .LVU138
 643              	@ ../../peripheral_library/drv/drvSerial.c:276: {
 276:../../peripheral_library/drv/drvSerial.c **** 	( void ) pxPort;
 644              		.loc 1 276 1 is_stmt 0 view .LVU139
 645 0000 08B5     		push	{r3, lr}	@
 646              		.cfi_def_cfa_offset 8
 647              		.cfi_offset 3, -8
 648              		.cfi_offset 14, -4
 649              	@ ../../peripheral_library/drv/drvSerial.c:280:   uart_write_byte(cOutChar);
 280:../../peripheral_library/drv/drvSerial.c **** 
 650              		.loc 1 280 3 view .LVU140
 651 0002 C8B2     		uxtb	r0, r1	@, cOutChar
 652              	.LVL46:
 280:../../peripheral_library/drv/drvSerial.c **** 
 653              		.loc 1 280 3 view .LVU141
 654 0004 FFF7FEFF 		bl	uart_write_byte		@
 655              	.LVL47:
 296:../../peripheral_library/drv/drvSerial.c **** }
 656              		.loc 1 296 2 is_stmt 1 view .LVU142
 657              	@ ../../peripheral_library/drv/drvSerial.c:297: }
 297:../../peripheral_library/drv/drvSerial.c **** /*-----------------------------------------------------------*/
 658              		.loc 1 297 1 is_stmt 0 view .LVU143
 659 0008 0120     		movs	r0, #1	@,
 660 000a 08BD     		pop	{r3, pc}	@
 661              		.cfi_endproc
 662              	.LFE138:
 663              		.size	xSerialPutChar, .-xSerialPutChar
 664              		.section	.text.vSerialClose,"ax",%progbits
 665              		.align	1
 666              		.p2align 2,,3
ARM GAS  /tmp/ccQFS2IS.s 			page 24


 667              		.global	vSerialClose
 668              		.syntax unified
 669              		.thumb
 670              		.thumb_func
 671              		.fpu fpv4-sp-d16
 672              		.type	vSerialClose, %function
 673              	vSerialClose:
 674              	.LVL48:
 675              	.LFB139:
 301:../../peripheral_library/drv/drvSerial.c **** 	( void ) xPort;
 676              		.loc 1 301 1 is_stmt 1 view -0
 677              		.cfi_startproc
 678              		@ args = 0, pretend = 0, frame = 0
 679              		@ frame_needed = 0, uses_anonymous_args = 0
 680              		@ link register save eliminated.
 302:../../peripheral_library/drv/drvSerial.c ****   /* Not supported as not required by the demo application. */
 681              		.loc 1 302 2 view .LVU145
 682              	@ ../../peripheral_library/drv/drvSerial.c:304: }
 304:../../peripheral_library/drv/drvSerial.c **** /*-----------------------------------------------------------*/
 683              		.loc 1 304 1 is_stmt 0 view .LVU146
 684 0000 7047     		bx	lr	@
 685              		.cfi_endproc
 686              	.LFE139:
 687              		.size	vSerialClose, .-vSerialClose
 688 0002 00BF     		.section	.bss.xCharsForTx,"aw",%nobits
 689              		.align	2
 690              		.set	.LANCHOR1,. + 0
 691              		.type	xCharsForTx, %object
 692              		.size	xCharsForTx, 4
 693              	xCharsForTx:
 694 0000 00000000 		.space	4
 695              		.section	.bss.xRxedChars,"aw",%nobits
 696              		.align	2
 697              		.set	.LANCHOR0,. + 0
 698              		.type	xRxedChars, %object
 699              		.size	xRxedChars, 4
 700              	xRxedChars:
 701 0000 00000000 		.space	4
 702              		.text
 703              	.Letext0:
 704              		.file 3 "/home/gu/code/freeRTOS10/vendor/mstar/CM4/tools/gcc-arm-none-eabi-8-2018-q4-major/arm-non
 705              		.file 4 "/home/gu/code/freeRTOS10/vendor/mstar/CM4/tools/gcc-arm-none-eabi-8-2018-q4-major/arm-non
 706              		.file 5 "/home/gu/code/freeRTOS10/vendor/mstar/CM4/tools/gcc-arm-none-eabi-8-2018-q4-major/arm-non
 707              		.file 6 "/home/gu/code/freeRTOS10/vendor/mstar/CM4/tools/gcc-arm-none-eabi-8-2018-q4-major/lib/gcc
 708              		.file 7 "/home/gu/code/freeRTOS10/vendor/mstar/CM4/tools/gcc-arm-none-eabi-8-2018-q4-major/arm-non
 709              		.file 8 "/home/gu/code/freeRTOS10/vendor/mstar/CM4/tools/gcc-arm-none-eabi-8-2018-q4-major/arm-non
 710              		.file 9 "/home/gu/code/freeRTOS10/vendor/mstar/CM4/tools/gcc-arm-none-eabi-8-2018-q4-major/arm-non
 711              		.file 10 "/home/gu/code/freeRTOS10/vendor/mstar/CM4/tools/gcc-arm-none-eabi-8-2018-q4-major/arm-no
 712              		.file 11 "../../kernel/FreeRTOS/Source/include/queue.h"
 713              		.file 12 "../../CMSIS/core_cm4.h"
 714              		.file 13 "../../peripheral_library/inc/mosWrapper.h"
 715              		.file 14 "../../kernel/FreeRTOS/Demo/Common/include/serial.h"
 716              		.file 15 "../../peripheral_library/hal/m7221/inc/halUART.h"
 717              		.file 16 "../../peripheral_library/hal/m7221/inc/irq.h"