ARM GAS  /tmp/ccXZYLDn.s 			page 1


   1              		.cpu cortex-m4
   2              		.eabi_attribute 27, 1	@ Tag_ABI_HardFP_use
   3              		.eabi_attribute 20, 1	@ Tag_ABI_FP_denormal
   4              		.eabi_attribute 21, 1	@ Tag_ABI_FP_exceptions
   5              		.eabi_attribute 23, 3	@ Tag_ABI_FP_number_model
   6              		.eabi_attribute 24, 1	@ Tag_ABI_align8_needed
   7              		.eabi_attribute 25, 1	@ Tag_ABI_align8_preserved
   8              		.eabi_attribute 26, 1	@ Tag_ABI_enum_size
   9              		.eabi_attribute 30, 2	@ Tag_ABI_optimization_goals
  10              		.eabi_attribute 34, 1	@ Tag_CPU_unaligned_access
  11              		.eabi_attribute 18, 4	@ Tag_ABI_PCS_wchar_t
  12              		.file	"event_groups.c"
  13              	@ GNU C89 (GNU Tools for Arm Embedded Processors 8-2018-q4-major) version 8.2.1 20181213 (release) 
  14              	@	compiled by GNU C version 4.8.4, GMP version 6.1.0, MPFR version 3.1.4, MPC version 1.0.3, isl ve
  15              	
  16              	@ GGC heuristics: --param ggc-min-expand=96 --param ggc-min-heapsize=125422
  17              	@ options passed:  -isystem =/include/newlib-nano -I . -I .
  18              	@ -I ../../kernel/FreeRTOS/Source/include
  19              	@ -I ../../kernel/FreeRTOS/Source/portable/GCC/ARM_CM4F
  20              	@ -I ../../kernel/FreeRTOS/Demo/Common/include
  21              	@ -I ../../kernel/FreeRTOS-Plus/Source/FreeRTOS-Plus-CLI
  22              	@ -I ../../peripheral_library/inc -I ../../peripheral_library/hal/m7221/inc
  23              	@ -I ../../CMSIS -I ../../main_full -I ../../3rd/rokid/./ -I /.
  24              	@ -I /../../kernel/FreeRTOS/Source/include
  25              	@ -I /../../kernel/FreeRTOS/Source/portable/GCC/ARM_CM4F
  26              	@ -I /../../kernel/FreeRTOS/Demo/Common/include
  27              	@ -I /../../kernel/FreeRTOS-Plus/Source/FreeRTOS-Plus-CLI
  28              	@ -I /../../peripheral_library/inc
  29              	@ -I /../../peripheral_library/hal/m7221/inc -I /../../CMSIS
  30              	@ -I /../../main_full -I /../../3rd/rokid/./
  31              	@ -imultilib thumb/v7e-m+fp/softfp
  32              	@ -iprefix /home/gu/code/freeRTOS10/vendor/mstar/CM4/tools/gcc-arm-none-eabi-8-2018-q4-major/bin/..
  33              	@ -isysroot /home/gu/code/freeRTOS10/vendor/mstar/CM4/tools/gcc-arm-none-eabi-8-2018-q4-major/bin/.
  34              	@ -MD out/event_groups.d -MF out/event_groups.d -MP -MQ out/event_groups.o
  35              	@ -D__USES_INITFINI__ -D CONFIG_BENCH=0 -D CONFIG_SYS_DBG_LEVEL=0xFFFFFFFF
  36              	@ -D CONFIG_VOC_MIC=6 -D CONFIG_AUD_I2S -D CONFIG_AUD_AEC
  37              	@ -D CONFIG_VOC_MIC_MAPPING -D CONFIG_VOC_SWHPF -D CONFIG_VOC_SW_SRC48K
  38              	@ -D ARM_MATH_CM4 -D BOOTROM_VERSION_ASIC
  39              	@ ../../kernel/FreeRTOS/Source/event_groups.c -mcpu=cortex-m4 -mthumb
  40              	@ -mthumb-interwork -mfloat-abi=softfp -mfpu=fpv4-sp-d16 -march=armv7e-m+fp
  41              	@ -auxbase-strip out/event_groups.o -g -ggdb3 -O3 -Wall -Wstrict-prototypes
  42              	@ -Wextra -std=gnu90 -ffunction-sections -fdata-sections
  43              	@ -fno-builtin-printf -fverbose-asm
  44              	@ options enabled:  -faggressive-loop-optimizations -falign-jumps
  45              	@ -falign-labels -falign-loops -fauto-inc-dec -fbranch-count-reg
  46              	@ -fcaller-saves -fchkp-check-incomplete-type -fchkp-check-read
  47              	@ -fchkp-check-write -fchkp-instrument-calls -fchkp-narrow-bounds
  48              	@ -fchkp-optimize -fchkp-store-bounds -fchkp-use-static-bounds
  49              	@ -fchkp-use-static-const-bounds -fchkp-use-wrappers -fcode-hoisting
  50              	@ -fcombine-stack-adjustments -fcommon -fcompare-elim -fcprop-registers
  51              	@ -fcrossjumping -fcse-follow-jumps -fdata-sections -fdefer-pop
  52              	@ -fdelete-null-pointer-checks -fdevirtualize -fdevirtualize-speculatively
  53              	@ -fdwarf2-cfi-asm -fearly-inlining -feliminate-unused-debug-types
  54              	@ -fexpensive-optimizations -fforward-propagate -ffp-int-builtin-inexact
  55              	@ -ffunction-cse -ffunction-sections -fgcse -fgcse-after-reload -fgcse-lm
  56              	@ -fgnu-runtime -fgnu-unique -fguess-branch-probability
  57              	@ -fhoist-adjacent-loads -fident -fif-conversion -fif-conversion2
ARM GAS  /tmp/ccXZYLDn.s 			page 2


  58              	@ -findirect-inlining -finline -finline-atomics -finline-functions
  59              	@ -finline-functions-called-once -finline-small-functions -fipa-bit-cp
  60              	@ -fipa-cp -fipa-cp-clone -fipa-icf -fipa-icf-functions -fipa-icf-variables
  61              	@ -fipa-profile -fipa-pure-const -fipa-ra -fipa-reference -fipa-sra
  62              	@ -fipa-vrp -fira-hoist-pressure -fira-share-save-slots
  63              	@ -fira-share-spill-slots -fisolate-erroneous-paths-dereference -fivopts
  64              	@ -fkeep-static-consts -fleading-underscore -flifetime-dse
  65              	@ -floop-interchange -floop-unroll-and-jam -flra-remat
  66              	@ -flto-odr-type-merging -fmath-errno -fmerge-constants
  67              	@ -fmerge-debug-strings -fmove-loop-invariants -fomit-frame-pointer
  68              	@ -foptimize-sibling-calls -foptimize-strlen -fpartial-inlining
  69              	@ -fpeel-loops -fpeephole -fpeephole2 -fplt -fpredictive-commoning
  70              	@ -fprefetch-loop-arrays -freg-struct-return -freorder-blocks
  71              	@ -freorder-functions -frerun-cse-after-loop
  72              	@ -fsched-critical-path-heuristic -fsched-dep-count-heuristic
  73              	@ -fsched-group-heuristic -fsched-interblock -fsched-last-insn-heuristic
  74              	@ -fsched-pressure -fsched-rank-heuristic -fsched-spec
  75              	@ -fsched-spec-insn-heuristic -fsched-stalled-insns-dep -fschedule-insns
  76              	@ -fschedule-insns2 -fsection-anchors -fsemantic-interposition
  77              	@ -fshow-column -fshrink-wrap -fshrink-wrap-separate -fsigned-zeros
  78              	@ -fsplit-ivs-in-unroller -fsplit-loops -fsplit-paths -fsplit-wide-types
  79              	@ -fssa-backprop -fssa-phiopt -fstdarg-opt -fstore-merging
  80              	@ -fstrict-aliasing -fstrict-volatile-bitfields -fsync-libcalls
  81              	@ -fthread-jumps -ftoplevel-reorder -ftrapping-math -ftree-bit-ccp
  82              	@ -ftree-builtin-call-dce -ftree-ccp -ftree-ch -ftree-coalesce-vars
  83              	@ -ftree-copy-prop -ftree-cselim -ftree-dce -ftree-dominator-opts
  84              	@ -ftree-dse -ftree-forwprop -ftree-fre -ftree-loop-distribute-patterns
  85              	@ -ftree-loop-distribution -ftree-loop-if-convert -ftree-loop-im
  86              	@ -ftree-loop-ivcanon -ftree-loop-optimize -ftree-loop-vectorize
  87              	@ -ftree-parallelize-loops= -ftree-partial-pre -ftree-phiprop -ftree-pre
  88              	@ -ftree-pta -ftree-reassoc -ftree-scev-cprop -ftree-sink
  89              	@ -ftree-slp-vectorize -ftree-slsr -ftree-sra -ftree-switch-conversion
  90              	@ -ftree-tail-merge -ftree-ter -ftree-vrp -funit-at-a-time -funswitch-loops
  91              	@ -fvar-tracking -fvar-tracking-assignments -fverbose-asm
  92              	@ -fzero-initialized-in-bss -masm-syntax-unified -mbe32 -mlittle-endian
  93              	@ -mpic-data-is-text-relative -msched-prolog -mthumb -munaligned-access
  94              	@ -mvectorize-with-neon-quad
  95              	
  96              		.text
  97              	.Ltext0:
  98              		.cfi_sections	.debug_frame
  99              		.section	.text.vEventGroupClearBitsCallback,"ax",%progbits
 100              		.align	1
 101              		.p2align 2,,3
 102              		.global	vEventGroupClearBitsCallback
 103              		.arch armv7e-m
 104              		.syntax unified
 105              		.thumb
 106              		.thumb_func
 107              		.fpu fpv4-sp-d16
 108              		.type	vEventGroupClearBitsCallback, %function
 109              	vEventGroupClearBitsCallback:
 110              	.LVL0:
 111              	.LFB14:
 112              		.file 1 "../../kernel/FreeRTOS/Source/event_groups.c"
   1:../../kernel/FreeRTOS/Source/event_groups.c **** /*
   2:../../kernel/FreeRTOS/Source/event_groups.c ****  * FreeRTOS Kernel V10.0.1
ARM GAS  /tmp/ccXZYLDn.s 			page 3


   3:../../kernel/FreeRTOS/Source/event_groups.c ****  * Copyright (C) 2017 Amazon.com, Inc. or its affiliates.  All Rights Reserved.
   4:../../kernel/FreeRTOS/Source/event_groups.c ****  *
   5:../../kernel/FreeRTOS/Source/event_groups.c ****  * Permission is hereby granted, free of charge, to any person obtaining a copy of
   6:../../kernel/FreeRTOS/Source/event_groups.c ****  * this software and associated documentation files (the "Software"), to deal in
   7:../../kernel/FreeRTOS/Source/event_groups.c ****  * the Software without restriction, including without limitation the rights to
   8:../../kernel/FreeRTOS/Source/event_groups.c ****  * use, copy, modify, merge, publish, distribute, sublicense, and/or sell copies of
   9:../../kernel/FreeRTOS/Source/event_groups.c ****  * the Software, and to permit persons to whom the Software is furnished to do so,
  10:../../kernel/FreeRTOS/Source/event_groups.c ****  * subject to the following conditions:
  11:../../kernel/FreeRTOS/Source/event_groups.c ****  *
  12:../../kernel/FreeRTOS/Source/event_groups.c ****  * The above copyright notice and this permission notice shall be included in all
  13:../../kernel/FreeRTOS/Source/event_groups.c ****  * copies or substantial portions of the Software.
  14:../../kernel/FreeRTOS/Source/event_groups.c ****  *
  15:../../kernel/FreeRTOS/Source/event_groups.c ****  * THE SOFTWARE IS PROVIDED "AS IS", WITHOUT WARRANTY OF ANY KIND, EXPRESS OR
  16:../../kernel/FreeRTOS/Source/event_groups.c ****  * IMPLIED, INCLUDING BUT NOT LIMITED TO THE WARRANTIES OF MERCHANTABILITY, FITNESS
  17:../../kernel/FreeRTOS/Source/event_groups.c ****  * FOR A PARTICULAR PURPOSE AND NONINFRINGEMENT. IN NO EVENT SHALL THE AUTHORS OR
  18:../../kernel/FreeRTOS/Source/event_groups.c ****  * COPYRIGHT HOLDERS BE LIABLE FOR ANY CLAIM, DAMAGES OR OTHER LIABILITY, WHETHER
  19:../../kernel/FreeRTOS/Source/event_groups.c ****  * IN AN ACTION OF CONTRACT, TORT OR OTHERWISE, ARISING FROM, OUT OF OR IN
  20:../../kernel/FreeRTOS/Source/event_groups.c ****  * CONNECTION WITH THE SOFTWARE OR THE USE OR OTHER DEALINGS IN THE SOFTWARE.
  21:../../kernel/FreeRTOS/Source/event_groups.c ****  *
  22:../../kernel/FreeRTOS/Source/event_groups.c ****  * http://www.FreeRTOS.org
  23:../../kernel/FreeRTOS/Source/event_groups.c ****  * http://aws.amazon.com/freertos
  24:../../kernel/FreeRTOS/Source/event_groups.c ****  *
  25:../../kernel/FreeRTOS/Source/event_groups.c ****  * 1 tab == 4 spaces!
  26:../../kernel/FreeRTOS/Source/event_groups.c ****  */
  27:../../kernel/FreeRTOS/Source/event_groups.c **** 
  28:../../kernel/FreeRTOS/Source/event_groups.c **** /* Standard includes. */
  29:../../kernel/FreeRTOS/Source/event_groups.c **** #include <stdlib.h>
  30:../../kernel/FreeRTOS/Source/event_groups.c **** 
  31:../../kernel/FreeRTOS/Source/event_groups.c **** /* Defining MPU_WRAPPERS_INCLUDED_FROM_API_FILE prevents task.h from redefining
  32:../../kernel/FreeRTOS/Source/event_groups.c **** all the API functions to use the MPU wrappers.  That should only be done when
  33:../../kernel/FreeRTOS/Source/event_groups.c **** task.h is included from an application file. */
  34:../../kernel/FreeRTOS/Source/event_groups.c **** #define MPU_WRAPPERS_INCLUDED_FROM_API_FILE
  35:../../kernel/FreeRTOS/Source/event_groups.c **** 
  36:../../kernel/FreeRTOS/Source/event_groups.c **** /* FreeRTOS includes. */
  37:../../kernel/FreeRTOS/Source/event_groups.c **** #include "FreeRTOS.h"
  38:../../kernel/FreeRTOS/Source/event_groups.c **** #include "task.h"
  39:../../kernel/FreeRTOS/Source/event_groups.c **** #include "timers.h"
  40:../../kernel/FreeRTOS/Source/event_groups.c **** #include "event_groups.h"
  41:../../kernel/FreeRTOS/Source/event_groups.c **** 
  42:../../kernel/FreeRTOS/Source/event_groups.c **** /* Lint e961 and e750 are suppressed as a MISRA exception justified because the
  43:../../kernel/FreeRTOS/Source/event_groups.c **** MPU ports require MPU_WRAPPERS_INCLUDED_FROM_API_FILE to be defined for the
  44:../../kernel/FreeRTOS/Source/event_groups.c **** header files above, but not in this file, in order to generate the correct
  45:../../kernel/FreeRTOS/Source/event_groups.c **** privileged Vs unprivileged linkage and placement. */
  46:../../kernel/FreeRTOS/Source/event_groups.c **** #undef MPU_WRAPPERS_INCLUDED_FROM_API_FILE /*lint !e961 !e750. */
  47:../../kernel/FreeRTOS/Source/event_groups.c **** 
  48:../../kernel/FreeRTOS/Source/event_groups.c **** /* The following bit fields convey control information in a task's event list
  49:../../kernel/FreeRTOS/Source/event_groups.c **** item value.  It is important they don't clash with the
  50:../../kernel/FreeRTOS/Source/event_groups.c **** taskEVENT_LIST_ITEM_VALUE_IN_USE definition. */
  51:../../kernel/FreeRTOS/Source/event_groups.c **** #if configUSE_16_BIT_TICKS == 1
  52:../../kernel/FreeRTOS/Source/event_groups.c **** 	#define eventCLEAR_EVENTS_ON_EXIT_BIT	0x0100U
  53:../../kernel/FreeRTOS/Source/event_groups.c **** 	#define eventUNBLOCKED_DUE_TO_BIT_SET	0x0200U
  54:../../kernel/FreeRTOS/Source/event_groups.c **** 	#define eventWAIT_FOR_ALL_BITS			0x0400U
  55:../../kernel/FreeRTOS/Source/event_groups.c **** 	#define eventEVENT_BITS_CONTROL_BYTES	0xff00U
  56:../../kernel/FreeRTOS/Source/event_groups.c **** #else
  57:../../kernel/FreeRTOS/Source/event_groups.c **** 	#define eventCLEAR_EVENTS_ON_EXIT_BIT	0x01000000UL
  58:../../kernel/FreeRTOS/Source/event_groups.c **** 	#define eventUNBLOCKED_DUE_TO_BIT_SET	0x02000000UL
  59:../../kernel/FreeRTOS/Source/event_groups.c **** 	#define eventWAIT_FOR_ALL_BITS			0x04000000UL
ARM GAS  /tmp/ccXZYLDn.s 			page 4


  60:../../kernel/FreeRTOS/Source/event_groups.c **** 	#define eventEVENT_BITS_CONTROL_BYTES	0xff000000UL
  61:../../kernel/FreeRTOS/Source/event_groups.c **** #endif
  62:../../kernel/FreeRTOS/Source/event_groups.c **** 
  63:../../kernel/FreeRTOS/Source/event_groups.c **** typedef struct xEventGroupDefinition
  64:../../kernel/FreeRTOS/Source/event_groups.c **** {
  65:../../kernel/FreeRTOS/Source/event_groups.c **** 	EventBits_t uxEventBits;
  66:../../kernel/FreeRTOS/Source/event_groups.c **** 	List_t xTasksWaitingForBits;		/*< List of tasks waiting for a bit to be set. */
  67:../../kernel/FreeRTOS/Source/event_groups.c **** 
  68:../../kernel/FreeRTOS/Source/event_groups.c **** 	#if( configUSE_TRACE_FACILITY == 1 )
  69:../../kernel/FreeRTOS/Source/event_groups.c **** 		UBaseType_t uxEventGroupNumber;
  70:../../kernel/FreeRTOS/Source/event_groups.c **** 	#endif
  71:../../kernel/FreeRTOS/Source/event_groups.c **** 
  72:../../kernel/FreeRTOS/Source/event_groups.c **** 	#if( ( configSUPPORT_STATIC_ALLOCATION == 1 ) && ( configSUPPORT_DYNAMIC_ALLOCATION == 1 ) )
  73:../../kernel/FreeRTOS/Source/event_groups.c **** 		uint8_t ucStaticallyAllocated; /*< Set to pdTRUE if the event group is statically allocated to en
  74:../../kernel/FreeRTOS/Source/event_groups.c **** 	#endif
  75:../../kernel/FreeRTOS/Source/event_groups.c **** } EventGroup_t;
  76:../../kernel/FreeRTOS/Source/event_groups.c **** 
  77:../../kernel/FreeRTOS/Source/event_groups.c **** /*-----------------------------------------------------------*/
  78:../../kernel/FreeRTOS/Source/event_groups.c **** 
  79:../../kernel/FreeRTOS/Source/event_groups.c **** /*
  80:../../kernel/FreeRTOS/Source/event_groups.c ****  * Test the bits set in uxCurrentEventBits to see if the wait condition is met.
  81:../../kernel/FreeRTOS/Source/event_groups.c ****  * The wait condition is defined by xWaitForAllBits.  If xWaitForAllBits is
  82:../../kernel/FreeRTOS/Source/event_groups.c ****  * pdTRUE then the wait condition is met if all the bits set in uxBitsToWaitFor
  83:../../kernel/FreeRTOS/Source/event_groups.c ****  * are also set in uxCurrentEventBits.  If xWaitForAllBits is pdFALSE then the
  84:../../kernel/FreeRTOS/Source/event_groups.c ****  * wait condition is met if any of the bits set in uxBitsToWait for are also set
  85:../../kernel/FreeRTOS/Source/event_groups.c ****  * in uxCurrentEventBits.
  86:../../kernel/FreeRTOS/Source/event_groups.c ****  */
  87:../../kernel/FreeRTOS/Source/event_groups.c **** static BaseType_t prvTestWaitCondition( const EventBits_t uxCurrentEventBits, const EventBits_t uxB
  88:../../kernel/FreeRTOS/Source/event_groups.c **** 
  89:../../kernel/FreeRTOS/Source/event_groups.c **** /*-----------------------------------------------------------*/
  90:../../kernel/FreeRTOS/Source/event_groups.c **** 
  91:../../kernel/FreeRTOS/Source/event_groups.c **** #if( configSUPPORT_STATIC_ALLOCATION == 1 )
  92:../../kernel/FreeRTOS/Source/event_groups.c **** 
  93:../../kernel/FreeRTOS/Source/event_groups.c **** 	EventGroupHandle_t xEventGroupCreateStatic( StaticEventGroup_t *pxEventGroupBuffer )
  94:../../kernel/FreeRTOS/Source/event_groups.c **** 	{
  95:../../kernel/FreeRTOS/Source/event_groups.c **** 	EventGroup_t *pxEventBits;
  96:../../kernel/FreeRTOS/Source/event_groups.c **** 
  97:../../kernel/FreeRTOS/Source/event_groups.c **** 		/* A StaticEventGroup_t object must be provided. */
  98:../../kernel/FreeRTOS/Source/event_groups.c **** 		configASSERT( pxEventGroupBuffer );
  99:../../kernel/FreeRTOS/Source/event_groups.c **** 
 100:../../kernel/FreeRTOS/Source/event_groups.c **** 		#if( configASSERT_DEFINED == 1 )
 101:../../kernel/FreeRTOS/Source/event_groups.c **** 		{
 102:../../kernel/FreeRTOS/Source/event_groups.c **** 			/* Sanity check that the size of the structure used to declare a
 103:../../kernel/FreeRTOS/Source/event_groups.c **** 			variable of type StaticEventGroup_t equals the size of the real
 104:../../kernel/FreeRTOS/Source/event_groups.c **** 			event group structure. */
 105:../../kernel/FreeRTOS/Source/event_groups.c **** 			volatile size_t xSize = sizeof( StaticEventGroup_t );
 106:../../kernel/FreeRTOS/Source/event_groups.c **** 			configASSERT( xSize == sizeof( EventGroup_t ) );
 107:../../kernel/FreeRTOS/Source/event_groups.c **** 		}
 108:../../kernel/FreeRTOS/Source/event_groups.c **** 		#endif /* configASSERT_DEFINED */
 109:../../kernel/FreeRTOS/Source/event_groups.c **** 
 110:../../kernel/FreeRTOS/Source/event_groups.c **** 		/* The user has provided a statically allocated event group - use it. */
 111:../../kernel/FreeRTOS/Source/event_groups.c **** 		pxEventBits = ( EventGroup_t * ) pxEventGroupBuffer; /*lint !e740 EventGroup_t and StaticEventGro
 112:../../kernel/FreeRTOS/Source/event_groups.c **** 
 113:../../kernel/FreeRTOS/Source/event_groups.c **** 		if( pxEventBits != NULL )
 114:../../kernel/FreeRTOS/Source/event_groups.c **** 		{
 115:../../kernel/FreeRTOS/Source/event_groups.c **** 			pxEventBits->uxEventBits = 0;
 116:../../kernel/FreeRTOS/Source/event_groups.c **** 			vListInitialise( &( pxEventBits->xTasksWaitingForBits ) );
ARM GAS  /tmp/ccXZYLDn.s 			page 5


 117:../../kernel/FreeRTOS/Source/event_groups.c **** 
 118:../../kernel/FreeRTOS/Source/event_groups.c **** 			#if( configSUPPORT_DYNAMIC_ALLOCATION == 1 )
 119:../../kernel/FreeRTOS/Source/event_groups.c **** 			{
 120:../../kernel/FreeRTOS/Source/event_groups.c **** 				/* Both static and dynamic allocation can be used, so note that
 121:../../kernel/FreeRTOS/Source/event_groups.c **** 				this event group was created statically in case the event group
 122:../../kernel/FreeRTOS/Source/event_groups.c **** 				is later deleted. */
 123:../../kernel/FreeRTOS/Source/event_groups.c **** 				pxEventBits->ucStaticallyAllocated = pdTRUE;
 124:../../kernel/FreeRTOS/Source/event_groups.c **** 			}
 125:../../kernel/FreeRTOS/Source/event_groups.c **** 			#endif /* configSUPPORT_DYNAMIC_ALLOCATION */
 126:../../kernel/FreeRTOS/Source/event_groups.c **** 
 127:../../kernel/FreeRTOS/Source/event_groups.c **** 			traceEVENT_GROUP_CREATE( pxEventBits );
 128:../../kernel/FreeRTOS/Source/event_groups.c **** 		}
 129:../../kernel/FreeRTOS/Source/event_groups.c **** 		else
 130:../../kernel/FreeRTOS/Source/event_groups.c **** 		{
 131:../../kernel/FreeRTOS/Source/event_groups.c **** 			traceEVENT_GROUP_CREATE_FAILED();
 132:../../kernel/FreeRTOS/Source/event_groups.c **** 		}
 133:../../kernel/FreeRTOS/Source/event_groups.c **** 
 134:../../kernel/FreeRTOS/Source/event_groups.c **** 		return ( EventGroupHandle_t ) pxEventBits;
 135:../../kernel/FreeRTOS/Source/event_groups.c **** 	}
 136:../../kernel/FreeRTOS/Source/event_groups.c **** 
 137:../../kernel/FreeRTOS/Source/event_groups.c **** #endif /* configSUPPORT_STATIC_ALLOCATION */
 138:../../kernel/FreeRTOS/Source/event_groups.c **** /*-----------------------------------------------------------*/
 139:../../kernel/FreeRTOS/Source/event_groups.c **** 
 140:../../kernel/FreeRTOS/Source/event_groups.c **** #if( configSUPPORT_DYNAMIC_ALLOCATION == 1 )
 141:../../kernel/FreeRTOS/Source/event_groups.c **** 
 142:../../kernel/FreeRTOS/Source/event_groups.c **** 	EventGroupHandle_t xEventGroupCreate( void )
 143:../../kernel/FreeRTOS/Source/event_groups.c **** 	{
 144:../../kernel/FreeRTOS/Source/event_groups.c **** 	EventGroup_t *pxEventBits;
 145:../../kernel/FreeRTOS/Source/event_groups.c **** 
 146:../../kernel/FreeRTOS/Source/event_groups.c **** 		/* Allocate the event group. */
 147:../../kernel/FreeRTOS/Source/event_groups.c **** 		pxEventBits = ( EventGroup_t * ) pvPortMalloc( sizeof( EventGroup_t ) );
 148:../../kernel/FreeRTOS/Source/event_groups.c **** 
 149:../../kernel/FreeRTOS/Source/event_groups.c **** 		if( pxEventBits != NULL )
 150:../../kernel/FreeRTOS/Source/event_groups.c **** 		{
 151:../../kernel/FreeRTOS/Source/event_groups.c **** 			pxEventBits->uxEventBits = 0;
 152:../../kernel/FreeRTOS/Source/event_groups.c **** 			vListInitialise( &( pxEventBits->xTasksWaitingForBits ) );
 153:../../kernel/FreeRTOS/Source/event_groups.c **** 
 154:../../kernel/FreeRTOS/Source/event_groups.c **** 			#if( configSUPPORT_STATIC_ALLOCATION == 1 )
 155:../../kernel/FreeRTOS/Source/event_groups.c **** 			{
 156:../../kernel/FreeRTOS/Source/event_groups.c **** 				/* Both static and dynamic allocation can be used, so note this
 157:../../kernel/FreeRTOS/Source/event_groups.c **** 				event group was allocated statically in case the event group is
 158:../../kernel/FreeRTOS/Source/event_groups.c **** 				later deleted. */
 159:../../kernel/FreeRTOS/Source/event_groups.c **** 				pxEventBits->ucStaticallyAllocated = pdFALSE;
 160:../../kernel/FreeRTOS/Source/event_groups.c **** 			}
 161:../../kernel/FreeRTOS/Source/event_groups.c **** 			#endif /* configSUPPORT_STATIC_ALLOCATION */
 162:../../kernel/FreeRTOS/Source/event_groups.c **** 
 163:../../kernel/FreeRTOS/Source/event_groups.c **** 			traceEVENT_GROUP_CREATE( pxEventBits );
 164:../../kernel/FreeRTOS/Source/event_groups.c **** 		}
 165:../../kernel/FreeRTOS/Source/event_groups.c **** 		else
 166:../../kernel/FreeRTOS/Source/event_groups.c **** 		{
 167:../../kernel/FreeRTOS/Source/event_groups.c **** 			traceEVENT_GROUP_CREATE_FAILED();
 168:../../kernel/FreeRTOS/Source/event_groups.c **** 		}
 169:../../kernel/FreeRTOS/Source/event_groups.c **** 
 170:../../kernel/FreeRTOS/Source/event_groups.c **** 		return ( EventGroupHandle_t ) pxEventBits;
 171:../../kernel/FreeRTOS/Source/event_groups.c **** 	}
 172:../../kernel/FreeRTOS/Source/event_groups.c **** 
 173:../../kernel/FreeRTOS/Source/event_groups.c **** #endif /* configSUPPORT_DYNAMIC_ALLOCATION */
ARM GAS  /tmp/ccXZYLDn.s 			page 6


 174:../../kernel/FreeRTOS/Source/event_groups.c **** /*-----------------------------------------------------------*/
 175:../../kernel/FreeRTOS/Source/event_groups.c **** 
 176:../../kernel/FreeRTOS/Source/event_groups.c **** EventBits_t xEventGroupSync( EventGroupHandle_t xEventGroup, const EventBits_t uxBitsToSet, const E
 177:../../kernel/FreeRTOS/Source/event_groups.c **** {
 178:../../kernel/FreeRTOS/Source/event_groups.c **** EventBits_t uxOriginalBitValue, uxReturn;
 179:../../kernel/FreeRTOS/Source/event_groups.c **** EventGroup_t *pxEventBits = ( EventGroup_t * ) xEventGroup;
 180:../../kernel/FreeRTOS/Source/event_groups.c **** BaseType_t xAlreadyYielded;
 181:../../kernel/FreeRTOS/Source/event_groups.c **** BaseType_t xTimeoutOccurred = pdFALSE;
 182:../../kernel/FreeRTOS/Source/event_groups.c **** 
 183:../../kernel/FreeRTOS/Source/event_groups.c **** 	configASSERT( ( uxBitsToWaitFor & eventEVENT_BITS_CONTROL_BYTES ) == 0 );
 184:../../kernel/FreeRTOS/Source/event_groups.c **** 	configASSERT( uxBitsToWaitFor != 0 );
 185:../../kernel/FreeRTOS/Source/event_groups.c **** 	#if ( ( INCLUDE_xTaskGetSchedulerState == 1 ) || ( configUSE_TIMERS == 1 ) )
 186:../../kernel/FreeRTOS/Source/event_groups.c **** 	{
 187:../../kernel/FreeRTOS/Source/event_groups.c **** 		configASSERT( !( ( xTaskGetSchedulerState() == taskSCHEDULER_SUSPENDED ) && ( xTicksToWait != 0 )
 188:../../kernel/FreeRTOS/Source/event_groups.c **** 	}
 189:../../kernel/FreeRTOS/Source/event_groups.c **** 	#endif
 190:../../kernel/FreeRTOS/Source/event_groups.c **** 
 191:../../kernel/FreeRTOS/Source/event_groups.c **** 	vTaskSuspendAll();
 192:../../kernel/FreeRTOS/Source/event_groups.c **** 	{
 193:../../kernel/FreeRTOS/Source/event_groups.c **** 		uxOriginalBitValue = pxEventBits->uxEventBits;
 194:../../kernel/FreeRTOS/Source/event_groups.c **** 
 195:../../kernel/FreeRTOS/Source/event_groups.c **** 		( void ) xEventGroupSetBits( xEventGroup, uxBitsToSet );
 196:../../kernel/FreeRTOS/Source/event_groups.c **** 
 197:../../kernel/FreeRTOS/Source/event_groups.c **** 		if( ( ( uxOriginalBitValue | uxBitsToSet ) & uxBitsToWaitFor ) == uxBitsToWaitFor )
 198:../../kernel/FreeRTOS/Source/event_groups.c **** 		{
 199:../../kernel/FreeRTOS/Source/event_groups.c **** 			/* All the rendezvous bits are now set - no need to block. */
 200:../../kernel/FreeRTOS/Source/event_groups.c **** 			uxReturn = ( uxOriginalBitValue | uxBitsToSet );
 201:../../kernel/FreeRTOS/Source/event_groups.c **** 
 202:../../kernel/FreeRTOS/Source/event_groups.c **** 			/* Rendezvous always clear the bits.  They will have been cleared
 203:../../kernel/FreeRTOS/Source/event_groups.c **** 			already unless this is the only task in the rendezvous. */
 204:../../kernel/FreeRTOS/Source/event_groups.c **** 			pxEventBits->uxEventBits &= ~uxBitsToWaitFor;
 205:../../kernel/FreeRTOS/Source/event_groups.c **** 
 206:../../kernel/FreeRTOS/Source/event_groups.c **** 			xTicksToWait = 0;
 207:../../kernel/FreeRTOS/Source/event_groups.c **** 		}
 208:../../kernel/FreeRTOS/Source/event_groups.c **** 		else
 209:../../kernel/FreeRTOS/Source/event_groups.c **** 		{
 210:../../kernel/FreeRTOS/Source/event_groups.c **** 			if( xTicksToWait != ( TickType_t ) 0 )
 211:../../kernel/FreeRTOS/Source/event_groups.c **** 			{
 212:../../kernel/FreeRTOS/Source/event_groups.c **** 				traceEVENT_GROUP_SYNC_BLOCK( xEventGroup, uxBitsToSet, uxBitsToWaitFor );
 213:../../kernel/FreeRTOS/Source/event_groups.c **** 
 214:../../kernel/FreeRTOS/Source/event_groups.c **** 				/* Store the bits that the calling task is waiting for in the
 215:../../kernel/FreeRTOS/Source/event_groups.c **** 				task's event list item so the kernel knows when a match is
 216:../../kernel/FreeRTOS/Source/event_groups.c **** 				found.  Then enter the blocked state. */
 217:../../kernel/FreeRTOS/Source/event_groups.c **** 				vTaskPlaceOnUnorderedEventList( &( pxEventBits->xTasksWaitingForBits ), ( uxBitsToWaitFor | eve
 218:../../kernel/FreeRTOS/Source/event_groups.c **** 
 219:../../kernel/FreeRTOS/Source/event_groups.c **** 				/* This assignment is obsolete as uxReturn will get set after
 220:../../kernel/FreeRTOS/Source/event_groups.c **** 				the task unblocks, but some compilers mistakenly generate a
 221:../../kernel/FreeRTOS/Source/event_groups.c **** 				warning about uxReturn being returned without being set if the
 222:../../kernel/FreeRTOS/Source/event_groups.c **** 				assignment is omitted. */
 223:../../kernel/FreeRTOS/Source/event_groups.c **** 				uxReturn = 0;
 224:../../kernel/FreeRTOS/Source/event_groups.c **** 			}
 225:../../kernel/FreeRTOS/Source/event_groups.c **** 			else
 226:../../kernel/FreeRTOS/Source/event_groups.c **** 			{
 227:../../kernel/FreeRTOS/Source/event_groups.c **** 				/* The rendezvous bits were not set, but no block time was
 228:../../kernel/FreeRTOS/Source/event_groups.c **** 				specified - just return the current event bit value. */
 229:../../kernel/FreeRTOS/Source/event_groups.c **** 				uxReturn = pxEventBits->uxEventBits;
 230:../../kernel/FreeRTOS/Source/event_groups.c **** 				xTimeoutOccurred = pdTRUE;
ARM GAS  /tmp/ccXZYLDn.s 			page 7


 231:../../kernel/FreeRTOS/Source/event_groups.c **** 			}
 232:../../kernel/FreeRTOS/Source/event_groups.c **** 		}
 233:../../kernel/FreeRTOS/Source/event_groups.c **** 	}
 234:../../kernel/FreeRTOS/Source/event_groups.c **** 	xAlreadyYielded = xTaskResumeAll();
 235:../../kernel/FreeRTOS/Source/event_groups.c **** 
 236:../../kernel/FreeRTOS/Source/event_groups.c **** 	if( xTicksToWait != ( TickType_t ) 0 )
 237:../../kernel/FreeRTOS/Source/event_groups.c **** 	{
 238:../../kernel/FreeRTOS/Source/event_groups.c **** 		if( xAlreadyYielded == pdFALSE )
 239:../../kernel/FreeRTOS/Source/event_groups.c **** 		{
 240:../../kernel/FreeRTOS/Source/event_groups.c **** 			portYIELD_WITHIN_API();
 241:../../kernel/FreeRTOS/Source/event_groups.c **** 		}
 242:../../kernel/FreeRTOS/Source/event_groups.c **** 		else
 243:../../kernel/FreeRTOS/Source/event_groups.c **** 		{
 244:../../kernel/FreeRTOS/Source/event_groups.c **** 			mtCOVERAGE_TEST_MARKER();
 245:../../kernel/FreeRTOS/Source/event_groups.c **** 		}
 246:../../kernel/FreeRTOS/Source/event_groups.c **** 
 247:../../kernel/FreeRTOS/Source/event_groups.c **** 		/* The task blocked to wait for its required bits to be set - at this
 248:../../kernel/FreeRTOS/Source/event_groups.c **** 		point either the required bits were set or the block time expired.  If
 249:../../kernel/FreeRTOS/Source/event_groups.c **** 		the required bits were set they will have been stored in the task's
 250:../../kernel/FreeRTOS/Source/event_groups.c **** 		event list item, and they should now be retrieved then cleared. */
 251:../../kernel/FreeRTOS/Source/event_groups.c **** 		uxReturn = uxTaskResetEventItemValue();
 252:../../kernel/FreeRTOS/Source/event_groups.c **** 
 253:../../kernel/FreeRTOS/Source/event_groups.c **** 		if( ( uxReturn & eventUNBLOCKED_DUE_TO_BIT_SET ) == ( EventBits_t ) 0 )
 254:../../kernel/FreeRTOS/Source/event_groups.c **** 		{
 255:../../kernel/FreeRTOS/Source/event_groups.c **** 			/* The task timed out, just return the current event bit value. */
 256:../../kernel/FreeRTOS/Source/event_groups.c **** 			taskENTER_CRITICAL();
 257:../../kernel/FreeRTOS/Source/event_groups.c **** 			{
 258:../../kernel/FreeRTOS/Source/event_groups.c **** 				uxReturn = pxEventBits->uxEventBits;
 259:../../kernel/FreeRTOS/Source/event_groups.c **** 
 260:../../kernel/FreeRTOS/Source/event_groups.c **** 				/* Although the task got here because it timed out before the
 261:../../kernel/FreeRTOS/Source/event_groups.c **** 				bits it was waiting for were set, it is possible that since it
 262:../../kernel/FreeRTOS/Source/event_groups.c **** 				unblocked another task has set the bits.  If this is the case
 263:../../kernel/FreeRTOS/Source/event_groups.c **** 				then it needs to clear the bits before exiting. */
 264:../../kernel/FreeRTOS/Source/event_groups.c **** 				if( ( uxReturn & uxBitsToWaitFor ) == uxBitsToWaitFor )
 265:../../kernel/FreeRTOS/Source/event_groups.c **** 				{
 266:../../kernel/FreeRTOS/Source/event_groups.c **** 					pxEventBits->uxEventBits &= ~uxBitsToWaitFor;
 267:../../kernel/FreeRTOS/Source/event_groups.c **** 				}
 268:../../kernel/FreeRTOS/Source/event_groups.c **** 				else
 269:../../kernel/FreeRTOS/Source/event_groups.c **** 				{
 270:../../kernel/FreeRTOS/Source/event_groups.c **** 					mtCOVERAGE_TEST_MARKER();
 271:../../kernel/FreeRTOS/Source/event_groups.c **** 				}
 272:../../kernel/FreeRTOS/Source/event_groups.c **** 			}
 273:../../kernel/FreeRTOS/Source/event_groups.c **** 			taskEXIT_CRITICAL();
 274:../../kernel/FreeRTOS/Source/event_groups.c **** 
 275:../../kernel/FreeRTOS/Source/event_groups.c **** 			xTimeoutOccurred = pdTRUE;
 276:../../kernel/FreeRTOS/Source/event_groups.c **** 		}
 277:../../kernel/FreeRTOS/Source/event_groups.c **** 		else
 278:../../kernel/FreeRTOS/Source/event_groups.c **** 		{
 279:../../kernel/FreeRTOS/Source/event_groups.c **** 			/* The task unblocked because the bits were set. */
 280:../../kernel/FreeRTOS/Source/event_groups.c **** 		}
 281:../../kernel/FreeRTOS/Source/event_groups.c **** 
 282:../../kernel/FreeRTOS/Source/event_groups.c **** 		/* Control bits might be set as the task had blocked should not be
 283:../../kernel/FreeRTOS/Source/event_groups.c **** 		returned. */
 284:../../kernel/FreeRTOS/Source/event_groups.c **** 		uxReturn &= ~eventEVENT_BITS_CONTROL_BYTES;
 285:../../kernel/FreeRTOS/Source/event_groups.c **** 	}
 286:../../kernel/FreeRTOS/Source/event_groups.c **** 
 287:../../kernel/FreeRTOS/Source/event_groups.c **** 	traceEVENT_GROUP_SYNC_END( xEventGroup, uxBitsToSet, uxBitsToWaitFor, xTimeoutOccurred );
ARM GAS  /tmp/ccXZYLDn.s 			page 8


 288:../../kernel/FreeRTOS/Source/event_groups.c **** 
 289:../../kernel/FreeRTOS/Source/event_groups.c **** 	/* Prevent compiler warnings when trace macros are not used. */
 290:../../kernel/FreeRTOS/Source/event_groups.c **** 	( void ) xTimeoutOccurred;
 291:../../kernel/FreeRTOS/Source/event_groups.c **** 
 292:../../kernel/FreeRTOS/Source/event_groups.c **** 	return uxReturn;
 293:../../kernel/FreeRTOS/Source/event_groups.c **** }
 294:../../kernel/FreeRTOS/Source/event_groups.c **** /*-----------------------------------------------------------*/
 295:../../kernel/FreeRTOS/Source/event_groups.c **** 
 296:../../kernel/FreeRTOS/Source/event_groups.c **** EventBits_t xEventGroupWaitBits( EventGroupHandle_t xEventGroup, const EventBits_t uxBitsToWaitFor,
 297:../../kernel/FreeRTOS/Source/event_groups.c **** {
 298:../../kernel/FreeRTOS/Source/event_groups.c **** EventGroup_t *pxEventBits = ( EventGroup_t * ) xEventGroup;
 299:../../kernel/FreeRTOS/Source/event_groups.c **** EventBits_t uxReturn, uxControlBits = 0;
 300:../../kernel/FreeRTOS/Source/event_groups.c **** BaseType_t xWaitConditionMet, xAlreadyYielded;
 301:../../kernel/FreeRTOS/Source/event_groups.c **** BaseType_t xTimeoutOccurred = pdFALSE;
 302:../../kernel/FreeRTOS/Source/event_groups.c **** 
 303:../../kernel/FreeRTOS/Source/event_groups.c **** 	/* Check the user is not attempting to wait on the bits used by the kernel
 304:../../kernel/FreeRTOS/Source/event_groups.c **** 	itself, and that at least one bit is being requested. */
 305:../../kernel/FreeRTOS/Source/event_groups.c **** 	configASSERT( xEventGroup );
 306:../../kernel/FreeRTOS/Source/event_groups.c **** 	configASSERT( ( uxBitsToWaitFor & eventEVENT_BITS_CONTROL_BYTES ) == 0 );
 307:../../kernel/FreeRTOS/Source/event_groups.c **** 	configASSERT( uxBitsToWaitFor != 0 );
 308:../../kernel/FreeRTOS/Source/event_groups.c **** 	#if ( ( INCLUDE_xTaskGetSchedulerState == 1 ) || ( configUSE_TIMERS == 1 ) )
 309:../../kernel/FreeRTOS/Source/event_groups.c **** 	{
 310:../../kernel/FreeRTOS/Source/event_groups.c **** 		configASSERT( !( ( xTaskGetSchedulerState() == taskSCHEDULER_SUSPENDED ) && ( xTicksToWait != 0 )
 311:../../kernel/FreeRTOS/Source/event_groups.c **** 	}
 312:../../kernel/FreeRTOS/Source/event_groups.c **** 	#endif
 313:../../kernel/FreeRTOS/Source/event_groups.c **** 
 314:../../kernel/FreeRTOS/Source/event_groups.c **** 	vTaskSuspendAll();
 315:../../kernel/FreeRTOS/Source/event_groups.c **** 	{
 316:../../kernel/FreeRTOS/Source/event_groups.c **** 		const EventBits_t uxCurrentEventBits = pxEventBits->uxEventBits;
 317:../../kernel/FreeRTOS/Source/event_groups.c **** 
 318:../../kernel/FreeRTOS/Source/event_groups.c **** 		/* Check to see if the wait condition is already met or not. */
 319:../../kernel/FreeRTOS/Source/event_groups.c **** 		xWaitConditionMet = prvTestWaitCondition( uxCurrentEventBits, uxBitsToWaitFor, xWaitForAllBits );
 320:../../kernel/FreeRTOS/Source/event_groups.c **** 
 321:../../kernel/FreeRTOS/Source/event_groups.c **** 		if( xWaitConditionMet != pdFALSE )
 322:../../kernel/FreeRTOS/Source/event_groups.c **** 		{
 323:../../kernel/FreeRTOS/Source/event_groups.c **** 			/* The wait condition has already been met so there is no need to
 324:../../kernel/FreeRTOS/Source/event_groups.c **** 			block. */
 325:../../kernel/FreeRTOS/Source/event_groups.c **** 			uxReturn = uxCurrentEventBits;
 326:../../kernel/FreeRTOS/Source/event_groups.c **** 			xTicksToWait = ( TickType_t ) 0;
 327:../../kernel/FreeRTOS/Source/event_groups.c **** 
 328:../../kernel/FreeRTOS/Source/event_groups.c **** 			/* Clear the wait bits if requested to do so. */
 329:../../kernel/FreeRTOS/Source/event_groups.c **** 			if( xClearOnExit != pdFALSE )
 330:../../kernel/FreeRTOS/Source/event_groups.c **** 			{
 331:../../kernel/FreeRTOS/Source/event_groups.c **** 				pxEventBits->uxEventBits &= ~uxBitsToWaitFor;
 332:../../kernel/FreeRTOS/Source/event_groups.c **** 			}
 333:../../kernel/FreeRTOS/Source/event_groups.c **** 			else
 334:../../kernel/FreeRTOS/Source/event_groups.c **** 			{
 335:../../kernel/FreeRTOS/Source/event_groups.c **** 				mtCOVERAGE_TEST_MARKER();
 336:../../kernel/FreeRTOS/Source/event_groups.c **** 			}
 337:../../kernel/FreeRTOS/Source/event_groups.c **** 		}
 338:../../kernel/FreeRTOS/Source/event_groups.c **** 		else if( xTicksToWait == ( TickType_t ) 0 )
 339:../../kernel/FreeRTOS/Source/event_groups.c **** 		{
 340:../../kernel/FreeRTOS/Source/event_groups.c **** 			/* The wait condition has not been met, but no block time was
 341:../../kernel/FreeRTOS/Source/event_groups.c **** 			specified, so just return the current value. */
 342:../../kernel/FreeRTOS/Source/event_groups.c **** 			uxReturn = uxCurrentEventBits;
 343:../../kernel/FreeRTOS/Source/event_groups.c **** 			xTimeoutOccurred = pdTRUE;
 344:../../kernel/FreeRTOS/Source/event_groups.c **** 		}
ARM GAS  /tmp/ccXZYLDn.s 			page 9


 345:../../kernel/FreeRTOS/Source/event_groups.c **** 		else
 346:../../kernel/FreeRTOS/Source/event_groups.c **** 		{
 347:../../kernel/FreeRTOS/Source/event_groups.c **** 			/* The task is going to block to wait for its required bits to be
 348:../../kernel/FreeRTOS/Source/event_groups.c **** 			set.  uxControlBits are used to remember the specified behaviour of
 349:../../kernel/FreeRTOS/Source/event_groups.c **** 			this call to xEventGroupWaitBits() - for use when the event bits
 350:../../kernel/FreeRTOS/Source/event_groups.c **** 			unblock the task. */
 351:../../kernel/FreeRTOS/Source/event_groups.c **** 			if( xClearOnExit != pdFALSE )
 352:../../kernel/FreeRTOS/Source/event_groups.c **** 			{
 353:../../kernel/FreeRTOS/Source/event_groups.c **** 				uxControlBits |= eventCLEAR_EVENTS_ON_EXIT_BIT;
 354:../../kernel/FreeRTOS/Source/event_groups.c **** 			}
 355:../../kernel/FreeRTOS/Source/event_groups.c **** 			else
 356:../../kernel/FreeRTOS/Source/event_groups.c **** 			{
 357:../../kernel/FreeRTOS/Source/event_groups.c **** 				mtCOVERAGE_TEST_MARKER();
 358:../../kernel/FreeRTOS/Source/event_groups.c **** 			}
 359:../../kernel/FreeRTOS/Source/event_groups.c **** 
 360:../../kernel/FreeRTOS/Source/event_groups.c **** 			if( xWaitForAllBits != pdFALSE )
 361:../../kernel/FreeRTOS/Source/event_groups.c **** 			{
 362:../../kernel/FreeRTOS/Source/event_groups.c **** 				uxControlBits |= eventWAIT_FOR_ALL_BITS;
 363:../../kernel/FreeRTOS/Source/event_groups.c **** 			}
 364:../../kernel/FreeRTOS/Source/event_groups.c **** 			else
 365:../../kernel/FreeRTOS/Source/event_groups.c **** 			{
 366:../../kernel/FreeRTOS/Source/event_groups.c **** 				mtCOVERAGE_TEST_MARKER();
 367:../../kernel/FreeRTOS/Source/event_groups.c **** 			}
 368:../../kernel/FreeRTOS/Source/event_groups.c **** 
 369:../../kernel/FreeRTOS/Source/event_groups.c **** 			/* Store the bits that the calling task is waiting for in the
 370:../../kernel/FreeRTOS/Source/event_groups.c **** 			task's event list item so the kernel knows when a match is
 371:../../kernel/FreeRTOS/Source/event_groups.c **** 			found.  Then enter the blocked state. */
 372:../../kernel/FreeRTOS/Source/event_groups.c **** 			vTaskPlaceOnUnorderedEventList( &( pxEventBits->xTasksWaitingForBits ), ( uxBitsToWaitFor | uxCo
 373:../../kernel/FreeRTOS/Source/event_groups.c **** 
 374:../../kernel/FreeRTOS/Source/event_groups.c **** 			/* This is obsolete as it will get set after the task unblocks, but
 375:../../kernel/FreeRTOS/Source/event_groups.c **** 			some compilers mistakenly generate a warning about the variable
 376:../../kernel/FreeRTOS/Source/event_groups.c **** 			being returned without being set if it is not done. */
 377:../../kernel/FreeRTOS/Source/event_groups.c **** 			uxReturn = 0;
 378:../../kernel/FreeRTOS/Source/event_groups.c **** 
 379:../../kernel/FreeRTOS/Source/event_groups.c **** 			traceEVENT_GROUP_WAIT_BITS_BLOCK( xEventGroup, uxBitsToWaitFor );
 380:../../kernel/FreeRTOS/Source/event_groups.c **** 		}
 381:../../kernel/FreeRTOS/Source/event_groups.c **** 	}
 382:../../kernel/FreeRTOS/Source/event_groups.c **** 	xAlreadyYielded = xTaskResumeAll();
 383:../../kernel/FreeRTOS/Source/event_groups.c **** 
 384:../../kernel/FreeRTOS/Source/event_groups.c **** 	if( xTicksToWait != ( TickType_t ) 0 )
 385:../../kernel/FreeRTOS/Source/event_groups.c **** 	{
 386:../../kernel/FreeRTOS/Source/event_groups.c **** 		if( xAlreadyYielded == pdFALSE )
 387:../../kernel/FreeRTOS/Source/event_groups.c **** 		{
 388:../../kernel/FreeRTOS/Source/event_groups.c **** 			portYIELD_WITHIN_API();
 389:../../kernel/FreeRTOS/Source/event_groups.c **** 		}
 390:../../kernel/FreeRTOS/Source/event_groups.c **** 		else
 391:../../kernel/FreeRTOS/Source/event_groups.c **** 		{
 392:../../kernel/FreeRTOS/Source/event_groups.c **** 			mtCOVERAGE_TEST_MARKER();
 393:../../kernel/FreeRTOS/Source/event_groups.c **** 		}
 394:../../kernel/FreeRTOS/Source/event_groups.c **** 
 395:../../kernel/FreeRTOS/Source/event_groups.c **** 		/* The task blocked to wait for its required bits to be set - at this
 396:../../kernel/FreeRTOS/Source/event_groups.c **** 		point either the required bits were set or the block time expired.  If
 397:../../kernel/FreeRTOS/Source/event_groups.c **** 		the required bits were set they will have been stored in the task's
 398:../../kernel/FreeRTOS/Source/event_groups.c **** 		event list item, and they should now be retrieved then cleared. */
 399:../../kernel/FreeRTOS/Source/event_groups.c **** 		uxReturn = uxTaskResetEventItemValue();
 400:../../kernel/FreeRTOS/Source/event_groups.c **** 
 401:../../kernel/FreeRTOS/Source/event_groups.c **** 		if( ( uxReturn & eventUNBLOCKED_DUE_TO_BIT_SET ) == ( EventBits_t ) 0 )
ARM GAS  /tmp/ccXZYLDn.s 			page 10


 402:../../kernel/FreeRTOS/Source/event_groups.c **** 		{
 403:../../kernel/FreeRTOS/Source/event_groups.c **** 			taskENTER_CRITICAL();
 404:../../kernel/FreeRTOS/Source/event_groups.c **** 			{
 405:../../kernel/FreeRTOS/Source/event_groups.c **** 				/* The task timed out, just return the current event bit value. */
 406:../../kernel/FreeRTOS/Source/event_groups.c **** 				uxReturn = pxEventBits->uxEventBits;
 407:../../kernel/FreeRTOS/Source/event_groups.c **** 
 408:../../kernel/FreeRTOS/Source/event_groups.c **** 				/* It is possible that the event bits were updated between this
 409:../../kernel/FreeRTOS/Source/event_groups.c **** 				task leaving the Blocked state and running again. */
 410:../../kernel/FreeRTOS/Source/event_groups.c **** 				if( prvTestWaitCondition( uxReturn, uxBitsToWaitFor, xWaitForAllBits ) != pdFALSE )
 411:../../kernel/FreeRTOS/Source/event_groups.c **** 				{
 412:../../kernel/FreeRTOS/Source/event_groups.c **** 					if( xClearOnExit != pdFALSE )
 413:../../kernel/FreeRTOS/Source/event_groups.c **** 					{
 414:../../kernel/FreeRTOS/Source/event_groups.c **** 						pxEventBits->uxEventBits &= ~uxBitsToWaitFor;
 415:../../kernel/FreeRTOS/Source/event_groups.c **** 					}
 416:../../kernel/FreeRTOS/Source/event_groups.c **** 					else
 417:../../kernel/FreeRTOS/Source/event_groups.c **** 					{
 418:../../kernel/FreeRTOS/Source/event_groups.c **** 						mtCOVERAGE_TEST_MARKER();
 419:../../kernel/FreeRTOS/Source/event_groups.c **** 					}
 420:../../kernel/FreeRTOS/Source/event_groups.c **** 				}
 421:../../kernel/FreeRTOS/Source/event_groups.c **** 				else
 422:../../kernel/FreeRTOS/Source/event_groups.c **** 				{
 423:../../kernel/FreeRTOS/Source/event_groups.c **** 					mtCOVERAGE_TEST_MARKER();
 424:../../kernel/FreeRTOS/Source/event_groups.c **** 				}
 425:../../kernel/FreeRTOS/Source/event_groups.c **** 				xTimeoutOccurred = pdTRUE;
 426:../../kernel/FreeRTOS/Source/event_groups.c **** 			}
 427:../../kernel/FreeRTOS/Source/event_groups.c **** 			taskEXIT_CRITICAL();
 428:../../kernel/FreeRTOS/Source/event_groups.c **** 		}
 429:../../kernel/FreeRTOS/Source/event_groups.c **** 		else
 430:../../kernel/FreeRTOS/Source/event_groups.c **** 		{
 431:../../kernel/FreeRTOS/Source/event_groups.c **** 			/* The task unblocked because the bits were set. */
 432:../../kernel/FreeRTOS/Source/event_groups.c **** 		}
 433:../../kernel/FreeRTOS/Source/event_groups.c **** 
 434:../../kernel/FreeRTOS/Source/event_groups.c **** 		/* The task blocked so control bits may have been set. */
 435:../../kernel/FreeRTOS/Source/event_groups.c **** 		uxReturn &= ~eventEVENT_BITS_CONTROL_BYTES;
 436:../../kernel/FreeRTOS/Source/event_groups.c **** 	}
 437:../../kernel/FreeRTOS/Source/event_groups.c **** 	traceEVENT_GROUP_WAIT_BITS_END( xEventGroup, uxBitsToWaitFor, xTimeoutOccurred );
 438:../../kernel/FreeRTOS/Source/event_groups.c **** 
 439:../../kernel/FreeRTOS/Source/event_groups.c **** 	/* Prevent compiler warnings when trace macros are not used. */
 440:../../kernel/FreeRTOS/Source/event_groups.c **** 	( void ) xTimeoutOccurred;
 441:../../kernel/FreeRTOS/Source/event_groups.c **** 
 442:../../kernel/FreeRTOS/Source/event_groups.c **** 	return uxReturn;
 443:../../kernel/FreeRTOS/Source/event_groups.c **** }
 444:../../kernel/FreeRTOS/Source/event_groups.c **** /*-----------------------------------------------------------*/
 445:../../kernel/FreeRTOS/Source/event_groups.c **** 
 446:../../kernel/FreeRTOS/Source/event_groups.c **** EventBits_t xEventGroupClearBits( EventGroupHandle_t xEventGroup, const EventBits_t uxBitsToClear )
 447:../../kernel/FreeRTOS/Source/event_groups.c **** {
 448:../../kernel/FreeRTOS/Source/event_groups.c **** EventGroup_t *pxEventBits = ( EventGroup_t * ) xEventGroup;
 449:../../kernel/FreeRTOS/Source/event_groups.c **** EventBits_t uxReturn;
 450:../../kernel/FreeRTOS/Source/event_groups.c **** 
 451:../../kernel/FreeRTOS/Source/event_groups.c **** 	/* Check the user is not attempting to clear the bits used by the kernel
 452:../../kernel/FreeRTOS/Source/event_groups.c **** 	itself. */
 453:../../kernel/FreeRTOS/Source/event_groups.c **** 	configASSERT( xEventGroup );
 454:../../kernel/FreeRTOS/Source/event_groups.c **** 	configASSERT( ( uxBitsToClear & eventEVENT_BITS_CONTROL_BYTES ) == 0 );
 455:../../kernel/FreeRTOS/Source/event_groups.c **** 
 456:../../kernel/FreeRTOS/Source/event_groups.c **** 	taskENTER_CRITICAL();
 457:../../kernel/FreeRTOS/Source/event_groups.c **** 	{
 458:../../kernel/FreeRTOS/Source/event_groups.c **** 		traceEVENT_GROUP_CLEAR_BITS( xEventGroup, uxBitsToClear );
ARM GAS  /tmp/ccXZYLDn.s 			page 11


 459:../../kernel/FreeRTOS/Source/event_groups.c **** 
 460:../../kernel/FreeRTOS/Source/event_groups.c **** 		/* The value returned is the event group value prior to the bits being
 461:../../kernel/FreeRTOS/Source/event_groups.c **** 		cleared. */
 462:../../kernel/FreeRTOS/Source/event_groups.c **** 		uxReturn = pxEventBits->uxEventBits;
 463:../../kernel/FreeRTOS/Source/event_groups.c **** 
 464:../../kernel/FreeRTOS/Source/event_groups.c **** 		/* Clear the bits. */
 465:../../kernel/FreeRTOS/Source/event_groups.c **** 		pxEventBits->uxEventBits &= ~uxBitsToClear;
 466:../../kernel/FreeRTOS/Source/event_groups.c **** 	}
 467:../../kernel/FreeRTOS/Source/event_groups.c **** 	taskEXIT_CRITICAL();
 468:../../kernel/FreeRTOS/Source/event_groups.c **** 
 469:../../kernel/FreeRTOS/Source/event_groups.c **** 	return uxReturn;
 470:../../kernel/FreeRTOS/Source/event_groups.c **** }
 471:../../kernel/FreeRTOS/Source/event_groups.c **** /*-----------------------------------------------------------*/
 472:../../kernel/FreeRTOS/Source/event_groups.c **** 
 473:../../kernel/FreeRTOS/Source/event_groups.c **** #if ( ( configUSE_TRACE_FACILITY == 1 ) && ( INCLUDE_xTimerPendFunctionCall == 1 ) && ( configUSE_T
 474:../../kernel/FreeRTOS/Source/event_groups.c **** 
 475:../../kernel/FreeRTOS/Source/event_groups.c **** 	BaseType_t xEventGroupClearBitsFromISR( EventGroupHandle_t xEventGroup, const EventBits_t uxBitsTo
 476:../../kernel/FreeRTOS/Source/event_groups.c **** 	{
 477:../../kernel/FreeRTOS/Source/event_groups.c **** 		BaseType_t xReturn;
 478:../../kernel/FreeRTOS/Source/event_groups.c **** 
 479:../../kernel/FreeRTOS/Source/event_groups.c **** 		traceEVENT_GROUP_CLEAR_BITS_FROM_ISR( xEventGroup, uxBitsToClear );
 480:../../kernel/FreeRTOS/Source/event_groups.c **** 		xReturn = xTimerPendFunctionCallFromISR( vEventGroupClearBitsCallback, ( void * ) xEventGroup, ( 
 481:../../kernel/FreeRTOS/Source/event_groups.c **** 
 482:../../kernel/FreeRTOS/Source/event_groups.c **** 		return xReturn;
 483:../../kernel/FreeRTOS/Source/event_groups.c **** 	}
 484:../../kernel/FreeRTOS/Source/event_groups.c **** 
 485:../../kernel/FreeRTOS/Source/event_groups.c **** #endif
 486:../../kernel/FreeRTOS/Source/event_groups.c **** /*-----------------------------------------------------------*/
 487:../../kernel/FreeRTOS/Source/event_groups.c **** 
 488:../../kernel/FreeRTOS/Source/event_groups.c **** EventBits_t xEventGroupGetBitsFromISR( EventGroupHandle_t xEventGroup )
 489:../../kernel/FreeRTOS/Source/event_groups.c **** {
 490:../../kernel/FreeRTOS/Source/event_groups.c **** UBaseType_t uxSavedInterruptStatus;
 491:../../kernel/FreeRTOS/Source/event_groups.c **** EventGroup_t *pxEventBits = ( EventGroup_t * ) xEventGroup;
 492:../../kernel/FreeRTOS/Source/event_groups.c **** EventBits_t uxReturn;
 493:../../kernel/FreeRTOS/Source/event_groups.c **** 
 494:../../kernel/FreeRTOS/Source/event_groups.c **** 	uxSavedInterruptStatus = portSET_INTERRUPT_MASK_FROM_ISR();
 495:../../kernel/FreeRTOS/Source/event_groups.c **** 	{
 496:../../kernel/FreeRTOS/Source/event_groups.c **** 		uxReturn = pxEventBits->uxEventBits;
 497:../../kernel/FreeRTOS/Source/event_groups.c **** 	}
 498:../../kernel/FreeRTOS/Source/event_groups.c **** 	portCLEAR_INTERRUPT_MASK_FROM_ISR( uxSavedInterruptStatus );
 499:../../kernel/FreeRTOS/Source/event_groups.c **** 
 500:../../kernel/FreeRTOS/Source/event_groups.c **** 	return uxReturn;
 501:../../kernel/FreeRTOS/Source/event_groups.c **** }
 502:../../kernel/FreeRTOS/Source/event_groups.c **** /*-----------------------------------------------------------*/
 503:../../kernel/FreeRTOS/Source/event_groups.c **** 
 504:../../kernel/FreeRTOS/Source/event_groups.c **** EventBits_t xEventGroupSetBits( EventGroupHandle_t xEventGroup, const EventBits_t uxBitsToSet )
 505:../../kernel/FreeRTOS/Source/event_groups.c **** {
 506:../../kernel/FreeRTOS/Source/event_groups.c **** ListItem_t *pxListItem, *pxNext;
 507:../../kernel/FreeRTOS/Source/event_groups.c **** ListItem_t const *pxListEnd;
 508:../../kernel/FreeRTOS/Source/event_groups.c **** List_t *pxList;
 509:../../kernel/FreeRTOS/Source/event_groups.c **** EventBits_t uxBitsToClear = 0, uxBitsWaitedFor, uxControlBits;
 510:../../kernel/FreeRTOS/Source/event_groups.c **** EventGroup_t *pxEventBits = ( EventGroup_t * ) xEventGroup;
 511:../../kernel/FreeRTOS/Source/event_groups.c **** BaseType_t xMatchFound = pdFALSE;
 512:../../kernel/FreeRTOS/Source/event_groups.c **** 
 513:../../kernel/FreeRTOS/Source/event_groups.c **** 	/* Check the user is not attempting to set the bits used by the kernel
 514:../../kernel/FreeRTOS/Source/event_groups.c **** 	itself. */
 515:../../kernel/FreeRTOS/Source/event_groups.c **** 	configASSERT( xEventGroup );
ARM GAS  /tmp/ccXZYLDn.s 			page 12


 516:../../kernel/FreeRTOS/Source/event_groups.c **** 	configASSERT( ( uxBitsToSet & eventEVENT_BITS_CONTROL_BYTES ) == 0 );
 517:../../kernel/FreeRTOS/Source/event_groups.c **** 
 518:../../kernel/FreeRTOS/Source/event_groups.c **** 	pxList = &( pxEventBits->xTasksWaitingForBits );
 519:../../kernel/FreeRTOS/Source/event_groups.c **** 	pxListEnd = listGET_END_MARKER( pxList ); /*lint !e826 !e740 The mini list structure is used as th
 520:../../kernel/FreeRTOS/Source/event_groups.c **** 	vTaskSuspendAll();
 521:../../kernel/FreeRTOS/Source/event_groups.c **** 	{
 522:../../kernel/FreeRTOS/Source/event_groups.c **** 		traceEVENT_GROUP_SET_BITS( xEventGroup, uxBitsToSet );
 523:../../kernel/FreeRTOS/Source/event_groups.c **** 
 524:../../kernel/FreeRTOS/Source/event_groups.c **** 		pxListItem = listGET_HEAD_ENTRY( pxList );
 525:../../kernel/FreeRTOS/Source/event_groups.c **** 
 526:../../kernel/FreeRTOS/Source/event_groups.c **** 		/* Set the bits. */
 527:../../kernel/FreeRTOS/Source/event_groups.c **** 		pxEventBits->uxEventBits |= uxBitsToSet;
 528:../../kernel/FreeRTOS/Source/event_groups.c **** 
 529:../../kernel/FreeRTOS/Source/event_groups.c **** 		/* See if the new bit value should unblock any tasks. */
 530:../../kernel/FreeRTOS/Source/event_groups.c **** 		while( pxListItem != pxListEnd )
 531:../../kernel/FreeRTOS/Source/event_groups.c **** 		{
 532:../../kernel/FreeRTOS/Source/event_groups.c **** 			pxNext = listGET_NEXT( pxListItem );
 533:../../kernel/FreeRTOS/Source/event_groups.c **** 			uxBitsWaitedFor = listGET_LIST_ITEM_VALUE( pxListItem );
 534:../../kernel/FreeRTOS/Source/event_groups.c **** 			xMatchFound = pdFALSE;
 535:../../kernel/FreeRTOS/Source/event_groups.c **** 
 536:../../kernel/FreeRTOS/Source/event_groups.c **** 			/* Split the bits waited for from the control bits. */
 537:../../kernel/FreeRTOS/Source/event_groups.c **** 			uxControlBits = uxBitsWaitedFor & eventEVENT_BITS_CONTROL_BYTES;
 538:../../kernel/FreeRTOS/Source/event_groups.c **** 			uxBitsWaitedFor &= ~eventEVENT_BITS_CONTROL_BYTES;
 539:../../kernel/FreeRTOS/Source/event_groups.c **** 
 540:../../kernel/FreeRTOS/Source/event_groups.c **** 			if( ( uxControlBits & eventWAIT_FOR_ALL_BITS ) == ( EventBits_t ) 0 )
 541:../../kernel/FreeRTOS/Source/event_groups.c **** 			{
 542:../../kernel/FreeRTOS/Source/event_groups.c **** 				/* Just looking for single bit being set. */
 543:../../kernel/FreeRTOS/Source/event_groups.c **** 				if( ( uxBitsWaitedFor & pxEventBits->uxEventBits ) != ( EventBits_t ) 0 )
 544:../../kernel/FreeRTOS/Source/event_groups.c **** 				{
 545:../../kernel/FreeRTOS/Source/event_groups.c **** 					xMatchFound = pdTRUE;
 546:../../kernel/FreeRTOS/Source/event_groups.c **** 				}
 547:../../kernel/FreeRTOS/Source/event_groups.c **** 				else
 548:../../kernel/FreeRTOS/Source/event_groups.c **** 				{
 549:../../kernel/FreeRTOS/Source/event_groups.c **** 					mtCOVERAGE_TEST_MARKER();
 550:../../kernel/FreeRTOS/Source/event_groups.c **** 				}
 551:../../kernel/FreeRTOS/Source/event_groups.c **** 			}
 552:../../kernel/FreeRTOS/Source/event_groups.c **** 			else if( ( uxBitsWaitedFor & pxEventBits->uxEventBits ) == uxBitsWaitedFor )
 553:../../kernel/FreeRTOS/Source/event_groups.c **** 			{
 554:../../kernel/FreeRTOS/Source/event_groups.c **** 				/* All bits are set. */
 555:../../kernel/FreeRTOS/Source/event_groups.c **** 				xMatchFound = pdTRUE;
 556:../../kernel/FreeRTOS/Source/event_groups.c **** 			}
 557:../../kernel/FreeRTOS/Source/event_groups.c **** 			else
 558:../../kernel/FreeRTOS/Source/event_groups.c **** 			{
 559:../../kernel/FreeRTOS/Source/event_groups.c **** 				/* Need all bits to be set, but not all the bits were set. */
 560:../../kernel/FreeRTOS/Source/event_groups.c **** 			}
 561:../../kernel/FreeRTOS/Source/event_groups.c **** 
 562:../../kernel/FreeRTOS/Source/event_groups.c **** 			if( xMatchFound != pdFALSE )
 563:../../kernel/FreeRTOS/Source/event_groups.c **** 			{
 564:../../kernel/FreeRTOS/Source/event_groups.c **** 				/* The bits match.  Should the bits be cleared on exit? */
 565:../../kernel/FreeRTOS/Source/event_groups.c **** 				if( ( uxControlBits & eventCLEAR_EVENTS_ON_EXIT_BIT ) != ( EventBits_t ) 0 )
 566:../../kernel/FreeRTOS/Source/event_groups.c **** 				{
 567:../../kernel/FreeRTOS/Source/event_groups.c **** 					uxBitsToClear |= uxBitsWaitedFor;
 568:../../kernel/FreeRTOS/Source/event_groups.c **** 				}
 569:../../kernel/FreeRTOS/Source/event_groups.c **** 				else
 570:../../kernel/FreeRTOS/Source/event_groups.c **** 				{
 571:../../kernel/FreeRTOS/Source/event_groups.c **** 					mtCOVERAGE_TEST_MARKER();
 572:../../kernel/FreeRTOS/Source/event_groups.c **** 				}
ARM GAS  /tmp/ccXZYLDn.s 			page 13


 573:../../kernel/FreeRTOS/Source/event_groups.c **** 
 574:../../kernel/FreeRTOS/Source/event_groups.c **** 				/* Store the actual event flag value in the task's event list
 575:../../kernel/FreeRTOS/Source/event_groups.c **** 				item before removing the task from the event list.  The
 576:../../kernel/FreeRTOS/Source/event_groups.c **** 				eventUNBLOCKED_DUE_TO_BIT_SET bit is set so the task knows
 577:../../kernel/FreeRTOS/Source/event_groups.c **** 				that is was unblocked due to its required bits matching, rather
 578:../../kernel/FreeRTOS/Source/event_groups.c **** 				than because it timed out. */
 579:../../kernel/FreeRTOS/Source/event_groups.c **** 				vTaskRemoveFromUnorderedEventList( pxListItem, pxEventBits->uxEventBits | eventUNBLOCKED_DUE_TO
 580:../../kernel/FreeRTOS/Source/event_groups.c **** 			}
 581:../../kernel/FreeRTOS/Source/event_groups.c **** 
 582:../../kernel/FreeRTOS/Source/event_groups.c **** 			/* Move onto the next list item.  Note pxListItem->pxNext is not
 583:../../kernel/FreeRTOS/Source/event_groups.c **** 			used here as the list item may have been removed from the event list
 584:../../kernel/FreeRTOS/Source/event_groups.c **** 			and inserted into the ready/pending reading list. */
 585:../../kernel/FreeRTOS/Source/event_groups.c **** 			pxListItem = pxNext;
 586:../../kernel/FreeRTOS/Source/event_groups.c **** 		}
 587:../../kernel/FreeRTOS/Source/event_groups.c **** 
 588:../../kernel/FreeRTOS/Source/event_groups.c **** 		/* Clear any bits that matched when the eventCLEAR_EVENTS_ON_EXIT_BIT
 589:../../kernel/FreeRTOS/Source/event_groups.c **** 		bit was set in the control word. */
 590:../../kernel/FreeRTOS/Source/event_groups.c **** 		pxEventBits->uxEventBits &= ~uxBitsToClear;
 591:../../kernel/FreeRTOS/Source/event_groups.c **** 	}
 592:../../kernel/FreeRTOS/Source/event_groups.c **** 	( void ) xTaskResumeAll();
 593:../../kernel/FreeRTOS/Source/event_groups.c **** 
 594:../../kernel/FreeRTOS/Source/event_groups.c **** 	return pxEventBits->uxEventBits;
 595:../../kernel/FreeRTOS/Source/event_groups.c **** }
 596:../../kernel/FreeRTOS/Source/event_groups.c **** /*-----------------------------------------------------------*/
 597:../../kernel/FreeRTOS/Source/event_groups.c **** 
 598:../../kernel/FreeRTOS/Source/event_groups.c **** void vEventGroupDelete( EventGroupHandle_t xEventGroup )
 599:../../kernel/FreeRTOS/Source/event_groups.c **** {
 600:../../kernel/FreeRTOS/Source/event_groups.c **** EventGroup_t *pxEventBits = ( EventGroup_t * ) xEventGroup;
 601:../../kernel/FreeRTOS/Source/event_groups.c **** const List_t *pxTasksWaitingForBits = &( pxEventBits->xTasksWaitingForBits );
 602:../../kernel/FreeRTOS/Source/event_groups.c **** 
 603:../../kernel/FreeRTOS/Source/event_groups.c **** 	vTaskSuspendAll();
 604:../../kernel/FreeRTOS/Source/event_groups.c **** 	{
 605:../../kernel/FreeRTOS/Source/event_groups.c **** 		traceEVENT_GROUP_DELETE( xEventGroup );
 606:../../kernel/FreeRTOS/Source/event_groups.c **** 
 607:../../kernel/FreeRTOS/Source/event_groups.c **** 		while( listCURRENT_LIST_LENGTH( pxTasksWaitingForBits ) > ( UBaseType_t ) 0 )
 608:../../kernel/FreeRTOS/Source/event_groups.c **** 		{
 609:../../kernel/FreeRTOS/Source/event_groups.c **** 			/* Unblock the task, returning 0 as the event list is being deleted
 610:../../kernel/FreeRTOS/Source/event_groups.c **** 			and cannot therefore have any bits set. */
 611:../../kernel/FreeRTOS/Source/event_groups.c **** 			configASSERT( pxTasksWaitingForBits->xListEnd.pxNext != ( const ListItem_t * ) &( pxTasksWaiting
 612:../../kernel/FreeRTOS/Source/event_groups.c **** 			vTaskRemoveFromUnorderedEventList( pxTasksWaitingForBits->xListEnd.pxNext, eventUNBLOCKED_DUE_TO
 613:../../kernel/FreeRTOS/Source/event_groups.c **** 		}
 614:../../kernel/FreeRTOS/Source/event_groups.c **** 
 615:../../kernel/FreeRTOS/Source/event_groups.c **** 		#if( ( configSUPPORT_DYNAMIC_ALLOCATION == 1 ) && ( configSUPPORT_STATIC_ALLOCATION == 0 ) )
 616:../../kernel/FreeRTOS/Source/event_groups.c **** 		{
 617:../../kernel/FreeRTOS/Source/event_groups.c **** 			/* The event group can only have been allocated dynamically - free
 618:../../kernel/FreeRTOS/Source/event_groups.c **** 			it again. */
 619:../../kernel/FreeRTOS/Source/event_groups.c **** 			vPortFree( pxEventBits );
 620:../../kernel/FreeRTOS/Source/event_groups.c **** 		}
 621:../../kernel/FreeRTOS/Source/event_groups.c **** 		#elif( ( configSUPPORT_DYNAMIC_ALLOCATION == 1 ) && ( configSUPPORT_STATIC_ALLOCATION == 1 ) )
 622:../../kernel/FreeRTOS/Source/event_groups.c **** 		{
 623:../../kernel/FreeRTOS/Source/event_groups.c **** 			/* The event group could have been allocated statically or
 624:../../kernel/FreeRTOS/Source/event_groups.c **** 			dynamically, so check before attempting to free the memory. */
 625:../../kernel/FreeRTOS/Source/event_groups.c **** 			if( pxEventBits->ucStaticallyAllocated == ( uint8_t ) pdFALSE )
 626:../../kernel/FreeRTOS/Source/event_groups.c **** 			{
 627:../../kernel/FreeRTOS/Source/event_groups.c **** 				vPortFree( pxEventBits );
 628:../../kernel/FreeRTOS/Source/event_groups.c **** 			}
 629:../../kernel/FreeRTOS/Source/event_groups.c **** 			else
ARM GAS  /tmp/ccXZYLDn.s 			page 14


 630:../../kernel/FreeRTOS/Source/event_groups.c **** 			{
 631:../../kernel/FreeRTOS/Source/event_groups.c **** 				mtCOVERAGE_TEST_MARKER();
 632:../../kernel/FreeRTOS/Source/event_groups.c **** 			}
 633:../../kernel/FreeRTOS/Source/event_groups.c **** 		}
 634:../../kernel/FreeRTOS/Source/event_groups.c **** 		#endif /* configSUPPORT_DYNAMIC_ALLOCATION */
 635:../../kernel/FreeRTOS/Source/event_groups.c **** 	}
 636:../../kernel/FreeRTOS/Source/event_groups.c **** 	( void ) xTaskResumeAll();
 637:../../kernel/FreeRTOS/Source/event_groups.c **** }
 638:../../kernel/FreeRTOS/Source/event_groups.c **** /*-----------------------------------------------------------*/
 639:../../kernel/FreeRTOS/Source/event_groups.c **** 
 640:../../kernel/FreeRTOS/Source/event_groups.c **** /* For internal use only - execute a 'set bits' command that was pended from
 641:../../kernel/FreeRTOS/Source/event_groups.c **** an interrupt. */
 642:../../kernel/FreeRTOS/Source/event_groups.c **** void vEventGroupSetBitsCallback( void *pvEventGroup, const uint32_t ulBitsToSet )
 643:../../kernel/FreeRTOS/Source/event_groups.c **** {
 644:../../kernel/FreeRTOS/Source/event_groups.c **** 	( void ) xEventGroupSetBits( pvEventGroup, ( EventBits_t ) ulBitsToSet );
 645:../../kernel/FreeRTOS/Source/event_groups.c **** }
 646:../../kernel/FreeRTOS/Source/event_groups.c **** /*-----------------------------------------------------------*/
 647:../../kernel/FreeRTOS/Source/event_groups.c **** 
 648:../../kernel/FreeRTOS/Source/event_groups.c **** /* For internal use only - execute a 'clear bits' command that was pended from
 649:../../kernel/FreeRTOS/Source/event_groups.c **** an interrupt. */
 650:../../kernel/FreeRTOS/Source/event_groups.c **** void vEventGroupClearBitsCallback( void *pvEventGroup, const uint32_t ulBitsToClear )
 651:../../kernel/FreeRTOS/Source/event_groups.c **** {
 113              		.loc 1 651 1 view -0
 114              		.cfi_startproc
 115              		@ args = 0, pretend = 0, frame = 0
 116              		@ frame_needed = 0, uses_anonymous_args = 0
 652:../../kernel/FreeRTOS/Source/event_groups.c **** 	( void ) xEventGroupClearBits( pvEventGroup, ( EventBits_t ) ulBitsToClear );
 117              		.loc 1 652 2 view .LVU1
 118              	.LBB69:
 119              	.LBI69:
 446:../../kernel/FreeRTOS/Source/event_groups.c **** {
 120              		.loc 1 446 13 view .LVU2
 121              	.LBB70:
 448:../../kernel/FreeRTOS/Source/event_groups.c **** EventBits_t uxReturn;
 122              		.loc 1 448 1 view .LVU3
 449:../../kernel/FreeRTOS/Source/event_groups.c **** 
 123              		.loc 1 449 1 view .LVU4
 453:../../kernel/FreeRTOS/Source/event_groups.c **** 	configASSERT( ( uxBitsToClear & eventEVENT_BITS_CONTROL_BYTES ) == 0 );
 124              		.loc 1 453 2 view .LVU5
 125              	.LBE70:
 126              	.LBE69:
 127              	@ ../../kernel/FreeRTOS/Source/event_groups.c:651: {
 651:../../kernel/FreeRTOS/Source/event_groups.c **** 	( void ) xEventGroupClearBits( pvEventGroup, ( EventBits_t ) ulBitsToClear );
 128              		.loc 1 651 1 is_stmt 0 view .LVU6
 129 0000 38B5     		push	{r3, r4, r5, lr}	@
 130              		.cfi_def_cfa_offset 16
 131              		.cfi_offset 3, -16
 132              		.cfi_offset 4, -12
 133              		.cfi_offset 5, -8
 134              		.cfi_offset 14, -4
 135              	.LBB81:
 136              	.LBB79:
 137              	@ ../../kernel/FreeRTOS/Source/event_groups.c:453: 	configASSERT( xEventGroup );
 453:../../kernel/FreeRTOS/Source/event_groups.c **** 	configASSERT( ( uxBitsToClear & eventEVENT_BITS_CONTROL_BYTES ) == 0 );
 138              		.loc 1 453 2 view .LVU7
 139 0002 B8B1     		cbz	r0, .L8	@ pvEventGroup,
 453:../../kernel/FreeRTOS/Source/event_groups.c **** 	configASSERT( ( uxBitsToClear & eventEVENT_BITS_CONTROL_BYTES ) == 0 );
ARM GAS  /tmp/ccXZYLDn.s 			page 15


 140              		.loc 1 453 29 is_stmt 1 view .LVU8
 454:../../kernel/FreeRTOS/Source/event_groups.c **** 
 141              		.loc 1 454 2 view .LVU9
 142 0004 11F07F4F 		tst	r1, #-16777216	@ ulBitsToClear,
 143 0008 08D0     		beq	.L4		@,
 454:../../kernel/FreeRTOS/Source/event_groups.c **** 
 144              		.loc 1 454 2 view .LVU10
 145              	.LBB71:
 146              	.LBI71:
 147              		.file 2 "../../kernel/FreeRTOS/Source/portable/GCC/ARM_CM4F/portmacro.h"
   1:../../kernel/FreeRTOS/Source/portable/GCC/ARM_CM4F/portmacro.h **** /*
   2:../../kernel/FreeRTOS/Source/portable/GCC/ARM_CM4F/portmacro.h ****  * FreeRTOS Kernel V10.0.1
   3:../../kernel/FreeRTOS/Source/portable/GCC/ARM_CM4F/portmacro.h ****  * Copyright (C) 2017 Amazon.com, Inc. or its affiliates.  All Rights Reserved.
   4:../../kernel/FreeRTOS/Source/portable/GCC/ARM_CM4F/portmacro.h ****  *
   5:../../kernel/FreeRTOS/Source/portable/GCC/ARM_CM4F/portmacro.h ****  * Permission is hereby granted, free of charge, to any person obtaining a copy of
   6:../../kernel/FreeRTOS/Source/portable/GCC/ARM_CM4F/portmacro.h ****  * this software and associated documentation files (the "Software"), to deal in
   7:../../kernel/FreeRTOS/Source/portable/GCC/ARM_CM4F/portmacro.h ****  * the Software without restriction, including without limitation the rights to
   8:../../kernel/FreeRTOS/Source/portable/GCC/ARM_CM4F/portmacro.h ****  * use, copy, modify, merge, publish, distribute, sublicense, and/or sell copies of
   9:../../kernel/FreeRTOS/Source/portable/GCC/ARM_CM4F/portmacro.h ****  * the Software, and to permit persons to whom the Software is furnished to do so,
  10:../../kernel/FreeRTOS/Source/portable/GCC/ARM_CM4F/portmacro.h ****  * subject to the following conditions:
  11:../../kernel/FreeRTOS/Source/portable/GCC/ARM_CM4F/portmacro.h ****  *
  12:../../kernel/FreeRTOS/Source/portable/GCC/ARM_CM4F/portmacro.h ****  * The above copyright notice and this permission notice shall be included in all
  13:../../kernel/FreeRTOS/Source/portable/GCC/ARM_CM4F/portmacro.h ****  * copies or substantial portions of the Software.
  14:../../kernel/FreeRTOS/Source/portable/GCC/ARM_CM4F/portmacro.h ****  *
  15:../../kernel/FreeRTOS/Source/portable/GCC/ARM_CM4F/portmacro.h ****  * THE SOFTWARE IS PROVIDED "AS IS", WITHOUT WARRANTY OF ANY KIND, EXPRESS OR
  16:../../kernel/FreeRTOS/Source/portable/GCC/ARM_CM4F/portmacro.h ****  * IMPLIED, INCLUDING BUT NOT LIMITED TO THE WARRANTIES OF MERCHANTABILITY, FITNESS
  17:../../kernel/FreeRTOS/Source/portable/GCC/ARM_CM4F/portmacro.h ****  * FOR A PARTICULAR PURPOSE AND NONINFRINGEMENT. IN NO EVENT SHALL THE AUTHORS OR
  18:../../kernel/FreeRTOS/Source/portable/GCC/ARM_CM4F/portmacro.h ****  * COPYRIGHT HOLDERS BE LIABLE FOR ANY CLAIM, DAMAGES OR OTHER LIABILITY, WHETHER
  19:../../kernel/FreeRTOS/Source/portable/GCC/ARM_CM4F/portmacro.h ****  * IN AN ACTION OF CONTRACT, TORT OR OTHERWISE, ARISING FROM, OUT OF OR IN
  20:../../kernel/FreeRTOS/Source/portable/GCC/ARM_CM4F/portmacro.h ****  * CONNECTION WITH THE SOFTWARE OR THE USE OR OTHER DEALINGS IN THE SOFTWARE.
  21:../../kernel/FreeRTOS/Source/portable/GCC/ARM_CM4F/portmacro.h ****  *
  22:../../kernel/FreeRTOS/Source/portable/GCC/ARM_CM4F/portmacro.h ****  * http://www.FreeRTOS.org
  23:../../kernel/FreeRTOS/Source/portable/GCC/ARM_CM4F/portmacro.h ****  * http://aws.amazon.com/freertos
  24:../../kernel/FreeRTOS/Source/portable/GCC/ARM_CM4F/portmacro.h ****  *
  25:../../kernel/FreeRTOS/Source/portable/GCC/ARM_CM4F/portmacro.h ****  * 1 tab == 4 spaces!
  26:../../kernel/FreeRTOS/Source/portable/GCC/ARM_CM4F/portmacro.h ****  */
  27:../../kernel/FreeRTOS/Source/portable/GCC/ARM_CM4F/portmacro.h **** 
  28:../../kernel/FreeRTOS/Source/portable/GCC/ARM_CM4F/portmacro.h **** 
  29:../../kernel/FreeRTOS/Source/portable/GCC/ARM_CM4F/portmacro.h **** #ifndef PORTMACRO_H
  30:../../kernel/FreeRTOS/Source/portable/GCC/ARM_CM4F/portmacro.h **** #define PORTMACRO_H
  31:../../kernel/FreeRTOS/Source/portable/GCC/ARM_CM4F/portmacro.h **** 
  32:../../kernel/FreeRTOS/Source/portable/GCC/ARM_CM4F/portmacro.h **** #ifdef __cplusplus
  33:../../kernel/FreeRTOS/Source/portable/GCC/ARM_CM4F/portmacro.h **** extern "C" {
  34:../../kernel/FreeRTOS/Source/portable/GCC/ARM_CM4F/portmacro.h **** #endif
  35:../../kernel/FreeRTOS/Source/portable/GCC/ARM_CM4F/portmacro.h **** 
  36:../../kernel/FreeRTOS/Source/portable/GCC/ARM_CM4F/portmacro.h **** /*-----------------------------------------------------------
  37:../../kernel/FreeRTOS/Source/portable/GCC/ARM_CM4F/portmacro.h ****  * Port specific definitions.
  38:../../kernel/FreeRTOS/Source/portable/GCC/ARM_CM4F/portmacro.h ****  *
  39:../../kernel/FreeRTOS/Source/portable/GCC/ARM_CM4F/portmacro.h ****  * The settings in this file configure FreeRTOS correctly for the
  40:../../kernel/FreeRTOS/Source/portable/GCC/ARM_CM4F/portmacro.h ****  * given hardware and compiler.
  41:../../kernel/FreeRTOS/Source/portable/GCC/ARM_CM4F/portmacro.h ****  *
  42:../../kernel/FreeRTOS/Source/portable/GCC/ARM_CM4F/portmacro.h ****  * These settings should not be altered.
  43:../../kernel/FreeRTOS/Source/portable/GCC/ARM_CM4F/portmacro.h ****  *-----------------------------------------------------------
  44:../../kernel/FreeRTOS/Source/portable/GCC/ARM_CM4F/portmacro.h ****  */
  45:../../kernel/FreeRTOS/Source/portable/GCC/ARM_CM4F/portmacro.h **** 
  46:../../kernel/FreeRTOS/Source/portable/GCC/ARM_CM4F/portmacro.h **** /* Type definitions. */
  47:../../kernel/FreeRTOS/Source/portable/GCC/ARM_CM4F/portmacro.h **** #define portCHAR		char
ARM GAS  /tmp/ccXZYLDn.s 			page 16


  48:../../kernel/FreeRTOS/Source/portable/GCC/ARM_CM4F/portmacro.h **** #define portFLOAT		float
  49:../../kernel/FreeRTOS/Source/portable/GCC/ARM_CM4F/portmacro.h **** #define portDOUBLE		double
  50:../../kernel/FreeRTOS/Source/portable/GCC/ARM_CM4F/portmacro.h **** #define portLONG		long
  51:../../kernel/FreeRTOS/Source/portable/GCC/ARM_CM4F/portmacro.h **** #define portSHORT		short
  52:../../kernel/FreeRTOS/Source/portable/GCC/ARM_CM4F/portmacro.h **** #define portSTACK_TYPE	uint32_t
  53:../../kernel/FreeRTOS/Source/portable/GCC/ARM_CM4F/portmacro.h **** #define portBASE_TYPE	long
  54:../../kernel/FreeRTOS/Source/portable/GCC/ARM_CM4F/portmacro.h **** 
  55:../../kernel/FreeRTOS/Source/portable/GCC/ARM_CM4F/portmacro.h **** typedef portSTACK_TYPE StackType_t;
  56:../../kernel/FreeRTOS/Source/portable/GCC/ARM_CM4F/portmacro.h **** typedef long BaseType_t;
  57:../../kernel/FreeRTOS/Source/portable/GCC/ARM_CM4F/portmacro.h **** typedef unsigned long UBaseType_t;
  58:../../kernel/FreeRTOS/Source/portable/GCC/ARM_CM4F/portmacro.h **** 
  59:../../kernel/FreeRTOS/Source/portable/GCC/ARM_CM4F/portmacro.h **** #if( configUSE_16_BIT_TICKS == 1 )
  60:../../kernel/FreeRTOS/Source/portable/GCC/ARM_CM4F/portmacro.h **** 	typedef uint16_t TickType_t;
  61:../../kernel/FreeRTOS/Source/portable/GCC/ARM_CM4F/portmacro.h **** 	#define portMAX_DELAY ( TickType_t ) 0xffff
  62:../../kernel/FreeRTOS/Source/portable/GCC/ARM_CM4F/portmacro.h **** #else
  63:../../kernel/FreeRTOS/Source/portable/GCC/ARM_CM4F/portmacro.h **** 	typedef uint32_t TickType_t;
  64:../../kernel/FreeRTOS/Source/portable/GCC/ARM_CM4F/portmacro.h **** 	#define portMAX_DELAY ( TickType_t ) 0xffffffffUL
  65:../../kernel/FreeRTOS/Source/portable/GCC/ARM_CM4F/portmacro.h **** 
  66:../../kernel/FreeRTOS/Source/portable/GCC/ARM_CM4F/portmacro.h **** 	/* 32-bit tick type on a 32-bit architecture, so reads of the tick count do
  67:../../kernel/FreeRTOS/Source/portable/GCC/ARM_CM4F/portmacro.h **** 	not need to be guarded with a critical section. */
  68:../../kernel/FreeRTOS/Source/portable/GCC/ARM_CM4F/portmacro.h **** 	#define portTICK_TYPE_IS_ATOMIC 1
  69:../../kernel/FreeRTOS/Source/portable/GCC/ARM_CM4F/portmacro.h **** #endif
  70:../../kernel/FreeRTOS/Source/portable/GCC/ARM_CM4F/portmacro.h **** /*-----------------------------------------------------------*/
  71:../../kernel/FreeRTOS/Source/portable/GCC/ARM_CM4F/portmacro.h **** 
  72:../../kernel/FreeRTOS/Source/portable/GCC/ARM_CM4F/portmacro.h **** /* Architecture specifics. */
  73:../../kernel/FreeRTOS/Source/portable/GCC/ARM_CM4F/portmacro.h **** #define portSTACK_GROWTH			( -1 )
  74:../../kernel/FreeRTOS/Source/portable/GCC/ARM_CM4F/portmacro.h **** #define portTICK_PERIOD_MS			( ( TickType_t ) 1000 / configTICK_RATE_HZ )
  75:../../kernel/FreeRTOS/Source/portable/GCC/ARM_CM4F/portmacro.h **** #define portBYTE_ALIGNMENT			8
  76:../../kernel/FreeRTOS/Source/portable/GCC/ARM_CM4F/portmacro.h **** /*-----------------------------------------------------------*/
  77:../../kernel/FreeRTOS/Source/portable/GCC/ARM_CM4F/portmacro.h **** 
  78:../../kernel/FreeRTOS/Source/portable/GCC/ARM_CM4F/portmacro.h **** /* Scheduler utilities. */
  79:../../kernel/FreeRTOS/Source/portable/GCC/ARM_CM4F/portmacro.h **** #define portYIELD() 															\
  80:../../kernel/FreeRTOS/Source/portable/GCC/ARM_CM4F/portmacro.h **** {																				\
  81:../../kernel/FreeRTOS/Source/portable/GCC/ARM_CM4F/portmacro.h **** 	/* Set a PendSV to request a context switch. */								\
  82:../../kernel/FreeRTOS/Source/portable/GCC/ARM_CM4F/portmacro.h **** 	portNVIC_INT_CTRL_REG = portNVIC_PENDSVSET_BIT;								\
  83:../../kernel/FreeRTOS/Source/portable/GCC/ARM_CM4F/portmacro.h **** 																				\
  84:../../kernel/FreeRTOS/Source/portable/GCC/ARM_CM4F/portmacro.h **** 	/* Barriers are normally not required but do ensure the code is completely	\
  85:../../kernel/FreeRTOS/Source/portable/GCC/ARM_CM4F/portmacro.h **** 	within the specified behaviour for the architecture. */						\
  86:../../kernel/FreeRTOS/Source/portable/GCC/ARM_CM4F/portmacro.h **** 	__asm volatile( "dsb" ::: "memory" );										\
  87:../../kernel/FreeRTOS/Source/portable/GCC/ARM_CM4F/portmacro.h **** 	__asm volatile( "isb" );													\
  88:../../kernel/FreeRTOS/Source/portable/GCC/ARM_CM4F/portmacro.h **** }
  89:../../kernel/FreeRTOS/Source/portable/GCC/ARM_CM4F/portmacro.h **** 
  90:../../kernel/FreeRTOS/Source/portable/GCC/ARM_CM4F/portmacro.h **** #define portNVIC_INT_CTRL_REG		( * ( ( volatile uint32_t * ) 0xe000ed04 ) )
  91:../../kernel/FreeRTOS/Source/portable/GCC/ARM_CM4F/portmacro.h **** #define portNVIC_PENDSVSET_BIT		( 1UL << 28UL )
  92:../../kernel/FreeRTOS/Source/portable/GCC/ARM_CM4F/portmacro.h **** #define portEND_SWITCHING_ISR( xSwitchRequired ) if( xSwitchRequired != pdFALSE ) portYIELD()
  93:../../kernel/FreeRTOS/Source/portable/GCC/ARM_CM4F/portmacro.h **** #define portYIELD_FROM_ISR( x ) portEND_SWITCHING_ISR( x )
  94:../../kernel/FreeRTOS/Source/portable/GCC/ARM_CM4F/portmacro.h **** /*-----------------------------------------------------------*/
  95:../../kernel/FreeRTOS/Source/portable/GCC/ARM_CM4F/portmacro.h **** 
  96:../../kernel/FreeRTOS/Source/portable/GCC/ARM_CM4F/portmacro.h **** /* Critical section management. */
  97:../../kernel/FreeRTOS/Source/portable/GCC/ARM_CM4F/portmacro.h **** extern void vPortEnterCritical( void );
  98:../../kernel/FreeRTOS/Source/portable/GCC/ARM_CM4F/portmacro.h **** extern void vPortExitCritical( void );
  99:../../kernel/FreeRTOS/Source/portable/GCC/ARM_CM4F/portmacro.h **** #define portSET_INTERRUPT_MASK_FROM_ISR()		ulPortRaiseBASEPRI()
 100:../../kernel/FreeRTOS/Source/portable/GCC/ARM_CM4F/portmacro.h **** #define portCLEAR_INTERRUPT_MASK_FROM_ISR(x)	vPortSetBASEPRI(x)
 101:../../kernel/FreeRTOS/Source/portable/GCC/ARM_CM4F/portmacro.h **** #define portDISABLE_INTERRUPTS()				vPortRaiseBASEPRI()
 102:../../kernel/FreeRTOS/Source/portable/GCC/ARM_CM4F/portmacro.h **** #define portENABLE_INTERRUPTS()					vPortSetBASEPRI(0)
 103:../../kernel/FreeRTOS/Source/portable/GCC/ARM_CM4F/portmacro.h **** #define portENTER_CRITICAL()					vPortEnterCritical()
 104:../../kernel/FreeRTOS/Source/portable/GCC/ARM_CM4F/portmacro.h **** #define portEXIT_CRITICAL()						vPortExitCritical()
ARM GAS  /tmp/ccXZYLDn.s 			page 17


 105:../../kernel/FreeRTOS/Source/portable/GCC/ARM_CM4F/portmacro.h **** 
 106:../../kernel/FreeRTOS/Source/portable/GCC/ARM_CM4F/portmacro.h **** /*-----------------------------------------------------------*/
 107:../../kernel/FreeRTOS/Source/portable/GCC/ARM_CM4F/portmacro.h **** 
 108:../../kernel/FreeRTOS/Source/portable/GCC/ARM_CM4F/portmacro.h **** /* Task function macros as described on the FreeRTOS.org WEB site.  These are
 109:../../kernel/FreeRTOS/Source/portable/GCC/ARM_CM4F/portmacro.h **** not necessary for to use this port.  They are defined so the common demo files
 110:../../kernel/FreeRTOS/Source/portable/GCC/ARM_CM4F/portmacro.h **** (which build with all the ports) will build. */
 111:../../kernel/FreeRTOS/Source/portable/GCC/ARM_CM4F/portmacro.h **** #define portTASK_FUNCTION_PROTO( vFunction, pvParameters ) void vFunction( void *pvParameters )
 112:../../kernel/FreeRTOS/Source/portable/GCC/ARM_CM4F/portmacro.h **** #define portTASK_FUNCTION( vFunction, pvParameters ) void vFunction( void *pvParameters )
 113:../../kernel/FreeRTOS/Source/portable/GCC/ARM_CM4F/portmacro.h **** /*-----------------------------------------------------------*/
 114:../../kernel/FreeRTOS/Source/portable/GCC/ARM_CM4F/portmacro.h **** 
 115:../../kernel/FreeRTOS/Source/portable/GCC/ARM_CM4F/portmacro.h **** /* Tickless idle/low power functionality. */
 116:../../kernel/FreeRTOS/Source/portable/GCC/ARM_CM4F/portmacro.h **** #ifndef portSUPPRESS_TICKS_AND_SLEEP
 117:../../kernel/FreeRTOS/Source/portable/GCC/ARM_CM4F/portmacro.h **** 	extern void vPortSuppressTicksAndSleep( TickType_t xExpectedIdleTime );
 118:../../kernel/FreeRTOS/Source/portable/GCC/ARM_CM4F/portmacro.h **** 	#define portSUPPRESS_TICKS_AND_SLEEP( xExpectedIdleTime ) vPortSuppressTicksAndSleep( xExpectedIdl
 119:../../kernel/FreeRTOS/Source/portable/GCC/ARM_CM4F/portmacro.h **** #endif
 120:../../kernel/FreeRTOS/Source/portable/GCC/ARM_CM4F/portmacro.h **** /*-----------------------------------------------------------*/
 121:../../kernel/FreeRTOS/Source/portable/GCC/ARM_CM4F/portmacro.h **** 
 122:../../kernel/FreeRTOS/Source/portable/GCC/ARM_CM4F/portmacro.h **** /* Architecture specific optimisations. */
 123:../../kernel/FreeRTOS/Source/portable/GCC/ARM_CM4F/portmacro.h **** #ifndef configUSE_PORT_OPTIMISED_TASK_SELECTION
 124:../../kernel/FreeRTOS/Source/portable/GCC/ARM_CM4F/portmacro.h **** 	#define configUSE_PORT_OPTIMISED_TASK_SELECTION 1
 125:../../kernel/FreeRTOS/Source/portable/GCC/ARM_CM4F/portmacro.h **** #endif
 126:../../kernel/FreeRTOS/Source/portable/GCC/ARM_CM4F/portmacro.h **** 
 127:../../kernel/FreeRTOS/Source/portable/GCC/ARM_CM4F/portmacro.h **** #if configUSE_PORT_OPTIMISED_TASK_SELECTION == 1
 128:../../kernel/FreeRTOS/Source/portable/GCC/ARM_CM4F/portmacro.h **** 
 129:../../kernel/FreeRTOS/Source/portable/GCC/ARM_CM4F/portmacro.h **** 	/* Generic helper function. */
 130:../../kernel/FreeRTOS/Source/portable/GCC/ARM_CM4F/portmacro.h **** 	__attribute__( ( always_inline ) ) static inline uint8_t ucPortCountLeadingZeros( uint32_t ulBitma
 131:../../kernel/FreeRTOS/Source/portable/GCC/ARM_CM4F/portmacro.h **** 	{
 132:../../kernel/FreeRTOS/Source/portable/GCC/ARM_CM4F/portmacro.h **** 	uint8_t ucReturn;
 133:../../kernel/FreeRTOS/Source/portable/GCC/ARM_CM4F/portmacro.h **** 
 134:../../kernel/FreeRTOS/Source/portable/GCC/ARM_CM4F/portmacro.h **** 		__asm volatile ( "clz %0, %1" : "=r" ( ucReturn ) : "r" ( ulBitmap ) : "memory" );
 135:../../kernel/FreeRTOS/Source/portable/GCC/ARM_CM4F/portmacro.h **** 		return ucReturn;
 136:../../kernel/FreeRTOS/Source/portable/GCC/ARM_CM4F/portmacro.h **** 	}
 137:../../kernel/FreeRTOS/Source/portable/GCC/ARM_CM4F/portmacro.h **** 
 138:../../kernel/FreeRTOS/Source/portable/GCC/ARM_CM4F/portmacro.h **** 	/* Check the configuration. */
 139:../../kernel/FreeRTOS/Source/portable/GCC/ARM_CM4F/portmacro.h **** 	#if( configMAX_PRIORITIES > 32 )
 140:../../kernel/FreeRTOS/Source/portable/GCC/ARM_CM4F/portmacro.h **** 		#error configUSE_PORT_OPTIMISED_TASK_SELECTION can only be set to 1 when configMAX_PRIORITIES is 
 141:../../kernel/FreeRTOS/Source/portable/GCC/ARM_CM4F/portmacro.h **** 	#endif
 142:../../kernel/FreeRTOS/Source/portable/GCC/ARM_CM4F/portmacro.h **** 
 143:../../kernel/FreeRTOS/Source/portable/GCC/ARM_CM4F/portmacro.h **** 	/* Store/clear the ready priorities in a bit map. */
 144:../../kernel/FreeRTOS/Source/portable/GCC/ARM_CM4F/portmacro.h **** 	#define portRECORD_READY_PRIORITY( uxPriority, uxReadyPriorities ) ( uxReadyPriorities ) |= ( 1UL 
 145:../../kernel/FreeRTOS/Source/portable/GCC/ARM_CM4F/portmacro.h **** 	#define portRESET_READY_PRIORITY( uxPriority, uxReadyPriorities ) ( uxReadyPriorities ) &= ~( 1UL 
 146:../../kernel/FreeRTOS/Source/portable/GCC/ARM_CM4F/portmacro.h **** 
 147:../../kernel/FreeRTOS/Source/portable/GCC/ARM_CM4F/portmacro.h **** 	/*-----------------------------------------------------------*/
 148:../../kernel/FreeRTOS/Source/portable/GCC/ARM_CM4F/portmacro.h **** 
 149:../../kernel/FreeRTOS/Source/portable/GCC/ARM_CM4F/portmacro.h **** 	#define portGET_HIGHEST_PRIORITY( uxTopPriority, uxReadyPriorities ) uxTopPriority = ( 31UL - ( ui
 150:../../kernel/FreeRTOS/Source/portable/GCC/ARM_CM4F/portmacro.h **** 
 151:../../kernel/FreeRTOS/Source/portable/GCC/ARM_CM4F/portmacro.h **** #endif /* configUSE_PORT_OPTIMISED_TASK_SELECTION */
 152:../../kernel/FreeRTOS/Source/portable/GCC/ARM_CM4F/portmacro.h **** 
 153:../../kernel/FreeRTOS/Source/portable/GCC/ARM_CM4F/portmacro.h **** /*-----------------------------------------------------------*/
 154:../../kernel/FreeRTOS/Source/portable/GCC/ARM_CM4F/portmacro.h **** 
 155:../../kernel/FreeRTOS/Source/portable/GCC/ARM_CM4F/portmacro.h **** #ifdef configASSERT
 156:../../kernel/FreeRTOS/Source/portable/GCC/ARM_CM4F/portmacro.h **** 	void vPortValidateInterruptPriority( void );
 157:../../kernel/FreeRTOS/Source/portable/GCC/ARM_CM4F/portmacro.h **** 	#define portASSERT_IF_INTERRUPT_PRIORITY_INVALID() 	vPortValidateInterruptPriority()
 158:../../kernel/FreeRTOS/Source/portable/GCC/ARM_CM4F/portmacro.h **** #endif
 159:../../kernel/FreeRTOS/Source/portable/GCC/ARM_CM4F/portmacro.h **** 
 160:../../kernel/FreeRTOS/Source/portable/GCC/ARM_CM4F/portmacro.h **** /* portNOP() is not required by this port. */
 161:../../kernel/FreeRTOS/Source/portable/GCC/ARM_CM4F/portmacro.h **** #define portNOP()
ARM GAS  /tmp/ccXZYLDn.s 			page 18


 162:../../kernel/FreeRTOS/Source/portable/GCC/ARM_CM4F/portmacro.h **** 
 163:../../kernel/FreeRTOS/Source/portable/GCC/ARM_CM4F/portmacro.h **** #define portINLINE	__inline
 164:../../kernel/FreeRTOS/Source/portable/GCC/ARM_CM4F/portmacro.h **** 
 165:../../kernel/FreeRTOS/Source/portable/GCC/ARM_CM4F/portmacro.h **** #ifndef portFORCE_INLINE
 166:../../kernel/FreeRTOS/Source/portable/GCC/ARM_CM4F/portmacro.h **** 	#define portFORCE_INLINE inline __attribute__(( always_inline))
 167:../../kernel/FreeRTOS/Source/portable/GCC/ARM_CM4F/portmacro.h **** #endif
 168:../../kernel/FreeRTOS/Source/portable/GCC/ARM_CM4F/portmacro.h **** 
 169:../../kernel/FreeRTOS/Source/portable/GCC/ARM_CM4F/portmacro.h **** portFORCE_INLINE static BaseType_t xPortIsInsideInterrupt( void )
 170:../../kernel/FreeRTOS/Source/portable/GCC/ARM_CM4F/portmacro.h **** {
 171:../../kernel/FreeRTOS/Source/portable/GCC/ARM_CM4F/portmacro.h **** uint32_t ulCurrentInterrupt;
 172:../../kernel/FreeRTOS/Source/portable/GCC/ARM_CM4F/portmacro.h **** BaseType_t xReturn;
 173:../../kernel/FreeRTOS/Source/portable/GCC/ARM_CM4F/portmacro.h **** 
 174:../../kernel/FreeRTOS/Source/portable/GCC/ARM_CM4F/portmacro.h **** 	/* Obtain the number of the currently executing interrupt. */
 175:../../kernel/FreeRTOS/Source/portable/GCC/ARM_CM4F/portmacro.h **** 	__asm volatile( "mrs %0, ipsr" : "=r"( ulCurrentInterrupt ) :: "memory" );
 176:../../kernel/FreeRTOS/Source/portable/GCC/ARM_CM4F/portmacro.h **** 
 177:../../kernel/FreeRTOS/Source/portable/GCC/ARM_CM4F/portmacro.h **** 	if( ulCurrentInterrupt == 0 )
 178:../../kernel/FreeRTOS/Source/portable/GCC/ARM_CM4F/portmacro.h **** 	{
 179:../../kernel/FreeRTOS/Source/portable/GCC/ARM_CM4F/portmacro.h **** 		xReturn = pdFALSE;
 180:../../kernel/FreeRTOS/Source/portable/GCC/ARM_CM4F/portmacro.h **** 	}
 181:../../kernel/FreeRTOS/Source/portable/GCC/ARM_CM4F/portmacro.h **** 	else
 182:../../kernel/FreeRTOS/Source/portable/GCC/ARM_CM4F/portmacro.h **** 	{
 183:../../kernel/FreeRTOS/Source/portable/GCC/ARM_CM4F/portmacro.h **** 		xReturn = pdTRUE;
 184:../../kernel/FreeRTOS/Source/portable/GCC/ARM_CM4F/portmacro.h **** 	}
 185:../../kernel/FreeRTOS/Source/portable/GCC/ARM_CM4F/portmacro.h **** 
 186:../../kernel/FreeRTOS/Source/portable/GCC/ARM_CM4F/portmacro.h **** 	return xReturn;
 187:../../kernel/FreeRTOS/Source/portable/GCC/ARM_CM4F/portmacro.h **** }
 188:../../kernel/FreeRTOS/Source/portable/GCC/ARM_CM4F/portmacro.h **** 
 189:../../kernel/FreeRTOS/Source/portable/GCC/ARM_CM4F/portmacro.h **** /*-----------------------------------------------------------*/
 190:../../kernel/FreeRTOS/Source/portable/GCC/ARM_CM4F/portmacro.h **** 
 191:../../kernel/FreeRTOS/Source/portable/GCC/ARM_CM4F/portmacro.h **** portFORCE_INLINE static void vPortRaiseBASEPRI( void )
 148              		.loc 2 191 30 view .LVU11
 149              	.LBB72:
 192:../../kernel/FreeRTOS/Source/portable/GCC/ARM_CM4F/portmacro.h **** {
 193:../../kernel/FreeRTOS/Source/portable/GCC/ARM_CM4F/portmacro.h **** uint32_t ulNewBASEPRI;
 150              		.loc 2 193 1 view .LVU12
 194:../../kernel/FreeRTOS/Source/portable/GCC/ARM_CM4F/portmacro.h **** 
 195:../../kernel/FreeRTOS/Source/portable/GCC/ARM_CM4F/portmacro.h **** 	__asm volatile
 151              		.loc 2 195 2 view .LVU13
 152              		.syntax unified
 153              	@ 195 "../../kernel/FreeRTOS/Source/portable/GCC/ARM_CM4F/portmacro.h" 1
 154 000a 4FF0A003 			mov r3, #160													@ ulNewBASEPRI,
 155 000e 83F31188 		msr basepri, r3												@ ulNewBASEPRI
 156 0012 BFF36F8F 		isb														
 157 0016 BFF34F8F 		dsb														
 158              	
 159              	@ 0 "" 2
 160              	.LVL1:
 161              		.thumb
 162              		.syntax unified
 163              	.L5:
 164              		.loc 2 195 2 is_stmt 0 view .LVU14
 165              	.LBE72:
 166              	.LBE71:
 454:../../kernel/FreeRTOS/Source/event_groups.c **** 
 167              		.loc 1 454 2 is_stmt 1 view .LVU15
 454:../../kernel/FreeRTOS/Source/event_groups.c **** 
 168              		.loc 1 454 2 view .LVU16
ARM GAS  /tmp/ccXZYLDn.s 			page 19


 454:../../kernel/FreeRTOS/Source/event_groups.c **** 
 169              		.loc 1 454 2 view .LVU17
 454:../../kernel/FreeRTOS/Source/event_groups.c **** 
 170              		.loc 1 454 2 view .LVU18
 171 001a FEE7     		b	.L5		@
 172              	.L4:
 454:../../kernel/FreeRTOS/Source/event_groups.c **** 
 173              		.loc 1 454 2 is_stmt 0 view .LVU19
 174 001c 0446     		mov	r4, r0	@ pvEventGroup, pvEventGroup
 175              	.LVL2:
 454:../../kernel/FreeRTOS/Source/event_groups.c **** 
 176              		.loc 1 454 2 view .LVU20
 177 001e 0D46     		mov	r5, r1	@ ulBitsToClear, ulBitsToClear
 178              	.LVL3:
 179              	.LBB73:
 180              	.LBI73:
 446:../../kernel/FreeRTOS/Source/event_groups.c **** {
 181              		.loc 1 446 13 is_stmt 1 view .LVU21
 182              	.LBB74:
 454:../../kernel/FreeRTOS/Source/event_groups.c **** 
 183              		.loc 1 454 72 view .LVU22
 456:../../kernel/FreeRTOS/Source/event_groups.c **** 	{
 184              		.loc 1 456 2 view .LVU23
 185 0020 FFF7FEFF 		bl	vPortEnterCritical		@
 186              	.LVL4:
 458:../../kernel/FreeRTOS/Source/event_groups.c **** 
 187              		.loc 1 458 60 view .LVU24
 462:../../kernel/FreeRTOS/Source/event_groups.c **** 
 188              		.loc 1 462 3 view .LVU25
 465:../../kernel/FreeRTOS/Source/event_groups.c **** 	}
 189              		.loc 1 465 3 view .LVU26
 190              	@ ../../kernel/FreeRTOS/Source/event_groups.c:465: 		pxEventBits->uxEventBits &= ~uxBitsToClear;
 465:../../kernel/FreeRTOS/Source/event_groups.c **** 	}
 191              		.loc 1 465 28 is_stmt 0 view .LVU27
 192 0024 2168     		ldr	r1, [r4]	@ MEM[(struct EventGroup_t *)pvEventGroup_2(D)].uxEventBits, MEM[(struct EventGroup_t
 193 0026 21EA0501 		bic	r1, r1, r5	@ tmp122, MEM[(struct EventGroup_t *)pvEventGroup_2(D)].uxEventBits, ulBitsToClear
 194 002a 2160     		str	r1, [r4]	@ tmp122, MEM[(struct EventGroup_t *)pvEventGroup_2(D)].uxEventBits
 195              	.LVL5:
 467:../../kernel/FreeRTOS/Source/event_groups.c **** 
 196              		.loc 1 467 2 is_stmt 1 view .LVU28
 197              	.LBE74:
 198              	.LBE73:
 199              	.LBE79:
 200              	.LBE81:
 201              	@ ../../kernel/FreeRTOS/Source/event_groups.c:653: }
 653:../../kernel/FreeRTOS/Source/event_groups.c **** }
 202              		.loc 1 653 1 is_stmt 0 view .LVU29
 203 002c BDE83840 		pop	{r3, r4, r5, lr}	@
 204              		.cfi_remember_state
 205              		.cfi_restore 14
 206              		.cfi_restore 5
 207              		.cfi_restore 4
 208              		.cfi_restore 3
 209              		.cfi_def_cfa_offset 0
 210              	.LVL6:
 211              	.LBB82:
 212              	.LBB80:
ARM GAS  /tmp/ccXZYLDn.s 			page 20


 213              	.LBB76:
 214              	.LBB75:
 215              	@ ../../kernel/FreeRTOS/Source/event_groups.c:467: 	taskEXIT_CRITICAL();
 467:../../kernel/FreeRTOS/Source/event_groups.c **** 
 216              		.loc 1 467 2 view .LVU30
 217 0030 FFF7FEBF 		b	vPortExitCritical		@
 218              	.LVL7:
 219              	.L8:
 220              		.cfi_restore_state
 467:../../kernel/FreeRTOS/Source/event_groups.c **** 
 221              		.loc 1 467 2 view .LVU31
 222              	.LBE75:
 223              	.LBE76:
 453:../../kernel/FreeRTOS/Source/event_groups.c **** 	configASSERT( ( uxBitsToClear & eventEVENT_BITS_CONTROL_BYTES ) == 0 );
 224              		.loc 1 453 2 is_stmt 1 view .LVU32
 225              	.LBB77:
 226              	.LBI77:
 191:../../kernel/FreeRTOS/Source/portable/GCC/ARM_CM4F/portmacro.h **** {
 227              		.loc 2 191 30 view .LVU33
 228              	.LBB78:
 193:../../kernel/FreeRTOS/Source/portable/GCC/ARM_CM4F/portmacro.h **** 
 229              		.loc 2 193 1 view .LVU34
 230              		.loc 2 195 2 view .LVU35
 231              		.syntax unified
 232              	@ 195 "../../kernel/FreeRTOS/Source/portable/GCC/ARM_CM4F/portmacro.h" 1
 233 0034 4FF0A003 			mov r3, #160													@ ulNewBASEPRI,
 234 0038 83F31188 		msr basepri, r3												@ ulNewBASEPRI
 235 003c BFF36F8F 		isb														
 236 0040 BFF34F8F 		dsb														
 237              	
 238              	@ 0 "" 2
 239              	.LVL8:
 240              		.thumb
 241              		.syntax unified
 242              	.L3:
 243              		.loc 2 195 2 is_stmt 0 view .LVU36
 244              	.LBE78:
 245              	.LBE77:
 453:../../kernel/FreeRTOS/Source/event_groups.c **** 	configASSERT( ( uxBitsToClear & eventEVENT_BITS_CONTROL_BYTES ) == 0 );
 246              		.loc 1 453 2 is_stmt 1 view .LVU37
 453:../../kernel/FreeRTOS/Source/event_groups.c **** 	configASSERT( ( uxBitsToClear & eventEVENT_BITS_CONTROL_BYTES ) == 0 );
 247              		.loc 1 453 2 view .LVU38
 453:../../kernel/FreeRTOS/Source/event_groups.c **** 	configASSERT( ( uxBitsToClear & eventEVENT_BITS_CONTROL_BYTES ) == 0 );
 248              		.loc 1 453 2 view .LVU39
 453:../../kernel/FreeRTOS/Source/event_groups.c **** 	configASSERT( ( uxBitsToClear & eventEVENT_BITS_CONTROL_BYTES ) == 0 );
 249              		.loc 1 453 2 view .LVU40
 250 0044 FEE7     		b	.L3		@
 251              	.LBE80:
 252              	.LBE82:
 253              		.cfi_endproc
 254              	.LFE14:
 255              		.size	vEventGroupClearBitsCallback, .-vEventGroupClearBitsCallback
 256 0046 00BF     		.section	.text.vEventGroupSetBitsCallback,"ax",%progbits
 257              		.align	1
 258              		.p2align 2,,3
 259              		.global	vEventGroupSetBitsCallback
 260              		.syntax unified
ARM GAS  /tmp/ccXZYLDn.s 			page 21


 261              		.thumb
 262              		.thumb_func
 263              		.fpu fpv4-sp-d16
 264              		.type	vEventGroupSetBitsCallback, %function
 265              	vEventGroupSetBitsCallback:
 266              	.LVL9:
 267              	.LFB13:
 643:../../kernel/FreeRTOS/Source/event_groups.c **** 	( void ) xEventGroupSetBits( pvEventGroup, ( EventBits_t ) ulBitsToSet );
 268              		.loc 1 643 1 view -0
 269              		.cfi_startproc
 270              		@ args = 0, pretend = 0, frame = 0
 271              		@ frame_needed = 0, uses_anonymous_args = 0
 644:../../kernel/FreeRTOS/Source/event_groups.c **** }
 272              		.loc 1 644 2 view .LVU42
 273              	.LBB95:
 274              	.LBI95:
 504:../../kernel/FreeRTOS/Source/event_groups.c **** {
 275              		.loc 1 504 13 view .LVU43
 276              	.LBB96:
 506:../../kernel/FreeRTOS/Source/event_groups.c **** ListItem_t const *pxListEnd;
 277              		.loc 1 506 1 view .LVU44
 507:../../kernel/FreeRTOS/Source/event_groups.c **** List_t *pxList;
 278              		.loc 1 507 1 view .LVU45
 508:../../kernel/FreeRTOS/Source/event_groups.c **** EventBits_t uxBitsToClear = 0, uxBitsWaitedFor, uxControlBits;
 279              		.loc 1 508 1 view .LVU46
 509:../../kernel/FreeRTOS/Source/event_groups.c **** EventGroup_t *pxEventBits = ( EventGroup_t * ) xEventGroup;
 280              		.loc 1 509 1 view .LVU47
 510:../../kernel/FreeRTOS/Source/event_groups.c **** BaseType_t xMatchFound = pdFALSE;
 281              		.loc 1 510 1 view .LVU48
 511:../../kernel/FreeRTOS/Source/event_groups.c **** 
 282              		.loc 1 511 1 view .LVU49
 515:../../kernel/FreeRTOS/Source/event_groups.c **** 	configASSERT( ( uxBitsToSet & eventEVENT_BITS_CONTROL_BYTES ) == 0 );
 283              		.loc 1 515 2 view .LVU50
 284 0000 0028     		cmp	r0, #0	@ pvEventGroup
 285 0002 3BD0     		beq	.L27	@
 515:../../kernel/FreeRTOS/Source/event_groups.c **** 	configASSERT( ( uxBitsToSet & eventEVENT_BITS_CONTROL_BYTES ) == 0 );
 286              		.loc 1 515 29 view .LVU51
 516:../../kernel/FreeRTOS/Source/event_groups.c **** 
 287              		.loc 1 516 2 view .LVU52
 288              	.LBE96:
 289              	.LBE95:
 290              	@ ../../kernel/FreeRTOS/Source/event_groups.c:643: {
 643:../../kernel/FreeRTOS/Source/event_groups.c **** 	( void ) xEventGroupSetBits( pvEventGroup, ( EventBits_t ) ulBitsToSet );
 291              		.loc 1 643 1 is_stmt 0 view .LVU53
 292 0004 2DE9F041 		push	{r4, r5, r6, r7, r8, lr}	@
 293              		.cfi_def_cfa_offset 24
 294              		.cfi_offset 4, -24
 295              		.cfi_offset 5, -20
 296              		.cfi_offset 6, -16
 297              		.cfi_offset 7, -12
 298              		.cfi_offset 8, -8
 299              		.cfi_offset 14, -4
 300              	.LBB107:
 301              	.LBB105:
 302              	@ ../../kernel/FreeRTOS/Source/event_groups.c:516: 	configASSERT( ( uxBitsToSet & eventEVENT_BITS_C
 516:../../kernel/FreeRTOS/Source/event_groups.c **** 
 303              		.loc 1 516 2 view .LVU54
ARM GAS  /tmp/ccXZYLDn.s 			page 22


 304 0008 11F07F46 		ands	r6, r1, #-16777216	@ tmp129, ulBitsToSet,
 305 000c 08D0     		beq	.L12		@,
 516:../../kernel/FreeRTOS/Source/event_groups.c **** 
 306              		.loc 1 516 2 is_stmt 1 view .LVU55
 307              	.LBB97:
 308              	.LBI97:
 191:../../kernel/FreeRTOS/Source/portable/GCC/ARM_CM4F/portmacro.h **** {
 309              		.loc 2 191 30 view .LVU56
 310              	.LBB98:
 193:../../kernel/FreeRTOS/Source/portable/GCC/ARM_CM4F/portmacro.h **** 
 311              		.loc 2 193 1 view .LVU57
 312              		.loc 2 195 2 view .LVU58
 313              		.syntax unified
 314              	@ 195 "../../kernel/FreeRTOS/Source/portable/GCC/ARM_CM4F/portmacro.h" 1
 315 000e 4FF0A003 			mov r3, #160													@ ulNewBASEPRI,
 316 0012 83F31188 		msr basepri, r3												@ ulNewBASEPRI
 317 0016 BFF36F8F 		isb														
 318 001a BFF34F8F 		dsb														
 319              	
 320              	@ 0 "" 2
 321              	.LVL10:
 322              		.thumb
 323              		.syntax unified
 324              	.L13:
 325              		.loc 2 195 2 is_stmt 0 view .LVU59
 326              	.LBE98:
 327              	.LBE97:
 516:../../kernel/FreeRTOS/Source/event_groups.c **** 
 328              		.loc 1 516 2 is_stmt 1 view .LVU60
 516:../../kernel/FreeRTOS/Source/event_groups.c **** 
 329              		.loc 1 516 2 view .LVU61
 516:../../kernel/FreeRTOS/Source/event_groups.c **** 
 330              		.loc 1 516 2 view .LVU62
 516:../../kernel/FreeRTOS/Source/event_groups.c **** 
 331              		.loc 1 516 2 view .LVU63
 332 001e FEE7     		b	.L13		@
 333              	.L12:
 516:../../kernel/FreeRTOS/Source/event_groups.c **** 
 334              		.loc 1 516 2 is_stmt 0 view .LVU64
 335 0020 0546     		mov	r5, r0	@ pvEventGroup, pvEventGroup
 336 0022 0C46     		mov	r4, r1	@ ulBitsToSet, ulBitsToSet
 337              	.LVL11:
 338              	.LBB99:
 339              	.LBI99:
 504:../../kernel/FreeRTOS/Source/event_groups.c **** {
 340              		.loc 1 504 13 is_stmt 1 view .LVU65
 341              	.LBB100:
 516:../../kernel/FreeRTOS/Source/event_groups.c **** 
 342              		.loc 1 516 70 view .LVU66
 518:../../kernel/FreeRTOS/Source/event_groups.c **** 	pxListEnd = listGET_END_MARKER( pxList ); /*lint !e826 !e740 The mini list structure is used as th
 343              		.loc 1 518 2 view .LVU67
 519:../../kernel/FreeRTOS/Source/event_groups.c **** 	vTaskSuspendAll();
 344              		.loc 1 519 2 view .LVU68
 345              	@ ../../kernel/FreeRTOS/Source/event_groups.c:520: 	vTaskSuspendAll();
 520:../../kernel/FreeRTOS/Source/event_groups.c **** 	{
 346              		.loc 1 520 2 is_stmt 0 view .LVU69
 347 0024 FFF7FEFF 		bl	vTaskSuspendAll		@
ARM GAS  /tmp/ccXZYLDn.s 			page 23


 348              	.LVL12:
 349              	@ ../../kernel/FreeRTOS/Source/event_groups.c:527: 		pxEventBits->uxEventBits |= uxBitsToSet;
 527:../../kernel/FreeRTOS/Source/event_groups.c **** 
 350              		.loc 1 527 28 view .LVU70
 351 0028 2968     		ldr	r1, [r5]	@ MEM[(struct EventGroup_t *)pvEventGroup_2(D)].uxEventBits, MEM[(struct EventGroup_t
 352              	@ ../../kernel/FreeRTOS/Source/event_groups.c:524: 		pxListItem = listGET_HEAD_ENTRY( pxList );
 524:../../kernel/FreeRTOS/Source/event_groups.c **** 
 353              		.loc 1 524 14 view .LVU71
 354 002a 2869     		ldr	r0, [r5, #16]	@ pxListItem, MEM[(struct List_t *)pvEventGroup_2(D) + 4B].xListEnd.pxNext
 355              	@ ../../kernel/FreeRTOS/Source/event_groups.c:519: 	pxListEnd = listGET_END_MARKER( pxList ); /*lin
 519:../../kernel/FreeRTOS/Source/event_groups.c **** 	vTaskSuspendAll();
 356              		.loc 1 519 12 view .LVU72
 357 002c 05F10C07 		add	r7, r5, #12	@ pxListEnd, pvEventGroup,
 358              	.LVL13:
 520:../../kernel/FreeRTOS/Source/event_groups.c **** 	{
 359              		.loc 1 520 2 is_stmt 1 view .LVU73
 522:../../kernel/FreeRTOS/Source/event_groups.c **** 
 360              		.loc 1 522 56 view .LVU74
 524:../../kernel/FreeRTOS/Source/event_groups.c **** 
 361              		.loc 1 524 3 view .LVU75
 527:../../kernel/FreeRTOS/Source/event_groups.c **** 
 362              		.loc 1 527 3 view .LVU76
 363              	@ ../../kernel/FreeRTOS/Source/event_groups.c:527: 		pxEventBits->uxEventBits |= uxBitsToSet;
 527:../../kernel/FreeRTOS/Source/event_groups.c **** 
 364              		.loc 1 527 28 is_stmt 0 view .LVU77
 365 0030 2143     		orrs	r1, r1, r4	@, prephitmp_4, MEM[(struct EventGroup_t *)pvEventGroup_2(D)].uxEventBits, ulBitsT
 366              	@ ../../kernel/FreeRTOS/Source/event_groups.c:530: 		while( pxListItem != pxListEnd )
 530:../../kernel/FreeRTOS/Source/event_groups.c **** 		{
 367              		.loc 1 530 8 view .LVU78
 368 0032 8742     		cmp	r7, r0	@ pxListEnd, pxListItem
 369              	@ ../../kernel/FreeRTOS/Source/event_groups.c:527: 		pxEventBits->uxEventBits |= uxBitsToSet;
 527:../../kernel/FreeRTOS/Source/event_groups.c **** 
 370              		.loc 1 527 28 view .LVU79
 371 0034 2960     		str	r1, [r5]	@ prephitmp_4, MEM[(struct EventGroup_t *)pvEventGroup_2(D)].uxEventBits
 530:../../kernel/FreeRTOS/Source/event_groups.c **** 		{
 372              		.loc 1 530 3 is_stmt 1 view .LVU80
 373              	.LVL14:
 374              	@ ../../kernel/FreeRTOS/Source/event_groups.c:530: 		while( pxListItem != pxListEnd )
 530:../../kernel/FreeRTOS/Source/event_groups.c **** 		{
 375              		.loc 1 530 8 is_stmt 0 view .LVU81
 376 0036 0CD1     		bne	.L19		@,
 530:../../kernel/FreeRTOS/Source/event_groups.c **** 		{
 377              		.loc 1 530 8 view .LVU82
 378 0038 1BE0     		b	.L14		@
 379              	.LVL15:
 380              	.L29:
 381              	@ ../../kernel/FreeRTOS/Source/event_groups.c:543: 				if( ( uxBitsWaitedFor & pxEventBits->uxEvent
 543:../../kernel/FreeRTOS/Source/event_groups.c **** 				{
 382              		.loc 1 543 7 view .LVU83
 383 003a 3CB1     		cbz	r4, .L17	@ _53,
 384              	.L16:
 567:../../kernel/FreeRTOS/Source/event_groups.c **** 				}
 385              		.loc 1 567 6 is_stmt 1 view .LVU84
 386              	@ ../../kernel/FreeRTOS/Source/event_groups.c:565: 				if( ( uxControlBits & eventCLEAR_EVENTS_ON_E
 565:../../kernel/FreeRTOS/Source/event_groups.c **** 				{
 387              		.loc 1 565 7 is_stmt 0 view .LVU85
 388 003c DB01     		lsls	r3, r3, #7	@, uxBitsWaitedFor,
ARM GAS  /tmp/ccXZYLDn.s 			page 24


 389              	.LVL16:
 390              	@ ../../kernel/FreeRTOS/Source/event_groups.c:579: 				vTaskRemoveFromUnorderedEventList( pxListIte
 579:../../kernel/FreeRTOS/Source/event_groups.c **** 			}
 391              		.loc 1 579 5 view .LVU86
 392 003e 41F00071 		orr	r1, r1, #33554432	@, prephitmp_4,
 393              	@ ../../kernel/FreeRTOS/Source/event_groups.c:567: 					uxBitsToClear |= uxBitsWaitedFor;
 567:../../kernel/FreeRTOS/Source/event_groups.c **** 				}
 394              		.loc 1 567 20 view .LVU87
 395 0042 48BF     		it	mi
 396 0044 1643     		orrmi	r6, r6, r2	@ uxBitsToClear, uxBitsToClear, uxBitsWaitedFor
 397              	.LVL17:
 571:../../kernel/FreeRTOS/Source/event_groups.c **** 				}
 398              		.loc 1 571 30 is_stmt 1 view .LVU88
 579:../../kernel/FreeRTOS/Source/event_groups.c **** 			}
 399              		.loc 1 579 5 view .LVU89
 400 0046 FFF7FEFF 		bl	vTaskRemoveFromUnorderedEventList		@
 401              	.LVL18:
 579:../../kernel/FreeRTOS/Source/event_groups.c **** 			}
 402              		.loc 1 579 5 is_stmt 0 view .LVU90
 403 004a 2968     		ldr	r1, [r5]	@ prephitmp_4, MEM[(struct EventGroup_t *)pvEventGroup_2(D)].uxEventBits
 404              	.L17:
 405              	.LVL19:
 406              	@ ../../kernel/FreeRTOS/Source/event_groups.c:530: 		while( pxListItem != pxListEnd )
 530:../../kernel/FreeRTOS/Source/event_groups.c **** 		{
 407              		.loc 1 530 8 view .LVU91
 408 004c 4745     		cmp	r7, r8	@ pxListEnd, pxListItem
 409 004e 4046     		mov	r0, r8	@ pxListItem, pxNext
 410 0050 0DD0     		beq	.L28		@,
 411              	.LVL20:
 412              	.L19:
 532:../../kernel/FreeRTOS/Source/event_groups.c **** 			uxBitsWaitedFor = listGET_LIST_ITEM_VALUE( pxListItem );
 413              		.loc 1 532 4 is_stmt 1 view .LVU92
 543:../../kernel/FreeRTOS/Source/event_groups.c **** 				{
 414              		.loc 1 543 5 view .LVU93
 552:../../kernel/FreeRTOS/Source/event_groups.c **** 			{
 415              		.loc 1 552 9 view .LVU94
 565:../../kernel/FreeRTOS/Source/event_groups.c **** 				{
 416              		.loc 1 565 5 view .LVU95
 417              	@ ../../kernel/FreeRTOS/Source/event_groups.c:532: 			pxNext = listGET_NEXT( pxListItem );
 532:../../kernel/FreeRTOS/Source/event_groups.c **** 			uxBitsWaitedFor = listGET_LIST_ITEM_VALUE( pxListItem );
 418              		.loc 1 532 11 is_stmt 0 view .LVU96
 419 0052 D0E90038 		ldrd	r3, r8, [r0]	@ uxBitsWaitedFor, pxNext, pxListItem
 420              	.LVL21:
 533:../../kernel/FreeRTOS/Source/event_groups.c **** 			xMatchFound = pdFALSE;
 421              		.loc 1 533 4 is_stmt 1 view .LVU97
 534:../../kernel/FreeRTOS/Source/event_groups.c **** 
 422              		.loc 1 534 4 view .LVU98
 537:../../kernel/FreeRTOS/Source/event_groups.c **** 			uxBitsWaitedFor &= ~eventEVENT_BITS_CONTROL_BYTES;
 423              		.loc 1 537 4 view .LVU99
 538:../../kernel/FreeRTOS/Source/event_groups.c **** 
 424              		.loc 1 538 4 view .LVU100
 425              	@ ../../kernel/FreeRTOS/Source/event_groups.c:538: 			uxBitsWaitedFor &= ~eventEVENT_BITS_CONTROL_B
 538:../../kernel/FreeRTOS/Source/event_groups.c **** 
 426              		.loc 1 538 20 is_stmt 0 view .LVU101
 427 0056 23F07F42 		bic	r2, r3, #-16777216	@ uxBitsWaitedFor, uxBitsWaitedFor,
 428              	.LVL22:
 540:../../kernel/FreeRTOS/Source/event_groups.c **** 			{
ARM GAS  /tmp/ccXZYLDn.s 			page 25


 429              		.loc 1 540 4 is_stmt 1 view .LVU102
 430              	@ ../../kernel/FreeRTOS/Source/event_groups.c:540: 			if( ( uxControlBits & eventWAIT_FOR_ALL_BITS 
 540:../../kernel/FreeRTOS/Source/event_groups.c **** 			{
 431              		.loc 1 540 6 is_stmt 0 view .LVU103
 432 005a 13F0806F 		tst	r3, #67108864	@ uxBitsWaitedFor,
 433 005e 01EA0204 		and	r4, r1, r2	@ _53, prephitmp_4, uxBitsWaitedFor
 434 0062 EAD0     		beq	.L29		@,
 435              	@ ../../kernel/FreeRTOS/Source/event_groups.c:552: 			else if( ( uxBitsWaitedFor & pxEventBits->uxE
 552:../../kernel/FreeRTOS/Source/event_groups.c **** 			{
 436              		.loc 1 552 11 view .LVU104
 437 0064 A242     		cmp	r2, r4	@ uxBitsWaitedFor, _53
 438 0066 E9D0     		beq	.L16		@,
 439              	.LVL23:
 440              	@ ../../kernel/FreeRTOS/Source/event_groups.c:530: 		while( pxListItem != pxListEnd )
 530:../../kernel/FreeRTOS/Source/event_groups.c **** 		{
 441              		.loc 1 530 8 view .LVU105
 442 0068 4745     		cmp	r7, r8	@ pxListEnd, pxListItem
 443 006a 4046     		mov	r0, r8	@ pxListItem, pxNext
 444 006c F1D1     		bne	.L19		@,
 445              	.LVL24:
 446              	.L28:
 530:../../kernel/FreeRTOS/Source/event_groups.c **** 		{
 447              		.loc 1 530 8 view .LVU106
 448 006e 21EA0601 		bic	r1, r1, r6	@ prephitmp_4, prephitmp_4, uxBitsToClear
 449              	.LVL25:
 450              	.L14:
 590:../../kernel/FreeRTOS/Source/event_groups.c **** 	}
 451              		.loc 1 590 3 is_stmt 1 view .LVU107
 452              	@ ../../kernel/FreeRTOS/Source/event_groups.c:590: 		pxEventBits->uxEventBits &= ~uxBitsToClear;
 590:../../kernel/FreeRTOS/Source/event_groups.c **** 	}
 453              		.loc 1 590 28 is_stmt 0 view .LVU108
 454 0072 2960     		str	r1, [r5]	@ prephitmp_4, MEM[(struct EventGroup_t *)pvEventGroup_2(D)].uxEventBits
 592:../../kernel/FreeRTOS/Source/event_groups.c **** 
 455              		.loc 1 592 2 is_stmt 1 view .LVU109
 456              	.LBE100:
 457              	.LBE99:
 458              	.LBE105:
 459              	.LBE107:
 460              	@ ../../kernel/FreeRTOS/Source/event_groups.c:645: }
 645:../../kernel/FreeRTOS/Source/event_groups.c **** /*-----------------------------------------------------------*/
 461              		.loc 1 645 1 is_stmt 0 view .LVU110
 462 0074 BDE8F041 		pop	{r4, r5, r6, r7, r8, lr}	@
 463              		.cfi_restore 14
 464              		.cfi_restore 8
 465              		.cfi_restore 7
 466              		.cfi_restore 6
 467              		.cfi_restore 5
 468              		.cfi_restore 4
 469              		.cfi_def_cfa_offset 0
 470              	.LVL26:
 471              	.LBB108:
 472              	.LBB106:
 473              	.LBB102:
 474              	.LBB101:
 475              	@ ../../kernel/FreeRTOS/Source/event_groups.c:592: 	( void ) xTaskResumeAll();
 592:../../kernel/FreeRTOS/Source/event_groups.c **** 
 476              		.loc 1 592 11 view .LVU111
ARM GAS  /tmp/ccXZYLDn.s 			page 26


 477 0078 FFF7FEBF 		b	xTaskResumeAll		@
 478              	.LVL27:
 479              	.L27:
 592:../../kernel/FreeRTOS/Source/event_groups.c **** 
 480              		.loc 1 592 11 view .LVU112
 481              	.LBE101:
 482              	.LBE102:
 515:../../kernel/FreeRTOS/Source/event_groups.c **** 	configASSERT( ( uxBitsToSet & eventEVENT_BITS_CONTROL_BYTES ) == 0 );
 483              		.loc 1 515 2 is_stmt 1 view .LVU113
 484              	.LBB103:
 485              	.LBI103:
 191:../../kernel/FreeRTOS/Source/portable/GCC/ARM_CM4F/portmacro.h **** {
 486              		.loc 2 191 30 view .LVU114
 487              	.LBB104:
 193:../../kernel/FreeRTOS/Source/portable/GCC/ARM_CM4F/portmacro.h **** 
 488              		.loc 2 193 1 view .LVU115
 489              		.loc 2 195 2 view .LVU116
 490              		.syntax unified
 491              	@ 195 "../../kernel/FreeRTOS/Source/portable/GCC/ARM_CM4F/portmacro.h" 1
 492 007c 4FF0A003 			mov r3, #160													@ ulNewBASEPRI,
 493 0080 83F31188 		msr basepri, r3												@ ulNewBASEPRI
 494 0084 BFF36F8F 		isb														
 495 0088 BFF34F8F 		dsb														
 496              	
 497              	@ 0 "" 2
 498              	.LVL28:
 499              		.thumb
 500              		.syntax unified
 501              	.L11:
 502              		.loc 2 195 2 is_stmt 0 view .LVU117
 503              	.LBE104:
 504              	.LBE103:
 515:../../kernel/FreeRTOS/Source/event_groups.c **** 	configASSERT( ( uxBitsToSet & eventEVENT_BITS_CONTROL_BYTES ) == 0 );
 505              		.loc 1 515 2 is_stmt 1 view .LVU118
 515:../../kernel/FreeRTOS/Source/event_groups.c **** 	configASSERT( ( uxBitsToSet & eventEVENT_BITS_CONTROL_BYTES ) == 0 );
 506              		.loc 1 515 2 view .LVU119
 515:../../kernel/FreeRTOS/Source/event_groups.c **** 	configASSERT( ( uxBitsToSet & eventEVENT_BITS_CONTROL_BYTES ) == 0 );
 507              		.loc 1 515 2 view .LVU120
 515:../../kernel/FreeRTOS/Source/event_groups.c **** 	configASSERT( ( uxBitsToSet & eventEVENT_BITS_CONTROL_BYTES ) == 0 );
 508              		.loc 1 515 2 view .LVU121
 509 008c FEE7     		b	.L11		@
 510              	.LBE106:
 511              	.LBE108:
 512              		.cfi_endproc
 513              	.LFE13:
 514              		.size	vEventGroupSetBitsCallback, .-vEventGroupSetBitsCallback
 515 008e 00BF     		.section	.text.xEventGroupCreateStatic,"ax",%progbits
 516              		.align	1
 517              		.p2align 2,,3
 518              		.global	xEventGroupCreateStatic
 519              		.syntax unified
 520              		.thumb
 521              		.thumb_func
 522              		.fpu fpv4-sp-d16
 523              		.type	xEventGroupCreateStatic, %function
 524              	xEventGroupCreateStatic:
 525              	.LVL29:
ARM GAS  /tmp/ccXZYLDn.s 			page 27


 526              	.LFB4:
  94:../../kernel/FreeRTOS/Source/event_groups.c **** 	EventGroup_t *pxEventBits;
 527              		.loc 1 94 2 view -0
 528              		.cfi_startproc
 529              		@ args = 0, pretend = 0, frame = 8
 530              		@ frame_needed = 0, uses_anonymous_args = 0
  95:../../kernel/FreeRTOS/Source/event_groups.c **** 
 531              		.loc 1 95 2 view .LVU123
  98:../../kernel/FreeRTOS/Source/event_groups.c **** 
 532              		.loc 1 98 3 view .LVU124
 533 0000 78B1     		cbz	r0, .L37	@ pxEventGroupBuffer,
  98:../../kernel/FreeRTOS/Source/event_groups.c **** 
 534              		.loc 1 98 37 discriminator 2 view .LVU125
 535              	.LBB109:
 105:../../kernel/FreeRTOS/Source/event_groups.c **** 			configASSERT( xSize == sizeof( EventGroup_t ) );
 536              		.loc 1 105 4 discriminator 2 view .LVU126
 537              	.LBE109:
 538              	@ ../../kernel/FreeRTOS/Source/event_groups.c:94: 	{
  94:../../kernel/FreeRTOS/Source/event_groups.c **** 	EventGroup_t *pxEventBits;
 539              		.loc 1 94 2 is_stmt 0 discriminator 2 view .LVU127
 540 0002 10B5     		push	{r4, lr}	@
 541              		.cfi_def_cfa_offset 8
 542              		.cfi_offset 4, -8
 543              		.cfi_offset 14, -4
 544 0004 82B0     		sub	sp, sp, #8	@,,
 545              		.cfi_def_cfa_offset 16
 546              	.LBB112:
 547              	@ ../../kernel/FreeRTOS/Source/event_groups.c:105: 			volatile size_t xSize = sizeof( StaticEventGr
 105:../../kernel/FreeRTOS/Source/event_groups.c **** 			configASSERT( xSize == sizeof( EventGroup_t ) );
 548              		.loc 1 105 20 discriminator 2 view .LVU128
 549 0006 2023     		movs	r3, #32	@ tmp117,
 550 0008 0193     		str	r3, [sp, #4]	@ tmp117, xSize
 106:../../kernel/FreeRTOS/Source/event_groups.c **** 		}
 551              		.loc 1 106 4 is_stmt 1 discriminator 2 view .LVU129
 552 000a 019B     		ldr	r3, [sp, #4]	@ xSize.0_1, xSize
 553 000c 202B     		cmp	r3, #32	@ xSize.0_1,
 554 000e 11D0     		beq	.L33		@,
 106:../../kernel/FreeRTOS/Source/event_groups.c **** 		}
 555              		.loc 1 106 4 view .LVU130
 556              	.LBB110:
 557              	.LBI110:
 191:../../kernel/FreeRTOS/Source/portable/GCC/ARM_CM4F/portmacro.h **** {
 558              		.loc 2 191 30 view .LVU131
 559              	.LBB111:
 193:../../kernel/FreeRTOS/Source/portable/GCC/ARM_CM4F/portmacro.h **** 
 560              		.loc 2 193 1 view .LVU132
 561              		.loc 2 195 2 view .LVU133
 562              		.syntax unified
 563              	@ 195 "../../kernel/FreeRTOS/Source/portable/GCC/ARM_CM4F/portmacro.h" 1
 564 0010 4FF0A003 			mov r3, #160													@ ulNewBASEPRI,
 565 0014 83F31188 		msr basepri, r3												@ ulNewBASEPRI
 566 0018 BFF36F8F 		isb														
 567 001c BFF34F8F 		dsb														
 568              	
 569              	@ 0 "" 2
 570              	.LVL30:
 571              		.thumb
ARM GAS  /tmp/ccXZYLDn.s 			page 28


 572              		.syntax unified
 573              	.L34:
 574              		.loc 2 195 2 is_stmt 0 view .LVU134
 575              	.LBE111:
 576              	.LBE110:
 106:../../kernel/FreeRTOS/Source/event_groups.c **** 		}
 577              		.loc 1 106 4 is_stmt 1 discriminator 2 view .LVU135
 106:../../kernel/FreeRTOS/Source/event_groups.c **** 		}
 578              		.loc 1 106 4 discriminator 2 view .LVU136
 106:../../kernel/FreeRTOS/Source/event_groups.c **** 		}
 579              		.loc 1 106 4 discriminator 2 view .LVU137
 106:../../kernel/FreeRTOS/Source/event_groups.c **** 		}
 580              		.loc 1 106 4 discriminator 2 view .LVU138
 581 0020 FEE7     		b	.L34		@
 582              	.L37:
 583              		.cfi_def_cfa_offset 0
 584              		.cfi_restore 4
 585              		.cfi_restore 14
 106:../../kernel/FreeRTOS/Source/event_groups.c **** 		}
 586              		.loc 1 106 4 is_stmt 0 discriminator 2 view .LVU139
 587              	.LBE112:
  98:../../kernel/FreeRTOS/Source/event_groups.c **** 
 588              		.loc 1 98 3 is_stmt 1 view .LVU140
 589              	.LBB113:
 590              	.LBI113:
 191:../../kernel/FreeRTOS/Source/portable/GCC/ARM_CM4F/portmacro.h **** {
 591              		.loc 2 191 30 view .LVU141
 592              	.LBB114:
 193:../../kernel/FreeRTOS/Source/portable/GCC/ARM_CM4F/portmacro.h **** 
 593              		.loc 2 193 1 view .LVU142
 594              		.loc 2 195 2 view .LVU143
 595              		.syntax unified
 596              	@ 195 "../../kernel/FreeRTOS/Source/portable/GCC/ARM_CM4F/portmacro.h" 1
 597 0022 4FF0A003 			mov r3, #160													@ ulNewBASEPRI,
 598 0026 83F31188 		msr basepri, r3												@ ulNewBASEPRI
 599 002a BFF36F8F 		isb														
 600 002e BFF34F8F 		dsb														
 601              	
 602              	@ 0 "" 2
 603              	.LVL31:
 604              		.thumb
 605              		.syntax unified
 606              	.L32:
 607              		.loc 2 195 2 is_stmt 0 view .LVU144
 608              	.LBE114:
 609              	.LBE113:
  98:../../kernel/FreeRTOS/Source/event_groups.c **** 
 610              		.loc 1 98 3 is_stmt 1 discriminator 1 view .LVU145
  98:../../kernel/FreeRTOS/Source/event_groups.c **** 
 611              		.loc 1 98 3 discriminator 1 view .LVU146
  98:../../kernel/FreeRTOS/Source/event_groups.c **** 
 612              		.loc 1 98 3 discriminator 1 view .LVU147
  98:../../kernel/FreeRTOS/Source/event_groups.c **** 
 613              		.loc 1 98 3 discriminator 1 view .LVU148
 614 0032 FEE7     		b	.L32		@
 615              	.L33:
 616              		.cfi_def_cfa_offset 16
ARM GAS  /tmp/ccXZYLDn.s 			page 29


 617              		.cfi_offset 4, -8
 618              		.cfi_offset 14, -4
 619              	@ ../../kernel/FreeRTOS/Source/event_groups.c:115: 			pxEventBits->uxEventBits = 0;
 115:../../kernel/FreeRTOS/Source/event_groups.c **** 			vListInitialise( &( pxEventBits->xTasksWaitingForBits ) );
 620              		.loc 1 115 29 is_stmt 0 view .LVU149
 621 0034 0023     		movs	r3, #0	@ tmp119,
 622 0036 0446     		mov	r4, r0	@ pxEventGroupBuffer, pxEventGroupBuffer
 623              	.LBB115:
 106:../../kernel/FreeRTOS/Source/event_groups.c **** 		}
 624              		.loc 1 106 51 is_stmt 1 view .LVU150
 625              	.LBE115:
 111:../../kernel/FreeRTOS/Source/event_groups.c **** 
 626              		.loc 1 111 3 view .LVU151
 627              	.LVL32:
 113:../../kernel/FreeRTOS/Source/event_groups.c **** 		{
 628              		.loc 1 113 3 view .LVU152
 115:../../kernel/FreeRTOS/Source/event_groups.c **** 			vListInitialise( &( pxEventBits->xTasksWaitingForBits ) );
 629              		.loc 1 115 4 view .LVU153
 630              	@ ../../kernel/FreeRTOS/Source/event_groups.c:115: 			pxEventBits->uxEventBits = 0;
 115:../../kernel/FreeRTOS/Source/event_groups.c **** 			vListInitialise( &( pxEventBits->xTasksWaitingForBits ) );
 631              		.loc 1 115 29 is_stmt 0 view .LVU154
 632 0038 40F8043B 		str	r3, [r0], #4	@ tmp119, MEM[(struct EventGroup_t *)pxEventGroupBuffer_3(D)].uxEventBits
 633              	.LVL33:
 116:../../kernel/FreeRTOS/Source/event_groups.c **** 
 634              		.loc 1 116 4 is_stmt 1 view .LVU155
 635 003c FFF7FEFF 		bl	vListInitialise		@
 636              	.LVL34:
 123:../../kernel/FreeRTOS/Source/event_groups.c **** 			}
 637              		.loc 1 123 5 view .LVU156
 638              	@ ../../kernel/FreeRTOS/Source/event_groups.c:123: 				pxEventBits->ucStaticallyAllocated = pdTRUE;
 123:../../kernel/FreeRTOS/Source/event_groups.c **** 			}
 639              		.loc 1 123 40 is_stmt 0 view .LVU157
 640 0040 0123     		movs	r3, #1	@ tmp121,
 641              	@ ../../kernel/FreeRTOS/Source/event_groups.c:135: 	}
 135:../../kernel/FreeRTOS/Source/event_groups.c **** 
 642              		.loc 1 135 2 view .LVU158
 643 0042 2046     		mov	r0, r4	@, pxEventGroupBuffer
 644              	@ ../../kernel/FreeRTOS/Source/event_groups.c:123: 				pxEventBits->ucStaticallyAllocated = pdTRUE;
 123:../../kernel/FreeRTOS/Source/event_groups.c **** 			}
 645              		.loc 1 123 40 view .LVU159
 646 0044 2377     		strb	r3, [r4, #28]	@ tmp121, MEM[(struct EventGroup_t *)pxEventGroupBuffer_3(D)].ucStaticallyAlloc
 127:../../kernel/FreeRTOS/Source/event_groups.c **** 		}
 647              		.loc 1 127 42 is_stmt 1 view .LVU160
 131:../../kernel/FreeRTOS/Source/event_groups.c **** 		}
 648              		.loc 1 131 36 view .LVU161
 134:../../kernel/FreeRTOS/Source/event_groups.c **** 	}
 649              		.loc 1 134 3 view .LVU162
 650              	@ ../../kernel/FreeRTOS/Source/event_groups.c:135: 	}
 135:../../kernel/FreeRTOS/Source/event_groups.c **** 
 651              		.loc 1 135 2 is_stmt 0 view .LVU163
 652 0046 02B0     		add	sp, sp, #8	@,,
 653              		.cfi_def_cfa_offset 8
 654              		@ sp needed	@
 655 0048 10BD     		pop	{r4, pc}	@
 135:../../kernel/FreeRTOS/Source/event_groups.c **** 
 656              		.loc 1 135 2 view .LVU164
 657              		.cfi_endproc
ARM GAS  /tmp/ccXZYLDn.s 			page 30


 658              	.LFE4:
 659              		.size	xEventGroupCreateStatic, .-xEventGroupCreateStatic
 660 004a 00BF     		.section	.text.xEventGroupCreate,"ax",%progbits
 661              		.align	1
 662              		.p2align 2,,3
 663              		.global	xEventGroupCreate
 664              		.syntax unified
 665              		.thumb
 666              		.thumb_func
 667              		.fpu fpv4-sp-d16
 668              		.type	xEventGroupCreate, %function
 669              	xEventGroupCreate:
 670              	.LFB5:
 143:../../kernel/FreeRTOS/Source/event_groups.c **** 	EventGroup_t *pxEventBits;
 671              		.loc 1 143 2 is_stmt 1 view -0
 672              		.cfi_startproc
 673              		@ args = 0, pretend = 0, frame = 0
 674              		@ frame_needed = 0, uses_anonymous_args = 0
 144:../../kernel/FreeRTOS/Source/event_groups.c **** 
 675              		.loc 1 144 2 view .LVU166
 147:../../kernel/FreeRTOS/Source/event_groups.c **** 
 676              		.loc 1 147 3 view .LVU167
 677              	@ ../../kernel/FreeRTOS/Source/event_groups.c:143: 	{
 143:../../kernel/FreeRTOS/Source/event_groups.c **** 	EventGroup_t *pxEventBits;
 678              		.loc 1 143 2 is_stmt 0 view .LVU168
 679 0000 38B5     		push	{r3, r4, r5, lr}	@
 680              		.cfi_def_cfa_offset 16
 681              		.cfi_offset 3, -16
 682              		.cfi_offset 4, -12
 683              		.cfi_offset 5, -8
 684              		.cfi_offset 14, -4
 685              	@ ../../kernel/FreeRTOS/Source/event_groups.c:147: 		pxEventBits = ( EventGroup_t * ) pvPortMalloc(
 147:../../kernel/FreeRTOS/Source/event_groups.c **** 
 686              		.loc 1 147 36 view .LVU169
 687 0002 2020     		movs	r0, #32	@,
 688 0004 FFF7FEFF 		bl	pvPortMalloc		@
 689              	.LVL35:
 149:../../kernel/FreeRTOS/Source/event_groups.c **** 		{
 690              		.loc 1 149 3 is_stmt 1 view .LVU170
 691              	@ ../../kernel/FreeRTOS/Source/event_groups.c:149: 		if( pxEventBits != NULL )
 149:../../kernel/FreeRTOS/Source/event_groups.c **** 		{
 692              		.loc 1 149 5 is_stmt 0 view .LVU171
 693 0008 0446     		mov	r4, r0	@ <retval>,
 694 000a 28B1     		cbz	r0, .L38	@ <retval>,
 151:../../kernel/FreeRTOS/Source/event_groups.c **** 			vListInitialise( &( pxEventBits->xTasksWaitingForBits ) );
 695              		.loc 1 151 4 is_stmt 1 view .LVU172
 696              	@ ../../kernel/FreeRTOS/Source/event_groups.c:151: 			pxEventBits->uxEventBits = 0;
 151:../../kernel/FreeRTOS/Source/event_groups.c **** 			vListInitialise( &( pxEventBits->xTasksWaitingForBits ) );
 697              		.loc 1 151 29 is_stmt 0 view .LVU173
 698 000c 0025     		movs	r5, #0	@ tmp112,
 699 000e 40F8045B 		str	r5, [r0], #4	@ tmp112, pxEventBits_5->uxEventBits
 700              	.LVL36:
 152:../../kernel/FreeRTOS/Source/event_groups.c **** 
 701              		.loc 1 152 4 is_stmt 1 view .LVU174
 702 0012 FFF7FEFF 		bl	vListInitialise		@
 703              	.LVL37:
 159:../../kernel/FreeRTOS/Source/event_groups.c **** 			}
ARM GAS  /tmp/ccXZYLDn.s 			page 31


 704              		.loc 1 159 5 view .LVU175
 705              	@ ../../kernel/FreeRTOS/Source/event_groups.c:159: 				pxEventBits->ucStaticallyAllocated = pdFALSE
 159:../../kernel/FreeRTOS/Source/event_groups.c **** 			}
 706              		.loc 1 159 40 is_stmt 0 view .LVU176
 707 0016 2577     		strb	r5, [r4, #28]	@ tmp112, pxEventBits_5->ucStaticallyAllocated
 163:../../kernel/FreeRTOS/Source/event_groups.c **** 		}
 708              		.loc 1 163 42 is_stmt 1 view .LVU177
 167:../../kernel/FreeRTOS/Source/event_groups.c **** 		}
 709              		.loc 1 167 36 view .LVU178
 170:../../kernel/FreeRTOS/Source/event_groups.c **** 	}
 710              		.loc 1 170 3 view .LVU179
 711              	.L38:
 712              	@ ../../kernel/FreeRTOS/Source/event_groups.c:171: 	}
 171:../../kernel/FreeRTOS/Source/event_groups.c **** 
 713              		.loc 1 171 2 is_stmt 0 view .LVU180
 714 0018 2046     		mov	r0, r4	@, <retval>
 715 001a 38BD     		pop	{r3, r4, r5, pc}	@
 171:../../kernel/FreeRTOS/Source/event_groups.c **** 
 716              		.loc 1 171 2 view .LVU181
 717              		.cfi_endproc
 718              	.LFE5:
 719              		.size	xEventGroupCreate, .-xEventGroupCreate
 720              		.section	.text.xEventGroupWaitBits,"ax",%progbits
 721              		.align	1
 722              		.p2align 2,,3
 723              		.global	xEventGroupWaitBits
 724              		.syntax unified
 725              		.thumb
 726              		.thumb_func
 727              		.fpu fpv4-sp-d16
 728              		.type	xEventGroupWaitBits, %function
 729              	xEventGroupWaitBits:
 730              	.LVL38:
 731              	.LFB7:
 297:../../kernel/FreeRTOS/Source/event_groups.c **** EventGroup_t *pxEventBits = ( EventGroup_t * ) xEventGroup;
 732              		.loc 1 297 1 is_stmt 1 view -0
 733              		.cfi_startproc
 734              		@ args = 4, pretend = 0, frame = 0
 735              		@ frame_needed = 0, uses_anonymous_args = 0
 297:../../kernel/FreeRTOS/Source/event_groups.c **** EventGroup_t *pxEventBits = ( EventGroup_t * ) xEventGroup;
 736              		.loc 1 297 1 is_stmt 0 view .LVU183
 737 0000 2DE9F843 		push	{r3, r4, r5, r6, r7, r8, r9, lr}	@
 738              		.cfi_def_cfa_offset 32
 739              		.cfi_offset 3, -32
 740              		.cfi_offset 4, -28
 741              		.cfi_offset 5, -24
 742              		.cfi_offset 6, -20
 743              		.cfi_offset 7, -16
 744              		.cfi_offset 8, -12
 745              		.cfi_offset 9, -8
 746              		.cfi_offset 14, -4
 298:../../kernel/FreeRTOS/Source/event_groups.c **** EventBits_t uxReturn, uxControlBits = 0;
 747              		.loc 1 298 1 is_stmt 1 view .LVU184
 748              	.LVL39:
 299:../../kernel/FreeRTOS/Source/event_groups.c **** BaseType_t xWaitConditionMet, xAlreadyYielded;
 749              		.loc 1 299 1 view .LVU185
 300:../../kernel/FreeRTOS/Source/event_groups.c **** BaseType_t xTimeoutOccurred = pdFALSE;
ARM GAS  /tmp/ccXZYLDn.s 			page 32


 750              		.loc 1 300 1 view .LVU186
 301:../../kernel/FreeRTOS/Source/event_groups.c **** 
 751              		.loc 1 301 1 view .LVU187
 305:../../kernel/FreeRTOS/Source/event_groups.c **** 	configASSERT( ( uxBitsToWaitFor & eventEVENT_BITS_CONTROL_BYTES ) == 0 );
 752              		.loc 1 305 2 view .LVU188
 753              	@ ../../kernel/FreeRTOS/Source/event_groups.c:297: {
 297:../../kernel/FreeRTOS/Source/event_groups.c **** EventGroup_t *pxEventBits = ( EventGroup_t * ) xEventGroup;
 754              		.loc 1 297 1 is_stmt 0 view .LVU189
 755 0004 DDF82090 		ldr	r9, [sp, #32]	@ xTicksToWait, xTicksToWait
 756              	@ ../../kernel/FreeRTOS/Source/event_groups.c:305: 	configASSERT( xEventGroup );
 305:../../kernel/FreeRTOS/Source/event_groups.c **** 	configASSERT( ( uxBitsToWaitFor & eventEVENT_BITS_CONTROL_BYTES ) == 0 );
 757              		.loc 1 305 2 view .LVU190
 758 0008 A8B1     		cbz	r0, .L74	@ xEventGroup,
 305:../../kernel/FreeRTOS/Source/event_groups.c **** 	configASSERT( ( uxBitsToWaitFor & eventEVENT_BITS_CONTROL_BYTES ) == 0 );
 759              		.loc 1 305 29 is_stmt 1 discriminator 2 view .LVU191
 306:../../kernel/FreeRTOS/Source/event_groups.c **** 	configASSERT( uxBitsToWaitFor != 0 );
 760              		.loc 1 306 2 discriminator 2 view .LVU192
 761 000a 11F07F4F 		tst	r1, #-16777216	@ uxBitsToWaitFor,
 762 000e 09D1     		bne	.L75		@,
 306:../../kernel/FreeRTOS/Source/event_groups.c **** 	configASSERT( uxBitsToWaitFor != 0 );
 763              		.loc 1 306 74 discriminator 2 view .LVU193
 307:../../kernel/FreeRTOS/Source/event_groups.c **** 	#if ( ( INCLUDE_xTaskGetSchedulerState == 1 ) || ( configUSE_TIMERS == 1 ) )
 764              		.loc 1 307 2 discriminator 2 view .LVU194
 765 0010 D1B9     		cbnz	r1, .L49	@ uxBitsToWaitFor,
 307:../../kernel/FreeRTOS/Source/event_groups.c **** 	#if ( ( INCLUDE_xTaskGetSchedulerState == 1 ) || ( configUSE_TIMERS == 1 ) )
 766              		.loc 1 307 2 view .LVU195
 767              	.LBB116:
 768              	.LBI116:
 191:../../kernel/FreeRTOS/Source/portable/GCC/ARM_CM4F/portmacro.h **** {
 769              		.loc 2 191 30 view .LVU196
 770              	.LBB117:
 193:../../kernel/FreeRTOS/Source/portable/GCC/ARM_CM4F/portmacro.h **** 
 771              		.loc 2 193 1 view .LVU197
 772              		.loc 2 195 2 view .LVU198
 773              		.syntax unified
 774              	@ 195 "../../kernel/FreeRTOS/Source/portable/GCC/ARM_CM4F/portmacro.h" 1
 775 0012 4FF0A003 			mov r3, #160													@ ulNewBASEPRI,
 776 0016 83F31188 		msr basepri, r3												@ ulNewBASEPRI
 777 001a BFF36F8F 		isb														
 778 001e BFF34F8F 		dsb														
 779              	
 780              	@ 0 "" 2
 781              	.LVL40:
 782              		.thumb
 783              		.syntax unified
 784              	.L50:
 785              		.loc 2 195 2 is_stmt 0 view .LVU199
 786              	.LBE117:
 787              	.LBE116:
 307:../../kernel/FreeRTOS/Source/event_groups.c **** 	#if ( ( INCLUDE_xTaskGetSchedulerState == 1 ) || ( configUSE_TIMERS == 1 ) )
 788              		.loc 1 307 2 is_stmt 1 discriminator 3 view .LVU200
 307:../../kernel/FreeRTOS/Source/event_groups.c **** 	#if ( ( INCLUDE_xTaskGetSchedulerState == 1 ) || ( configUSE_TIMERS == 1 ) )
 789              		.loc 1 307 2 discriminator 3 view .LVU201
 307:../../kernel/FreeRTOS/Source/event_groups.c **** 	#if ( ( INCLUDE_xTaskGetSchedulerState == 1 ) || ( configUSE_TIMERS == 1 ) )
 790              		.loc 1 307 2 discriminator 3 view .LVU202
 307:../../kernel/FreeRTOS/Source/event_groups.c **** 	#if ( ( INCLUDE_xTaskGetSchedulerState == 1 ) || ( configUSE_TIMERS == 1 ) )
 791              		.loc 1 307 2 discriminator 3 view .LVU203
ARM GAS  /tmp/ccXZYLDn.s 			page 33


 792 0022 FEE7     		b	.L50		@
 793              	.LVL41:
 794              	.L75:
 306:../../kernel/FreeRTOS/Source/event_groups.c **** 	configASSERT( uxBitsToWaitFor != 0 );
 795              		.loc 1 306 2 view .LVU204
 796              	.LBB118:
 797              	.LBI118:
 191:../../kernel/FreeRTOS/Source/portable/GCC/ARM_CM4F/portmacro.h **** {
 798              		.loc 2 191 30 view .LVU205
 799              	.LBB119:
 193:../../kernel/FreeRTOS/Source/portable/GCC/ARM_CM4F/portmacro.h **** 
 800              		.loc 2 193 1 view .LVU206
 801              		.loc 2 195 2 view .LVU207
 802              		.syntax unified
 803              	@ 195 "../../kernel/FreeRTOS/Source/portable/GCC/ARM_CM4F/portmacro.h" 1
 804 0024 4FF0A003 			mov r3, #160													@ ulNewBASEPRI,
 805 0028 83F31188 		msr basepri, r3												@ ulNewBASEPRI
 806 002c BFF36F8F 		isb														
 807 0030 BFF34F8F 		dsb														
 808              	
 809              	@ 0 "" 2
 810              	.LVL42:
 811              		.thumb
 812              		.syntax unified
 813              	.L48:
 814              		.loc 2 195 2 is_stmt 0 view .LVU208
 815              	.LBE119:
 816              	.LBE118:
 306:../../kernel/FreeRTOS/Source/event_groups.c **** 	configASSERT( uxBitsToWaitFor != 0 );
 817              		.loc 1 306 2 is_stmt 1 discriminator 2 view .LVU209
 306:../../kernel/FreeRTOS/Source/event_groups.c **** 	configASSERT( uxBitsToWaitFor != 0 );
 818              		.loc 1 306 2 discriminator 2 view .LVU210
 306:../../kernel/FreeRTOS/Source/event_groups.c **** 	configASSERT( uxBitsToWaitFor != 0 );
 819              		.loc 1 306 2 discriminator 2 view .LVU211
 306:../../kernel/FreeRTOS/Source/event_groups.c **** 	configASSERT( uxBitsToWaitFor != 0 );
 820              		.loc 1 306 2 discriminator 2 view .LVU212
 821 0034 FEE7     		b	.L48		@
 822              	.LVL43:
 823              	.L74:
 305:../../kernel/FreeRTOS/Source/event_groups.c **** 	configASSERT( ( uxBitsToWaitFor & eventEVENT_BITS_CONTROL_BYTES ) == 0 );
 824              		.loc 1 305 2 view .LVU213
 825              	.LBB120:
 826              	.LBI120:
 191:../../kernel/FreeRTOS/Source/portable/GCC/ARM_CM4F/portmacro.h **** {
 827              		.loc 2 191 30 view .LVU214
 828              	.LBB121:
 193:../../kernel/FreeRTOS/Source/portable/GCC/ARM_CM4F/portmacro.h **** 
 829              		.loc 2 193 1 view .LVU215
 830              		.loc 2 195 2 view .LVU216
 831              		.syntax unified
 832              	@ 195 "../../kernel/FreeRTOS/Source/portable/GCC/ARM_CM4F/portmacro.h" 1
 833 0036 4FF0A003 			mov r3, #160													@ ulNewBASEPRI,
 834 003a 83F31188 		msr basepri, r3												@ ulNewBASEPRI
 835 003e BFF36F8F 		isb														
 836 0042 BFF34F8F 		dsb														
 837              	
 838              	@ 0 "" 2
ARM GAS  /tmp/ccXZYLDn.s 			page 34


 839              	.LVL44:
 840              		.thumb
 841              		.syntax unified
 842              	.L46:
 843              		.loc 2 195 2 is_stmt 0 view .LVU217
 844              	.LBE121:
 845              	.LBE120:
 305:../../kernel/FreeRTOS/Source/event_groups.c **** 	configASSERT( ( uxBitsToWaitFor & eventEVENT_BITS_CONTROL_BYTES ) == 0 );
 846              		.loc 1 305 2 is_stmt 1 discriminator 1 view .LVU218
 305:../../kernel/FreeRTOS/Source/event_groups.c **** 	configASSERT( ( uxBitsToWaitFor & eventEVENT_BITS_CONTROL_BYTES ) == 0 );
 847              		.loc 1 305 2 discriminator 1 view .LVU219
 305:../../kernel/FreeRTOS/Source/event_groups.c **** 	configASSERT( ( uxBitsToWaitFor & eventEVENT_BITS_CONTROL_BYTES ) == 0 );
 848              		.loc 1 305 2 discriminator 1 view .LVU220
 305:../../kernel/FreeRTOS/Source/event_groups.c **** 	configASSERT( ( uxBitsToWaitFor & eventEVENT_BITS_CONTROL_BYTES ) == 0 );
 849              		.loc 1 305 2 discriminator 1 view .LVU221
 850 0046 FEE7     		b	.L46		@
 851              	.LVL45:
 852              	.L49:
 307:../../kernel/FreeRTOS/Source/event_groups.c **** 	#if ( ( INCLUDE_xTaskGetSchedulerState == 1 ) || ( configUSE_TIMERS == 1 ) )
 853              		.loc 1 307 38 discriminator 2 view .LVU222
 310:../../kernel/FreeRTOS/Source/event_groups.c **** 	}
 854              		.loc 1 310 3 discriminator 2 view .LVU223
 855 0048 0646     		mov	r6, r0	@ xEventGroup, xEventGroup
 856 004a 9846     		mov	r8, r3	@ xWaitForAllBits, xWaitForAllBits
 857 004c 1746     		mov	r7, r2	@ xClearOnExit, xClearOnExit
 858 004e 0C46     		mov	r4, r1	@ uxBitsToWaitFor, uxBitsToWaitFor
 859 0050 FFF7FEFF 		bl	xTaskGetSchedulerState		@
 860              	.LVL46:
 310:../../kernel/FreeRTOS/Source/event_groups.c **** 	}
 861              		.loc 1 310 3 is_stmt 0 discriminator 2 view .LVU224
 862 0054 10B9     		cbnz	r0, .L51	@,
 310:../../kernel/FreeRTOS/Source/event_groups.c **** 	}
 863              		.loc 1 310 3 discriminator 2 view .LVU225
 864 0056 B9F1000F 		cmp	r9, #0	@ xTicksToWait
 865 005a 31D1     		bne	.L76	@
 866              	.L51:
 310:../../kernel/FreeRTOS/Source/event_groups.c **** 	}
 867              		.loc 1 310 104 is_stmt 1 discriminator 8 view .LVU226
 314:../../kernel/FreeRTOS/Source/event_groups.c **** 	{
 868              		.loc 1 314 2 discriminator 8 view .LVU227
 869 005c FFF7FEFF 		bl	vTaskSuspendAll		@
 870              	.LVL47:
 871              	.LBB122:
 316:../../kernel/FreeRTOS/Source/event_groups.c **** 
 872              		.loc 1 316 3 discriminator 8 view .LVU228
 873              	@ ../../kernel/FreeRTOS/Source/event_groups.c:316: 		const EventBits_t uxCurrentEventBits = pxEvent
 316:../../kernel/FreeRTOS/Source/event_groups.c **** 
 874              		.loc 1 316 21 is_stmt 0 discriminator 8 view .LVU229
 875 0060 3568     		ldr	r5, [r6]	@ <retval>, MEM[(struct EventGroup_t *)xEventGroup_21(D)].uxEventBits
 876              	.LVL48:
 319:../../kernel/FreeRTOS/Source/event_groups.c **** 
 877              		.loc 1 319 3 is_stmt 1 discriminator 8 view .LVU230
 878              	.LBB123:
 879              	.LBI123:
 654:../../kernel/FreeRTOS/Source/event_groups.c **** /*-----------------------------------------------------------*/
 655:../../kernel/FreeRTOS/Source/event_groups.c **** 
 656:../../kernel/FreeRTOS/Source/event_groups.c **** static BaseType_t prvTestWaitCondition( const EventBits_t uxCurrentEventBits, const EventBits_t uxB
ARM GAS  /tmp/ccXZYLDn.s 			page 35


 880              		.loc 1 656 19 discriminator 8 view .LVU231
 881              	.LBB124:
 657:../../kernel/FreeRTOS/Source/event_groups.c **** {
 658:../../kernel/FreeRTOS/Source/event_groups.c **** BaseType_t xWaitConditionMet = pdFALSE;
 882              		.loc 1 658 1 discriminator 8 view .LVU232
 659:../../kernel/FreeRTOS/Source/event_groups.c **** 
 660:../../kernel/FreeRTOS/Source/event_groups.c **** 	if( xWaitForAllBits == pdFALSE )
 883              		.loc 1 660 2 discriminator 8 view .LVU233
 884              	@ ../../kernel/FreeRTOS/Source/event_groups.c:660: 	if( xWaitForAllBits == pdFALSE )
 885              		.loc 1 660 4 is_stmt 0 discriminator 8 view .LVU234
 886 0062 B8F1000F 		cmp	r8, #0	@ xWaitForAllBits
 887 0066 34D1     		bne	.L53	@
 661:../../kernel/FreeRTOS/Source/event_groups.c **** 	{
 662:../../kernel/FreeRTOS/Source/event_groups.c **** 		/* Task only has to wait for one bit within uxBitsToWaitFor to be
 663:../../kernel/FreeRTOS/Source/event_groups.c **** 		set.  Is one already set? */
 664:../../kernel/FreeRTOS/Source/event_groups.c **** 		if( ( uxCurrentEventBits & uxBitsToWaitFor ) != ( EventBits_t ) 0 )
 888              		.loc 1 664 3 is_stmt 1 view .LVU235
 889              	@ ../../kernel/FreeRTOS/Source/event_groups.c:664: 		if( ( uxCurrentEventBits & uxBitsToWaitFor ) !
 890              		.loc 1 664 5 is_stmt 0 view .LVU236
 891 0068 2C42     		tst	r4, r5	@ uxBitsToWaitFor, <retval>
 892 006a 35D1     		bne	.L54		@,
 893              	.L55:
 894              		.loc 1 664 5 view .LVU237
 895              	.LBE124:
 896              	.LBE123:
 338:../../kernel/FreeRTOS/Source/event_groups.c **** 		{
 897              		.loc 1 338 8 is_stmt 1 view .LVU238
 898              	@ ../../kernel/FreeRTOS/Source/event_groups.c:338: 		else if( xTicksToWait == ( TickType_t ) 0 )
 338:../../kernel/FreeRTOS/Source/event_groups.c **** 		{
 899              		.loc 1 338 10 is_stmt 0 view .LVU239
 900 006c B9F1000F 		cmp	r9, #0	@ xTicksToWait
 901 0070 39D0     		beq	.L58	@
 351:../../kernel/FreeRTOS/Source/event_groups.c **** 			{
 902              		.loc 1 351 4 is_stmt 1 view .LVU240
 903              	@ ../../kernel/FreeRTOS/Source/event_groups.c:351: 			if( xClearOnExit != pdFALSE )
 351:../../kernel/FreeRTOS/Source/event_groups.c **** 			{
 904              		.loc 1 351 6 is_stmt 0 view .LVU241
 905 0072 002F     		cmp	r7, #0	@ xClearOnExit,
 906 0074 0BBF     		itete	eq
 907 0076 4FF08061 		moveq	r1, #67108864	@ uxControlBits,
 908 007a 4FF0A061 		movne	r1, #83886080	@ uxControlBits,
 909 007e 0023     		moveq	r3, #0	@ uxControlBits,
 910 0080 4FF08073 		movne	r3, #16777216	@ uxControlBits,
 911              	.LVL49:
 357:../../kernel/FreeRTOS/Source/event_groups.c **** 			}
 912              		.loc 1 357 29 is_stmt 1 view .LVU242
 360:../../kernel/FreeRTOS/Source/event_groups.c **** 			{
 913              		.loc 1 360 4 view .LVU243
 914              	@ ../../kernel/FreeRTOS/Source/event_groups.c:360: 			if( xWaitForAllBits != pdFALSE )
 360:../../kernel/FreeRTOS/Source/event_groups.c **** 			{
 915              		.loc 1 360 6 is_stmt 0 view .LVU244
 916 0084 B8F1000F 		cmp	r8, #0	@ xWaitForAllBits,
 917 0088 08BF     		it	eq		@
 918 008a 1946     		moveq	r1, r3	@, uxControlBits, uxControlBits
 919              	.LVL50:
 366:../../kernel/FreeRTOS/Source/event_groups.c **** 			}
 920              		.loc 1 366 29 is_stmt 1 view .LVU245
ARM GAS  /tmp/ccXZYLDn.s 			page 36


 372:../../kernel/FreeRTOS/Source/event_groups.c **** 
 921              		.loc 1 372 4 view .LVU246
 922 008c 4A46     		mov	r2, r9	@, xTicksToWait
 923 008e 2143     		orrs	r1, r1, r4	@,, uxControlBits, uxBitsToWaitFor
 924              	.LVL51:
 372:../../kernel/FreeRTOS/Source/event_groups.c **** 
 925              		.loc 1 372 4 is_stmt 0 view .LVU247
 926 0090 301D     		adds	r0, r6, #4	@, xEventGroup,
 927 0092 FFF7FEFF 		bl	vTaskPlaceOnUnorderedEventList		@
 928              	.LVL52:
 377:../../kernel/FreeRTOS/Source/event_groups.c **** 
 929              		.loc 1 377 4 is_stmt 1 view .LVU248
 379:../../kernel/FreeRTOS/Source/event_groups.c **** 		}
 930              		.loc 1 379 68 view .LVU249
 931              	.LBE122:
 382:../../kernel/FreeRTOS/Source/event_groups.c **** 
 932              		.loc 1 382 2 view .LVU250
 933              	@ ../../kernel/FreeRTOS/Source/event_groups.c:382: 	xAlreadyYielded = xTaskResumeAll();
 382:../../kernel/FreeRTOS/Source/event_groups.c **** 
 934              		.loc 1 382 20 is_stmt 0 view .LVU251
 935 0096 FFF7FEFF 		bl	xTaskResumeAll		@
 936              	.LVL53:
 384:../../kernel/FreeRTOS/Source/event_groups.c **** 	{
 937              		.loc 1 384 2 is_stmt 1 view .LVU252
 386:../../kernel/FreeRTOS/Source/event_groups.c **** 		{
 938              		.loc 1 386 3 view .LVU253
 939              	@ ../../kernel/FreeRTOS/Source/event_groups.c:386: 		if( xAlreadyYielded == pdFALSE )
 386:../../kernel/FreeRTOS/Source/event_groups.c **** 		{
 940              		.loc 1 386 5 is_stmt 0 view .LVU254
 941 009a 38B9     		cbnz	r0, .L61	@,
 388:../../kernel/FreeRTOS/Source/event_groups.c **** 		}
 942              		.loc 1 388 4 is_stmt 1 view .LVU255
 943 009c 1D4B     		ldr	r3, .L78	@ tmp148,
 944 009e 4FF08052 		mov	r2, #268435456	@ tmp149,
 945 00a2 1A60     		str	r2, [r3]	@ tmp149, MEM[(volatile uint32_t *)3758157060B]
 388:../../kernel/FreeRTOS/Source/event_groups.c **** 		}
 946              		.loc 1 388 4 view .LVU256
 947              		.syntax unified
 948              	@ 388 "../../kernel/FreeRTOS/Source/event_groups.c" 1
 949 00a4 BFF34F8F 		dsb	
 950              	@ 0 "" 2
 388:../../kernel/FreeRTOS/Source/event_groups.c **** 		}
 951              		.loc 1 388 4 view .LVU257
 952              	@ 388 "../../kernel/FreeRTOS/Source/event_groups.c" 1
 953 00a8 BFF36F8F 		isb
 954              	@ 0 "" 2
 388:../../kernel/FreeRTOS/Source/event_groups.c **** 		}
 955              		.loc 1 388 26 view .LVU258
 956              		.thumb
 957              		.syntax unified
 958              	.L61:
 392:../../kernel/FreeRTOS/Source/event_groups.c **** 		}
 959              		.loc 1 392 28 view .LVU259
 399:../../kernel/FreeRTOS/Source/event_groups.c **** 
 960              		.loc 1 399 3 view .LVU260
 961              	@ ../../kernel/FreeRTOS/Source/event_groups.c:399: 		uxReturn = uxTaskResetEventItemValue();
 399:../../kernel/FreeRTOS/Source/event_groups.c **** 
ARM GAS  /tmp/ccXZYLDn.s 			page 37


 962              		.loc 1 399 14 is_stmt 0 view .LVU261
 963 00ac FFF7FEFF 		bl	uxTaskResetEventItemValue		@
 964              	.LVL54:
 965              	@ ../../kernel/FreeRTOS/Source/event_groups.c:401: 		if( ( uxReturn & eventUNBLOCKED_DUE_TO_BIT_SET
 401:../../kernel/FreeRTOS/Source/event_groups.c **** 		{
 966              		.loc 1 401 5 view .LVU262
 967 00b0 8301     		lsls	r3, r0, #6	@, uxReturn,
 968              	@ ../../kernel/FreeRTOS/Source/event_groups.c:399: 		uxReturn = uxTaskResetEventItemValue();
 399:../../kernel/FreeRTOS/Source/event_groups.c **** 
 969              		.loc 1 399 14 view .LVU263
 970 00b2 0546     		mov	r5, r0	@ uxReturn,
 971              	.LVL55:
 401:../../kernel/FreeRTOS/Source/event_groups.c **** 		{
 972              		.loc 1 401 3 is_stmt 1 view .LVU264
 973              	@ ../../kernel/FreeRTOS/Source/event_groups.c:401: 		if( ( uxReturn & eventUNBLOCKED_DUE_TO_BIT_SET
 401:../../kernel/FreeRTOS/Source/event_groups.c **** 		{
 974              		.loc 1 401 5 is_stmt 0 view .LVU265
 975 00b4 1AD5     		bpl	.L77		@,
 976              	.LVL56:
 977              	.L62:
 432:../../kernel/FreeRTOS/Source/event_groups.c **** 
 978              		.loc 1 432 3 is_stmt 1 view .LVU266
 435:../../kernel/FreeRTOS/Source/event_groups.c **** 	}
 979              		.loc 1 435 3 view .LVU267
 980              	@ ../../kernel/FreeRTOS/Source/event_groups.c:435: 		uxReturn &= ~eventEVENT_BITS_CONTROL_BYTES;
 435:../../kernel/FreeRTOS/Source/event_groups.c **** 	}
 981              		.loc 1 435 12 is_stmt 0 view .LVU268
 982 00b6 25F07F45 		bic	r5, r5, #-16777216	@ <retval>, uxReturn,
 983              	.LVL57:
 437:../../kernel/FreeRTOS/Source/event_groups.c **** 
 984              		.loc 1 437 2 is_stmt 1 view .LVU269
 440:../../kernel/FreeRTOS/Source/event_groups.c **** 
 985              		.loc 1 440 2 view .LVU270
 442:../../kernel/FreeRTOS/Source/event_groups.c **** }
 986              		.loc 1 442 2 view .LVU271
 987              	.L44:
 988              	@ ../../kernel/FreeRTOS/Source/event_groups.c:443: }
 443:../../kernel/FreeRTOS/Source/event_groups.c **** /*-----------------------------------------------------------*/
 989              		.loc 1 443 1 is_stmt 0 view .LVU272
 990 00ba 2846     		mov	r0, r5	@, <retval>
 991 00bc BDE8F883 		pop	{r3, r4, r5, r6, r7, r8, r9, pc}	@
 992              	.LVL58:
 993              	.L76:
 310:../../kernel/FreeRTOS/Source/event_groups.c **** 	}
 994              		.loc 1 310 3 is_stmt 1 view .LVU273
 995              	.LBB127:
 996              	.LBI127:
 191:../../kernel/FreeRTOS/Source/portable/GCC/ARM_CM4F/portmacro.h **** {
 997              		.loc 2 191 30 view .LVU274
 998              	.LBB128:
 193:../../kernel/FreeRTOS/Source/portable/GCC/ARM_CM4F/portmacro.h **** 
 999              		.loc 2 193 1 view .LVU275
 1000              		.loc 2 195 2 view .LVU276
 1001              		.syntax unified
 1002              	@ 195 "../../kernel/FreeRTOS/Source/portable/GCC/ARM_CM4F/portmacro.h" 1
 1003 00c0 4FF0A003 			mov r3, #160													@ ulNewBASEPRI,
 1004 00c4 83F31188 		msr basepri, r3												@ ulNewBASEPRI
ARM GAS  /tmp/ccXZYLDn.s 			page 38


 1005 00c8 BFF36F8F 		isb														
 1006 00cc BFF34F8F 		dsb														
 1007              	
 1008              	@ 0 "" 2
 1009              	.LVL59:
 1010              		.thumb
 1011              		.syntax unified
 1012              	.L52:
 1013              		.loc 2 195 2 is_stmt 0 view .LVU277
 1014              	.LBE128:
 1015              	.LBE127:
 310:../../kernel/FreeRTOS/Source/event_groups.c **** 	}
 1016              		.loc 1 310 3 is_stmt 1 discriminator 4 view .LVU278
 310:../../kernel/FreeRTOS/Source/event_groups.c **** 	}
 1017              		.loc 1 310 3 discriminator 4 view .LVU279
 310:../../kernel/FreeRTOS/Source/event_groups.c **** 	}
 1018              		.loc 1 310 3 discriminator 4 view .LVU280
 310:../../kernel/FreeRTOS/Source/event_groups.c **** 	}
 1019              		.loc 1 310 3 discriminator 4 view .LVU281
 1020 00d0 FEE7     		b	.L52		@
 1021              	.LVL60:
 1022              	.L53:
 1023              	.LBB129:
 1024              	.LBB126:
 1025              	.LBB125:
 665:../../kernel/FreeRTOS/Source/event_groups.c **** 		{
 666:../../kernel/FreeRTOS/Source/event_groups.c **** 			xWaitConditionMet = pdTRUE;
 667:../../kernel/FreeRTOS/Source/event_groups.c **** 		}
 668:../../kernel/FreeRTOS/Source/event_groups.c **** 		else
 669:../../kernel/FreeRTOS/Source/event_groups.c **** 		{
 670:../../kernel/FreeRTOS/Source/event_groups.c **** 			mtCOVERAGE_TEST_MARKER();
 671:../../kernel/FreeRTOS/Source/event_groups.c **** 		}
 672:../../kernel/FreeRTOS/Source/event_groups.c **** 	}
 673:../../kernel/FreeRTOS/Source/event_groups.c **** 	else
 674:../../kernel/FreeRTOS/Source/event_groups.c **** 	{
 675:../../kernel/FreeRTOS/Source/event_groups.c **** 		/* Task has to wait for all the bits in uxBitsToWaitFor to be set.
 676:../../kernel/FreeRTOS/Source/event_groups.c **** 		Are they set already? */
 677:../../kernel/FreeRTOS/Source/event_groups.c **** 		if( ( uxCurrentEventBits & uxBitsToWaitFor ) == uxBitsToWaitFor )
 1026              		.loc 1 677 3 view .LVU282
 1027              	@ ../../kernel/FreeRTOS/Source/event_groups.c:677: 		if( ( uxCurrentEventBits & uxBitsToWaitFor ) =
 1028              		.loc 1 677 5 is_stmt 0 view .LVU283
 1029 00d2 34EA0503 		bics	r3, r4, r5	@ tmp166, uxBitsToWaitFor, <retval>
 1030 00d6 C9D1     		bne	.L55		@,
 1031              	.L54:
 1032              		.loc 1 677 5 view .LVU284
 1033              	.LBE125:
 1034              	.LBE126:
 325:../../kernel/FreeRTOS/Source/event_groups.c **** 			xTicksToWait = ( TickType_t ) 0;
 1035              		.loc 1 325 4 is_stmt 1 view .LVU285
 1036              	.LVL61:
 326:../../kernel/FreeRTOS/Source/event_groups.c **** 
 1037              		.loc 1 326 4 view .LVU286
 329:../../kernel/FreeRTOS/Source/event_groups.c **** 			{
 1038              		.loc 1 329 4 view .LVU287
 1039              	@ ../../kernel/FreeRTOS/Source/event_groups.c:329: 			if( xClearOnExit != pdFALSE )
 329:../../kernel/FreeRTOS/Source/event_groups.c **** 			{
 1040              		.loc 1 329 6 is_stmt 0 view .LVU288
ARM GAS  /tmp/ccXZYLDn.s 			page 39


 1041 00d8 2FB1     		cbz	r7, .L58	@ xClearOnExit,
 331:../../kernel/FreeRTOS/Source/event_groups.c **** 			}
 1042              		.loc 1 331 5 is_stmt 1 view .LVU289
 1043              	@ ../../kernel/FreeRTOS/Source/event_groups.c:331: 				pxEventBits->uxEventBits &= ~uxBitsToWaitFor
 331:../../kernel/FreeRTOS/Source/event_groups.c **** 			}
 1044              		.loc 1 331 30 is_stmt 0 view .LVU290
 1045 00da 25EA0404 		bic	r4, r5, r4	@ tmp145, <retval>, uxBitsToWaitFor
 1046              	.LVL62:
 331:../../kernel/FreeRTOS/Source/event_groups.c **** 			}
 1047              		.loc 1 331 30 view .LVU291
 1048 00de 3460     		str	r4, [r6]	@ tmp145, MEM[(struct EventGroup_t *)xEventGroup_21(D)].uxEventBits
 379:../../kernel/FreeRTOS/Source/event_groups.c **** 		}
 1049              		.loc 1 379 68 is_stmt 1 view .LVU292
 1050              	.LBE129:
 382:../../kernel/FreeRTOS/Source/event_groups.c **** 
 1051              		.loc 1 382 2 view .LVU293
 1052              	@ ../../kernel/FreeRTOS/Source/event_groups.c:382: 	xAlreadyYielded = xTaskResumeAll();
 382:../../kernel/FreeRTOS/Source/event_groups.c **** 
 1053              		.loc 1 382 20 is_stmt 0 view .LVU294
 1054 00e0 FFF7FEFF 		bl	xTaskResumeAll		@
 1055              	.LVL63:
 384:../../kernel/FreeRTOS/Source/event_groups.c **** 	{
 1056              		.loc 1 384 2 is_stmt 1 view .LVU295
 1057 00e4 E9E7     		b	.L44		@
 1058              	.LVL64:
 1059              	.L58:
 1060              	.LBB130:
 379:../../kernel/FreeRTOS/Source/event_groups.c **** 		}
 1061              		.loc 1 379 68 view .LVU296
 1062              	.LBE130:
 382:../../kernel/FreeRTOS/Source/event_groups.c **** 
 1063              		.loc 1 382 2 view .LVU297
 1064              	@ ../../kernel/FreeRTOS/Source/event_groups.c:382: 	xAlreadyYielded = xTaskResumeAll();
 382:../../kernel/FreeRTOS/Source/event_groups.c **** 
 1065              		.loc 1 382 20 is_stmt 0 view .LVU298
 1066 00e6 FFF7FEFF 		bl	xTaskResumeAll		@
 1067              	.LVL65:
 384:../../kernel/FreeRTOS/Source/event_groups.c **** 	{
 1068              		.loc 1 384 2 is_stmt 1 view .LVU299
 1069 00ea E6E7     		b	.L44		@
 1070              	.LVL66:
 1071              	.L77:
 403:../../kernel/FreeRTOS/Source/event_groups.c **** 			{
 1072              		.loc 1 403 4 view .LVU300
 1073 00ec FFF7FEFF 		bl	vPortEnterCritical		@
 1074              	.LVL67:
 406:../../kernel/FreeRTOS/Source/event_groups.c **** 
 1075              		.loc 1 406 5 view .LVU301
 1076              	@ ../../kernel/FreeRTOS/Source/event_groups.c:406: 				uxReturn = pxEventBits->uxEventBits;
 406:../../kernel/FreeRTOS/Source/event_groups.c **** 
 1077              		.loc 1 406 14 is_stmt 0 view .LVU302
 1078 00f0 3568     		ldr	r5, [r6]	@ uxReturn, MEM[(struct EventGroup_t *)xEventGroup_21(D)].uxEventBits
 1079              	.LVL68:
 410:../../kernel/FreeRTOS/Source/event_groups.c **** 				{
 1080              		.loc 1 410 5 is_stmt 1 view .LVU303
 1081              	.LBB131:
 1082              	.LBI131:
ARM GAS  /tmp/ccXZYLDn.s 			page 40


 656:../../kernel/FreeRTOS/Source/event_groups.c **** {
 1083              		.loc 1 656 19 view .LVU304
 1084              	.LBB132:
 658:../../kernel/FreeRTOS/Source/event_groups.c **** 
 1085              		.loc 1 658 1 view .LVU305
 660:../../kernel/FreeRTOS/Source/event_groups.c **** 	{
 1086              		.loc 1 660 2 view .LVU306
 1087              	@ ../../kernel/FreeRTOS/Source/event_groups.c:660: 	if( xWaitForAllBits == pdFALSE )
 660:../../kernel/FreeRTOS/Source/event_groups.c **** 	{
 1088              		.loc 1 660 4 is_stmt 0 view .LVU307
 1089 00f2 B8F1000F 		cmp	r8, #0	@ xWaitForAllBits
 1090 00f6 06D1     		bne	.L63	@
 664:../../kernel/FreeRTOS/Source/event_groups.c **** 		{
 1091              		.loc 1 664 3 is_stmt 1 view .LVU308
 1092              	@ ../../kernel/FreeRTOS/Source/event_groups.c:664: 		if( ( uxCurrentEventBits & uxBitsToWaitFor ) !
 664:../../kernel/FreeRTOS/Source/event_groups.c **** 		{
 1093              		.loc 1 664 5 is_stmt 0 view .LVU309
 1094 00f8 2C42     		tst	r4, r5	@ uxBitsToWaitFor, uxReturn
 1095 00fa 07D0     		beq	.L65		@,
 1096              	.L64:
 664:../../kernel/FreeRTOS/Source/event_groups.c **** 		{
 1097              		.loc 1 664 5 view .LVU310
 1098              	.LBE132:
 1099              	.LBE131:
 412:../../kernel/FreeRTOS/Source/event_groups.c **** 					{
 1100              		.loc 1 412 6 is_stmt 1 view .LVU311
 1101              	@ ../../kernel/FreeRTOS/Source/event_groups.c:412: 					if( xClearOnExit != pdFALSE )
 412:../../kernel/FreeRTOS/Source/event_groups.c **** 					{
 1102              		.loc 1 412 8 is_stmt 0 view .LVU312
 1103 00fc 37B1     		cbz	r7, .L65	@ xClearOnExit,
 414:../../kernel/FreeRTOS/Source/event_groups.c **** 					}
 1104              		.loc 1 414 7 is_stmt 1 view .LVU313
 1105              	@ ../../kernel/FreeRTOS/Source/event_groups.c:414: 						pxEventBits->uxEventBits &= ~uxBitsToWaitF
 414:../../kernel/FreeRTOS/Source/event_groups.c **** 					}
 1106              		.loc 1 414 32 is_stmt 0 view .LVU314
 1107 00fe 25EA0404 		bic	r4, r5, r4	@ tmp154, uxReturn, uxBitsToWaitFor
 1108              	.LVL69:
 414:../../kernel/FreeRTOS/Source/event_groups.c **** 					}
 1109              		.loc 1 414 32 view .LVU315
 1110 0102 3460     		str	r4, [r6]	@ tmp154, MEM[(struct EventGroup_t *)xEventGroup_21(D)].uxEventBits
 1111 0104 02E0     		b	.L65		@
 1112              	.LVL70:
 1113              	.L63:
 1114              	.LBB134:
 1115              	.LBB133:
 1116              		.loc 1 677 3 is_stmt 1 view .LVU316
 1117              	@ ../../kernel/FreeRTOS/Source/event_groups.c:677: 		if( ( uxCurrentEventBits & uxBitsToWaitFor ) =
 1118              		.loc 1 677 5 is_stmt 0 view .LVU317
 1119 0106 34EA0503 		bics	r3, r4, r5	@ tmp168, uxBitsToWaitFor, uxReturn
 1120 010a F7D0     		beq	.L64		@,
 1121              	.LVL71:
 1122              	.L65:
 1123              		.loc 1 677 5 view .LVU318
 1124              	.LBE133:
 1125              	.LBE134:
 423:../../kernel/FreeRTOS/Source/event_groups.c **** 				}
 1126              		.loc 1 423 30 is_stmt 1 view .LVU319
ARM GAS  /tmp/ccXZYLDn.s 			page 41


 425:../../kernel/FreeRTOS/Source/event_groups.c **** 			}
 1127              		.loc 1 425 5 view .LVU320
 427:../../kernel/FreeRTOS/Source/event_groups.c **** 		}
 1128              		.loc 1 427 4 view .LVU321
 1129 010c FFF7FEFF 		bl	vPortExitCritical		@
 1130              	.LVL72:
 1131 0110 D1E7     		b	.L62		@
 1132              	.L79:
 1133 0112 00BF     		.align	2
 1134              	.L78:
 1135 0114 04ED00E0 		.word	-536810236
 1136              		.cfi_endproc
 1137              	.LFE7:
 1138              		.size	xEventGroupWaitBits, .-xEventGroupWaitBits
 1139              		.section	.text.xEventGroupClearBits,"ax",%progbits
 1140              		.align	1
 1141              		.p2align 2,,3
 1142              		.global	xEventGroupClearBits
 1143              		.syntax unified
 1144              		.thumb
 1145              		.thumb_func
 1146              		.fpu fpv4-sp-d16
 1147              		.type	xEventGroupClearBits, %function
 1148              	xEventGroupClearBits:
 1149              	.LVL73:
 1150              	.LFB8:
 447:../../kernel/FreeRTOS/Source/event_groups.c **** EventGroup_t *pxEventBits = ( EventGroup_t * ) xEventGroup;
 1151              		.loc 1 447 1 view -0
 1152              		.cfi_startproc
 1153              		@ args = 0, pretend = 0, frame = 0
 1154              		@ frame_needed = 0, uses_anonymous_args = 0
 448:../../kernel/FreeRTOS/Source/event_groups.c **** EventBits_t uxReturn;
 1155              		.loc 1 448 1 view .LVU323
 449:../../kernel/FreeRTOS/Source/event_groups.c **** 
 1156              		.loc 1 449 1 view .LVU324
 453:../../kernel/FreeRTOS/Source/event_groups.c **** 	configASSERT( ( uxBitsToClear & eventEVENT_BITS_CONTROL_BYTES ) == 0 );
 1157              		.loc 1 453 2 view .LVU325
 1158 0000 58B1     		cbz	r0, .L87	@ xEventGroup,
 453:../../kernel/FreeRTOS/Source/event_groups.c **** 	configASSERT( ( uxBitsToClear & eventEVENT_BITS_CONTROL_BYTES ) == 0 );
 1159              		.loc 1 453 29 discriminator 2 view .LVU326
 454:../../kernel/FreeRTOS/Source/event_groups.c **** 
 1160              		.loc 1 454 2 discriminator 2 view .LVU327
 1161 0002 11F07F4F 		tst	r1, #-16777216	@ uxBitsToClear,
 1162 0006 11D0     		beq	.L83		@,
 454:../../kernel/FreeRTOS/Source/event_groups.c **** 
 1163              		.loc 1 454 2 view .LVU328
 1164              	.LBB145:
 1165              	.LBI145:
 191:../../kernel/FreeRTOS/Source/portable/GCC/ARM_CM4F/portmacro.h **** {
 1166              		.loc 2 191 30 view .LVU329
 1167              	.LBB146:
 193:../../kernel/FreeRTOS/Source/portable/GCC/ARM_CM4F/portmacro.h **** 
 1168              		.loc 2 193 1 view .LVU330
 1169              		.loc 2 195 2 view .LVU331
 1170              		.syntax unified
 1171              	@ 195 "../../kernel/FreeRTOS/Source/portable/GCC/ARM_CM4F/portmacro.h" 1
 1172 0008 4FF0A003 			mov r3, #160													@ ulNewBASEPRI,
ARM GAS  /tmp/ccXZYLDn.s 			page 42


 1173 000c 83F31188 		msr basepri, r3												@ ulNewBASEPRI
 1174 0010 BFF36F8F 		isb														
 1175 0014 BFF34F8F 		dsb														
 1176              	
 1177              	@ 0 "" 2
 1178              	.LVL74:
 1179              		.thumb
 1180              		.syntax unified
 1181              	.L84:
 1182              		.loc 2 195 2 is_stmt 0 view .LVU332
 1183              	.LBE146:
 1184              	.LBE145:
 454:../../kernel/FreeRTOS/Source/event_groups.c **** 
 1185              		.loc 1 454 2 is_stmt 1 discriminator 2 view .LVU333
 454:../../kernel/FreeRTOS/Source/event_groups.c **** 
 1186              		.loc 1 454 2 discriminator 2 view .LVU334
 454:../../kernel/FreeRTOS/Source/event_groups.c **** 
 1187              		.loc 1 454 2 discriminator 2 view .LVU335
 454:../../kernel/FreeRTOS/Source/event_groups.c **** 
 1188              		.loc 1 454 2 discriminator 2 view .LVU336
 1189 0018 FEE7     		b	.L84		@
 1190              	.L87:
 453:../../kernel/FreeRTOS/Source/event_groups.c **** 	configASSERT( ( uxBitsToClear & eventEVENT_BITS_CONTROL_BYTES ) == 0 );
 1191              		.loc 1 453 2 view .LVU337
 1192              	.LBB147:
 1193              	.LBI147:
 191:../../kernel/FreeRTOS/Source/portable/GCC/ARM_CM4F/portmacro.h **** {
 1194              		.loc 2 191 30 view .LVU338
 1195              	.LBB148:
 193:../../kernel/FreeRTOS/Source/portable/GCC/ARM_CM4F/portmacro.h **** 
 1196              		.loc 2 193 1 view .LVU339
 1197              		.loc 2 195 2 view .LVU340
 1198              		.syntax unified
 1199              	@ 195 "../../kernel/FreeRTOS/Source/portable/GCC/ARM_CM4F/portmacro.h" 1
 1200 001a 4FF0A003 			mov r3, #160													@ ulNewBASEPRI,
 1201 001e 83F31188 		msr basepri, r3												@ ulNewBASEPRI
 1202 0022 BFF36F8F 		isb														
 1203 0026 BFF34F8F 		dsb														
 1204              	
 1205              	@ 0 "" 2
 1206              	.LVL75:
 1207              		.thumb
 1208              		.syntax unified
 1209              	.L82:
 1210              		.loc 2 195 2 is_stmt 0 view .LVU341
 1211              	.LBE148:
 1212              	.LBE147:
 453:../../kernel/FreeRTOS/Source/event_groups.c **** 	configASSERT( ( uxBitsToClear & eventEVENT_BITS_CONTROL_BYTES ) == 0 );
 1213              		.loc 1 453 2 is_stmt 1 discriminator 1 view .LVU342
 453:../../kernel/FreeRTOS/Source/event_groups.c **** 	configASSERT( ( uxBitsToClear & eventEVENT_BITS_CONTROL_BYTES ) == 0 );
 1214              		.loc 1 453 2 discriminator 1 view .LVU343
 453:../../kernel/FreeRTOS/Source/event_groups.c **** 	configASSERT( ( uxBitsToClear & eventEVENT_BITS_CONTROL_BYTES ) == 0 );
 1215              		.loc 1 453 2 discriminator 1 view .LVU344
 453:../../kernel/FreeRTOS/Source/event_groups.c **** 	configASSERT( ( uxBitsToClear & eventEVENT_BITS_CONTROL_BYTES ) == 0 );
 1216              		.loc 1 453 2 discriminator 1 view .LVU345
 1217 002a FEE7     		b	.L82		@
 1218              	.L83:
ARM GAS  /tmp/ccXZYLDn.s 			page 43


 1219              	@ ../../kernel/FreeRTOS/Source/event_groups.c:447: {
 447:../../kernel/FreeRTOS/Source/event_groups.c **** EventGroup_t *pxEventBits = ( EventGroup_t * ) xEventGroup;
 1220              		.loc 1 447 1 is_stmt 0 view .LVU346
 1221 002c 70B5     		push	{r4, r5, r6, lr}	@
 1222              		.cfi_def_cfa_offset 16
 1223              		.cfi_offset 4, -16
 1224              		.cfi_offset 5, -12
 1225              		.cfi_offset 6, -8
 1226              		.cfi_offset 14, -4
 1227 002e 0546     		mov	r5, r0	@ xEventGroup, xEventGroup
 1228              	.LVL76:
 447:../../kernel/FreeRTOS/Source/event_groups.c **** EventGroup_t *pxEventBits = ( EventGroup_t * ) xEventGroup;
 1229              		.loc 1 447 1 view .LVU347
 1230 0030 0C46     		mov	r4, r1	@ uxBitsToClear, uxBitsToClear
 1231              	.LVL77:
 1232              	.LBB149:
 1233              	.LBI149:
 446:../../kernel/FreeRTOS/Source/event_groups.c **** {
 1234              		.loc 1 446 13 is_stmt 1 view .LVU348
 1235              	.LBB150:
 454:../../kernel/FreeRTOS/Source/event_groups.c **** 
 1236              		.loc 1 454 72 view .LVU349
 456:../../kernel/FreeRTOS/Source/event_groups.c **** 	{
 1237              		.loc 1 456 2 view .LVU350
 1238 0032 FFF7FEFF 		bl	vPortEnterCritical		@
 1239              	.LVL78:
 458:../../kernel/FreeRTOS/Source/event_groups.c **** 
 1240              		.loc 1 458 60 view .LVU351
 462:../../kernel/FreeRTOS/Source/event_groups.c **** 
 1241              		.loc 1 462 3 view .LVU352
 1242              	@ ../../kernel/FreeRTOS/Source/event_groups.c:462: 		uxReturn = pxEventBits->uxEventBits;
 462:../../kernel/FreeRTOS/Source/event_groups.c **** 
 1243              		.loc 1 462 12 is_stmt 0 view .LVU353
 1244 0036 2E68     		ldr	r6, [r5]	@ <retval>, MEM[(struct EventGroup_t *)xEventGroup_3(D)].uxEventBits
 1245              	.LVL79:
 465:../../kernel/FreeRTOS/Source/event_groups.c **** 	}
 1246              		.loc 1 465 3 is_stmt 1 view .LVU354
 1247              	@ ../../kernel/FreeRTOS/Source/event_groups.c:465: 		pxEventBits->uxEventBits &= ~uxBitsToClear;
 465:../../kernel/FreeRTOS/Source/event_groups.c **** 	}
 1248              		.loc 1 465 28 is_stmt 0 view .LVU355
 1249 0038 26EA0404 		bic	r4, r6, r4	@ tmp122, <retval>, uxBitsToClear
 1250              	.LVL80:
 465:../../kernel/FreeRTOS/Source/event_groups.c **** 	}
 1251              		.loc 1 465 28 view .LVU356
 1252 003c 2C60     		str	r4, [r5]	@ tmp122, MEM[(struct EventGroup_t *)xEventGroup_3(D)].uxEventBits
 467:../../kernel/FreeRTOS/Source/event_groups.c **** 
 1253              		.loc 1 467 2 is_stmt 1 view .LVU357
 1254 003e FFF7FEFF 		bl	vPortExitCritical		@
 1255              	.LVL81:
 469:../../kernel/FreeRTOS/Source/event_groups.c **** }
 1256              		.loc 1 469 2 view .LVU358
 469:../../kernel/FreeRTOS/Source/event_groups.c **** }
 1257              		.loc 1 469 2 is_stmt 0 view .LVU359
 1258              	.LBE150:
 1259              	.LBE149:
 1260              	@ ../../kernel/FreeRTOS/Source/event_groups.c:470: }
 470:../../kernel/FreeRTOS/Source/event_groups.c **** /*-----------------------------------------------------------*/
ARM GAS  /tmp/ccXZYLDn.s 			page 44


 1261              		.loc 1 470 1 view .LVU360
 1262 0042 3046     		mov	r0, r6	@, <retval>
 1263 0044 70BD     		pop	{r4, r5, r6, pc}	@
 470:../../kernel/FreeRTOS/Source/event_groups.c **** /*-----------------------------------------------------------*/
 1264              		.loc 1 470 1 view .LVU361
 1265              		.cfi_endproc
 1266              	.LFE8:
 1267              		.size	xEventGroupClearBits, .-xEventGroupClearBits
 1268 0046 00BF     		.section	.text.xEventGroupClearBitsFromISR,"ax",%progbits
 1269              		.align	1
 1270              		.p2align 2,,3
 1271              		.global	xEventGroupClearBitsFromISR
 1272              		.syntax unified
 1273              		.thumb
 1274              		.thumb_func
 1275              		.fpu fpv4-sp-d16
 1276              		.type	xEventGroupClearBitsFromISR, %function
 1277              	xEventGroupClearBitsFromISR:
 1278              	.LVL82:
 1279              	.LFB9:
 476:../../kernel/FreeRTOS/Source/event_groups.c **** 		BaseType_t xReturn;
 1280              		.loc 1 476 2 is_stmt 1 view -0
 1281              		.cfi_startproc
 1282              		@ args = 0, pretend = 0, frame = 0
 1283              		@ frame_needed = 0, uses_anonymous_args = 0
 1284              		@ link register save eliminated.
 477:../../kernel/FreeRTOS/Source/event_groups.c **** 
 1285              		.loc 1 477 3 view .LVU363
 479:../../kernel/FreeRTOS/Source/event_groups.c **** 		xReturn = xTimerPendFunctionCallFromISR( vEventGroupClearBitsCallback, ( void * ) xEventGroup, ( 
 1286              		.loc 1 479 69 view .LVU364
 480:../../kernel/FreeRTOS/Source/event_groups.c **** 
 1287              		.loc 1 480 3 view .LVU365
 1288              	@ ../../kernel/FreeRTOS/Source/event_groups.c:480: 		xReturn = xTimerPendFunctionCallFromISR( vEven
 480:../../kernel/FreeRTOS/Source/event_groups.c **** 
 1289              		.loc 1 480 13 is_stmt 0 view .LVU366
 1290 0000 0A46     		mov	r2, r1	@, uxBitsToClear
 1291 0002 0023     		movs	r3, #0	@,
 1292 0004 0146     		mov	r1, r0	@, xEventGroup
 1293              	.LVL83:
 480:../../kernel/FreeRTOS/Source/event_groups.c **** 
 1294              		.loc 1 480 13 view .LVU367
 1295 0006 0148     		ldr	r0, .L89	@,
 1296              	.LVL84:
 480:../../kernel/FreeRTOS/Source/event_groups.c **** 
 1297              		.loc 1 480 13 view .LVU368
 1298 0008 FFF7FEBF 		b	xTimerPendFunctionCallFromISR		@
 1299              	.LVL85:
 1300              	.L90:
 480:../../kernel/FreeRTOS/Source/event_groups.c **** 
 1301              		.loc 1 480 13 view .LVU369
 1302              		.align	2
 1303              	.L89:
 1304 000c 00000000 		.word	vEventGroupClearBitsCallback
 1305              		.cfi_endproc
 1306              	.LFE9:
 1307              		.size	xEventGroupClearBitsFromISR, .-xEventGroupClearBitsFromISR
 1308              		.section	.text.xEventGroupGetBitsFromISR,"ax",%progbits
ARM GAS  /tmp/ccXZYLDn.s 			page 45


 1309              		.align	1
 1310              		.p2align 2,,3
 1311              		.global	xEventGroupGetBitsFromISR
 1312              		.syntax unified
 1313              		.thumb
 1314              		.thumb_func
 1315              		.fpu fpv4-sp-d16
 1316              		.type	xEventGroupGetBitsFromISR, %function
 1317              	xEventGroupGetBitsFromISR:
 1318              	.LVL86:
 1319              	.LFB10:
 489:../../kernel/FreeRTOS/Source/event_groups.c **** UBaseType_t uxSavedInterruptStatus;
 1320              		.loc 1 489 1 is_stmt 1 view -0
 1321              		.cfi_startproc
 1322              		@ args = 0, pretend = 0, frame = 0
 1323              		@ frame_needed = 0, uses_anonymous_args = 0
 1324              		@ link register save eliminated.
 490:../../kernel/FreeRTOS/Source/event_groups.c **** EventGroup_t *pxEventBits = ( EventGroup_t * ) xEventGroup;
 1325              		.loc 1 490 1 view .LVU371
 491:../../kernel/FreeRTOS/Source/event_groups.c **** EventBits_t uxReturn;
 1326              		.loc 1 491 1 view .LVU372
 492:../../kernel/FreeRTOS/Source/event_groups.c **** 
 1327              		.loc 1 492 1 view .LVU373
 494:../../kernel/FreeRTOS/Source/event_groups.c **** 	{
 1328              		.loc 1 494 2 view .LVU374
 1329              	.LBB151:
 1330              	.LBI151:
 196:../../kernel/FreeRTOS/Source/portable/GCC/ARM_CM4F/portmacro.h **** 	(
 197:../../kernel/FreeRTOS/Source/portable/GCC/ARM_CM4F/portmacro.h **** 		"	mov %0, %1												\n"	\
 198:../../kernel/FreeRTOS/Source/portable/GCC/ARM_CM4F/portmacro.h **** 		"	msr basepri, %0											\n" \
 199:../../kernel/FreeRTOS/Source/portable/GCC/ARM_CM4F/portmacro.h **** 		"	isb														\n" \
 200:../../kernel/FreeRTOS/Source/portable/GCC/ARM_CM4F/portmacro.h **** 		"	dsb														\n" \
 201:../../kernel/FreeRTOS/Source/portable/GCC/ARM_CM4F/portmacro.h **** 		:"=r" (ulNewBASEPRI) : "i" ( configMAX_SYSCALL_INTERRUPT_PRIORITY ) : "memory"
 202:../../kernel/FreeRTOS/Source/portable/GCC/ARM_CM4F/portmacro.h **** 	);
 203:../../kernel/FreeRTOS/Source/portable/GCC/ARM_CM4F/portmacro.h **** }
 204:../../kernel/FreeRTOS/Source/portable/GCC/ARM_CM4F/portmacro.h **** 
 205:../../kernel/FreeRTOS/Source/portable/GCC/ARM_CM4F/portmacro.h **** /*-----------------------------------------------------------*/
 206:../../kernel/FreeRTOS/Source/portable/GCC/ARM_CM4F/portmacro.h **** 
 207:../../kernel/FreeRTOS/Source/portable/GCC/ARM_CM4F/portmacro.h **** portFORCE_INLINE static uint32_t ulPortRaiseBASEPRI( void )
 1331              		.loc 2 207 34 view .LVU375
 1332              	.LBB152:
 208:../../kernel/FreeRTOS/Source/portable/GCC/ARM_CM4F/portmacro.h **** {
 209:../../kernel/FreeRTOS/Source/portable/GCC/ARM_CM4F/portmacro.h **** uint32_t ulOriginalBASEPRI, ulNewBASEPRI;
 1333              		.loc 2 209 1 view .LVU376
 210:../../kernel/FreeRTOS/Source/portable/GCC/ARM_CM4F/portmacro.h **** 
 211:../../kernel/FreeRTOS/Source/portable/GCC/ARM_CM4F/portmacro.h **** 	__asm volatile
 1334              		.loc 2 211 2 view .LVU377
 1335              		.syntax unified
 1336              	@ 211 "../../kernel/FreeRTOS/Source/portable/GCC/ARM_CM4F/portmacro.h" 1
 1337 0000 EFF31183 			mrs r3, basepri												@ ulOriginalBASEPRI
 1338 0004 4FF0A002 		mov r2, #160													@ ulNewBASEPRI,
 1339 0008 82F31188 		msr basepri, r2												@ ulNewBASEPRI
 1340 000c BFF36F8F 		isb														
 1341 0010 BFF34F8F 		dsb														
 1342              	
 1343              	@ 0 "" 2
 1344              	.LVL87:
ARM GAS  /tmp/ccXZYLDn.s 			page 46


 212:../../kernel/FreeRTOS/Source/portable/GCC/ARM_CM4F/portmacro.h **** 	(
 213:../../kernel/FreeRTOS/Source/portable/GCC/ARM_CM4F/portmacro.h **** 		"	mrs %0, basepri											\n" \
 214:../../kernel/FreeRTOS/Source/portable/GCC/ARM_CM4F/portmacro.h **** 		"	mov %1, %2												\n"	\
 215:../../kernel/FreeRTOS/Source/portable/GCC/ARM_CM4F/portmacro.h **** 		"	msr basepri, %1											\n" \
 216:../../kernel/FreeRTOS/Source/portable/GCC/ARM_CM4F/portmacro.h **** 		"	isb														\n" \
 217:../../kernel/FreeRTOS/Source/portable/GCC/ARM_CM4F/portmacro.h **** 		"	dsb														\n" \
 218:../../kernel/FreeRTOS/Source/portable/GCC/ARM_CM4F/portmacro.h **** 		:"=r" (ulOriginalBASEPRI), "=r" (ulNewBASEPRI) : "i" ( configMAX_SYSCALL_INTERRUPT_PRIORITY ) : "
 219:../../kernel/FreeRTOS/Source/portable/GCC/ARM_CM4F/portmacro.h **** 	);
 220:../../kernel/FreeRTOS/Source/portable/GCC/ARM_CM4F/portmacro.h **** 
 221:../../kernel/FreeRTOS/Source/portable/GCC/ARM_CM4F/portmacro.h **** 	/* This return will not be reached but is necessary to prevent compiler
 222:../../kernel/FreeRTOS/Source/portable/GCC/ARM_CM4F/portmacro.h **** 	warnings. */
 223:../../kernel/FreeRTOS/Source/portable/GCC/ARM_CM4F/portmacro.h **** 	return ulOriginalBASEPRI;
 1345              		.loc 2 223 2 view .LVU378
 1346              		.loc 2 223 2 is_stmt 0 view .LVU379
 1347              		.thumb
 1348              		.syntax unified
 1349              	.LBE152:
 1350              	.LBE151:
 496:../../kernel/FreeRTOS/Source/event_groups.c **** 	}
 1351              		.loc 1 496 3 is_stmt 1 view .LVU380
 1352              	@ ../../kernel/FreeRTOS/Source/event_groups.c:496: 		uxReturn = pxEventBits->uxEventBits;
 496:../../kernel/FreeRTOS/Source/event_groups.c **** 	}
 1353              		.loc 1 496 12 is_stmt 0 view .LVU381
 1354 0014 0068     		ldr	r0, [r0]	@ <retval>, MEM[(struct EventGroup_t *)xEventGroup_1(D)].uxEventBits
 1355              	.LVL88:
 498:../../kernel/FreeRTOS/Source/event_groups.c **** 
 1356              		.loc 1 498 2 is_stmt 1 view .LVU382
 1357              	.LBB153:
 1358              	.LBI153:
 224:../../kernel/FreeRTOS/Source/portable/GCC/ARM_CM4F/portmacro.h **** }
 225:../../kernel/FreeRTOS/Source/portable/GCC/ARM_CM4F/portmacro.h **** /*-----------------------------------------------------------*/
 226:../../kernel/FreeRTOS/Source/portable/GCC/ARM_CM4F/portmacro.h **** 
 227:../../kernel/FreeRTOS/Source/portable/GCC/ARM_CM4F/portmacro.h **** portFORCE_INLINE static void vPortSetBASEPRI( uint32_t ulNewMaskValue )
 1359              		.loc 2 227 30 view .LVU383
 1360              	.LBB154:
 228:../../kernel/FreeRTOS/Source/portable/GCC/ARM_CM4F/portmacro.h **** {
 229:../../kernel/FreeRTOS/Source/portable/GCC/ARM_CM4F/portmacro.h **** 	__asm volatile
 1361              		.loc 2 229 2 view .LVU384
 1362              		.syntax unified
 1363              	@ 229 "../../kernel/FreeRTOS/Source/portable/GCC/ARM_CM4F/portmacro.h" 1
 1364 0016 83F31188 			msr basepri, r3		@ ulOriginalBASEPRI
 1365              	@ 0 "" 2
 1366              	.LVL89:
 1367              		.loc 2 229 2 is_stmt 0 view .LVU385
 1368              		.thumb
 1369              		.syntax unified
 1370              	.LBE154:
 1371              	.LBE153:
 500:../../kernel/FreeRTOS/Source/event_groups.c **** }
 1372              		.loc 1 500 2 is_stmt 1 view .LVU386
 1373              	@ ../../kernel/FreeRTOS/Source/event_groups.c:501: }
 501:../../kernel/FreeRTOS/Source/event_groups.c **** /*-----------------------------------------------------------*/
 1374              		.loc 1 501 1 is_stmt 0 view .LVU387
 1375 001a 7047     		bx	lr	@
 1376              		.cfi_endproc
 1377              	.LFE10:
 1378              		.size	xEventGroupGetBitsFromISR, .-xEventGroupGetBitsFromISR
ARM GAS  /tmp/ccXZYLDn.s 			page 47


 1379              		.section	.text.xEventGroupSetBits,"ax",%progbits
 1380              		.align	1
 1381              		.p2align 2,,3
 1382              		.global	xEventGroupSetBits
 1383              		.syntax unified
 1384              		.thumb
 1385              		.thumb_func
 1386              		.fpu fpv4-sp-d16
 1387              		.type	xEventGroupSetBits, %function
 1388              	xEventGroupSetBits:
 1389              	.LVL90:
 1390              	.LFB11:
 505:../../kernel/FreeRTOS/Source/event_groups.c **** ListItem_t *pxListItem, *pxNext;
 1391              		.loc 1 505 1 is_stmt 1 view -0
 1392              		.cfi_startproc
 1393              		@ args = 0, pretend = 0, frame = 0
 1394              		@ frame_needed = 0, uses_anonymous_args = 0
 506:../../kernel/FreeRTOS/Source/event_groups.c **** ListItem_t const *pxListEnd;
 1395              		.loc 1 506 1 view .LVU389
 507:../../kernel/FreeRTOS/Source/event_groups.c **** List_t *pxList;
 1396              		.loc 1 507 1 view .LVU390
 508:../../kernel/FreeRTOS/Source/event_groups.c **** EventBits_t uxBitsToClear = 0, uxBitsWaitedFor, uxControlBits;
 1397              		.loc 1 508 1 view .LVU391
 509:../../kernel/FreeRTOS/Source/event_groups.c **** EventGroup_t *pxEventBits = ( EventGroup_t * ) xEventGroup;
 1398              		.loc 1 509 1 view .LVU392
 510:../../kernel/FreeRTOS/Source/event_groups.c **** BaseType_t xMatchFound = pdFALSE;
 1399              		.loc 1 510 1 view .LVU393
 511:../../kernel/FreeRTOS/Source/event_groups.c **** 
 1400              		.loc 1 511 1 view .LVU394
 515:../../kernel/FreeRTOS/Source/event_groups.c **** 	configASSERT( ( uxBitsToSet & eventEVENT_BITS_CONTROL_BYTES ) == 0 );
 1401              		.loc 1 515 2 view .LVU395
 1402 0000 68B1     		cbz	r0, .L110	@ xEventGroup,
 515:../../kernel/FreeRTOS/Source/event_groups.c **** 	configASSERT( ( uxBitsToSet & eventEVENT_BITS_CONTROL_BYTES ) == 0 );
 1403              		.loc 1 515 29 discriminator 2 view .LVU396
 516:../../kernel/FreeRTOS/Source/event_groups.c **** 
 1404              		.loc 1 516 2 discriminator 2 view .LVU397
 1405              	@ ../../kernel/FreeRTOS/Source/event_groups.c:505: {
 505:../../kernel/FreeRTOS/Source/event_groups.c **** ListItem_t *pxListItem, *pxNext;
 1406              		.loc 1 505 1 is_stmt 0 discriminator 2 view .LVU398
 1407 0002 2DE9F041 		push	{r4, r5, r6, r7, r8, lr}	@
 1408              		.cfi_def_cfa_offset 24
 1409              		.cfi_offset 4, -24
 1410              		.cfi_offset 5, -20
 1411              		.cfi_offset 6, -16
 1412              		.cfi_offset 7, -12
 1413              		.cfi_offset 8, -8
 1414              		.cfi_offset 14, -4
 1415              	@ ../../kernel/FreeRTOS/Source/event_groups.c:516: 	configASSERT( ( uxBitsToSet & eventEVENT_BITS_C
 516:../../kernel/FreeRTOS/Source/event_groups.c **** 
 1416              		.loc 1 516 2 discriminator 2 view .LVU399
 1417 0006 11F07F46 		ands	r6, r1, #-16777216	@ tmp130, uxBitsToSet,
 1418 000a 11D0     		beq	.L95		@,
 516:../../kernel/FreeRTOS/Source/event_groups.c **** 
 1419              		.loc 1 516 2 is_stmt 1 view .LVU400
 1420              	.LBB165:
 1421              	.LBI165:
 191:../../kernel/FreeRTOS/Source/portable/GCC/ARM_CM4F/portmacro.h **** {
ARM GAS  /tmp/ccXZYLDn.s 			page 48


 1422              		.loc 2 191 30 view .LVU401
 1423              	.LBB166:
 193:../../kernel/FreeRTOS/Source/portable/GCC/ARM_CM4F/portmacro.h **** 
 1424              		.loc 2 193 1 view .LVU402
 195:../../kernel/FreeRTOS/Source/portable/GCC/ARM_CM4F/portmacro.h **** 	(
 1425              		.loc 2 195 2 view .LVU403
 1426              		.syntax unified
 1427              	@ 195 "../../kernel/FreeRTOS/Source/portable/GCC/ARM_CM4F/portmacro.h" 1
 1428 000c 4FF0A003 			mov r3, #160													@ ulNewBASEPRI,
 1429 0010 83F31188 		msr basepri, r3												@ ulNewBASEPRI
 1430 0014 BFF36F8F 		isb														
 1431 0018 BFF34F8F 		dsb														
 1432              	
 1433              	@ 0 "" 2
 1434              	.LVL91:
 1435              		.thumb
 1436              		.syntax unified
 1437              	.L96:
 195:../../kernel/FreeRTOS/Source/portable/GCC/ARM_CM4F/portmacro.h **** 	(
 1438              		.loc 2 195 2 is_stmt 0 view .LVU404
 1439              	.LBE166:
 1440              	.LBE165:
 516:../../kernel/FreeRTOS/Source/event_groups.c **** 
 1441              		.loc 1 516 2 is_stmt 1 discriminator 2 view .LVU405
 516:../../kernel/FreeRTOS/Source/event_groups.c **** 
 1442              		.loc 1 516 2 discriminator 2 view .LVU406
 516:../../kernel/FreeRTOS/Source/event_groups.c **** 
 1443              		.loc 1 516 2 discriminator 2 view .LVU407
 516:../../kernel/FreeRTOS/Source/event_groups.c **** 
 1444              		.loc 1 516 2 discriminator 2 view .LVU408
 1445 001c FEE7     		b	.L96		@
 1446              	.L110:
 1447              		.cfi_def_cfa_offset 0
 1448              		.cfi_restore 4
 1449              		.cfi_restore 5
 1450              		.cfi_restore 6
 1451              		.cfi_restore 7
 1452              		.cfi_restore 8
 1453              		.cfi_restore 14
 515:../../kernel/FreeRTOS/Source/event_groups.c **** 	configASSERT( ( uxBitsToSet & eventEVENT_BITS_CONTROL_BYTES ) == 0 );
 1454              		.loc 1 515 2 view .LVU409
 1455              	.LBB167:
 1456              	.LBI167:
 191:../../kernel/FreeRTOS/Source/portable/GCC/ARM_CM4F/portmacro.h **** {
 1457              		.loc 2 191 30 view .LVU410
 1458              	.LBB168:
 193:../../kernel/FreeRTOS/Source/portable/GCC/ARM_CM4F/portmacro.h **** 
 1459              		.loc 2 193 1 view .LVU411
 195:../../kernel/FreeRTOS/Source/portable/GCC/ARM_CM4F/portmacro.h **** 	(
 1460              		.loc 2 195 2 view .LVU412
 1461              		.syntax unified
 1462              	@ 195 "../../kernel/FreeRTOS/Source/portable/GCC/ARM_CM4F/portmacro.h" 1
 1463 001e 4FF0A003 			mov r3, #160													@ ulNewBASEPRI,
 1464 0022 83F31188 		msr basepri, r3												@ ulNewBASEPRI
 1465 0026 BFF36F8F 		isb														
 1466 002a BFF34F8F 		dsb														
 1467              	
ARM GAS  /tmp/ccXZYLDn.s 			page 49


 1468              	@ 0 "" 2
 1469              	.LVL92:
 1470              		.thumb
 1471              		.syntax unified
 1472              	.L94:
 195:../../kernel/FreeRTOS/Source/portable/GCC/ARM_CM4F/portmacro.h **** 	(
 1473              		.loc 2 195 2 is_stmt 0 view .LVU413
 1474              	.LBE168:
 1475              	.LBE167:
 515:../../kernel/FreeRTOS/Source/event_groups.c **** 	configASSERT( ( uxBitsToSet & eventEVENT_BITS_CONTROL_BYTES ) == 0 );
 1476              		.loc 1 515 2 is_stmt 1 discriminator 1 view .LVU414
 515:../../kernel/FreeRTOS/Source/event_groups.c **** 	configASSERT( ( uxBitsToSet & eventEVENT_BITS_CONTROL_BYTES ) == 0 );
 1477              		.loc 1 515 2 discriminator 1 view .LVU415
 515:../../kernel/FreeRTOS/Source/event_groups.c **** 	configASSERT( ( uxBitsToSet & eventEVENT_BITS_CONTROL_BYTES ) == 0 );
 1478              		.loc 1 515 2 discriminator 1 view .LVU416
 515:../../kernel/FreeRTOS/Source/event_groups.c **** 	configASSERT( ( uxBitsToSet & eventEVENT_BITS_CONTROL_BYTES ) == 0 );
 1479              		.loc 1 515 2 discriminator 1 view .LVU417
 1480 002e FEE7     		b	.L94		@
 1481              	.L95:
 1482              		.cfi_def_cfa_offset 24
 1483              		.cfi_offset 4, -24
 1484              		.cfi_offset 5, -20
 1485              		.cfi_offset 6, -16
 1486              		.cfi_offset 7, -12
 1487              		.cfi_offset 8, -8
 1488              		.cfi_offset 14, -4
 515:../../kernel/FreeRTOS/Source/event_groups.c **** 	configASSERT( ( uxBitsToSet & eventEVENT_BITS_CONTROL_BYTES ) == 0 );
 1489              		.loc 1 515 2 is_stmt 0 discriminator 1 view .LVU418
 1490 0030 0546     		mov	r5, r0	@ xEventGroup, xEventGroup
 1491 0032 0C46     		mov	r4, r1	@ uxBitsToSet, uxBitsToSet
 1492              	.LVL93:
 1493              	.LBB169:
 1494              	.LBI169:
 504:../../kernel/FreeRTOS/Source/event_groups.c **** {
 1495              		.loc 1 504 13 is_stmt 1 view .LVU419
 1496              	.LBB170:
 516:../../kernel/FreeRTOS/Source/event_groups.c **** 
 1497              		.loc 1 516 70 view .LVU420
 518:../../kernel/FreeRTOS/Source/event_groups.c **** 	pxListEnd = listGET_END_MARKER( pxList ); /*lint !e826 !e740 The mini list structure is used as th
 1498              		.loc 1 518 2 view .LVU421
 519:../../kernel/FreeRTOS/Source/event_groups.c **** 	vTaskSuspendAll();
 1499              		.loc 1 519 2 view .LVU422
 1500              	@ ../../kernel/FreeRTOS/Source/event_groups.c:520: 	vTaskSuspendAll();
 520:../../kernel/FreeRTOS/Source/event_groups.c **** 	{
 1501              		.loc 1 520 2 is_stmt 0 view .LVU423
 1502 0034 FFF7FEFF 		bl	vTaskSuspendAll		@
 1503              	.LVL94:
 1504              	@ ../../kernel/FreeRTOS/Source/event_groups.c:527: 		pxEventBits->uxEventBits |= uxBitsToSet;
 527:../../kernel/FreeRTOS/Source/event_groups.c **** 
 1505              		.loc 1 527 28 view .LVU424
 1506 0038 2968     		ldr	r1, [r5]	@ MEM[(struct EventGroup_t *)xEventGroup_3(D)].uxEventBits, MEM[(struct EventGroup_t 
 1507              	@ ../../kernel/FreeRTOS/Source/event_groups.c:524: 		pxListItem = listGET_HEAD_ENTRY( pxList );
 524:../../kernel/FreeRTOS/Source/event_groups.c **** 
 1508              		.loc 1 524 14 view .LVU425
 1509 003a 2869     		ldr	r0, [r5, #16]	@ pxListItem, MEM[(struct List_t *)xEventGroup_3(D) + 4B].xListEnd.pxNext
 1510              	@ ../../kernel/FreeRTOS/Source/event_groups.c:519: 	pxListEnd = listGET_END_MARKER( pxList ); /*lin
 519:../../kernel/FreeRTOS/Source/event_groups.c **** 	vTaskSuspendAll();
ARM GAS  /tmp/ccXZYLDn.s 			page 50


 1511              		.loc 1 519 12 view .LVU426
 1512 003c 05F10C07 		add	r7, r5, #12	@ pxListEnd, xEventGroup,
 1513              	.LVL95:
 520:../../kernel/FreeRTOS/Source/event_groups.c **** 	{
 1514              		.loc 1 520 2 is_stmt 1 view .LVU427
 522:../../kernel/FreeRTOS/Source/event_groups.c **** 
 1515              		.loc 1 522 56 view .LVU428
 524:../../kernel/FreeRTOS/Source/event_groups.c **** 
 1516              		.loc 1 524 3 view .LVU429
 527:../../kernel/FreeRTOS/Source/event_groups.c **** 
 1517              		.loc 1 527 3 view .LVU430
 1518              	@ ../../kernel/FreeRTOS/Source/event_groups.c:527: 		pxEventBits->uxEventBits |= uxBitsToSet;
 527:../../kernel/FreeRTOS/Source/event_groups.c **** 
 1519              		.loc 1 527 28 is_stmt 0 view .LVU431
 1520 0040 2143     		orrs	r1, r1, r4	@, prephitmp_6, MEM[(struct EventGroup_t *)xEventGroup_3(D)].uxEventBits, uxBitsTo
 1521              	@ ../../kernel/FreeRTOS/Source/event_groups.c:530: 		while( pxListItem != pxListEnd )
 530:../../kernel/FreeRTOS/Source/event_groups.c **** 		{
 1522              		.loc 1 530 8 view .LVU432
 1523 0042 8742     		cmp	r7, r0	@ pxListEnd, pxListItem
 1524              	@ ../../kernel/FreeRTOS/Source/event_groups.c:527: 		pxEventBits->uxEventBits |= uxBitsToSet;
 527:../../kernel/FreeRTOS/Source/event_groups.c **** 
 1525              		.loc 1 527 28 view .LVU433
 1526 0044 2960     		str	r1, [r5]	@ prephitmp_6, MEM[(struct EventGroup_t *)xEventGroup_3(D)].uxEventBits
 530:../../kernel/FreeRTOS/Source/event_groups.c **** 		{
 1527              		.loc 1 530 3 is_stmt 1 view .LVU434
 1528              	.LVL96:
 1529              	@ ../../kernel/FreeRTOS/Source/event_groups.c:530: 		while( pxListItem != pxListEnd )
 530:../../kernel/FreeRTOS/Source/event_groups.c **** 		{
 1530              		.loc 1 530 8 is_stmt 0 view .LVU435
 1531 0046 1DD0     		beq	.L97		@,
 1532              	@ ../../kernel/FreeRTOS/Source/event_groups.c:509: EventBits_t uxBitsToClear = 0, uxBitsWaitedFor, 
 509:../../kernel/FreeRTOS/Source/event_groups.c **** EventGroup_t *pxEventBits = ( EventGroup_t * ) xEventGroup;
 1533              		.loc 1 509 13 view .LVU436
 1534 0048 3446     		mov	r4, r6	@ uxBitsToClear, tmp130
 1535              	.LVL97:
 509:../../kernel/FreeRTOS/Source/event_groups.c **** EventGroup_t *pxEventBits = ( EventGroup_t * ) xEventGroup;
 1536              		.loc 1 509 13 view .LVU437
 1537 004a 0BE0     		b	.L102		@
 1538              	.LVL98:
 1539              	.L112:
 1540              	@ ../../kernel/FreeRTOS/Source/event_groups.c:543: 				if( ( uxBitsWaitedFor & pxEventBits->uxEvent
 543:../../kernel/FreeRTOS/Source/event_groups.c **** 				{
 1541              		.loc 1 543 7 view .LVU438
 1542 004c 3EB1     		cbz	r6, .L100	@ _54,
 1543              	.L99:
 567:../../kernel/FreeRTOS/Source/event_groups.c **** 				}
 1544              		.loc 1 567 6 is_stmt 1 view .LVU439
 1545              	@ ../../kernel/FreeRTOS/Source/event_groups.c:565: 				if( ( uxControlBits & eventCLEAR_EVENTS_ON_E
 565:../../kernel/FreeRTOS/Source/event_groups.c **** 				{
 1546              		.loc 1 565 7 is_stmt 0 view .LVU440
 1547 004e D201     		lsls	r2, r2, #7	@, uxBitsWaitedFor,
 1548              	.LVL99:
 1549              	@ ../../kernel/FreeRTOS/Source/event_groups.c:579: 				vTaskRemoveFromUnorderedEventList( pxListIte
 579:../../kernel/FreeRTOS/Source/event_groups.c **** 			}
 1550              		.loc 1 579 5 view .LVU441
 1551 0050 41F00071 		orr	r1, r1, #33554432	@, prephitmp_6,
 1552              	@ ../../kernel/FreeRTOS/Source/event_groups.c:567: 					uxBitsToClear |= uxBitsWaitedFor;
ARM GAS  /tmp/ccXZYLDn.s 			page 51


 567:../../kernel/FreeRTOS/Source/event_groups.c **** 				}
 1553              		.loc 1 567 20 view .LVU442
 1554 0054 48BF     		it	mi
 1555 0056 1C43     		orrmi	r4, r4, r3	@ uxBitsToClear, uxBitsToClear, uxBitsWaitedFor
 1556              	.LVL100:
 571:../../kernel/FreeRTOS/Source/event_groups.c **** 				}
 1557              		.loc 1 571 30 is_stmt 1 view .LVU443
 579:../../kernel/FreeRTOS/Source/event_groups.c **** 			}
 1558              		.loc 1 579 5 view .LVU444
 1559 0058 FFF7FEFF 		bl	vTaskRemoveFromUnorderedEventList		@
 1560              	.LVL101:
 579:../../kernel/FreeRTOS/Source/event_groups.c **** 			}
 1561              		.loc 1 579 5 is_stmt 0 view .LVU445
 1562 005c 2968     		ldr	r1, [r5]	@ prephitmp_6, MEM[(struct EventGroup_t *)xEventGroup_3(D)].uxEventBits
 1563              	.L100:
 1564              	.LVL102:
 1565              	@ ../../kernel/FreeRTOS/Source/event_groups.c:530: 		while( pxListItem != pxListEnd )
 530:../../kernel/FreeRTOS/Source/event_groups.c **** 		{
 1566              		.loc 1 530 8 view .LVU446
 1567 005e 4745     		cmp	r7, r8	@ pxListEnd, pxListItem
 1568 0060 4046     		mov	r0, r8	@ pxListItem, pxNext
 1569 0062 0DD0     		beq	.L111		@,
 1570              	.LVL103:
 1571              	.L102:
 532:../../kernel/FreeRTOS/Source/event_groups.c **** 			uxBitsWaitedFor = listGET_LIST_ITEM_VALUE( pxListItem );
 1572              		.loc 1 532 4 is_stmt 1 view .LVU447
 543:../../kernel/FreeRTOS/Source/event_groups.c **** 				{
 1573              		.loc 1 543 5 view .LVU448
 552:../../kernel/FreeRTOS/Source/event_groups.c **** 			{
 1574              		.loc 1 552 9 view .LVU449
 565:../../kernel/FreeRTOS/Source/event_groups.c **** 				{
 1575              		.loc 1 565 5 view .LVU450
 1576              	@ ../../kernel/FreeRTOS/Source/event_groups.c:532: 			pxNext = listGET_NEXT( pxListItem );
 532:../../kernel/FreeRTOS/Source/event_groups.c **** 			uxBitsWaitedFor = listGET_LIST_ITEM_VALUE( pxListItem );
 1577              		.loc 1 532 11 is_stmt 0 view .LVU451
 1578 0064 D0E90028 		ldrd	r2, r8, [r0]	@ uxBitsWaitedFor, pxNext, pxListItem
 1579              	.LVL104:
 533:../../kernel/FreeRTOS/Source/event_groups.c **** 			xMatchFound = pdFALSE;
 1580              		.loc 1 533 4 is_stmt 1 view .LVU452
 534:../../kernel/FreeRTOS/Source/event_groups.c **** 
 1581              		.loc 1 534 4 view .LVU453
 537:../../kernel/FreeRTOS/Source/event_groups.c **** 			uxBitsWaitedFor &= ~eventEVENT_BITS_CONTROL_BYTES;
 1582              		.loc 1 537 4 view .LVU454
 538:../../kernel/FreeRTOS/Source/event_groups.c **** 
 1583              		.loc 1 538 4 view .LVU455
 1584              	@ ../../kernel/FreeRTOS/Source/event_groups.c:538: 			uxBitsWaitedFor &= ~eventEVENT_BITS_CONTROL_B
 538:../../kernel/FreeRTOS/Source/event_groups.c **** 
 1585              		.loc 1 538 20 is_stmt 0 view .LVU456
 1586 0068 22F07F43 		bic	r3, r2, #-16777216	@ uxBitsWaitedFor, uxBitsWaitedFor,
 1587              	.LVL105:
 540:../../kernel/FreeRTOS/Source/event_groups.c **** 			{
 1588              		.loc 1 540 4 is_stmt 1 view .LVU457
 1589              	@ ../../kernel/FreeRTOS/Source/event_groups.c:540: 			if( ( uxControlBits & eventWAIT_FOR_ALL_BITS 
 540:../../kernel/FreeRTOS/Source/event_groups.c **** 			{
 1590              		.loc 1 540 6 is_stmt 0 view .LVU458
 1591 006c 12F0806F 		tst	r2, #67108864	@ uxBitsWaitedFor,
 1592 0070 01EA0306 		and	r6, r1, r3	@ _54, prephitmp_6, uxBitsWaitedFor
ARM GAS  /tmp/ccXZYLDn.s 			page 52


 1593 0074 EAD0     		beq	.L112		@,
 1594              	@ ../../kernel/FreeRTOS/Source/event_groups.c:552: 			else if( ( uxBitsWaitedFor & pxEventBits->uxE
 552:../../kernel/FreeRTOS/Source/event_groups.c **** 			{
 1595              		.loc 1 552 11 view .LVU459
 1596 0076 B342     		cmp	r3, r6	@ uxBitsWaitedFor, _54
 1597 0078 E9D0     		beq	.L99		@,
 1598              	.LVL106:
 1599              	@ ../../kernel/FreeRTOS/Source/event_groups.c:530: 		while( pxListItem != pxListEnd )
 530:../../kernel/FreeRTOS/Source/event_groups.c **** 		{
 1600              		.loc 1 530 8 view .LVU460
 1601 007a 4745     		cmp	r7, r8	@ pxListEnd, pxListItem
 1602 007c 4046     		mov	r0, r8	@ pxListItem, pxNext
 1603 007e F1D1     		bne	.L102		@,
 1604              	.LVL107:
 1605              	.L111:
 530:../../kernel/FreeRTOS/Source/event_groups.c **** 		{
 1606              		.loc 1 530 8 view .LVU461
 1607 0080 21EA0401 		bic	r1, r1, r4	@ prephitmp_6, prephitmp_6, uxBitsToClear
 1608              	.LVL108:
 1609              	.L97:
 590:../../kernel/FreeRTOS/Source/event_groups.c **** 	}
 1610              		.loc 1 590 3 is_stmt 1 view .LVU462
 1611              	@ ../../kernel/FreeRTOS/Source/event_groups.c:590: 		pxEventBits->uxEventBits &= ~uxBitsToClear;
 590:../../kernel/FreeRTOS/Source/event_groups.c **** 	}
 1612              		.loc 1 590 28 is_stmt 0 view .LVU463
 1613 0084 2960     		str	r1, [r5]	@ prephitmp_6, MEM[(struct EventGroup_t *)xEventGroup_3(D)].uxEventBits
 592:../../kernel/FreeRTOS/Source/event_groups.c **** 
 1614              		.loc 1 592 2 is_stmt 1 view .LVU464
 1615              	@ ../../kernel/FreeRTOS/Source/event_groups.c:592: 	( void ) xTaskResumeAll();
 592:../../kernel/FreeRTOS/Source/event_groups.c **** 
 1616              		.loc 1 592 11 is_stmt 0 view .LVU465
 1617 0086 FFF7FEFF 		bl	xTaskResumeAll		@
 1618              	.LVL109:
 594:../../kernel/FreeRTOS/Source/event_groups.c **** }
 1619              		.loc 1 594 2 is_stmt 1 view .LVU466
 594:../../kernel/FreeRTOS/Source/event_groups.c **** }
 1620              		.loc 1 594 2 is_stmt 0 view .LVU467
 1621              	.LBE170:
 1622              	.LBE169:
 1623              	@ ../../kernel/FreeRTOS/Source/event_groups.c:595: }
 595:../../kernel/FreeRTOS/Source/event_groups.c **** /*-----------------------------------------------------------*/
 1624              		.loc 1 595 1 view .LVU468
 1625 008a 2868     		ldr	r0, [r5]	@, MEM[(struct EventGroup_t *)xEventGroup_3(D)].uxEventBits
 1626 008c BDE8F081 		pop	{r4, r5, r6, r7, r8, pc}	@
 595:../../kernel/FreeRTOS/Source/event_groups.c **** /*-----------------------------------------------------------*/
 1627              		.loc 1 595 1 view .LVU469
 1628              		.cfi_endproc
 1629              	.LFE11:
 1630              		.size	xEventGroupSetBits, .-xEventGroupSetBits
 1631              		.section	.text.xEventGroupSync,"ax",%progbits
 1632              		.align	1
 1633              		.p2align 2,,3
 1634              		.global	xEventGroupSync
 1635              		.syntax unified
 1636              		.thumb
 1637              		.thumb_func
 1638              		.fpu fpv4-sp-d16
ARM GAS  /tmp/ccXZYLDn.s 			page 53


 1639              		.type	xEventGroupSync, %function
 1640              	xEventGroupSync:
 1641              	.LVL110:
 1642              	.LFB6:
 177:../../kernel/FreeRTOS/Source/event_groups.c **** EventBits_t uxOriginalBitValue, uxReturn;
 1643              		.loc 1 177 1 is_stmt 1 view -0
 1644              		.cfi_startproc
 1645              		@ args = 0, pretend = 0, frame = 0
 1646              		@ frame_needed = 0, uses_anonymous_args = 0
 178:../../kernel/FreeRTOS/Source/event_groups.c **** EventGroup_t *pxEventBits = ( EventGroup_t * ) xEventGroup;
 1647              		.loc 1 178 1 view .LVU471
 179:../../kernel/FreeRTOS/Source/event_groups.c **** BaseType_t xAlreadyYielded;
 1648              		.loc 1 179 1 view .LVU472
 180:../../kernel/FreeRTOS/Source/event_groups.c **** BaseType_t xTimeoutOccurred = pdFALSE;
 1649              		.loc 1 180 1 view .LVU473
 181:../../kernel/FreeRTOS/Source/event_groups.c **** 
 1650              		.loc 1 181 1 view .LVU474
 183:../../kernel/FreeRTOS/Source/event_groups.c **** 	configASSERT( uxBitsToWaitFor != 0 );
 1651              		.loc 1 183 2 view .LVU475
 1652 0000 12F07F4F 		tst	r2, #-16777216	@ uxBitsToWaitFor,
 1653 0004 08D0     		beq	.L114		@,
 183:../../kernel/FreeRTOS/Source/event_groups.c **** 	configASSERT( uxBitsToWaitFor != 0 );
 1654              		.loc 1 183 2 view .LVU476
 1655              	.LBB171:
 1656              	.LBI171:
 191:../../kernel/FreeRTOS/Source/portable/GCC/ARM_CM4F/portmacro.h **** {
 1657              		.loc 2 191 30 view .LVU477
 1658              	.LBB172:
 193:../../kernel/FreeRTOS/Source/portable/GCC/ARM_CM4F/portmacro.h **** 
 1659              		.loc 2 193 1 view .LVU478
 195:../../kernel/FreeRTOS/Source/portable/GCC/ARM_CM4F/portmacro.h **** 	(
 1660              		.loc 2 195 2 view .LVU479
 1661              		.syntax unified
 1662              	@ 195 "../../kernel/FreeRTOS/Source/portable/GCC/ARM_CM4F/portmacro.h" 1
 1663 0006 4FF0A003 			mov r3, #160													@ ulNewBASEPRI,
 1664 000a 83F31188 		msr basepri, r3												@ ulNewBASEPRI
 1665 000e BFF36F8F 		isb														
 1666 0012 BFF34F8F 		dsb														
 1667              	
 1668              	@ 0 "" 2
 1669              	.LVL111:
 1670              		.thumb
 1671              		.syntax unified
 1672              	.L115:
 195:../../kernel/FreeRTOS/Source/portable/GCC/ARM_CM4F/portmacro.h **** 	(
 1673              		.loc 2 195 2 is_stmt 0 view .LVU480
 1674              	.LBE172:
 1675              	.LBE171:
 183:../../kernel/FreeRTOS/Source/event_groups.c **** 	configASSERT( uxBitsToWaitFor != 0 );
 1676              		.loc 1 183 2 is_stmt 1 discriminator 1 view .LVU481
 183:../../kernel/FreeRTOS/Source/event_groups.c **** 	configASSERT( uxBitsToWaitFor != 0 );
 1677              		.loc 1 183 2 discriminator 1 view .LVU482
 183:../../kernel/FreeRTOS/Source/event_groups.c **** 	configASSERT( uxBitsToWaitFor != 0 );
 1678              		.loc 1 183 2 discriminator 1 view .LVU483
 183:../../kernel/FreeRTOS/Source/event_groups.c **** 	configASSERT( uxBitsToWaitFor != 0 );
 1679              		.loc 1 183 2 discriminator 1 view .LVU484
 1680 0016 FEE7     		b	.L115		@
ARM GAS  /tmp/ccXZYLDn.s 			page 54


 1681              	.LVL112:
 1682              	.L114:
 183:../../kernel/FreeRTOS/Source/event_groups.c **** 	configASSERT( uxBitsToWaitFor != 0 );
 1683              		.loc 1 183 74 discriminator 2 view .LVU485
 184:../../kernel/FreeRTOS/Source/event_groups.c **** 	#if ( ( INCLUDE_xTaskGetSchedulerState == 1 ) || ( configUSE_TIMERS == 1 ) )
 1684              		.loc 1 184 2 discriminator 2 view .LVU486
 1685 0018 42B9     		cbnz	r2, .L116	@ uxBitsToWaitFor,
 184:../../kernel/FreeRTOS/Source/event_groups.c **** 	#if ( ( INCLUDE_xTaskGetSchedulerState == 1 ) || ( configUSE_TIMERS == 1 ) )
 1686              		.loc 1 184 2 view .LVU487
 1687              	.LBB173:
 1688              	.LBI173:
 191:../../kernel/FreeRTOS/Source/portable/GCC/ARM_CM4F/portmacro.h **** {
 1689              		.loc 2 191 30 view .LVU488
 1690              	.LBB174:
 193:../../kernel/FreeRTOS/Source/portable/GCC/ARM_CM4F/portmacro.h **** 
 1691              		.loc 2 193 1 view .LVU489
 195:../../kernel/FreeRTOS/Source/portable/GCC/ARM_CM4F/portmacro.h **** 	(
 1692              		.loc 2 195 2 view .LVU490
 1693              		.syntax unified
 1694              	@ 195 "../../kernel/FreeRTOS/Source/portable/GCC/ARM_CM4F/portmacro.h" 1
 1695 001a 4FF0A003 			mov r3, #160													@ ulNewBASEPRI,
 1696 001e 83F31188 		msr basepri, r3												@ ulNewBASEPRI
 1697 0022 BFF36F8F 		isb														
 1698 0026 BFF34F8F 		dsb														
 1699              	
 1700              	@ 0 "" 2
 1701              	.LVL113:
 1702              		.thumb
 1703              		.syntax unified
 1704              	.L117:
 195:../../kernel/FreeRTOS/Source/portable/GCC/ARM_CM4F/portmacro.h **** 	(
 1705              		.loc 2 195 2 is_stmt 0 view .LVU491
 1706              	.LBE174:
 1707              	.LBE173:
 184:../../kernel/FreeRTOS/Source/event_groups.c **** 	#if ( ( INCLUDE_xTaskGetSchedulerState == 1 ) || ( configUSE_TIMERS == 1 ) )
 1708              		.loc 1 184 2 is_stmt 1 discriminator 2 view .LVU492
 184:../../kernel/FreeRTOS/Source/event_groups.c **** 	#if ( ( INCLUDE_xTaskGetSchedulerState == 1 ) || ( configUSE_TIMERS == 1 ) )
 1709              		.loc 1 184 2 discriminator 2 view .LVU493
 184:../../kernel/FreeRTOS/Source/event_groups.c **** 	#if ( ( INCLUDE_xTaskGetSchedulerState == 1 ) || ( configUSE_TIMERS == 1 ) )
 1710              		.loc 1 184 2 discriminator 2 view .LVU494
 184:../../kernel/FreeRTOS/Source/event_groups.c **** 	#if ( ( INCLUDE_xTaskGetSchedulerState == 1 ) || ( configUSE_TIMERS == 1 ) )
 1711              		.loc 1 184 2 discriminator 2 view .LVU495
 1712 002a FEE7     		b	.L117		@
 1713              	.LVL114:
 1714              	.L116:
 184:../../kernel/FreeRTOS/Source/event_groups.c **** 	#if ( ( INCLUDE_xTaskGetSchedulerState == 1 ) || ( configUSE_TIMERS == 1 ) )
 1715              		.loc 1 184 38 discriminator 2 view .LVU496
 187:../../kernel/FreeRTOS/Source/event_groups.c **** 	}
 1716              		.loc 1 187 3 discriminator 2 view .LVU497
 1717              	@ ../../kernel/FreeRTOS/Source/event_groups.c:177: {
 177:../../kernel/FreeRTOS/Source/event_groups.c **** EventBits_t uxOriginalBitValue, uxReturn;
 1718              		.loc 1 177 1 is_stmt 0 discriminator 2 view .LVU498
 1719 002c 2DE9F041 		push	{r4, r5, r6, r7, r8, lr}	@
 1720              		.cfi_def_cfa_offset 24
 1721              		.cfi_offset 4, -24
 1722              		.cfi_offset 5, -20
 1723              		.cfi_offset 6, -16
ARM GAS  /tmp/ccXZYLDn.s 			page 55


 1724              		.cfi_offset 7, -12
 1725              		.cfi_offset 8, -8
 1726              		.cfi_offset 14, -4
 1727 0030 1F46     		mov	r7, r3	@ xTicksToWait, xTicksToWait
 1728 0032 8846     		mov	r8, r1	@ uxBitsToSet, uxBitsToSet
 1729 0034 0646     		mov	r6, r0	@ xEventGroup, xEventGroup
 1730 0036 1546     		mov	r5, r2	@ uxBitsToWaitFor, uxBitsToWaitFor
 1731              	@ ../../kernel/FreeRTOS/Source/event_groups.c:187: 		configASSERT( !( ( xTaskGetSchedulerState() ==
 187:../../kernel/FreeRTOS/Source/event_groups.c **** 	}
 1732              		.loc 1 187 3 discriminator 2 view .LVU499
 1733 0038 FFF7FEFF 		bl	xTaskGetSchedulerState		@
 1734              	.LVL115:
 187:../../kernel/FreeRTOS/Source/event_groups.c **** 	}
 1735              		.loc 1 187 3 discriminator 2 view .LVU500
 1736 003c C0B9     		cbnz	r0, .L118	@,
 187:../../kernel/FreeRTOS/Source/event_groups.c **** 	}
 1737              		.loc 1 187 3 discriminator 2 view .LVU501
 1738 003e 47B1     		cbz	r7, .L119	@ xTicksToWait,
 187:../../kernel/FreeRTOS/Source/event_groups.c **** 	}
 1739              		.loc 1 187 3 is_stmt 1 view .LVU502
 1740              	.LBB175:
 1741              	.LBI175:
 191:../../kernel/FreeRTOS/Source/portable/GCC/ARM_CM4F/portmacro.h **** {
 1742              		.loc 2 191 30 view .LVU503
 1743              	.LBB176:
 193:../../kernel/FreeRTOS/Source/portable/GCC/ARM_CM4F/portmacro.h **** 
 1744              		.loc 2 193 1 view .LVU504
 195:../../kernel/FreeRTOS/Source/portable/GCC/ARM_CM4F/portmacro.h **** 	(
 1745              		.loc 2 195 2 view .LVU505
 1746              		.syntax unified
 1747              	@ 195 "../../kernel/FreeRTOS/Source/portable/GCC/ARM_CM4F/portmacro.h" 1
 1748 0040 4FF0A003 			mov r3, #160													@ ulNewBASEPRI,
 1749 0044 83F31188 		msr basepri, r3												@ ulNewBASEPRI
 1750 0048 BFF36F8F 		isb														
 1751 004c BFF34F8F 		dsb														
 1752              	
 1753              	@ 0 "" 2
 1754              	.LVL116:
 1755              		.thumb
 1756              		.syntax unified
 1757              	.L120:
 195:../../kernel/FreeRTOS/Source/portable/GCC/ARM_CM4F/portmacro.h **** 	(
 1758              		.loc 2 195 2 is_stmt 0 view .LVU506
 1759              	.LBE176:
 1760              	.LBE175:
 187:../../kernel/FreeRTOS/Source/event_groups.c **** 	}
 1761              		.loc 1 187 3 is_stmt 1 discriminator 3 view .LVU507
 187:../../kernel/FreeRTOS/Source/event_groups.c **** 	}
 1762              		.loc 1 187 3 discriminator 3 view .LVU508
 187:../../kernel/FreeRTOS/Source/event_groups.c **** 	}
 1763              		.loc 1 187 3 discriminator 3 view .LVU509
 187:../../kernel/FreeRTOS/Source/event_groups.c **** 	}
 1764              		.loc 1 187 3 discriminator 3 view .LVU510
 1765 0050 FEE7     		b	.L120		@
 1766              	.L119:
 187:../../kernel/FreeRTOS/Source/event_groups.c **** 	}
 1767              		.loc 1 187 104 view .LVU511
ARM GAS  /tmp/ccXZYLDn.s 			page 56


 191:../../kernel/FreeRTOS/Source/event_groups.c **** 	{
 1768              		.loc 1 191 2 view .LVU512
 1769 0052 FFF7FEFF 		bl	vTaskSuspendAll		@
 1770              	.LVL117:
 193:../../kernel/FreeRTOS/Source/event_groups.c **** 
 1771              		.loc 1 193 3 view .LVU513
 1772              	@ ../../kernel/FreeRTOS/Source/event_groups.c:193: 		uxOriginalBitValue = pxEventBits->uxEventBits;
 193:../../kernel/FreeRTOS/Source/event_groups.c **** 
 1773              		.loc 1 193 22 is_stmt 0 view .LVU514
 1774 0056 3468     		ldr	r4, [r6]	@ uxOriginalBitValue, MEM[(struct EventGroup_t *)xEventGroup_23(D)].uxEventBits
 1775              	.LVL118:
 195:../../kernel/FreeRTOS/Source/event_groups.c **** 
 1776              		.loc 1 195 3 is_stmt 1 view .LVU515
 1777              	@ ../../kernel/FreeRTOS/Source/event_groups.c:195: 		( void ) xEventGroupSetBits( xEventGroup, uxBi
 195:../../kernel/FreeRTOS/Source/event_groups.c **** 
 1778              		.loc 1 195 12 is_stmt 0 view .LVU516
 1779 0058 4146     		mov	r1, r8	@, uxBitsToSet
 1780              	@ ../../kernel/FreeRTOS/Source/event_groups.c:197: 		if( ( ( uxOriginalBitValue | uxBitsToSet ) & u
 197:../../kernel/FreeRTOS/Source/event_groups.c **** 		{
 1781              		.loc 1 197 30 view .LVU517
 1782 005a 0C43     		orrs	r4, r4, r1	@, <retval>, uxOriginalBitValue,
 1783              	.LVL119:
 1784              	@ ../../kernel/FreeRTOS/Source/event_groups.c:195: 		( void ) xEventGroupSetBits( xEventGroup, uxBi
 195:../../kernel/FreeRTOS/Source/event_groups.c **** 
 1785              		.loc 1 195 12 view .LVU518
 1786 005c 3046     		mov	r0, r6	@, xEventGroup
 1787 005e FFF7FEFF 		bl	xEventGroupSetBits		@
 1788              	.LVL120:
 197:../../kernel/FreeRTOS/Source/event_groups.c **** 		{
 1789              		.loc 1 197 3 is_stmt 1 view .LVU519
 1790              	@ ../../kernel/FreeRTOS/Source/event_groups.c:197: 		if( ( ( uxOriginalBitValue | uxBitsToSet ) & u
 197:../../kernel/FreeRTOS/Source/event_groups.c **** 		{
 1791              		.loc 1 197 5 is_stmt 0 view .LVU520
 1792 0062 35EA0403 		bics	r3, r5, r4	@ tmp162, uxBitsToWaitFor, <retval>
 1793 0066 29D0     		beq	.L128		@,
 1794              	.L123:
 229:../../kernel/FreeRTOS/Source/event_groups.c **** 				xTimeoutOccurred = pdTRUE;
 1795              		.loc 1 229 5 is_stmt 1 view .LVU521
 1796              	@ ../../kernel/FreeRTOS/Source/event_groups.c:229: 				uxReturn = pxEventBits->uxEventBits;
 229:../../kernel/FreeRTOS/Source/event_groups.c **** 				xTimeoutOccurred = pdTRUE;
 1797              		.loc 1 229 14 is_stmt 0 view .LVU522
 1798 0068 3468     		ldr	r4, [r6]	@ <retval>, MEM[(struct EventGroup_t *)xEventGroup_23(D)].uxEventBits
 1799              	.LVL121:
 230:../../kernel/FreeRTOS/Source/event_groups.c **** 			}
 1800              		.loc 1 230 5 is_stmt 1 view .LVU523
 234:../../kernel/FreeRTOS/Source/event_groups.c **** 
 1801              		.loc 1 234 2 view .LVU524
 1802              	@ ../../kernel/FreeRTOS/Source/event_groups.c:234: 	xAlreadyYielded = xTaskResumeAll();
 234:../../kernel/FreeRTOS/Source/event_groups.c **** 
 1803              		.loc 1 234 20 is_stmt 0 view .LVU525
 1804 006a FFF7FEFF 		bl	xTaskResumeAll		@
 1805              	.LVL122:
 236:../../kernel/FreeRTOS/Source/event_groups.c **** 	{
 1806              		.loc 1 236 2 is_stmt 1 view .LVU526
 1807 006e 2BE0     		b	.L113		@
 1808              	.LVL123:
 1809              	.L118:
ARM GAS  /tmp/ccXZYLDn.s 			page 57


 187:../../kernel/FreeRTOS/Source/event_groups.c **** 	}
 1810              		.loc 1 187 104 discriminator 8 view .LVU527
 191:../../kernel/FreeRTOS/Source/event_groups.c **** 	{
 1811              		.loc 1 191 2 discriminator 8 view .LVU528
 1812 0070 FFF7FEFF 		bl	vTaskSuspendAll		@
 1813              	.LVL124:
 193:../../kernel/FreeRTOS/Source/event_groups.c **** 
 1814              		.loc 1 193 3 discriminator 8 view .LVU529
 1815              	@ ../../kernel/FreeRTOS/Source/event_groups.c:193: 		uxOriginalBitValue = pxEventBits->uxEventBits;
 193:../../kernel/FreeRTOS/Source/event_groups.c **** 
 1816              		.loc 1 193 22 is_stmt 0 discriminator 8 view .LVU530
 1817 0074 3468     		ldr	r4, [r6]	@ uxOriginalBitValue, MEM[(struct EventGroup_t *)xEventGroup_23(D)].uxEventBits
 1818              	.LVL125:
 195:../../kernel/FreeRTOS/Source/event_groups.c **** 
 1819              		.loc 1 195 3 is_stmt 1 discriminator 8 view .LVU531
 1820              	@ ../../kernel/FreeRTOS/Source/event_groups.c:195: 		( void ) xEventGroupSetBits( xEventGroup, uxBi
 195:../../kernel/FreeRTOS/Source/event_groups.c **** 
 1821              		.loc 1 195 12 is_stmt 0 discriminator 8 view .LVU532
 1822 0076 4146     		mov	r1, r8	@, uxBitsToSet
 1823              	@ ../../kernel/FreeRTOS/Source/event_groups.c:197: 		if( ( ( uxOriginalBitValue | uxBitsToSet ) & u
 197:../../kernel/FreeRTOS/Source/event_groups.c **** 		{
 1824              		.loc 1 197 30 discriminator 8 view .LVU533
 1825 0078 0C43     		orrs	r4, r4, r1	@, <retval>, uxOriginalBitValue,
 1826              	.LVL126:
 1827              	@ ../../kernel/FreeRTOS/Source/event_groups.c:195: 		( void ) xEventGroupSetBits( xEventGroup, uxBi
 195:../../kernel/FreeRTOS/Source/event_groups.c **** 
 1828              		.loc 1 195 12 discriminator 8 view .LVU534
 1829 007a 3046     		mov	r0, r6	@, xEventGroup
 1830 007c FFF7FEFF 		bl	xEventGroupSetBits		@
 1831              	.LVL127:
 197:../../kernel/FreeRTOS/Source/event_groups.c **** 		{
 1832              		.loc 1 197 3 is_stmt 1 discriminator 8 view .LVU535
 1833              	@ ../../kernel/FreeRTOS/Source/event_groups.c:197: 		if( ( ( uxOriginalBitValue | uxBitsToSet ) & u
 197:../../kernel/FreeRTOS/Source/event_groups.c **** 		{
 1834              		.loc 1 197 5 is_stmt 0 discriminator 8 view .LVU536
 1835 0080 35EA0403 		bics	r3, r5, r4	@ tmp160, uxBitsToWaitFor, <retval>
 1836 0084 1AD0     		beq	.L128		@,
 210:../../kernel/FreeRTOS/Source/event_groups.c **** 			{
 1837              		.loc 1 210 4 is_stmt 1 view .LVU537
 1838              	@ ../../kernel/FreeRTOS/Source/event_groups.c:210: 			if( xTicksToWait != ( TickType_t ) 0 )
 210:../../kernel/FreeRTOS/Source/event_groups.c **** 			{
 1839              		.loc 1 210 6 is_stmt 0 view .LVU538
 1840 0086 002F     		cmp	r7, #0	@ xTicksToWait
 1841 0088 EED0     		beq	.L123	@
 212:../../kernel/FreeRTOS/Source/event_groups.c **** 
 1842              		.loc 1 212 77 is_stmt 1 view .LVU539
 217:../../kernel/FreeRTOS/Source/event_groups.c **** 
 1843              		.loc 1 217 5 view .LVU540
 1844 008a 3A46     		mov	r2, r7	@, xTicksToWait
 1845 008c 45F0A061 		orr	r1, r5, #83886080	@, uxBitsToWaitFor,
 1846 0090 301D     		adds	r0, r6, #4	@, xEventGroup,
 1847 0092 FFF7FEFF 		bl	vTaskPlaceOnUnorderedEventList		@
 1848              	.LVL128:
 223:../../kernel/FreeRTOS/Source/event_groups.c **** 			}
 1849              		.loc 1 223 5 view .LVU541
 234:../../kernel/FreeRTOS/Source/event_groups.c **** 
 1850              		.loc 1 234 2 view .LVU542
ARM GAS  /tmp/ccXZYLDn.s 			page 58


 1851              	@ ../../kernel/FreeRTOS/Source/event_groups.c:234: 	xAlreadyYielded = xTaskResumeAll();
 234:../../kernel/FreeRTOS/Source/event_groups.c **** 
 1852              		.loc 1 234 20 is_stmt 0 view .LVU543
 1853 0096 FFF7FEFF 		bl	xTaskResumeAll		@
 1854              	.LVL129:
 236:../../kernel/FreeRTOS/Source/event_groups.c **** 	{
 1855              		.loc 1 236 2 is_stmt 1 view .LVU544
 238:../../kernel/FreeRTOS/Source/event_groups.c **** 		{
 1856              		.loc 1 238 3 view .LVU545
 1857              	@ ../../kernel/FreeRTOS/Source/event_groups.c:238: 		if( xAlreadyYielded == pdFALSE )
 238:../../kernel/FreeRTOS/Source/event_groups.c **** 		{
 1858              		.loc 1 238 5 is_stmt 0 view .LVU546
 1859 009a 38B9     		cbnz	r0, .L125	@,
 240:../../kernel/FreeRTOS/Source/event_groups.c **** 		}
 1860              		.loc 1 240 4 is_stmt 1 view .LVU547
 1861 009c 124B     		ldr	r3, .L135	@ tmp145,
 1862 009e 4FF08052 		mov	r2, #268435456	@ tmp146,
 1863 00a2 1A60     		str	r2, [r3]	@ tmp146, MEM[(volatile uint32_t *)3758157060B]
 240:../../kernel/FreeRTOS/Source/event_groups.c **** 		}
 1864              		.loc 1 240 4 view .LVU548
 1865              		.syntax unified
 1866              	@ 240 "../../kernel/FreeRTOS/Source/event_groups.c" 1
 1867 00a4 BFF34F8F 		dsb	
 1868              	@ 0 "" 2
 240:../../kernel/FreeRTOS/Source/event_groups.c **** 		}
 1869              		.loc 1 240 4 view .LVU549
 1870              	@ 240 "../../kernel/FreeRTOS/Source/event_groups.c" 1
 1871 00a8 BFF36F8F 		isb
 1872              	@ 0 "" 2
 240:../../kernel/FreeRTOS/Source/event_groups.c **** 		}
 1873              		.loc 1 240 26 view .LVU550
 1874              		.thumb
 1875              		.syntax unified
 1876              	.L125:
 244:../../kernel/FreeRTOS/Source/event_groups.c **** 		}
 1877              		.loc 1 244 28 view .LVU551
 251:../../kernel/FreeRTOS/Source/event_groups.c **** 
 1878              		.loc 1 251 3 view .LVU552
 1879              	@ ../../kernel/FreeRTOS/Source/event_groups.c:251: 		uxReturn = uxTaskResetEventItemValue();
 251:../../kernel/FreeRTOS/Source/event_groups.c **** 
 1880              		.loc 1 251 14 is_stmt 0 view .LVU553
 1881 00ac FFF7FEFF 		bl	uxTaskResetEventItemValue		@
 1882              	.LVL130:
 1883              	@ ../../kernel/FreeRTOS/Source/event_groups.c:253: 		if( ( uxReturn & eventUNBLOCKED_DUE_TO_BIT_SET
 253:../../kernel/FreeRTOS/Source/event_groups.c **** 		{
 1884              		.loc 1 253 5 view .LVU554
 1885 00b0 8301     		lsls	r3, r0, #6	@, uxReturn,
 1886              	@ ../../kernel/FreeRTOS/Source/event_groups.c:251: 		uxReturn = uxTaskResetEventItemValue();
 251:../../kernel/FreeRTOS/Source/event_groups.c **** 
 1887              		.loc 1 251 14 view .LVU555
 1888 00b2 0446     		mov	r4, r0	@ uxReturn,
 1889              	.LVL131:
 253:../../kernel/FreeRTOS/Source/event_groups.c **** 		{
 1890              		.loc 1 253 3 is_stmt 1 view .LVU556
 1891              	@ ../../kernel/FreeRTOS/Source/event_groups.c:253: 		if( ( uxReturn & eventUNBLOCKED_DUE_TO_BIT_SET
 253:../../kernel/FreeRTOS/Source/event_groups.c **** 		{
 1892              		.loc 1 253 5 is_stmt 0 view .LVU557
ARM GAS  /tmp/ccXZYLDn.s 			page 59


 1893 00b4 0BD5     		bpl	.L134		@,
 1894              	.LVL132:
 1895              	.L126:
 280:../../kernel/FreeRTOS/Source/event_groups.c **** 
 1896              		.loc 1 280 3 is_stmt 1 view .LVU558
 284:../../kernel/FreeRTOS/Source/event_groups.c **** 	}
 1897              		.loc 1 284 3 view .LVU559
 1898              	@ ../../kernel/FreeRTOS/Source/event_groups.c:284: 		uxReturn &= ~eventEVENT_BITS_CONTROL_BYTES;
 284:../../kernel/FreeRTOS/Source/event_groups.c **** 	}
 1899              		.loc 1 284 12 is_stmt 0 view .LVU560
 1900 00b6 24F07F44 		bic	r4, r4, #-16777216	@ <retval>, uxReturn,
 1901              	.LVL133:
 287:../../kernel/FreeRTOS/Source/event_groups.c **** 
 1902              		.loc 1 287 2 is_stmt 1 view .LVU561
 290:../../kernel/FreeRTOS/Source/event_groups.c **** 
 1903              		.loc 1 290 2 view .LVU562
 292:../../kernel/FreeRTOS/Source/event_groups.c **** }
 1904              		.loc 1 292 2 view .LVU563
 1905              	@ ../../kernel/FreeRTOS/Source/event_groups.c:292: 	return uxReturn;
 292:../../kernel/FreeRTOS/Source/event_groups.c **** }
 1906              		.loc 1 292 9 is_stmt 0 view .LVU564
 1907 00ba 05E0     		b	.L113		@
 1908              	.LVL134:
 1909              	.L128:
 200:../../kernel/FreeRTOS/Source/event_groups.c **** 
 1910              		.loc 1 200 4 is_stmt 1 view .LVU565
 204:../../kernel/FreeRTOS/Source/event_groups.c **** 
 1911              		.loc 1 204 4 view .LVU566
 1912              	@ ../../kernel/FreeRTOS/Source/event_groups.c:204: 			pxEventBits->uxEventBits &= ~uxBitsToWaitFor;
 204:../../kernel/FreeRTOS/Source/event_groups.c **** 
 1913              		.loc 1 204 29 is_stmt 0 view .LVU567
 1914 00bc 3368     		ldr	r3, [r6]	@ MEM[(struct EventGroup_t *)xEventGroup_23(D)].uxEventBits, MEM[(struct EventGroup_t
 1915 00be 23EA0503 		bic	r3, r3, r5	@ tmp141, MEM[(struct EventGroup_t *)xEventGroup_23(D)].uxEventBits, uxBitsToWaitFo
 1916 00c2 3360     		str	r3, [r6]	@ tmp141, MEM[(struct EventGroup_t *)xEventGroup_23(D)].uxEventBits
 206:../../kernel/FreeRTOS/Source/event_groups.c **** 		}
 1917              		.loc 1 206 4 is_stmt 1 view .LVU568
 1918              	.LVL135:
 234:../../kernel/FreeRTOS/Source/event_groups.c **** 
 1919              		.loc 1 234 2 view .LVU569
 1920              	@ ../../kernel/FreeRTOS/Source/event_groups.c:234: 	xAlreadyYielded = xTaskResumeAll();
 234:../../kernel/FreeRTOS/Source/event_groups.c **** 
 1921              		.loc 1 234 20 is_stmt 0 view .LVU570
 1922 00c4 FFF7FEFF 		bl	xTaskResumeAll		@
 1923              	.LVL136:
 236:../../kernel/FreeRTOS/Source/event_groups.c **** 	{
 1924              		.loc 1 236 2 is_stmt 1 view .LVU571
 1925              	.L113:
 1926              	@ ../../kernel/FreeRTOS/Source/event_groups.c:293: }
 293:../../kernel/FreeRTOS/Source/event_groups.c **** /*-----------------------------------------------------------*/
 1927              		.loc 1 293 1 is_stmt 0 view .LVU572
 1928 00c8 2046     		mov	r0, r4	@, <retval>
 1929 00ca BDE8F081 		pop	{r4, r5, r6, r7, r8, pc}	@
 1930              	.LVL137:
 1931              	.L134:
 256:../../kernel/FreeRTOS/Source/event_groups.c **** 			{
 1932              		.loc 1 256 4 is_stmt 1 view .LVU573
 1933 00ce FFF7FEFF 		bl	vPortEnterCritical		@
ARM GAS  /tmp/ccXZYLDn.s 			page 60


 1934              	.LVL138:
 258:../../kernel/FreeRTOS/Source/event_groups.c **** 
 1935              		.loc 1 258 5 view .LVU574
 1936              	@ ../../kernel/FreeRTOS/Source/event_groups.c:258: 				uxReturn = pxEventBits->uxEventBits;
 258:../../kernel/FreeRTOS/Source/event_groups.c **** 
 1937              		.loc 1 258 14 is_stmt 0 view .LVU575
 1938 00d2 3468     		ldr	r4, [r6]	@ uxReturn, MEM[(struct EventGroup_t *)xEventGroup_23(D)].uxEventBits
 1939              	.LVL139:
 264:../../kernel/FreeRTOS/Source/event_groups.c **** 				{
 1940              		.loc 1 264 5 is_stmt 1 view .LVU576
 266:../../kernel/FreeRTOS/Source/event_groups.c **** 				}
 1941              		.loc 1 266 6 view .LVU577
 1942              	@ ../../kernel/FreeRTOS/Source/event_groups.c:264: 				if( ( uxReturn & uxBitsToWaitFor ) == uxBits
 264:../../kernel/FreeRTOS/Source/event_groups.c **** 				{
 1943              		.loc 1 264 7 is_stmt 0 view .LVU578
 1944 00d4 35EA0403 		bics	r3, r5, r4	@ tmp161, uxBitsToWaitFor, uxReturn
 1945              	@ ../../kernel/FreeRTOS/Source/event_groups.c:266: 					pxEventBits->uxEventBits &= ~uxBitsToWaitFo
 266:../../kernel/FreeRTOS/Source/event_groups.c **** 				}
 1946              		.loc 1 266 31 view .LVU579
 1947 00d8 04BF     		itt	eq
 1948 00da 24EA0505 		biceq	r5, r4, r5	@ tmp150, uxReturn, uxBitsToWaitFor
 1949              	.LVL140:
 266:../../kernel/FreeRTOS/Source/event_groups.c **** 				}
 1950              		.loc 1 266 31 view .LVU580
 1951 00de 3560     		streq	r5, [r6]	@ tmp150, MEM[(struct EventGroup_t *)xEventGroup_23(D)].uxEventBits
 270:../../kernel/FreeRTOS/Source/event_groups.c **** 				}
 1952              		.loc 1 270 30 is_stmt 1 view .LVU581
 273:../../kernel/FreeRTOS/Source/event_groups.c **** 
 1953              		.loc 1 273 4 view .LVU582
 1954 00e0 FFF7FEFF 		bl	vPortExitCritical		@
 1955              	.LVL141:
 275:../../kernel/FreeRTOS/Source/event_groups.c **** 		}
 1956              		.loc 1 275 4 view .LVU583
 275:../../kernel/FreeRTOS/Source/event_groups.c **** 		}
 1957              		.loc 1 275 4 is_stmt 0 view .LVU584
 1958 00e4 E7E7     		b	.L126		@
 1959              	.L136:
 1960 00e6 00BF     		.align	2
 1961              	.L135:
 1962 00e8 04ED00E0 		.word	-536810236
 1963              		.cfi_endproc
 1964              	.LFE6:
 1965              		.size	xEventGroupSync, .-xEventGroupSync
 1966              		.section	.text.vEventGroupDelete,"ax",%progbits
 1967              		.align	1
 1968              		.p2align 2,,3
 1969              		.global	vEventGroupDelete
 1970              		.syntax unified
 1971              		.thumb
 1972              		.thumb_func
 1973              		.fpu fpv4-sp-d16
 1974              		.type	vEventGroupDelete, %function
 1975              	vEventGroupDelete:
 1976              	.LVL142:
 1977              	.LFB12:
 599:../../kernel/FreeRTOS/Source/event_groups.c **** EventGroup_t *pxEventBits = ( EventGroup_t * ) xEventGroup;
 1978              		.loc 1 599 1 is_stmt 1 view -0
ARM GAS  /tmp/ccXZYLDn.s 			page 61


 1979              		.cfi_startproc
 1980              		@ args = 0, pretend = 0, frame = 0
 1981              		@ frame_needed = 0, uses_anonymous_args = 0
 600:../../kernel/FreeRTOS/Source/event_groups.c **** const List_t *pxTasksWaitingForBits = &( pxEventBits->xTasksWaitingForBits );
 1982              		.loc 1 600 1 view .LVU586
 1983              	@ ../../kernel/FreeRTOS/Source/event_groups.c:599: {
 599:../../kernel/FreeRTOS/Source/event_groups.c **** EventGroup_t *pxEventBits = ( EventGroup_t * ) xEventGroup;
 1984              		.loc 1 599 1 is_stmt 0 view .LVU587
 1985 0000 38B5     		push	{r3, r4, r5, lr}	@
 1986              		.cfi_def_cfa_offset 16
 1987              		.cfi_offset 3, -16
 1988              		.cfi_offset 4, -12
 1989              		.cfi_offset 5, -8
 1990              		.cfi_offset 14, -4
 1991              	@ ../../kernel/FreeRTOS/Source/event_groups.c:599: {
 599:../../kernel/FreeRTOS/Source/event_groups.c **** EventGroup_t *pxEventBits = ( EventGroup_t * ) xEventGroup;
 1992              		.loc 1 599 1 view .LVU588
 1993 0002 0446     		mov	r4, r0	@ xEventGroup, xEventGroup
 1994              	.LVL143:
 601:../../kernel/FreeRTOS/Source/event_groups.c **** 
 1995              		.loc 1 601 1 is_stmt 1 view .LVU589
 603:../../kernel/FreeRTOS/Source/event_groups.c **** 	{
 1996              		.loc 1 603 2 view .LVU590
 1997 0004 FFF7FEFF 		bl	vTaskSuspendAll		@
 1998              	.LVL144:
 605:../../kernel/FreeRTOS/Source/event_groups.c **** 
 1999              		.loc 1 605 41 view .LVU591
 607:../../kernel/FreeRTOS/Source/event_groups.c **** 		{
 2000              		.loc 1 607 3 view .LVU592
 2001              	@ ../../kernel/FreeRTOS/Source/event_groups.c:607: 		while( listCURRENT_LIST_LENGTH( pxTasksWaiting
 607:../../kernel/FreeRTOS/Source/event_groups.c **** 		{
 2002              		.loc 1 607 10 is_stmt 0 view .LVU593
 2003 0008 6368     		ldr	r3, [r4, #4]	@ _16, MEM[(const struct List_t *)xEventGroup_7(D) + 4B].uxNumberOfItems
 2004              	@ ../../kernel/FreeRTOS/Source/event_groups.c:607: 		while( listCURRENT_LIST_LENGTH( pxTasksWaiting
 607:../../kernel/FreeRTOS/Source/event_groups.c **** 		{
 2005              		.loc 1 607 8 view .LVU594
 2006 000a 7BB1     		cbz	r3, .L145	@ _16,
 611:../../kernel/FreeRTOS/Source/event_groups.c **** 			vTaskRemoveFromUnorderedEventList( pxTasksWaitingForBits->xListEnd.pxNext, eventUNBLOCKED_DUE_TO
 2007              		.loc 1 611 4 is_stmt 1 view .LVU595
 2008 000c 2069     		ldr	r0, [r4, #16]	@ _1, MEM[(const struct List_t *)xEventGroup_7(D) + 4B].xListEnd.pxNext
 2009 000e 04F10C05 		add	r5, r4, #12	@ _18, xEventGroup,
 2010 0012 A842     		cmp	r0, r5	@ _1, _18
 2011 0014 03D1     		bne	.L142		@,
 2012 0016 0FE0     		b	.L141		@
 2013              	.L144:
 2014 0018 2069     		ldr	r0, [r4, #16]	@ _1, MEM[(const struct List_t *)xEventGroup_7(D) + 4B].xListEnd.pxNext
 2015 001a A842     		cmp	r0, r5	@ _1, _18
 2016 001c 0CD0     		beq	.L141		@,
 2017              	.L142:
 611:../../kernel/FreeRTOS/Source/event_groups.c **** 			vTaskRemoveFromUnorderedEventList( pxTasksWaitingForBits->xListEnd.pxNext, eventUNBLOCKED_DUE_TO
 2018              		.loc 1 611 121 discriminator 2 view .LVU596
 612:../../kernel/FreeRTOS/Source/event_groups.c **** 		}
 2019              		.loc 1 612 4 discriminator 2 view .LVU597
 2020 001e 4FF00071 		mov	r1, #33554432	@,
 2021 0022 FFF7FEFF 		bl	vTaskRemoveFromUnorderedEventList		@
 2022              	.LVL145:
 611:../../kernel/FreeRTOS/Source/event_groups.c **** 			vTaskRemoveFromUnorderedEventList( pxTasksWaitingForBits->xListEnd.pxNext, eventUNBLOCKED_DUE_TO
ARM GAS  /tmp/ccXZYLDn.s 			page 62


 2023              		.loc 1 611 4 discriminator 2 view .LVU598
 2024              	@ ../../kernel/FreeRTOS/Source/event_groups.c:607: 		while( listCURRENT_LIST_LENGTH( pxTasksWaiting
 607:../../kernel/FreeRTOS/Source/event_groups.c **** 		{
 2025              		.loc 1 607 10 is_stmt 0 discriminator 2 view .LVU599
 2026 0026 6368     		ldr	r3, [r4, #4]	@ _3, MEM[(const struct List_t *)xEventGroup_7(D) + 4B].uxNumberOfItems
 2027              	@ ../../kernel/FreeRTOS/Source/event_groups.c:607: 		while( listCURRENT_LIST_LENGTH( pxTasksWaiting
 607:../../kernel/FreeRTOS/Source/event_groups.c **** 		{
 2028              		.loc 1 607 8 discriminator 2 view .LVU600
 2029 0028 002B     		cmp	r3, #0	@ _3
 2030 002a F5D1     		bne	.L144	@
 2031              	.L145:
 625:../../kernel/FreeRTOS/Source/event_groups.c **** 			{
 2032              		.loc 1 625 4 is_stmt 1 view .LVU601
 2033              	@ ../../kernel/FreeRTOS/Source/event_groups.c:625: 			if( pxEventBits->ucStaticallyAllocated == ( u
 625:../../kernel/FreeRTOS/Source/event_groups.c **** 			{
 2034              		.loc 1 625 6 is_stmt 0 view .LVU602
 2035 002c 237F     		ldrb	r3, [r4, #28]	@ zero_extendqisi2	@ MEM[(struct EventGroup_t *)xEventGroup_7(D)].ucStaticallyA
 2036 002e 63B1     		cbz	r3, .L148	@ MEM[(struct EventGroup_t *)xEventGroup_7(D)].ucStaticallyAllocated,
 631:../../kernel/FreeRTOS/Source/event_groups.c **** 			}
 2037              		.loc 1 631 29 is_stmt 1 view .LVU603
 636:../../kernel/FreeRTOS/Source/event_groups.c **** }
 2038              		.loc 1 636 2 view .LVU604
 2039              	@ ../../kernel/FreeRTOS/Source/event_groups.c:637: }
 637:../../kernel/FreeRTOS/Source/event_groups.c **** /*-----------------------------------------------------------*/
 2040              		.loc 1 637 1 is_stmt 0 view .LVU605
 2041 0030 BDE83840 		pop	{r3, r4, r5, lr}	@
 2042              		.cfi_remember_state
 2043              		.cfi_restore 14
 2044              		.cfi_restore 5
 2045              		.cfi_restore 4
 2046              		.cfi_restore 3
 2047              		.cfi_def_cfa_offset 0
 2048              	.LVL146:
 2049              	@ ../../kernel/FreeRTOS/Source/event_groups.c:636: 	( void ) xTaskResumeAll();
 636:../../kernel/FreeRTOS/Source/event_groups.c **** }
 2050              		.loc 1 636 11 view .LVU606
 2051 0034 FFF7FEBF 		b	xTaskResumeAll		@
 2052              	.LVL147:
 2053              	.L141:
 2054              		.cfi_restore_state
 611:../../kernel/FreeRTOS/Source/event_groups.c **** 			vTaskRemoveFromUnorderedEventList( pxTasksWaitingForBits->xListEnd.pxNext, eventUNBLOCKED_DUE_TO
 2055              		.loc 1 611 4 is_stmt 1 view .LVU607
 2056              	.LBB177:
 2057              	.LBI177:
 191:../../kernel/FreeRTOS/Source/portable/GCC/ARM_CM4F/portmacro.h **** {
 2058              		.loc 2 191 30 view .LVU608
 2059              	.LBB178:
 193:../../kernel/FreeRTOS/Source/portable/GCC/ARM_CM4F/portmacro.h **** 
 2060              		.loc 2 193 1 view .LVU609
 195:../../kernel/FreeRTOS/Source/portable/GCC/ARM_CM4F/portmacro.h **** 	(
 2061              		.loc 2 195 2 view .LVU610
 2062              		.syntax unified
 2063              	@ 195 "../../kernel/FreeRTOS/Source/portable/GCC/ARM_CM4F/portmacro.h" 1
 2064 0038 4FF0A003 			mov r3, #160													@ ulNewBASEPRI,
 2065 003c 83F31188 		msr basepri, r3												@ ulNewBASEPRI
 2066 0040 BFF36F8F 		isb														
 2067 0044 BFF34F8F 		dsb														
ARM GAS  /tmp/ccXZYLDn.s 			page 63


 2068              	
 2069              	@ 0 "" 2
 2070              	.LVL148:
 2071              		.thumb
 2072              		.syntax unified
 2073              	.L143:
 195:../../kernel/FreeRTOS/Source/portable/GCC/ARM_CM4F/portmacro.h **** 	(
 2074              		.loc 2 195 2 is_stmt 0 view .LVU611
 2075              	.LBE178:
 2076              	.LBE177:
 611:../../kernel/FreeRTOS/Source/event_groups.c **** 			vTaskRemoveFromUnorderedEventList( pxTasksWaitingForBits->xListEnd.pxNext, eventUNBLOCKED_DUE_TO
 2077              		.loc 1 611 4 is_stmt 1 discriminator 1 view .LVU612
 611:../../kernel/FreeRTOS/Source/event_groups.c **** 			vTaskRemoveFromUnorderedEventList( pxTasksWaitingForBits->xListEnd.pxNext, eventUNBLOCKED_DUE_TO
 2078              		.loc 1 611 4 discriminator 1 view .LVU613
 611:../../kernel/FreeRTOS/Source/event_groups.c **** 			vTaskRemoveFromUnorderedEventList( pxTasksWaitingForBits->xListEnd.pxNext, eventUNBLOCKED_DUE_TO
 2079              		.loc 1 611 4 discriminator 1 view .LVU614
 611:../../kernel/FreeRTOS/Source/event_groups.c **** 			vTaskRemoveFromUnorderedEventList( pxTasksWaitingForBits->xListEnd.pxNext, eventUNBLOCKED_DUE_TO
 2080              		.loc 1 611 4 discriminator 1 view .LVU615
 2081 0048 FEE7     		b	.L143		@
 2082              	.L148:
 627:../../kernel/FreeRTOS/Source/event_groups.c **** 			}
 2083              		.loc 1 627 5 view .LVU616
 2084 004a 2046     		mov	r0, r4	@, xEventGroup
 2085 004c FFF7FEFF 		bl	vPortFree		@
 2086              	.LVL149:
 631:../../kernel/FreeRTOS/Source/event_groups.c **** 			}
 2087              		.loc 1 631 29 view .LVU617
 636:../../kernel/FreeRTOS/Source/event_groups.c **** }
 2088              		.loc 1 636 2 view .LVU618
 2089              	@ ../../kernel/FreeRTOS/Source/event_groups.c:637: }
 637:../../kernel/FreeRTOS/Source/event_groups.c **** /*-----------------------------------------------------------*/
 2090              		.loc 1 637 1 is_stmt 0 view .LVU619
 2091 0050 BDE83840 		pop	{r3, r4, r5, lr}	@
 2092              		.cfi_restore 14
 2093              		.cfi_restore 5
 2094              		.cfi_restore 4
 2095              		.cfi_restore 3
 2096              		.cfi_def_cfa_offset 0
 2097              	.LVL150:
 2098              	@ ../../kernel/FreeRTOS/Source/event_groups.c:636: 	( void ) xTaskResumeAll();
 636:../../kernel/FreeRTOS/Source/event_groups.c **** }
 2099              		.loc 1 636 11 view .LVU620
 2100 0054 FFF7FEBF 		b	xTaskResumeAll		@
 2101              	.LVL151:
 2102              		.cfi_endproc
 2103              	.LFE12:
 2104              		.size	vEventGroupDelete, .-vEventGroupDelete
 2105              		.section	.text.xEventGroupSetBitsFromISR,"ax",%progbits
 2106              		.align	1
 2107              		.p2align 2,,3
 2108              		.global	xEventGroupSetBitsFromISR
 2109              		.syntax unified
 2110              		.thumb
 2111              		.thumb_func
 2112              		.fpu fpv4-sp-d16
 2113              		.type	xEventGroupSetBitsFromISR, %function
 2114              	xEventGroupSetBitsFromISR:
ARM GAS  /tmp/ccXZYLDn.s 			page 64


 2115              	.LVL152:
 2116              	.LFB16:
 678:../../kernel/FreeRTOS/Source/event_groups.c **** 		{
 679:../../kernel/FreeRTOS/Source/event_groups.c **** 			xWaitConditionMet = pdTRUE;
 680:../../kernel/FreeRTOS/Source/event_groups.c **** 		}
 681:../../kernel/FreeRTOS/Source/event_groups.c **** 		else
 682:../../kernel/FreeRTOS/Source/event_groups.c **** 		{
 683:../../kernel/FreeRTOS/Source/event_groups.c **** 			mtCOVERAGE_TEST_MARKER();
 684:../../kernel/FreeRTOS/Source/event_groups.c **** 		}
 685:../../kernel/FreeRTOS/Source/event_groups.c **** 	}
 686:../../kernel/FreeRTOS/Source/event_groups.c **** 
 687:../../kernel/FreeRTOS/Source/event_groups.c **** 	return xWaitConditionMet;
 688:../../kernel/FreeRTOS/Source/event_groups.c **** }
 689:../../kernel/FreeRTOS/Source/event_groups.c **** /*-----------------------------------------------------------*/
 690:../../kernel/FreeRTOS/Source/event_groups.c **** 
 691:../../kernel/FreeRTOS/Source/event_groups.c **** #if ( ( configUSE_TRACE_FACILITY == 1 ) && ( INCLUDE_xTimerPendFunctionCall == 1 ) && ( configUSE_T
 692:../../kernel/FreeRTOS/Source/event_groups.c **** 
 693:../../kernel/FreeRTOS/Source/event_groups.c **** 	BaseType_t xEventGroupSetBitsFromISR( EventGroupHandle_t xEventGroup, const EventBits_t uxBitsToSe
 694:../../kernel/FreeRTOS/Source/event_groups.c **** 	{
 2117              		.loc 1 694 2 is_stmt 1 view -0
 2118              		.cfi_startproc
 2119              		@ args = 0, pretend = 0, frame = 0
 2120              		@ frame_needed = 0, uses_anonymous_args = 0
 2121              		@ link register save eliminated.
 695:../../kernel/FreeRTOS/Source/event_groups.c **** 	BaseType_t xReturn;
 2122              		.loc 1 695 2 view .LVU622
 696:../../kernel/FreeRTOS/Source/event_groups.c **** 
 697:../../kernel/FreeRTOS/Source/event_groups.c **** 		traceEVENT_GROUP_SET_BITS_FROM_ISR( xEventGroup, uxBitsToSet );
 2123              		.loc 1 697 65 view .LVU623
 698:../../kernel/FreeRTOS/Source/event_groups.c **** 		xReturn = xTimerPendFunctionCallFromISR( vEventGroupSetBitsCallback, ( void * ) xEventGroup, ( ui
 2124              		.loc 1 698 3 view .LVU624
 2125              	@ ../../kernel/FreeRTOS/Source/event_groups.c:698: 		xReturn = xTimerPendFunctionCallFromISR( vEven
 2126              		.loc 1 698 13 is_stmt 0 view .LVU625
 2127 0000 1346     		mov	r3, r2	@, pxHigherPriorityTaskWoken
 2128 0002 0A46     		mov	r2, r1	@, uxBitsToSet
 2129              	.LVL153:
 2130              		.loc 1 698 13 view .LVU626
 2131 0004 0146     		mov	r1, r0	@, xEventGroup
 2132              	.LVL154:
 2133              		.loc 1 698 13 view .LVU627
 2134 0006 0148     		ldr	r0, .L150	@,
 2135              	.LVL155:
 2136              		.loc 1 698 13 view .LVU628
 2137 0008 FFF7FEBF 		b	xTimerPendFunctionCallFromISR		@
 2138              	.LVL156:
 2139              	.L151:
 2140              		.loc 1 698 13 view .LVU629
 2141              		.align	2
 2142              	.L150:
 2143 000c 00000000 		.word	vEventGroupSetBitsCallback
 2144              		.cfi_endproc
 2145              	.LFE16:
 2146              		.size	xEventGroupSetBitsFromISR, .-xEventGroupSetBitsFromISR
 2147              		.section	.text.uxEventGroupGetNumber,"ax",%progbits
 2148              		.align	1
 2149              		.p2align 2,,3
 2150              		.global	uxEventGroupGetNumber
ARM GAS  /tmp/ccXZYLDn.s 			page 65


 2151              		.syntax unified
 2152              		.thumb
 2153              		.thumb_func
 2154              		.fpu fpv4-sp-d16
 2155              		.type	uxEventGroupGetNumber, %function
 2156              	uxEventGroupGetNumber:
 2157              	.LVL157:
 2158              	.LFB17:
 699:../../kernel/FreeRTOS/Source/event_groups.c **** 
 700:../../kernel/FreeRTOS/Source/event_groups.c **** 		return xReturn;
 701:../../kernel/FreeRTOS/Source/event_groups.c **** 	}
 702:../../kernel/FreeRTOS/Source/event_groups.c **** 
 703:../../kernel/FreeRTOS/Source/event_groups.c **** #endif
 704:../../kernel/FreeRTOS/Source/event_groups.c **** /*-----------------------------------------------------------*/
 705:../../kernel/FreeRTOS/Source/event_groups.c **** 
 706:../../kernel/FreeRTOS/Source/event_groups.c **** #if (configUSE_TRACE_FACILITY == 1)
 707:../../kernel/FreeRTOS/Source/event_groups.c **** 
 708:../../kernel/FreeRTOS/Source/event_groups.c **** 	UBaseType_t uxEventGroupGetNumber( void* xEventGroup )
 709:../../kernel/FreeRTOS/Source/event_groups.c **** 	{
 2159              		.loc 1 709 2 is_stmt 1 view -0
 2160              		.cfi_startproc
 2161              		@ args = 0, pretend = 0, frame = 0
 2162              		@ frame_needed = 0, uses_anonymous_args = 0
 2163              		@ link register save eliminated.
 710:../../kernel/FreeRTOS/Source/event_groups.c **** 	UBaseType_t xReturn;
 2164              		.loc 1 710 2 view .LVU631
 711:../../kernel/FreeRTOS/Source/event_groups.c **** 	EventGroup_t *pxEventBits = ( EventGroup_t * ) xEventGroup;
 2165              		.loc 1 711 2 view .LVU632
 712:../../kernel/FreeRTOS/Source/event_groups.c **** 
 713:../../kernel/FreeRTOS/Source/event_groups.c **** 		if( xEventGroup == NULL )
 2166              		.loc 1 713 3 view .LVU633
 2167              	@ ../../kernel/FreeRTOS/Source/event_groups.c:713: 		if( xEventGroup == NULL )
 2168              		.loc 1 713 5 is_stmt 0 view .LVU634
 2169 0000 00B1     		cbz	r0, .L152	@ xEventGroup,
 714:../../kernel/FreeRTOS/Source/event_groups.c **** 		{
 715:../../kernel/FreeRTOS/Source/event_groups.c **** 			xReturn = 0;
 716:../../kernel/FreeRTOS/Source/event_groups.c **** 		}
 717:../../kernel/FreeRTOS/Source/event_groups.c **** 		else
 718:../../kernel/FreeRTOS/Source/event_groups.c **** 		{
 719:../../kernel/FreeRTOS/Source/event_groups.c **** 			xReturn = pxEventBits->uxEventGroupNumber;
 2170              		.loc 1 719 4 is_stmt 1 view .LVU635
 2171              	@ ../../kernel/FreeRTOS/Source/event_groups.c:719: 			xReturn = pxEventBits->uxEventGroupNumber;
 2172              		.loc 1 719 12 is_stmt 0 view .LVU636
 2173 0002 8069     		ldr	r0, [r0, #24]	@ <retval>, MEM[(struct EventGroup_t *)xEventGroup_2(D)].uxEventGroupNumber
 2174              	.LVL158:
 2175              	.L152:
 2176              	@ ../../kernel/FreeRTOS/Source/event_groups.c:723: 	}
 720:../../kernel/FreeRTOS/Source/event_groups.c **** 		}
 721:../../kernel/FreeRTOS/Source/event_groups.c **** 
 722:../../kernel/FreeRTOS/Source/event_groups.c **** 		return xReturn;
 723:../../kernel/FreeRTOS/Source/event_groups.c **** 	}
 2177              		.loc 1 723 2 view .LVU637
 2178 0004 7047     		bx	lr	@
 2179              		.cfi_endproc
 2180              	.LFE17:
 2181              		.size	uxEventGroupGetNumber, .-uxEventGroupGetNumber
 2182 0006 00BF     		.section	.text.vEventGroupSetNumber,"ax",%progbits
ARM GAS  /tmp/ccXZYLDn.s 			page 66


 2183              		.align	1
 2184              		.p2align 2,,3
 2185              		.global	vEventGroupSetNumber
 2186              		.syntax unified
 2187              		.thumb
 2188              		.thumb_func
 2189              		.fpu fpv4-sp-d16
 2190              		.type	vEventGroupSetNumber, %function
 2191              	vEventGroupSetNumber:
 2192              	.LVL159:
 2193              	.LFB18:
 724:../../kernel/FreeRTOS/Source/event_groups.c **** 
 725:../../kernel/FreeRTOS/Source/event_groups.c **** #endif /* configUSE_TRACE_FACILITY */
 726:../../kernel/FreeRTOS/Source/event_groups.c **** /*-----------------------------------------------------------*/
 727:../../kernel/FreeRTOS/Source/event_groups.c **** 
 728:../../kernel/FreeRTOS/Source/event_groups.c **** #if ( configUSE_TRACE_FACILITY == 1 )
 729:../../kernel/FreeRTOS/Source/event_groups.c **** 
 730:../../kernel/FreeRTOS/Source/event_groups.c **** 	void vEventGroupSetNumber( void * xEventGroup, UBaseType_t uxEventGroupNumber )
 731:../../kernel/FreeRTOS/Source/event_groups.c **** 	{
 2194              		.loc 1 731 2 is_stmt 1 view -0
 2195              		.cfi_startproc
 2196              		@ args = 0, pretend = 0, frame = 0
 2197              		@ frame_needed = 0, uses_anonymous_args = 0
 2198              		@ link register save eliminated.
 732:../../kernel/FreeRTOS/Source/event_groups.c **** 		( ( EventGroup_t * ) xEventGroup )->uxEventGroupNumber = uxEventGroupNumber;
 2199              		.loc 1 732 3 view .LVU639
 2200              	@ ../../kernel/FreeRTOS/Source/event_groups.c:732: 		( ( EventGroup_t * ) xEventGroup )->uxEventGro
 2201              		.loc 1 732 58 is_stmt 0 view .LVU640
 2202 0000 8161     		str	r1, [r0, #24]	@ uxEventGroupNumber, MEM[(struct EventGroup_t *)xEventGroup_2(D)].uxEventGroupN
 2203              	@ ../../kernel/FreeRTOS/Source/event_groups.c:733: 	}
 733:../../kernel/FreeRTOS/Source/event_groups.c **** 	}
 2204              		.loc 1 733 2 view .LVU641
 2205 0002 7047     		bx	lr	@
 2206              		.cfi_endproc
 2207              	.LFE18:
 2208              		.size	vEventGroupSetNumber, .-vEventGroupSetNumber
 2209              		.text
 2210              	.Letext0:
 2211              		.file 3 "/home/gu/code/freeRTOS10/vendor/mstar/CM4/tools/gcc-arm-none-eabi-8-2018-q4-major/lib/gcc
 2212              		.file 4 "/home/gu/code/freeRTOS10/vendor/mstar/CM4/tools/gcc-arm-none-eabi-8-2018-q4-major/arm-non
 2213              		.file 5 "/home/gu/code/freeRTOS10/vendor/mstar/CM4/tools/gcc-arm-none-eabi-8-2018-q4-major/arm-non
 2214              		.file 6 "/home/gu/code/freeRTOS10/vendor/mstar/CM4/tools/gcc-arm-none-eabi-8-2018-q4-major/arm-non
 2215              		.file 7 "/home/gu/code/freeRTOS10/vendor/mstar/CM4/tools/gcc-arm-none-eabi-8-2018-q4-major/arm-non
 2216              		.file 8 "/home/gu/code/freeRTOS10/vendor/mstar/CM4/tools/gcc-arm-none-eabi-8-2018-q4-major/arm-non
 2217              		.file 9 "/home/gu/code/freeRTOS10/vendor/mstar/CM4/tools/gcc-arm-none-eabi-8-2018-q4-major/arm-non
 2218              		.file 10 "../../kernel/FreeRTOS/Source/include/FreeRTOS.h"
 2219              		.file 11 "../../kernel/FreeRTOS/Source/include/list.h"
 2220              		.file 12 "../../kernel/FreeRTOS/Source/include/event_groups.h"
 2221              		.file 13 "../../kernel/FreeRTOS/Source/include/timers.h"
 2222              		.file 14 "../../kernel/FreeRTOS/Source/include/task.h"
 2223              		.file 15 "../../kernel/FreeRTOS/Source/include/portable.h"