ARM GAS  /tmp/cclDP8Fi.s 			page 1


   1              		.cpu cortex-m4
   2              		.eabi_attribute 27, 1	@ Tag_ABI_HardFP_use
   3              		.eabi_attribute 20, 1	@ Tag_ABI_FP_denormal
   4              		.eabi_attribute 21, 1	@ Tag_ABI_FP_exceptions
   5              		.eabi_attribute 23, 3	@ Tag_ABI_FP_number_model
   6              		.eabi_attribute 24, 1	@ Tag_ABI_align8_needed
   7              		.eabi_attribute 25, 1	@ Tag_ABI_align8_preserved
   8              		.eabi_attribute 26, 1	@ Tag_ABI_enum_size
   9              		.eabi_attribute 30, 2	@ Tag_ABI_optimization_goals
  10              		.eabi_attribute 34, 1	@ Tag_CPU_unaligned_access
  11              		.eabi_attribute 18, 4	@ Tag_ABI_PCS_wchar_t
  12              		.file	"halBDMA.c"
  13              	@ GNU C89 (GNU Tools for Arm Embedded Processors 8-2018-q4-major) version 8.2.1 20181213 (release) 
  14              	@	compiled by GNU C version 4.8.4, GMP version 6.1.0, MPFR version 3.1.4, MPC version 1.0.3, isl ve
  15              	
  16              	@ GGC heuristics: --param ggc-min-expand=96 --param ggc-min-heapsize=125422
  17              	@ options passed:  -isystem =/include/newlib-nano -I . -I .
  18              	@ -I ../../kernel/FreeRTOS/Source/include
  19              	@ -I ../../kernel/FreeRTOS/Source/portable/GCC/ARM_CM4F
  20              	@ -I ../../kernel/FreeRTOS/Demo/Common/include
  21              	@ -I ../../kernel/FreeRTOS-Plus/Source/FreeRTOS-Plus-CLI
  22              	@ -I ../../peripheral_library/inc -I ../../peripheral_library/hal/m7221/inc
  23              	@ -I ../../CMSIS -I ../../main_full -I ../../3rd/rokid/./ -I /.
  24              	@ -I /../../kernel/FreeRTOS/Source/include
  25              	@ -I /../../kernel/FreeRTOS/Source/portable/GCC/ARM_CM4F
  26              	@ -I /../../kernel/FreeRTOS/Demo/Common/include
  27              	@ -I /../../kernel/FreeRTOS-Plus/Source/FreeRTOS-Plus-CLI
  28              	@ -I /../../peripheral_library/inc
  29              	@ -I /../../peripheral_library/hal/m7221/inc -I /../../CMSIS
  30              	@ -I /../../main_full -I /../../3rd/rokid/./
  31              	@ -imultilib thumb/v7e-m+fp/softfp
  32              	@ -iprefix /home/gu/code/freeRTOS10/vendor/mstar/CM4/tools/gcc-arm-none-eabi-8-2018-q4-major/bin/..
  33              	@ -isysroot /home/gu/code/freeRTOS10/vendor/mstar/CM4/tools/gcc-arm-none-eabi-8-2018-q4-major/bin/.
  34              	@ -MD out/halBDMA.d -MF out/halBDMA.d -MP -MQ out/halBDMA.o
  35              	@ -D__USES_INITFINI__ -D CONFIG_BENCH=0 -D CONFIG_SYS_DBG_LEVEL=0xFFFFFFFF
  36              	@ -D CONFIG_VOC_MIC=6 -D CONFIG_AUD_I2S -D CONFIG_AUD_AEC
  37              	@ -D CONFIG_VOC_MIC_MAPPING -D CONFIG_VOC_SWHPF -D CONFIG_VOC_SW_SRC48K
  38              	@ -D ARM_MATH_CM4 -D BOOTROM_VERSION_ASIC
  39              	@ ../../peripheral_library/hal/m7221/src/halBDMA.c -mcpu=cortex-m4 -mthumb
  40              	@ -mthumb-interwork -mfloat-abi=softfp -mfpu=fpv4-sp-d16 -march=armv7e-m+fp
  41              	@ -auxbase-strip out/halBDMA.o -g -ggdb3 -O3 -Wall -Wstrict-prototypes
  42              	@ -Wextra -std=gnu90 -ffunction-sections -fdata-sections
  43              	@ -fno-builtin-printf -fverbose-asm
  44              	@ options enabled:  -faggressive-loop-optimizations -falign-jumps
  45              	@ -falign-labels -falign-loops -fauto-inc-dec -fbranch-count-reg
  46              	@ -fcaller-saves -fchkp-check-incomplete-type -fchkp-check-read
  47              	@ -fchkp-check-write -fchkp-instrument-calls -fchkp-narrow-bounds
  48              	@ -fchkp-optimize -fchkp-store-bounds -fchkp-use-static-bounds
  49              	@ -fchkp-use-static-const-bounds -fchkp-use-wrappers -fcode-hoisting
  50              	@ -fcombine-stack-adjustments -fcommon -fcompare-elim -fcprop-registers
  51              	@ -fcrossjumping -fcse-follow-jumps -fdata-sections -fdefer-pop
  52              	@ -fdelete-null-pointer-checks -fdevirtualize -fdevirtualize-speculatively
  53              	@ -fdwarf2-cfi-asm -fearly-inlining -feliminate-unused-debug-types
  54              	@ -fexpensive-optimizations -fforward-propagate -ffp-int-builtin-inexact
  55              	@ -ffunction-cse -ffunction-sections -fgcse -fgcse-after-reload -fgcse-lm
  56              	@ -fgnu-runtime -fgnu-unique -fguess-branch-probability
  57              	@ -fhoist-adjacent-loads -fident -fif-conversion -fif-conversion2
ARM GAS  /tmp/cclDP8Fi.s 			page 2


  58              	@ -findirect-inlining -finline -finline-atomics -finline-functions
  59              	@ -finline-functions-called-once -finline-small-functions -fipa-bit-cp
  60              	@ -fipa-cp -fipa-cp-clone -fipa-icf -fipa-icf-functions -fipa-icf-variables
  61              	@ -fipa-profile -fipa-pure-const -fipa-ra -fipa-reference -fipa-sra
  62              	@ -fipa-vrp -fira-hoist-pressure -fira-share-save-slots
  63              	@ -fira-share-spill-slots -fisolate-erroneous-paths-dereference -fivopts
  64              	@ -fkeep-static-consts -fleading-underscore -flifetime-dse
  65              	@ -floop-interchange -floop-unroll-and-jam -flra-remat
  66              	@ -flto-odr-type-merging -fmath-errno -fmerge-constants
  67              	@ -fmerge-debug-strings -fmove-loop-invariants -fomit-frame-pointer
  68              	@ -foptimize-sibling-calls -foptimize-strlen -fpartial-inlining
  69              	@ -fpeel-loops -fpeephole -fpeephole2 -fplt -fpredictive-commoning
  70              	@ -fprefetch-loop-arrays -freg-struct-return -freorder-blocks
  71              	@ -freorder-functions -frerun-cse-after-loop
  72              	@ -fsched-critical-path-heuristic -fsched-dep-count-heuristic
  73              	@ -fsched-group-heuristic -fsched-interblock -fsched-last-insn-heuristic
  74              	@ -fsched-pressure -fsched-rank-heuristic -fsched-spec
  75              	@ -fsched-spec-insn-heuristic -fsched-stalled-insns-dep -fschedule-insns
  76              	@ -fschedule-insns2 -fsection-anchors -fsemantic-interposition
  77              	@ -fshow-column -fshrink-wrap -fshrink-wrap-separate -fsigned-zeros
  78              	@ -fsplit-ivs-in-unroller -fsplit-loops -fsplit-paths -fsplit-wide-types
  79              	@ -fssa-backprop -fssa-phiopt -fstdarg-opt -fstore-merging
  80              	@ -fstrict-aliasing -fstrict-volatile-bitfields -fsync-libcalls
  81              	@ -fthread-jumps -ftoplevel-reorder -ftrapping-math -ftree-bit-ccp
  82              	@ -ftree-builtin-call-dce -ftree-ccp -ftree-ch -ftree-coalesce-vars
  83              	@ -ftree-copy-prop -ftree-cselim -ftree-dce -ftree-dominator-opts
  84              	@ -ftree-dse -ftree-forwprop -ftree-fre -ftree-loop-distribute-patterns
  85              	@ -ftree-loop-distribution -ftree-loop-if-convert -ftree-loop-im
  86              	@ -ftree-loop-ivcanon -ftree-loop-optimize -ftree-loop-vectorize
  87              	@ -ftree-parallelize-loops= -ftree-partial-pre -ftree-phiprop -ftree-pre
  88              	@ -ftree-pta -ftree-reassoc -ftree-scev-cprop -ftree-sink
  89              	@ -ftree-slp-vectorize -ftree-slsr -ftree-sra -ftree-switch-conversion
  90              	@ -ftree-tail-merge -ftree-ter -ftree-vrp -funit-at-a-time -funswitch-loops
  91              	@ -fvar-tracking -fvar-tracking-assignments -fverbose-asm
  92              	@ -fzero-initialized-in-bss -masm-syntax-unified -mbe32 -mlittle-endian
  93              	@ -mpic-data-is-text-relative -msched-prolog -mthumb -munaligned-access
  94              	@ -mvectorize-with-neon-quad
  95              	
  96              		.text
  97              	.Ltext0:
  98              		.cfi_sections	.debug_frame
  99              		.section	.text.MHal_BDMA_WaitDone,"ax",%progbits
 100              		.align	1
 101              		.p2align 2,,3
 102              		.global	MHal_BDMA_WaitDone
 103              		.arch armv7e-m
 104              		.syntax unified
 105              		.thumb
 106              		.thumb_func
 107              		.fpu fpv4-sp-d16
 108              		.type	MHal_BDMA_WaitDone, %function
 109              	MHal_BDMA_WaitDone:
 110              	.LVL0:
 111              	.LFB134:
 112              		.file 1 "../../peripheral_library/hal/m7221/src/halBDMA.c"
   1:../../peripheral_library/hal/m7221/src/halBDMA.c **** ////////////////////////////////////////////////////////////////////////////////
   2:../../peripheral_library/hal/m7221/src/halBDMA.c **** //
ARM GAS  /tmp/cclDP8Fi.s 			page 3


   3:../../peripheral_library/hal/m7221/src/halBDMA.c **** // Copyright (c) 2018 MStar Semiconductor, Inc.
   4:../../peripheral_library/hal/m7221/src/halBDMA.c **** // All rights reserved.
   5:../../peripheral_library/hal/m7221/src/halBDMA.c **** //
   6:../../peripheral_library/hal/m7221/src/halBDMA.c **** // Unless otherwise stipulated in writing, any and all information contained
   7:../../peripheral_library/hal/m7221/src/halBDMA.c **** // herein regardless in any format shall remain the sole proprietary of
   8:../../peripheral_library/hal/m7221/src/halBDMA.c **** // MStar Semiconductor Inc. and be kept in strict confidence
   9:../../peripheral_library/hal/m7221/src/halBDMA.c **** // ("MStar Confidential Information") by the recipient.
  10:../../peripheral_library/hal/m7221/src/halBDMA.c **** // Any unauthorized act including without limitation unauthorized disclosure,
  11:../../peripheral_library/hal/m7221/src/halBDMA.c **** // copying, use, reproduction, sale, distribution, modification, disassembling,
  12:../../peripheral_library/hal/m7221/src/halBDMA.c **** // reverse engineering and compiling of the contents of MStar Confidential
  13:../../peripheral_library/hal/m7221/src/halBDMA.c **** // Information is unlawful and strictly prohibited. MStar hereby reserves the
  14:../../peripheral_library/hal/m7221/src/halBDMA.c **** // rights to any and all damages, losses, costs and expenses resulting therefrom.
  15:../../peripheral_library/hal/m7221/src/halBDMA.c **** //
  16:../../peripheral_library/hal/m7221/src/halBDMA.c **** ////////////////////////////////////////////////////////////////////////////////
  17:../../peripheral_library/hal/m7221/src/halBDMA.c **** 
  18:../../peripheral_library/hal/m7221/src/halBDMA.c **** ///////////////////////////////////////////////////////////////////////////////////////////////////
  19:../../peripheral_library/hal/m7221/src/halBDMA.c **** ///
  20:../../peripheral_library/hal/m7221/src/halBDMA.c **** /// file    halBDMA.c
  21:../../peripheral_library/hal/m7221/src/halBDMA.c **** /// @brief  MStar BDMA hal DDI
  22:../../peripheral_library/hal/m7221/src/halBDMA.c **** /// @author MStar Semiconductor Inc.
  23:../../peripheral_library/hal/m7221/src/halBDMA.c **** ///////////////////////////////////////////////////////////////////////////////////////////////////
  24:../../peripheral_library/hal/m7221/src/halBDMA.c **** 
  25:../../peripheral_library/hal/m7221/src/halBDMA.c **** #define _MHAL_BDMA_C
  26:../../peripheral_library/hal/m7221/src/halBDMA.c **** 
  27:../../peripheral_library/hal/m7221/src/halBDMA.c **** //=============================================================================
  28:../../peripheral_library/hal/m7221/src/halBDMA.c **** // Include Files
  29:../../peripheral_library/hal/m7221/src/halBDMA.c **** //=============================================================================
  30:../../peripheral_library/hal/m7221/src/halBDMA.c **** #include "halBDMA.h"
  31:../../peripheral_library/hal/m7221/src/halBDMA.c **** 
  32:../../peripheral_library/hal/m7221/src/halBDMA.c **** #include "mosWrapper.h"
  33:../../peripheral_library/hal/m7221/src/halBDMA.c **** 
  34:../../peripheral_library/hal/m7221/src/halBDMA.c **** #define BDMA_MSG(fmt, args...) MOS_DBG_PRINT(MOS_DBG_LEVEL_BDMA, "[BDMA] " fmt, ##args)
  35:../../peripheral_library/hal/m7221/src/halBDMA.c **** #define BDMA_ERR(fmt, args...) MOS_DBG_ERROR("[BDMA ERR] " fmt, ##args);
  36:../../peripheral_library/hal/m7221/src/halBDMA.c **** 
  37:../../peripheral_library/hal/m7221/src/halBDMA.c **** 
  38:../../peripheral_library/hal/m7221/src/halBDMA.c **** #define BDMA_SET_CH_REG(x)         (GET_REG16_ADDR(REG_ADDR_BASE_VBDMA,x))
  39:../../peripheral_library/hal/m7221/src/halBDMA.c **** 
  40:../../peripheral_library/hal/m7221/src/halBDMA.c **** #define BDMA_REG_CTRL(ch)           BDMA_SET_CH_REG(0x00+ch*0x10)
  41:../../peripheral_library/hal/m7221/src/halBDMA.c **** #define BDMA_REG_STATUS(ch)         BDMA_SET_CH_REG(0x01+ch*0x10)
  42:../../peripheral_library/hal/m7221/src/halBDMA.c **** #define BDMA_REG_DEV_SEL(ch)        BDMA_SET_CH_REG(0x02+ch*0x10)
  43:../../peripheral_library/hal/m7221/src/halBDMA.c **** #define BDMA_REG_MISC(ch)           BDMA_SET_CH_REG(0x03+ch*0x10)
  44:../../peripheral_library/hal/m7221/src/halBDMA.c **** #define BDMA_REG_SRC_ADDR_L(ch)     BDMA_SET_CH_REG(0x04+ch*0x10)
  45:../../peripheral_library/hal/m7221/src/halBDMA.c **** #define BDMA_REG_SRC_ADDR_H(ch)     BDMA_SET_CH_REG(0x05+ch*0x10)
  46:../../peripheral_library/hal/m7221/src/halBDMA.c **** #define BDMA_REG_DST_ADDR_L(ch)     BDMA_SET_CH_REG(0x06+ch*0x10)
  47:../../peripheral_library/hal/m7221/src/halBDMA.c **** #define BDMA_REG_DST_ADDR_H(ch)     BDMA_SET_CH_REG(0x07+ch*0x10)
  48:../../peripheral_library/hal/m7221/src/halBDMA.c **** #define BDMA_REG_SIZE_L(ch)         BDMA_SET_CH_REG(0x08+ch*0x10)
  49:../../peripheral_library/hal/m7221/src/halBDMA.c **** #define BDMA_REG_SIZE_H(ch)         BDMA_SET_CH_REG(0x09+ch*0x10)
  50:../../peripheral_library/hal/m7221/src/halBDMA.c **** #define BDMA_REG_CMD0_L(ch)         BDMA_SET_CH_REG(0x0A+ch*0x10)
  51:../../peripheral_library/hal/m7221/src/halBDMA.c **** #define BDMA_REG_CMD0_H(ch)         BDMA_SET_CH_REG(0x0B+ch*0x10)
  52:../../peripheral_library/hal/m7221/src/halBDMA.c **** #define BDMA_REG_CMD1_L(ch)         BDMA_SET_CH_REG(0x0C+ch*0x10)
  53:../../peripheral_library/hal/m7221/src/halBDMA.c **** #define BDMA_REG_CMD1_H(ch)         BDMA_SET_CH_REG(0x0D+ch*0x10)
  54:../../peripheral_library/hal/m7221/src/halBDMA.c **** #define BDMA_REG_CMD2_L(ch)         BDMA_SET_CH_REG(0x0E+ch*0x10)
  55:../../peripheral_library/hal/m7221/src/halBDMA.c **** #define BDMA_REG_CMD2_H(ch)         BDMA_SET_CH_REG(0x0F+ch*0x10)
  56:../../peripheral_library/hal/m7221/src/halBDMA.c **** 
  57:../../peripheral_library/hal/m7221/src/halBDMA.c **** 
  58:../../peripheral_library/hal/m7221/src/halBDMA.c **** 
  59:../../peripheral_library/hal/m7221/src/halBDMA.c **** //---------------------------------------------
ARM GAS  /tmp/cclDP8Fi.s 			page 4


  60:../../peripheral_library/hal/m7221/src/halBDMA.c **** // definition for BDMA_REG_CH0_CTRL/BDMA_REG_CH1_CTRL
  61:../../peripheral_library/hal/m7221/src/halBDMA.c **** //---------------------------------------------
  62:../../peripheral_library/hal/m7221/src/halBDMA.c **** #define BDMA_CH_TRIGGER             BIT(0)
  63:../../peripheral_library/hal/m7221/src/halBDMA.c **** #define BDMA_CH_STOP                BIT(4)
  64:../../peripheral_library/hal/m7221/src/halBDMA.c **** 
  65:../../peripheral_library/hal/m7221/src/halBDMA.c **** 
  66:../../peripheral_library/hal/m7221/src/halBDMA.c **** //---------------------------------------------
  67:../../peripheral_library/hal/m7221/src/halBDMA.c **** // definition for REG_BDMA_CH0_STATUS/REG_BDMA_CH1_STATUS
  68:../../peripheral_library/hal/m7221/src/halBDMA.c **** //---------------------------------------------
  69:../../peripheral_library/hal/m7221/src/halBDMA.c **** #define BDMA_CH_QUEUED              BIT(0)
  70:../../peripheral_library/hal/m7221/src/halBDMA.c **** #define BDMA_CH_BUSY                BIT(1)
  71:../../peripheral_library/hal/m7221/src/halBDMA.c **** #define BDMA_CH_INT                 BIT(2)
  72:../../peripheral_library/hal/m7221/src/halBDMA.c **** #define BDMA_CH_DONE                BIT(3)
  73:../../peripheral_library/hal/m7221/src/halBDMA.c **** #define BDMA_CH_RESULT              BIT(4)
  74:../../peripheral_library/hal/m7221/src/halBDMA.c **** #define BDMA_CH_CLEAR_STATUS        (BDMA_CH_INT|BDMA_CH_DONE|BDMA_CH_RESULT)
  75:../../peripheral_library/hal/m7221/src/halBDMA.c **** 
  76:../../peripheral_library/hal/m7221/src/halBDMA.c **** //---------------------------------------------
  77:../../peripheral_library/hal/m7221/src/halBDMA.c **** // definition for REG_BDMA_CH0_MISC/REG_BDMA_CH1_MISC
  78:../../peripheral_library/hal/m7221/src/halBDMA.c **** //---------------------------------------------
  79:../../peripheral_library/hal/m7221/src/halBDMA.c **** 
  80:../../peripheral_library/hal/m7221/src/halBDMA.c **** #define BDMA_CH_ADDR_DECDIR         BIT(0)
  81:../../peripheral_library/hal/m7221/src/halBDMA.c **** #define BDMA_CH_DONE_INT_EN         BIT(1)
  82:../../peripheral_library/hal/m7221/src/halBDMA.c **** #define BDMA_CH_CRC_REFLECTION      BIT(4)
  83:../../peripheral_library/hal/m7221/src/halBDMA.c **** #define BDMA_CH_MOBF_EN             BIT(5)
  84:../../peripheral_library/hal/m7221/src/halBDMA.c **** 
  85:../../peripheral_library/hal/m7221/src/halBDMA.c **** BOOL MHal_BDMA_WaitDone(BDMA_Ch channel,U32 u32Timeoutmsec)
  86:../../peripheral_library/hal/m7221/src/halBDMA.c **** {
 113              		.loc 1 86 1 view -0
 114              		.cfi_startproc
 115              		@ args = 0, pretend = 0, frame = 0
 116              		@ frame_needed = 0, uses_anonymous_args = 0
  87:../../peripheral_library/hal/m7221/src/halBDMA.c ****     U32 count=0;
 117              		.loc 1 87 5 view .LVU1
  88:../../peripheral_library/hal/m7221/src/halBDMA.c ****     for(count=0;count<u32Timeoutmsec;count++)
 118              		.loc 1 88 5 view .LVU2
 119              		.loc 1 88 5 is_stmt 0 view .LVU3
 120 0000 B9B1     		cbz	r1, .L13	@ u32Timeoutmsec,
  89:../../peripheral_library/hal/m7221/src/halBDMA.c ****     {
  90:../../peripheral_library/hal/m7221/src/halBDMA.c ****         if(INREG16(BDMA_REG_STATUS(channel)) & BDMA_CH_DONE)
 121              		.loc 1 90 9 is_stmt 1 view .LVU4
 122              	@ ../../peripheral_library/hal/m7221/src/halBDMA.c:86: {
  86:../../peripheral_library/hal/m7221/src/halBDMA.c ****     U32 count=0;
 123              		.loc 1 86 1 is_stmt 0 view .LVU5
 124 0002 70B5     		push	{r4, r5, r6, lr}	@
 125              		.cfi_def_cfa_offset 16
 126              		.cfi_offset 4, -16
 127              		.cfi_offset 5, -12
 128              		.cfi_offset 6, -8
 129              		.cfi_offset 14, -4
 130              	@ ../../peripheral_library/hal/m7221/src/halBDMA.c:90:         if(INREG16(BDMA_REG_STATUS(channel))
 131              		.loc 1 90 12 view .LVU6
 132 0004 0C4E     		ldr	r6, .L14	@ _22,
 133 0006 8001     		lsls	r0, r0, #6	@ tmp124, channel,
 134              	.LVL1:
 135              		.loc 1 90 12 view .LVU7
 136 0008 0644     		add	r6, r6, r0	@ _22, tmp124
 137 000a 3488     		ldrh	r4, [r6]	@, *_22
ARM GAS  /tmp/cclDP8Fi.s 			page 5


 138              	@ ../../peripheral_library/hal/m7221/src/halBDMA.c:90:         if(INREG16(BDMA_REG_STATUS(channel))
 139              		.loc 1 90 11 view .LVU8
 140 000c 14F00804 		ands	r4, r4, #8	@ tmp129, *_22,
 141 0010 08BF     		it	eq
 142 0012 0D46     		moveq	r5, r1	@ u32Timeoutmsec, u32Timeoutmsec
 143 0014 03D0     		beq	.L4		@,
 144 0016 0AE0     		b	.L5		@
 145              	.LVL2:
 146              	.L6:
 147              	@ ../../peripheral_library/hal/m7221/src/halBDMA.c:90:         if(INREG16(BDMA_REG_STATUS(channel))
 148              		.loc 1 90 12 view .LVU9
 149 0018 3388     		ldrh	r3, [r6]	@, *_22
 150              	@ ../../peripheral_library/hal/m7221/src/halBDMA.c:90:         if(INREG16(BDMA_REG_STATUS(channel))
 151              		.loc 1 90 11 view .LVU10
 152 001a 1B07     		lsls	r3, r3, #28	@, *_22,
 153 001c 07D4     		bmi	.L5		@,
 154              	.LVL3:
 155              	.L4:
  91:../../peripheral_library/hal/m7221/src/halBDMA.c ****         {
  92:../../peripheral_library/hal/m7221/src/halBDMA.c ****             return TRUE;
  93:../../peripheral_library/hal/m7221/src/halBDMA.c ****         }
  94:../../peripheral_library/hal/m7221/src/halBDMA.c ****         MOS_mDelay(1);
 156              		.loc 1 94 9 is_stmt 1 discriminator 2 view .LVU11
 157              	@ ../../peripheral_library/hal/m7221/src/halBDMA.c:88:     for(count=0;count<u32Timeoutmsec;count++
  88:../../peripheral_library/hal/m7221/src/halBDMA.c ****     {
 158              		.loc 1 88 43 is_stmt 0 discriminator 2 view .LVU12
 159 001e 0134     		adds	r4, r4, #1	@ count, count,
 160              	.LVL4:
 161              	@ ../../peripheral_library/hal/m7221/src/halBDMA.c:94:         MOS_mDelay(1);
 162              		.loc 1 94 9 discriminator 2 view .LVU13
 163 0020 0120     		movs	r0, #1	@,
 164 0022 FFF7FEFF 		bl	MOS_mDelay		@
 165              	.LVL5:
  90:../../peripheral_library/hal/m7221/src/halBDMA.c ****         {
 166              		.loc 1 90 9 is_stmt 1 discriminator 2 view .LVU14
 167              	@ ../../peripheral_library/hal/m7221/src/halBDMA.c:88:     for(count=0;count<u32Timeoutmsec;count++
  88:../../peripheral_library/hal/m7221/src/halBDMA.c ****     {
 168              		.loc 1 88 5 is_stmt 0 discriminator 2 view .LVU15
 169 0026 A542     		cmp	r5, r4	@ u32Timeoutmsec, count
 170 0028 F6D1     		bne	.L6		@,
 171              	@ ../../peripheral_library/hal/m7221/src/halBDMA.c:97:     return FALSE;
  95:../../peripheral_library/hal/m7221/src/halBDMA.c ****     }
  96:../../peripheral_library/hal/m7221/src/halBDMA.c **** 
  97:../../peripheral_library/hal/m7221/src/halBDMA.c ****     return FALSE;
 172              		.loc 1 97 12 view .LVU16
 173 002a 0020     		movs	r0, #0	@ <retval>,
 174              	@ ../../peripheral_library/hal/m7221/src/halBDMA.c:98: }
  98:../../peripheral_library/hal/m7221/src/halBDMA.c **** }
 175              		.loc 1 98 1 view .LVU17
 176 002c 70BD     		pop	{r4, r5, r6, pc}	@
 177              	.LVL6:
 178              	.L5:
 179              	@ ../../peripheral_library/hal/m7221/src/halBDMA.c:92:             return TRUE;
  92:../../peripheral_library/hal/m7221/src/halBDMA.c ****         }
 180              		.loc 1 92 20 view .LVU18
 181 002e 0120     		movs	r0, #1	@ <retval>,
 182              	@ ../../peripheral_library/hal/m7221/src/halBDMA.c:98: }
ARM GAS  /tmp/cclDP8Fi.s 			page 6


 183              		.loc 1 98 1 view .LVU19
 184 0030 70BD     		pop	{r4, r5, r6, pc}	@
 185              	.LVL7:
 186              	.L13:
 187              		.cfi_def_cfa_offset 0
 188              		.cfi_restore 4
 189              		.cfi_restore 5
 190              		.cfi_restore 6
 191              		.cfi_restore 14
 192              	@ ../../peripheral_library/hal/m7221/src/halBDMA.c:97:     return FALSE;
  97:../../peripheral_library/hal/m7221/src/halBDMA.c **** }
 193              		.loc 1 97 12 view .LVU20
 194 0032 0020     		movs	r0, #0	@ <retval>,
 195              	.LVL8:
 196              	@ ../../peripheral_library/hal/m7221/src/halBDMA.c:98: }
 197              		.loc 1 98 1 view .LVU21
 198 0034 7047     		bx	lr	@
 199              	.L15:
 200 0036 00BF     		.align	2
 201              	.L14:
 202 0038 04342A40 		.word	1076507652
 203              		.cfi_endproc
 204              	.LFE134:
 205              		.size	MHal_BDMA_WaitDone, .-MHal_BDMA_WaitDone
 206              		.section	.text.MHal_BDMA_PollingDone,"ax",%progbits
 207              		.align	1
 208              		.p2align 2,,3
 209              		.global	MHal_BDMA_PollingDone
 210              		.syntax unified
 211              		.thumb
 212              		.thumb_func
 213              		.fpu fpv4-sp-d16
 214              		.type	MHal_BDMA_PollingDone, %function
 215              	MHal_BDMA_PollingDone:
 216              	.LVL9:
 217              	.LFB135:
  99:../../peripheral_library/hal/m7221/src/halBDMA.c **** 
 100:../../peripheral_library/hal/m7221/src/halBDMA.c **** BOOL MHal_BDMA_PollingDone(BDMA_Ch channel)
 101:../../peripheral_library/hal/m7221/src/halBDMA.c **** {
 218              		.loc 1 101 1 is_stmt 1 view -0
 219              		.cfi_startproc
 220              		@ args = 0, pretend = 0, frame = 0
 221              		@ frame_needed = 0, uses_anonymous_args = 0
 222              		@ link register save eliminated.
 223              	@ ../../peripheral_library/hal/m7221/src/halBDMA.c:104:         if(INREG16(BDMA_REG_STATUS(channel)
 102:../../peripheral_library/hal/m7221/src/halBDMA.c ****     while(1)
 103:../../peripheral_library/hal/m7221/src/halBDMA.c ****     {
 104:../../peripheral_library/hal/m7221/src/halBDMA.c ****         if(INREG16(BDMA_REG_STATUS(channel)) & BDMA_CH_DONE)
 224              		.loc 1 104 12 is_stmt 0 view .LVU23
 225 0000 034A     		ldr	r2, .L20	@ _5,
 226 0002 8001     		lsls	r0, r0, #6	@ tmp120, channel,
 227              	.LVL10:
 228              		.loc 1 104 12 view .LVU24
 229 0004 0244     		add	r2, r2, r0	@ _5, tmp120
 230              	.L17:
 102:../../peripheral_library/hal/m7221/src/halBDMA.c ****     while(1)
 231              		.loc 1 102 5 is_stmt 1 view .LVU25
ARM GAS  /tmp/cclDP8Fi.s 			page 7


 232              		.loc 1 104 9 view .LVU26
 233              	@ ../../peripheral_library/hal/m7221/src/halBDMA.c:104:         if(INREG16(BDMA_REG_STATUS(channel)
 234              		.loc 1 104 12 is_stmt 0 view .LVU27
 235 0006 1388     		ldrh	r3, [r2]	@, *_5
 236              	@ ../../peripheral_library/hal/m7221/src/halBDMA.c:104:         if(INREG16(BDMA_REG_STATUS(channel)
 237              		.loc 1 104 11 view .LVU28
 238 0008 1B07     		lsls	r3, r3, #28	@, *_5,
 239 000a FCD5     		bpl	.L17		@,
 105:../../peripheral_library/hal/m7221/src/halBDMA.c ****         {
 106:../../peripheral_library/hal/m7221/src/halBDMA.c ****             return TRUE;
 240              		.loc 1 106 13 is_stmt 1 view .LVU29
 241              	@ ../../peripheral_library/hal/m7221/src/halBDMA.c:109: }
 107:../../peripheral_library/hal/m7221/src/halBDMA.c ****         }
 108:../../peripheral_library/hal/m7221/src/halBDMA.c ****     }
 109:../../peripheral_library/hal/m7221/src/halBDMA.c **** }
 242              		.loc 1 109 1 is_stmt 0 view .LVU30
 243 000c 0120     		movs	r0, #1	@,
 244 000e 7047     		bx	lr	@
 245              	.L21:
 246              		.align	2
 247              	.L20:
 248 0010 04342A40 		.word	1076507652
 249              		.cfi_endproc
 250              	.LFE135:
 251              		.size	MHal_BDMA_PollingDone, .-MHal_BDMA_PollingDone
 252              		.section	.text.MHal_BDMA_IsBusy,"ax",%progbits
 253              		.align	1
 254              		.p2align 2,,3
 255              		.global	MHal_BDMA_IsBusy
 256              		.syntax unified
 257              		.thumb
 258              		.thumb_func
 259              		.fpu fpv4-sp-d16
 260              		.type	MHal_BDMA_IsBusy, %function
 261              	MHal_BDMA_IsBusy:
 262              	.LVL11:
 263              	.LFB136:
 110:../../peripheral_library/hal/m7221/src/halBDMA.c **** 
 111:../../peripheral_library/hal/m7221/src/halBDMA.c **** BOOL MHal_BDMA_IsBusy(BDMA_Ch channel)
 112:../../peripheral_library/hal/m7221/src/halBDMA.c **** {
 264              		.loc 1 112 1 is_stmt 1 view -0
 265              		.cfi_startproc
 266              		@ args = 0, pretend = 0, frame = 0
 267              		@ frame_needed = 0, uses_anonymous_args = 0
 268              		@ link register save eliminated.
 113:../../peripheral_library/hal/m7221/src/halBDMA.c ****     return (BDMA_CH_BUSY==(INREG16(BDMA_REG_STATUS(channel)) & BDMA_CH_BUSY));
 269              		.loc 1 113 5 view .LVU32
 270              	@ ../../peripheral_library/hal/m7221/src/halBDMA.c:113:     return (BDMA_CH_BUSY==(INREG16(BDMA_REG
 271              		.loc 1 113 28 is_stmt 0 view .LVU33
 272 0000 034B     		ldr	r3, .L23	@ _5,
 273 0002 8001     		lsls	r0, r0, #6	@ tmp121, channel,
 274              	.LVL12:
 275              		.loc 1 113 28 view .LVU34
 276 0004 0344     		add	r3, r3, r0	@ _5, tmp121
 277 0006 1888     		ldrh	r0, [r3]	@, *_5
 278              	@ ../../peripheral_library/hal/m7221/src/halBDMA.c:114: }
 114:../../peripheral_library/hal/m7221/src/halBDMA.c **** }
ARM GAS  /tmp/cclDP8Fi.s 			page 8


 279              		.loc 1 114 1 view .LVU35
 280 0008 C0F34000 		ubfx	r0, r0, #1, #1	@, *_5,,
 281 000c 7047     		bx	lr	@
 282              	.L24:
 283 000e 00BF     		.align	2
 284              	.L23:
 285 0010 04342A40 		.word	1076507652
 286              		.cfi_endproc
 287              	.LFE136:
 288              		.size	MHal_BDMA_IsBusy, .-MHal_BDMA_IsBusy
 289              		.section	.text.MHal_BDMA_FlashToMIU,"ax",%progbits
 290              		.align	1
 291              		.p2align 2,,3
 292              		.global	MHal_BDMA_FlashToMIU
 293              		.syntax unified
 294              		.thumb
 295              		.thumb_func
 296              		.fpu fpv4-sp-d16
 297              		.type	MHal_BDMA_FlashToMIU, %function
 298              	MHal_BDMA_FlashToMIU:
 299              	.LVL13:
 300              	.LFB137:
 115:../../peripheral_library/hal/m7221/src/halBDMA.c **** 
 116:../../peripheral_library/hal/m7221/src/halBDMA.c **** BOOL MHal_BDMA_FlashToMIU(BDMA_Ch channel, U32 u32FlashAddr, U32 u32DramAddr, U32 u32Len)
 117:../../peripheral_library/hal/m7221/src/halBDMA.c **** {
 301              		.loc 1 117 1 is_stmt 1 view -0
 302              		.cfi_startproc
 303              		@ args = 0, pretend = 0, frame = 0
 304              		@ frame_needed = 0, uses_anonymous_args = 0
 118:../../peripheral_library/hal/m7221/src/halBDMA.c ****     int i=0;
 305              		.loc 1 118 5 view .LVU37
 119:../../peripheral_library/hal/m7221/src/halBDMA.c ****     //u32DramAddr &= (~MIU0_START_ADDR);
 120:../../peripheral_library/hal/m7221/src/halBDMA.c ****     if((u32Len & 0x0F) || (u32FlashAddr& 0x0F) || (u32DramAddr & 0x0F))
 306              		.loc 1 120 5 view .LVU38
 307              	@ ../../peripheral_library/hal/m7221/src/halBDMA.c:117: {
 117:../../peripheral_library/hal/m7221/src/halBDMA.c ****     int i=0;
 308              		.loc 1 117 1 is_stmt 0 view .LVU39
 309 0000 2DE9F843 		push	{r3, r4, r5, r6, r7, r8, r9, lr}	@
 310              		.cfi_def_cfa_offset 32
 311              		.cfi_offset 3, -32
 312              		.cfi_offset 4, -28
 313              		.cfi_offset 5, -24
 314              		.cfi_offset 6, -20
 315              		.cfi_offset 7, -16
 316              		.cfi_offset 8, -12
 317              		.cfi_offset 9, -8
 318              		.cfi_offset 14, -4
 319              	@ ../../peripheral_library/hal/m7221/src/halBDMA.c:117: {
 117:../../peripheral_library/hal/m7221/src/halBDMA.c ****     int i=0;
 320              		.loc 1 117 1 view .LVU40
 321 0004 1E46     		mov	r6, r3	@ u32Len, u32Len
 322              	@ ../../peripheral_library/hal/m7221/src/halBDMA.c:120:     if((u32Len & 0x0F) || (u32FlashAddr& 0x
 323              		.loc 1 120 48 view .LVU41
 324 0006 41EA0203 		orr	r3, r1, r2	@ tmp156, u32FlashAddr, u32DramAddr
 325              	.LVL14:
 326              		.loc 1 120 48 view .LVU42
 327 000a 3343     		orrs	r3, r3, r6	@, tmp157, tmp156, u32Len
ARM GAS  /tmp/cclDP8Fi.s 			page 9


 328 000c 1C07     		lsls	r4, r3, #28	@, tmp157,
 329 000e 0AD0     		beq	.L26		@,
 121:../../peripheral_library/hal/m7221/src/halBDMA.c ****     {
 122:../../peripheral_library/hal/m7221/src/halBDMA.c ****     BDMA_ERR("MHal_BDMA_FlashToMIU: address or length should be 16 bytes aligned!!\n");
 330              		.loc 1 122 5 is_stmt 1 view .LVU43
 331 0010 204B     		ldr	r3, .L41	@ tmp159,
 332 0012 1B68     		ldr	r3, [r3]	@ gu32MosDbgLevel, gu32MosDbgLevel
 333 0014 D907     		lsls	r1, r3, #31	@, gu32MosDbgLevel,
 334              	.LVL15:
 335              		.loc 1 122 5 is_stmt 0 view .LVU44
 336 0016 02D4     		bmi	.L27		@,
 337              	.LVL16:
 338              	.L38:
 339              	@ ../../peripheral_library/hal/m7221/src/halBDMA.c:123:     return FALSE;
 123:../../peripheral_library/hal/m7221/src/halBDMA.c ****     return FALSE;
 340              		.loc 1 123 12 discriminator 1 view .LVU45
 341 0018 0020     		movs	r0, #0	@ <retval>,
 342              	.L35:
 343              	@ ../../peripheral_library/hal/m7221/src/halBDMA.c:156: }
 124:../../peripheral_library/hal/m7221/src/halBDMA.c ****     }
 125:../../peripheral_library/hal/m7221/src/halBDMA.c **** 
 126:../../peripheral_library/hal/m7221/src/halBDMA.c ****     for(i=0;i<5000;i++)
 127:../../peripheral_library/hal/m7221/src/halBDMA.c ****     {
 128:../../peripheral_library/hal/m7221/src/halBDMA.c ****     if(0==(INREG16(BDMA_REG_STATUS(channel)) & BDMA_CH_BUSY))
 129:../../peripheral_library/hal/m7221/src/halBDMA.c ****     {
 130:../../peripheral_library/hal/m7221/src/halBDMA.c ****     break;
 131:../../peripheral_library/hal/m7221/src/halBDMA.c ****     }
 132:../../peripheral_library/hal/m7221/src/halBDMA.c ****       MOS_mDelay(1);
 133:../../peripheral_library/hal/m7221/src/halBDMA.c ****     }
 134:../../peripheral_library/hal/m7221/src/halBDMA.c **** 
 135:../../peripheral_library/hal/m7221/src/halBDMA.c ****     if(5000==i)
 136:../../peripheral_library/hal/m7221/src/halBDMA.c ****     {
 137:../../peripheral_library/hal/m7221/src/halBDMA.c ****     BDMA_ERR("MHal_BDMA_FLASH_TO_MEM error!! device is busy!!\n");
 138:../../peripheral_library/hal/m7221/src/halBDMA.c ****     return FALSE;
 139:../../peripheral_library/hal/m7221/src/halBDMA.c ****     }
 140:../../peripheral_library/hal/m7221/src/halBDMA.c **** 
 141:../../peripheral_library/hal/m7221/src/halBDMA.c ****     OUTREG16(BDMA_REG_STATUS(channel),BDMA_CH_CLEAR_STATUS);
 142:../../peripheral_library/hal/m7221/src/halBDMA.c **** 
 143:../../peripheral_library/hal/m7221/src/halBDMA.c ****     OUTREG16(BDMA_REG_DEV_SEL(channel),0x4035);
 144:../../peripheral_library/hal/m7221/src/halBDMA.c ****     OUTREG16(BDMA_REG_SRC_ADDR_L(channel),(U16)(u32FlashAddr & 0xFFFF));
 145:../../peripheral_library/hal/m7221/src/halBDMA.c ****     OUTREG16(BDMA_REG_SRC_ADDR_H(channel),(U16)((u32FlashAddr>>16) & 0xFFFF));
 146:../../peripheral_library/hal/m7221/src/halBDMA.c **** 
 147:../../peripheral_library/hal/m7221/src/halBDMA.c ****     OUTREG16(BDMA_REG_DST_ADDR_L(channel),(U16)(u32DramAddr & 0xFFFF));
 148:../../peripheral_library/hal/m7221/src/halBDMA.c ****     OUTREG16(BDMA_REG_DST_ADDR_H (channel),(U16)((u32DramAddr>>16) & 0xFFFF));
 149:../../peripheral_library/hal/m7221/src/halBDMA.c **** 
 150:../../peripheral_library/hal/m7221/src/halBDMA.c ****     OUTREG16(BDMA_REG_SIZE_L(channel),(U16)(u32Len & 0xFFFF));
 151:../../peripheral_library/hal/m7221/src/halBDMA.c ****     OUTREG16(BDMA_REG_SIZE_H(channel),(U16)((u32Len>>16) & 0xFFFF));
 152:../../peripheral_library/hal/m7221/src/halBDMA.c **** 
 153:../../peripheral_library/hal/m7221/src/halBDMA.c ****     OUTREG16(BDMA_REG_CTRL(channel),BDMA_CH_TRIGGER);
 154:../../peripheral_library/hal/m7221/src/halBDMA.c **** 
 155:../../peripheral_library/hal/m7221/src/halBDMA.c ****     return TRUE;
 156:../../peripheral_library/hal/m7221/src/halBDMA.c **** }
 344              		.loc 1 156 1 view .LVU46
 345 001a BDE8F883 		pop	{r3, r4, r5, r6, r7, r8, r9, pc}	@
 346              	.LVL17:
 347              	.L27:
 122:../../peripheral_library/hal/m7221/src/halBDMA.c ****     return FALSE;
ARM GAS  /tmp/cclDP8Fi.s 			page 10


 348              		.loc 1 122 5 is_stmt 1 discriminator 1 view .LVU47
 349 001e 1E48     		ldr	r0, .L41+4	@,
 350              	.LVL18:
 122:../../peripheral_library/hal/m7221/src/halBDMA.c ****     return FALSE;
 351              		.loc 1 122 5 is_stmt 0 discriminator 1 view .LVU48
 352 0020 FFF7FEFF 		bl	UartSendTrace		@
 353              	.LVL19:
 122:../../peripheral_library/hal/m7221/src/halBDMA.c ****     return FALSE;
 354              		.loc 1 122 5 discriminator 1 view .LVU49
 355 0024 F8E7     		b	.L38		@
 356              	.LVL20:
 357              	.L26:
 358              	@ ../../peripheral_library/hal/m7221/src/halBDMA.c:128:     if(0==(INREG16(BDMA_REG_STATUS(channel)
 128:../../peripheral_library/hal/m7221/src/halBDMA.c ****     {
 359              		.loc 1 128 12 view .LVU50
 360 0026 1D4D     		ldr	r5, .L41+8	@ _9,
 361 0028 8301     		lsls	r3, r0, #6	@ tmp164, channel,
 362 002a 8846     		mov	r8, r1	@ u32FlashAddr, u32FlashAddr
 363 002c 1746     		mov	r7, r2	@ u32DramAddr, u32DramAddr
 364 002e 8146     		mov	r9, r0	@ channel, channel
 365 0030 1D44     		add	r5, r5, r3	@ _9, tmp164
 366 0032 41F28834 		movw	r4, #5000	@ ivtmp_2,
 367 0036 03E0     		b	.L30		@
 368              	.LVL21:
 369              	.L40:
 370              	@ ../../peripheral_library/hal/m7221/src/halBDMA.c:132:       MOS_mDelay(1);
 132:../../peripheral_library/hal/m7221/src/halBDMA.c ****     }
 371              		.loc 1 132 7 discriminator 2 view .LVU51
 372 0038 FFF7FEFF 		bl	MOS_mDelay		@
 373              	.LVL22:
 374              	@ ../../peripheral_library/hal/m7221/src/halBDMA.c:126:     for(i=0;i<5000;i++)
 126:../../peripheral_library/hal/m7221/src/halBDMA.c ****     {
 375              		.loc 1 126 5 discriminator 2 view .LVU52
 376 003c 013C     		subs	r4, r4, #1	@ ivtmp_2, ivtmp_2,
 377 003e 20D0     		beq	.L39		@,
 378              	.L30:
 128:../../peripheral_library/hal/m7221/src/halBDMA.c ****     {
 379              		.loc 1 128 5 is_stmt 1 view .LVU53
 132:../../peripheral_library/hal/m7221/src/halBDMA.c ****     }
 380              		.loc 1 132 7 view .LVU54
 381              	@ ../../peripheral_library/hal/m7221/src/halBDMA.c:128:     if(0==(INREG16(BDMA_REG_STATUS(channel)
 128:../../peripheral_library/hal/m7221/src/halBDMA.c ****     {
 382              		.loc 1 128 12 is_stmt 0 view .LVU55
 383 0040 2B88     		ldrh	r3, [r5]	@, *_10
 384              	@ ../../peripheral_library/hal/m7221/src/halBDMA.c:128:     if(0==(INREG16(BDMA_REG_STATUS(channel)
 128:../../peripheral_library/hal/m7221/src/halBDMA.c ****     {
 385              		.loc 1 128 7 view .LVU56
 386 0042 9A07     		lsls	r2, r3, #30	@, *_10,
 387              	@ ../../peripheral_library/hal/m7221/src/halBDMA.c:132:       MOS_mDelay(1);
 132:../../peripheral_library/hal/m7221/src/halBDMA.c ****     }
 388              		.loc 1 132 7 view .LVU57
 389 0044 4FF00100 		mov	r0, #1	@,
 390              	@ ../../peripheral_library/hal/m7221/src/halBDMA.c:128:     if(0==(INREG16(BDMA_REG_STATUS(channel)
 128:../../peripheral_library/hal/m7221/src/halBDMA.c ****     {
 391              		.loc 1 128 7 view .LVU58
 392 0048 F6D4     		bmi	.L40		@,
 135:../../peripheral_library/hal/m7221/src/halBDMA.c ****     {
ARM GAS  /tmp/cclDP8Fi.s 			page 11


 393              		.loc 1 135 5 is_stmt 1 view .LVU59
 141:../../peripheral_library/hal/m7221/src/halBDMA.c **** 
 394              		.loc 1 141 5 view .LVU60
 395              	@ ../../peripheral_library/hal/m7221/src/halBDMA.c:153:     OUTREG16(BDMA_REG_CTRL(channel),BDMA_CH
 153:../../peripheral_library/hal/m7221/src/halBDMA.c **** 
 396              		.loc 1 153 5 is_stmt 0 view .LVU61
 397 004a 154B     		ldr	r3, .L41+12	@ tmp185,
 398              	@ ../../peripheral_library/hal/m7221/src/halBDMA.c:141:     OUTREG16(BDMA_REG_STATUS(channel),BDMA_
 141:../../peripheral_library/hal/m7221/src/halBDMA.c **** 
 399              		.loc 1 141 5 view .LVU62
 400 004c 1C22     		movs	r2, #28	@ tmp173,
 401              	@ ../../peripheral_library/hal/m7221/src/halBDMA.c:153:     OUTREG16(BDMA_REG_CTRL(channel),BDMA_CH
 153:../../peripheral_library/hal/m7221/src/halBDMA.c **** 
 402              		.loc 1 153 5 view .LVU63
 403 004e 4B44     		add	r3, r3, r9	@ tmp185, channel
 404              	@ ../../peripheral_library/hal/m7221/src/halBDMA.c:141:     OUTREG16(BDMA_REG_STATUS(channel),BDMA_
 141:../../peripheral_library/hal/m7221/src/halBDMA.c **** 
 405              		.loc 1 141 5 view .LVU64
 406 0050 2A80     		strh	r2, [r5]	@ movhi	@ tmp173, *_10
 143:../../peripheral_library/hal/m7221/src/halBDMA.c ****     OUTREG16(BDMA_REG_SRC_ADDR_L(channel),(U16)(u32FlashAddr & 0xFFFF));
 407              		.loc 1 143 5 is_stmt 1 view .LVU65
 408              	@ ../../peripheral_library/hal/m7221/src/halBDMA.c:153:     OUTREG16(BDMA_REG_CTRL(channel),BDMA_CH
 153:../../peripheral_library/hal/m7221/src/halBDMA.c **** 
 409              		.loc 1 153 5 is_stmt 0 view .LVU66
 410 0052 9B01     		lsls	r3, r3, #6	@ _52, tmp185,
 411              	@ ../../peripheral_library/hal/m7221/src/halBDMA.c:144:     OUTREG16(BDMA_REG_SRC_ADDR_L(channel),(
 144:../../peripheral_library/hal/m7221/src/halBDMA.c ****     OUTREG16(BDMA_REG_SRC_ADDR_H(channel),(U16)((u32FlashAddr>>16) & 0xFFFF));
 412              		.loc 1 144 5 view .LVU67
 413 0054 1FFA88F2 		uxth	r2, r8	@ _26, u32FlashAddr
 414              	@ ../../peripheral_library/hal/m7221/src/halBDMA.c:143:     OUTREG16(BDMA_REG_DEV_SEL(channel),0x40
 143:../../peripheral_library/hal/m7221/src/halBDMA.c ****     OUTREG16(BDMA_REG_SRC_ADDR_L(channel),(U16)(u32FlashAddr & 0xFFFF));
 415              		.loc 1 143 5 view .LVU68
 416 0058 44F23501 		movw	r1, #16437	@ tmp175,
 417 005c A980     		strh	r1, [r5, #4]	@ movhi	@ tmp175, *_22
 144:../../peripheral_library/hal/m7221/src/halBDMA.c ****     OUTREG16(BDMA_REG_SRC_ADDR_H(channel),(U16)((u32FlashAddr>>16) & 0xFFFF));
 418              		.loc 1 144 5 is_stmt 1 view .LVU69
 419              	@ ../../peripheral_library/hal/m7221/src/halBDMA.c:147:     OUTREG16(BDMA_REG_DST_ADDR_L(channel),(
 147:../../peripheral_library/hal/m7221/src/halBDMA.c ****     OUTREG16(BDMA_REG_DST_ADDR_H (channel),(U16)((u32DramAddr>>16) & 0xFFFF));
 420              		.loc 1 147 5 is_stmt 0 view .LVU70
 421 005e B8B2     		uxth	r0, r7	@ _35, u32DramAddr
 422              	@ ../../peripheral_library/hal/m7221/src/halBDMA.c:144:     OUTREG16(BDMA_REG_SRC_ADDR_L(channel),(
 144:../../peripheral_library/hal/m7221/src/halBDMA.c ****     OUTREG16(BDMA_REG_SRC_ADDR_H(channel),(U16)((u32FlashAddr>>16) & 0xFFFF));
 423              		.loc 1 144 5 view .LVU71
 424 0060 AA81     		strh	r2, [r5, #12]	@ movhi	@ _26, *_25
 145:../../peripheral_library/hal/m7221/src/halBDMA.c **** 
 425              		.loc 1 145 5 is_stmt 1 view .LVU72
 426              	@ ../../peripheral_library/hal/m7221/src/halBDMA.c:150:     OUTREG16(BDMA_REG_SIZE_L(channel),(U16)
 150:../../peripheral_library/hal/m7221/src/halBDMA.c ****     OUTREG16(BDMA_REG_SIZE_H(channel),(U16)((u32Len>>16) & 0xFFFF));
 427              		.loc 1 150 5 is_stmt 0 view .LVU73
 428 0062 B1B2     		uxth	r1, r6	@ _44, u32Len
 429              	@ ../../peripheral_library/hal/m7221/src/halBDMA.c:153:     OUTREG16(BDMA_REG_CTRL(channel),BDMA_CH
 153:../../peripheral_library/hal/m7221/src/halBDMA.c **** 
 430              		.loc 1 153 5 view .LVU74
 431 0064 0122     		movs	r2, #1	@ tmp188,
 432              	@ ../../peripheral_library/hal/m7221/src/halBDMA.c:145:     OUTREG16(BDMA_REG_SRC_ADDR_H(channel),(
 145:../../peripheral_library/hal/m7221/src/halBDMA.c **** 
 433              		.loc 1 145 5 view .LVU75
ARM GAS  /tmp/cclDP8Fi.s 			page 12


 434 0066 4FEA1848 		lsr	r8, r8, #16	@ _31, u32FlashAddr,
 435              	.LVL23:
 436              	@ ../../peripheral_library/hal/m7221/src/halBDMA.c:148:     OUTREG16(BDMA_REG_DST_ADDR_H (channel),
 148:../../peripheral_library/hal/m7221/src/halBDMA.c **** 
 437              		.loc 1 148 5 view .LVU76
 438 006a 3F0C     		lsrs	r7, r7, #16	@ _40, u32DramAddr,
 439              	.LVL24:
 440              	@ ../../peripheral_library/hal/m7221/src/halBDMA.c:151:     OUTREG16(BDMA_REG_SIZE_H(channel),(U16)
 151:../../peripheral_library/hal/m7221/src/halBDMA.c **** 
 441              		.loc 1 151 5 view .LVU77
 442 006c 360C     		lsrs	r6, r6, #16	@ _49, u32Len,
 443              	.LVL25:
 444              	@ ../../peripheral_library/hal/m7221/src/halBDMA.c:145:     OUTREG16(BDMA_REG_SRC_ADDR_H(channel),(
 145:../../peripheral_library/hal/m7221/src/halBDMA.c **** 
 445              		.loc 1 145 5 view .LVU78
 446 006e A5F81080 		strh	r8, [r5, #16]	@ movhi	@ _31, *_30
 147:../../peripheral_library/hal/m7221/src/halBDMA.c ****     OUTREG16(BDMA_REG_DST_ADDR_H (channel),(U16)((u32DramAddr>>16) & 0xFFFF));
 447              		.loc 1 147 5 is_stmt 1 view .LVU79
 448 0072 A882     		strh	r0, [r5, #20]	@ movhi	@ _35, *_34
 148:../../peripheral_library/hal/m7221/src/halBDMA.c **** 
 449              		.loc 1 148 5 view .LVU80
 450 0074 2F83     		strh	r7, [r5, #24]	@ movhi	@ _40, *_39
 150:../../peripheral_library/hal/m7221/src/halBDMA.c ****     OUTREG16(BDMA_REG_SIZE_H(channel),(U16)((u32Len>>16) & 0xFFFF));
 451              		.loc 1 150 5 view .LVU81
 452              	@ ../../peripheral_library/hal/m7221/src/halBDMA.c:155:     return TRUE;
 155:../../peripheral_library/hal/m7221/src/halBDMA.c **** }
 453              		.loc 1 155 12 is_stmt 0 view .LVU82
 454 0076 1046     		mov	r0, r2	@ <retval>, tmp188
 455              	@ ../../peripheral_library/hal/m7221/src/halBDMA.c:150:     OUTREG16(BDMA_REG_SIZE_L(channel),(U16)
 150:../../peripheral_library/hal/m7221/src/halBDMA.c ****     OUTREG16(BDMA_REG_SIZE_H(channel),(U16)((u32Len>>16) & 0xFFFF));
 456              		.loc 1 150 5 view .LVU83
 457 0078 A983     		strh	r1, [r5, #28]	@ movhi	@ _44, *_43
 151:../../peripheral_library/hal/m7221/src/halBDMA.c **** 
 458              		.loc 1 151 5 is_stmt 1 view .LVU84
 459 007a 2E84     		strh	r6, [r5, #32]	@ movhi	@ _49, *_48
 153:../../peripheral_library/hal/m7221/src/halBDMA.c **** 
 460              		.loc 1 153 5 view .LVU85
 461 007c 1A80     		strh	r2, [r3]	@ movhi	@ tmp188, *_52
 155:../../peripheral_library/hal/m7221/src/halBDMA.c **** }
 462              		.loc 1 155 5 view .LVU86
 463              	@ ../../peripheral_library/hal/m7221/src/halBDMA.c:156: }
 464              		.loc 1 156 1 is_stmt 0 view .LVU87
 465 007e BDE8F883 		pop	{r3, r4, r5, r6, r7, r8, r9, pc}	@
 466              	.LVL26:
 467              	.L39:
 135:../../peripheral_library/hal/m7221/src/halBDMA.c ****     {
 468              		.loc 1 135 5 is_stmt 1 view .LVU88
 137:../../peripheral_library/hal/m7221/src/halBDMA.c ****     return FALSE;
 469              		.loc 1 137 5 view .LVU89
 470 0082 044B     		ldr	r3, .L41	@ tmp189,
 471 0084 1B68     		ldr	r3, [r3]	@ gu32MosDbgLevel, gu32MosDbgLevel
 472 0086 DB07     		lsls	r3, r3, #31	@, gu32MosDbgLevel,
 473 0088 C6D5     		bpl	.L38		@,
 137:../../peripheral_library/hal/m7221/src/halBDMA.c ****     return FALSE;
 474              		.loc 1 137 5 discriminator 1 view .LVU90
 475 008a 0648     		ldr	r0, .L41+16	@,
 476 008c FFF7FEFF 		bl	UartSendTrace		@
ARM GAS  /tmp/cclDP8Fi.s 			page 13


 477              	.LVL27:
 478              	@ ../../peripheral_library/hal/m7221/src/halBDMA.c:138:     return FALSE;
 138:../../peripheral_library/hal/m7221/src/halBDMA.c ****     }
 479              		.loc 1 138 12 is_stmt 0 discriminator 1 view .LVU91
 480 0090 2046     		mov	r0, r4	@ <retval>, ivtmp_2
 481 0092 C2E7     		b	.L35		@
 482              	.L42:
 483              		.align	2
 484              	.L41:
 485 0094 00000000 		.word	gu32MosDbgLevel
 486 0098 00000000 		.word	.LC0
 487 009c 04342A40 		.word	1076507652
 488 00a0 D0A80001 		.word	16820432
 489 00a4 54000000 		.word	.LC1
 490              		.cfi_endproc
 491              	.LFE137:
 492              		.size	MHal_BDMA_FlashToMIU, .-MHal_BDMA_FlashToMIU
 493              		.section	.text.MHal_BDMA_CalculateCRC32FromMIU,"ax",%progbits
 494              		.align	1
 495              		.p2align 2,,3
 496              		.global	MHal_BDMA_CalculateCRC32FromMIU
 497              		.syntax unified
 498              		.thumb
 499              		.thumb_func
 500              		.fpu fpv4-sp-d16
 501              		.type	MHal_BDMA_CalculateCRC32FromMIU, %function
 502              	MHal_BDMA_CalculateCRC32FromMIU:
 503              	.LVL28:
 504              	.LFB138:
 157:../../peripheral_library/hal/m7221/src/halBDMA.c **** 
 158:../../peripheral_library/hal/m7221/src/halBDMA.c **** BOOL MHal_BDMA_CalculateCRC32FromMIU(BDMA_Ch channel, U32 u32DramAddr, U32 u32Len)
 159:../../peripheral_library/hal/m7221/src/halBDMA.c **** {
 505              		.loc 1 159 1 is_stmt 1 view -0
 506              		.cfi_startproc
 507              		@ args = 0, pretend = 0, frame = 0
 508              		@ frame_needed = 0, uses_anonymous_args = 0
 509              		@ link register save eliminated.
 160:../../peripheral_library/hal/m7221/src/halBDMA.c ****     //u32DramAddr &= (~MIU0_START_ADDR);
 161:../../peripheral_library/hal/m7221/src/halBDMA.c **** 
 162:../../peripheral_library/hal/m7221/src/halBDMA.c ****     OUTREG16(BDMA_REG_STATUS(channel),BDMA_CH_CLEAR_STATUS);
 510              		.loc 1 162 5 view .LVU93
 511 0000 124B     		ldr	r3, .L45	@ _4,
 512              	@ ../../peripheral_library/hal/m7221/src/halBDMA.c:159: {
 159:../../peripheral_library/hal/m7221/src/halBDMA.c ****     //u32DramAddr &= (~MIU0_START_ADDR);
 513              		.loc 1 159 1 is_stmt 0 view .LVU94
 514 0002 70B4     		push	{r4, r5, r6}	@
 515              		.cfi_def_cfa_offset 12
 516              		.cfi_offset 4, -12
 517              		.cfi_offset 5, -8
 518              		.cfi_offset 6, -4
 519              	@ ../../peripheral_library/hal/m7221/src/halBDMA.c:162:     OUTREG16(BDMA_REG_STATUS(channel),BDMA_
 520              		.loc 1 162 5 view .LVU95
 521 0004 8501     		lsls	r5, r0, #6	@ tmp151, channel,
 522              	@ ../../peripheral_library/hal/m7221/src/halBDMA.c:180:     OUTREG16(BDMA_REG_CTRL(channel),BDMA_CH
 163:../../peripheral_library/hal/m7221/src/halBDMA.c **** 
 164:../../peripheral_library/hal/m7221/src/halBDMA.c ****     OUTREG16(BDMA_REG_DEV_SEL(channel),0x0340);
 165:../../peripheral_library/hal/m7221/src/halBDMA.c ****     OUTREG16(BDMA_REG_SRC_ADDR_L(channel),(U16)(u32DramAddr & 0xFFFF));
ARM GAS  /tmp/cclDP8Fi.s 			page 14


 166:../../peripheral_library/hal/m7221/src/halBDMA.c ****     OUTREG16(BDMA_REG_SRC_ADDR_H(channel),(U16)((u32DramAddr>>16) & 0xFFFF));
 167:../../peripheral_library/hal/m7221/src/halBDMA.c **** 
 168:../../peripheral_library/hal/m7221/src/halBDMA.c ****     OUTREG16(BDMA_REG_DST_ADDR_L(channel), 0);
 169:../../peripheral_library/hal/m7221/src/halBDMA.c ****     OUTREG16(BDMA_REG_DST_ADDR_H(channel), 0);
 170:../../peripheral_library/hal/m7221/src/halBDMA.c **** 
 171:../../peripheral_library/hal/m7221/src/halBDMA.c ****     OUTREG16(BDMA_REG_SIZE_L(channel),(U16)(u32Len & 0xFFFF));
 172:../../peripheral_library/hal/m7221/src/halBDMA.c ****     OUTREG16(BDMA_REG_SIZE_H(channel),(U16)((u32Len>>16) & 0xFFFF));
 173:../../peripheral_library/hal/m7221/src/halBDMA.c **** 
 174:../../peripheral_library/hal/m7221/src/halBDMA.c ****     OUTREG16(BDMA_REG_CMD0_L(channel), 0x1db7);
 175:../../peripheral_library/hal/m7221/src/halBDMA.c ****     OUTREG16(BDMA_REG_CMD0_H(channel), 0x04c1);
 176:../../peripheral_library/hal/m7221/src/halBDMA.c **** 
 177:../../peripheral_library/hal/m7221/src/halBDMA.c ****     OUTREG16(BDMA_REG_CMD1_L(channel), 0xFFFF);
 178:../../peripheral_library/hal/m7221/src/halBDMA.c ****     OUTREG16(BDMA_REG_CMD1_H(channel), 0xFFFF);
 179:../../peripheral_library/hal/m7221/src/halBDMA.c **** 
 180:../../peripheral_library/hal/m7221/src/halBDMA.c ****     OUTREG16(BDMA_REG_CTRL(channel),BDMA_CH_TRIGGER);
 523              		.loc 1 180 5 view .LVU96
 524 0006 124C     		ldr	r4, .L45+4	@ tmp175,
 525              	@ ../../peripheral_library/hal/m7221/src/halBDMA.c:162:     OUTREG16(BDMA_REG_STATUS(channel),BDMA_
 162:../../peripheral_library/hal/m7221/src/halBDMA.c **** 
 526              		.loc 1 162 5 view .LVU97
 527 0008 2B44     		add	r3, r3, r5	@ _4, tmp151
 528              	@ ../../peripheral_library/hal/m7221/src/halBDMA.c:180:     OUTREG16(BDMA_REG_CTRL(channel),BDMA_CH
 529              		.loc 1 180 5 view .LVU98
 530 000a 0444     		add	r4, r4, r0	@ tmp175, channel
 531              	@ ../../peripheral_library/hal/m7221/src/halBDMA.c:162:     OUTREG16(BDMA_REG_STATUS(channel),BDMA_
 162:../../peripheral_library/hal/m7221/src/halBDMA.c **** 
 532              		.loc 1 162 5 view .LVU99
 533 000c 1C25     		movs	r5, #28	@ tmp154,
 534              	@ ../../peripheral_library/hal/m7221/src/halBDMA.c:164:     OUTREG16(BDMA_REG_DEV_SEL(channel),0x03
 164:../../peripheral_library/hal/m7221/src/halBDMA.c ****     OUTREG16(BDMA_REG_SRC_ADDR_L(channel),(U16)(u32DramAddr & 0xFFFF));
 535              		.loc 1 164 5 view .LVU100
 536 000e 4FF45070 		mov	r0, #832	@ tmp156,
 537              	.LVL29:
 538              	@ ../../peripheral_library/hal/m7221/src/halBDMA.c:162:     OUTREG16(BDMA_REG_STATUS(channel),BDMA_
 162:../../peripheral_library/hal/m7221/src/halBDMA.c **** 
 539              		.loc 1 162 5 view .LVU101
 540 0012 1D80     		strh	r5, [r3]	@ movhi	@ tmp154, *_5
 164:../../peripheral_library/hal/m7221/src/halBDMA.c ****     OUTREG16(BDMA_REG_SRC_ADDR_L(channel),(U16)(u32DramAddr & 0xFFFF));
 541              		.loc 1 164 5 is_stmt 1 view .LVU102
 542              	@ ../../peripheral_library/hal/m7221/src/halBDMA.c:171:     OUTREG16(BDMA_REG_SIZE_L(channel),(U16)
 171:../../peripheral_library/hal/m7221/src/halBDMA.c ****     OUTREG16(BDMA_REG_SIZE_H(channel),(U16)((u32Len>>16) & 0xFFFF));
 543              		.loc 1 171 5 is_stmt 0 view .LVU103
 544 0014 96B2     		uxth	r6, r2	@ _27, u32Len
 545              	@ ../../peripheral_library/hal/m7221/src/halBDMA.c:164:     OUTREG16(BDMA_REG_DEV_SEL(channel),0x03
 164:../../peripheral_library/hal/m7221/src/halBDMA.c ****     OUTREG16(BDMA_REG_SRC_ADDR_L(channel),(U16)(u32DramAddr & 0xFFFF));
 546              		.loc 1 164 5 view .LVU104
 547 0016 9880     		strh	r0, [r3, #4]	@ movhi	@ tmp156, *_8
 165:../../peripheral_library/hal/m7221/src/halBDMA.c ****     OUTREG16(BDMA_REG_SRC_ADDR_H(channel),(U16)((u32DramAddr>>16) & 0xFFFF));
 548              		.loc 1 165 5 is_stmt 1 view .LVU105
 549 0018 8DB2     		uxth	r5, r1	@ _12, u32DramAddr
 550              	@ ../../peripheral_library/hal/m7221/src/halBDMA.c:168:     OUTREG16(BDMA_REG_DST_ADDR_L(channel), 
 168:../../peripheral_library/hal/m7221/src/halBDMA.c ****     OUTREG16(BDMA_REG_DST_ADDR_H(channel), 0);
 551              		.loc 1 168 5 is_stmt 0 view .LVU106
 552 001a 0020     		movs	r0, #0	@ tmp161,
 553              	@ ../../peripheral_library/hal/m7221/src/halBDMA.c:180:     OUTREG16(BDMA_REG_CTRL(channel),BDMA_CH
 554              		.loc 1 180 5 view .LVU107
 555 001c A401     		lsls	r4, r4, #6	@ _47, tmp175,
ARM GAS  /tmp/cclDP8Fi.s 			page 15


 556              	@ ../../peripheral_library/hal/m7221/src/halBDMA.c:166:     OUTREG16(BDMA_REG_SRC_ADDR_H(channel),(
 166:../../peripheral_library/hal/m7221/src/halBDMA.c **** 
 557              		.loc 1 166 5 view .LVU108
 558 001e 090C     		lsrs	r1, r1, #16	@ _17, u32DramAddr,
 559              	.LVL30:
 560              	@ ../../peripheral_library/hal/m7221/src/halBDMA.c:172:     OUTREG16(BDMA_REG_SIZE_H(channel),(U16)
 172:../../peripheral_library/hal/m7221/src/halBDMA.c **** 
 561              		.loc 1 172 5 view .LVU109
 562 0020 120C     		lsrs	r2, r2, #16	@ _32, u32Len,
 563              	.LVL31:
 564              	@ ../../peripheral_library/hal/m7221/src/halBDMA.c:165:     OUTREG16(BDMA_REG_SRC_ADDR_L(channel),(
 165:../../peripheral_library/hal/m7221/src/halBDMA.c ****     OUTREG16(BDMA_REG_SRC_ADDR_H(channel),(U16)((u32DramAddr>>16) & 0xFFFF));
 565              		.loc 1 165 5 view .LVU110
 566 0022 9D81     		strh	r5, [r3, #12]	@ movhi	@ _12, *_11
 166:../../peripheral_library/hal/m7221/src/halBDMA.c **** 
 567              		.loc 1 166 5 is_stmt 1 view .LVU111
 568 0024 1982     		strh	r1, [r3, #16]	@ movhi	@ _17, *_16
 168:../../peripheral_library/hal/m7221/src/halBDMA.c ****     OUTREG16(BDMA_REG_DST_ADDR_H(channel), 0);
 569              		.loc 1 168 5 view .LVU112
 570              	@ ../../peripheral_library/hal/m7221/src/halBDMA.c:174:     OUTREG16(BDMA_REG_CMD0_L(channel), 0x1d
 174:../../peripheral_library/hal/m7221/src/halBDMA.c ****     OUTREG16(BDMA_REG_CMD0_H(channel), 0x04c1);
 571              		.loc 1 174 5 is_stmt 0 view .LVU113
 572 0026 41F6B755 		movw	r5, #7607	@ tmp168,
 573              	@ ../../peripheral_library/hal/m7221/src/halBDMA.c:168:     OUTREG16(BDMA_REG_DST_ADDR_L(channel), 
 168:../../peripheral_library/hal/m7221/src/halBDMA.c ****     OUTREG16(BDMA_REG_DST_ADDR_H(channel), 0);
 574              		.loc 1 168 5 view .LVU114
 575 002a 9882     		strh	r0, [r3, #20]	@ movhi	@ tmp161, *_20
 169:../../peripheral_library/hal/m7221/src/halBDMA.c **** 
 576              		.loc 1 169 5 is_stmt 1 view .LVU115
 577              	@ ../../peripheral_library/hal/m7221/src/halBDMA.c:177:     OUTREG16(BDMA_REG_CMD1_L(channel), 0xFF
 177:../../peripheral_library/hal/m7221/src/halBDMA.c ****     OUTREG16(BDMA_REG_CMD1_H(channel), 0xFFFF);
 578              		.loc 1 177 5 is_stmt 0 view .LVU116
 579 002c 4FF6FF71 		movw	r1, #65535	@ tmp172,
 580              	@ ../../peripheral_library/hal/m7221/src/halBDMA.c:169:     OUTREG16(BDMA_REG_DST_ADDR_H(channel), 
 169:../../peripheral_library/hal/m7221/src/halBDMA.c **** 
 581              		.loc 1 169 5 view .LVU117
 582 0030 1883     		strh	r0, [r3, #24]	@ movhi	@ tmp161, *_23
 171:../../peripheral_library/hal/m7221/src/halBDMA.c ****     OUTREG16(BDMA_REG_SIZE_H(channel),(U16)((u32Len>>16) & 0xFFFF));
 583              		.loc 1 171 5 is_stmt 1 view .LVU118
 584 0032 9E83     		strh	r6, [r3, #28]	@ movhi	@ _27, *_26
 172:../../peripheral_library/hal/m7221/src/halBDMA.c **** 
 585              		.loc 1 172 5 view .LVU119
 586              	@ ../../peripheral_library/hal/m7221/src/halBDMA.c:175:     OUTREG16(BDMA_REG_CMD0_H(channel), 0x04
 175:../../peripheral_library/hal/m7221/src/halBDMA.c **** 
 587              		.loc 1 175 5 is_stmt 0 view .LVU120
 588 0034 40F2C140 		movw	r0, #1217	@ tmp170,
 589              	@ ../../peripheral_library/hal/m7221/src/halBDMA.c:172:     OUTREG16(BDMA_REG_SIZE_H(channel),(U16)
 172:../../peripheral_library/hal/m7221/src/halBDMA.c **** 
 590              		.loc 1 172 5 view .LVU121
 591 0038 1A84     		strh	r2, [r3, #32]	@ movhi	@ _32, *_31
 174:../../peripheral_library/hal/m7221/src/halBDMA.c ****     OUTREG16(BDMA_REG_CMD0_H(channel), 0x04c1);
 592              		.loc 1 174 5 is_stmt 1 view .LVU122
 593              	@ ../../peripheral_library/hal/m7221/src/halBDMA.c:180:     OUTREG16(BDMA_REG_CTRL(channel),BDMA_CH
 594              		.loc 1 180 5 is_stmt 0 view .LVU123
 595 003a 0122     		movs	r2, #1	@ tmp178,
 596              	@ ../../peripheral_library/hal/m7221/src/halBDMA.c:174:     OUTREG16(BDMA_REG_CMD0_L(channel), 0x1d
 174:../../peripheral_library/hal/m7221/src/halBDMA.c ****     OUTREG16(BDMA_REG_CMD0_H(channel), 0x04c1);
ARM GAS  /tmp/cclDP8Fi.s 			page 16


 597              		.loc 1 174 5 view .LVU124
 598 003c 9D84     		strh	r5, [r3, #36]	@ movhi	@ tmp168, *_35
 175:../../peripheral_library/hal/m7221/src/halBDMA.c **** 
 599              		.loc 1 175 5 is_stmt 1 view .LVU125
 600 003e 1885     		strh	r0, [r3, #40]	@ movhi	@ tmp170, *_38
 177:../../peripheral_library/hal/m7221/src/halBDMA.c ****     OUTREG16(BDMA_REG_CMD1_H(channel), 0xFFFF);
 601              		.loc 1 177 5 view .LVU126
 602 0040 9985     		strh	r1, [r3, #44]	@ movhi	@ tmp172, *_41
 178:../../peripheral_library/hal/m7221/src/halBDMA.c **** 
 603              		.loc 1 178 5 view .LVU127
 604              	@ ../../peripheral_library/hal/m7221/src/halBDMA.c:183: }
 181:../../peripheral_library/hal/m7221/src/halBDMA.c **** 
 182:../../peripheral_library/hal/m7221/src/halBDMA.c ****     return TRUE;
 183:../../peripheral_library/hal/m7221/src/halBDMA.c **** }
 605              		.loc 1 183 1 is_stmt 0 view .LVU128
 606 0042 1046     		mov	r0, r2	@, tmp178
 607              	@ ../../peripheral_library/hal/m7221/src/halBDMA.c:178:     OUTREG16(BDMA_REG_CMD1_H(channel), 0xFF
 178:../../peripheral_library/hal/m7221/src/halBDMA.c **** 
 608              		.loc 1 178 5 view .LVU129
 609 0044 1986     		strh	r1, [r3, #48]	@ movhi	@ tmp172, *_44
 180:../../peripheral_library/hal/m7221/src/halBDMA.c **** 
 610              		.loc 1 180 5 is_stmt 1 view .LVU130
 611 0046 2280     		strh	r2, [r4]	@ movhi	@ tmp178, *_47
 182:../../peripheral_library/hal/m7221/src/halBDMA.c **** }
 612              		.loc 1 182 5 view .LVU131
 613              	@ ../../peripheral_library/hal/m7221/src/halBDMA.c:183: }
 614              		.loc 1 183 1 is_stmt 0 view .LVU132
 615 0048 70BC     		pop	{r4, r5, r6}	@
 616              		.cfi_restore 6
 617              		.cfi_restore 5
 618              		.cfi_restore 4
 619              		.cfi_def_cfa_offset 0
 620 004a 7047     		bx	lr	@
 621              	.L46:
 622              		.align	2
 623              	.L45:
 624 004c 04342A40 		.word	1076507652
 625 0050 D0A80001 		.word	16820432
 626              		.cfi_endproc
 627              	.LFE138:
 628              		.size	MHal_BDMA_CalculateCRC32FromMIU, .-MHal_BDMA_CalculateCRC32FromMIU
 629              		.section	.text.MHal_BDMA_GetCRC32,"ax",%progbits
 630              		.align	1
 631              		.p2align 2,,3
 632              		.global	MHal_BDMA_GetCRC32
 633              		.syntax unified
 634              		.thumb
 635              		.thumb_func
 636              		.fpu fpv4-sp-d16
 637              		.type	MHal_BDMA_GetCRC32, %function
 638              	MHal_BDMA_GetCRC32:
 639              	.LVL32:
 640              	.LFB139:
 184:../../peripheral_library/hal/m7221/src/halBDMA.c **** 
 185:../../peripheral_library/hal/m7221/src/halBDMA.c **** U32 MHal_BDMA_GetCRC32(BDMA_Ch channel)
 186:../../peripheral_library/hal/m7221/src/halBDMA.c **** {
 641              		.loc 1 186 1 is_stmt 1 view -0
ARM GAS  /tmp/cclDP8Fi.s 			page 17


 642              		.cfi_startproc
 643              		@ args = 0, pretend = 0, frame = 0
 644              		@ frame_needed = 0, uses_anonymous_args = 0
 645              		@ link register save eliminated.
 187:../../peripheral_library/hal/m7221/src/halBDMA.c ****     return (INREG16(BDMA_REG_CMD1_L(channel)) | (INREG16(BDMA_REG_CMD1_H(channel)) <<16));
 646              		.loc 1 187 5 view .LVU134
 647              	@ ../../peripheral_library/hal/m7221/src/halBDMA.c:187:     return (INREG16(BDMA_REG_CMD1_L(channel
 648              		.loc 1 187 13 is_stmt 0 view .LVU135
 649 0000 034B     		ldr	r3, .L48	@ _4,
 650 0002 8001     		lsls	r0, r0, #6	@ tmp126, channel,
 651              	.LVL33:
 652              		.loc 1 187 13 view .LVU136
 653 0004 0344     		add	r3, r3, r0	@ _4, tmp126
 654 0006 1A88     		ldrh	r2, [r3]	@, *_5
 655              	@ ../../peripheral_library/hal/m7221/src/halBDMA.c:187:     return (INREG16(BDMA_REG_CMD1_L(channel
 656              		.loc 1 187 50 view .LVU137
 657 0008 9888     		ldrh	r0, [r3, #4]	@, *_10
 658              	@ ../../peripheral_library/hal/m7221/src/halBDMA.c:188: }
 188:../../peripheral_library/hal/m7221/src/halBDMA.c **** }
 659              		.loc 1 188 1 view .LVU138
 660 000a 42EA0040 		orr	r0, r2, r0, lsl #16	@, *_5, *_10,
 661 000e 7047     		bx	lr	@
 662              	.L49:
 663              		.align	2
 664              	.L48:
 665 0010 30342A40 		.word	1076507696
 666              		.cfi_endproc
 667              	.LFE139:
 668              		.size	MHal_BDMA_GetCRC32, .-MHal_BDMA_GetCRC32
 669              		.section	.text.MHal_BDMA_IMItoMIU,"ax",%progbits
 670              		.align	1
 671              		.p2align 2,,3
 672              		.global	MHal_BDMA_IMItoMIU
 673              		.syntax unified
 674              		.thumb
 675              		.thumb_func
 676              		.fpu fpv4-sp-d16
 677              		.type	MHal_BDMA_IMItoMIU, %function
 678              	MHal_BDMA_IMItoMIU:
 679              	.LVL34:
 680              	.LFB140:
 189:../../peripheral_library/hal/m7221/src/halBDMA.c **** 
 190:../../peripheral_library/hal/m7221/src/halBDMA.c **** BOOL MHal_BDMA_IMItoMIU(BDMA_Ch channel, U32 u32Src, U32 u32Dst, U32 u32Len)
 191:../../peripheral_library/hal/m7221/src/halBDMA.c **** {
 681              		.loc 1 191 1 is_stmt 1 view -0
 682              		.cfi_startproc
 683              		@ args = 0, pretend = 0, frame = 0
 684              		@ frame_needed = 0, uses_anonymous_args = 0
 685              		@ link register save eliminated.
 192:../../peripheral_library/hal/m7221/src/halBDMA.c **** 
 193:../../peripheral_library/hal/m7221/src/halBDMA.c ****     //u32Src &= (~MIU_BASE_ADDR);
 194:../../peripheral_library/hal/m7221/src/halBDMA.c ****     //u32Dst &= (~MIU_BASE_ADDR);
 195:../../peripheral_library/hal/m7221/src/halBDMA.c **** 
 196:../../peripheral_library/hal/m7221/src/halBDMA.c ****     OUTREG16(BDMA_REG_STATUS(channel),BDMA_CH_CLEAR_STATUS);
 686              		.loc 1 196 5 view .LVU140
 687              	@ ../../peripheral_library/hal/m7221/src/halBDMA.c:191: {
 191:../../peripheral_library/hal/m7221/src/halBDMA.c **** 
ARM GAS  /tmp/cclDP8Fi.s 			page 18


 688              		.loc 1 191 1 is_stmt 0 view .LVU141
 689 0000 70B4     		push	{r4, r5, r6}	@
 690              		.cfi_def_cfa_offset 12
 691              		.cfi_offset 4, -12
 692              		.cfi_offset 5, -8
 693              		.cfi_offset 6, -4
 694              	@ ../../peripheral_library/hal/m7221/src/halBDMA.c:196:     OUTREG16(BDMA_REG_STATUS(channel),BDMA_
 695              		.loc 1 196 5 view .LVU142
 696 0002 0F4C     		ldr	r4, .L52	@ _4,
 697              	@ ../../peripheral_library/hal/m7221/src/halBDMA.c:212:     OUTREG16(BDMA_REG_CTRL(channel),BDMA_CH
 197:../../peripheral_library/hal/m7221/src/halBDMA.c **** 
 198:../../peripheral_library/hal/m7221/src/halBDMA.c ****     //OUTREG16(BDMA_REG_MISC(channel),BDMA_CH_DONE_INT_EN | 0x2000);
 199:../../peripheral_library/hal/m7221/src/halBDMA.c ****     OUTREG16(BDMA_REG_MISC(channel), 0x8000);
 200:../../peripheral_library/hal/m7221/src/halBDMA.c **** 
 201:../../peripheral_library/hal/m7221/src/halBDMA.c ****     //OUTREG16(BDMA_REG_DEV_SEL(channel),0x4041);
 202:../../peripheral_library/hal/m7221/src/halBDMA.c ****     OUTREG16(BDMA_REG_DEV_SEL(channel),0x4041); //replace MIU channel0
 203:../../peripheral_library/hal/m7221/src/halBDMA.c ****     OUTREG16(BDMA_REG_SRC_ADDR_L(channel),(U16)(u32Src & 0xFFFF));
 204:../../peripheral_library/hal/m7221/src/halBDMA.c ****     OUTREG16(BDMA_REG_SRC_ADDR_H(channel),(U16)((u32Src>>16) & 0xFFFF));
 205:../../peripheral_library/hal/m7221/src/halBDMA.c **** 
 206:../../peripheral_library/hal/m7221/src/halBDMA.c ****     OUTREG16(BDMA_REG_DST_ADDR_L(channel), (U16)(u32Dst & 0xFFFF));
 207:../../peripheral_library/hal/m7221/src/halBDMA.c ****     OUTREG16(BDMA_REG_DST_ADDR_H(channel), (U16)((u32Dst>>16) & 0xFFFF));
 208:../../peripheral_library/hal/m7221/src/halBDMA.c **** 
 209:../../peripheral_library/hal/m7221/src/halBDMA.c ****     OUTREG16(BDMA_REG_SIZE_L(channel),(U16)(u32Len & 0xFFFF));
 210:../../peripheral_library/hal/m7221/src/halBDMA.c ****     OUTREG16(BDMA_REG_SIZE_H(channel),(U16)((u32Len>>16) & 0xFFFF));
 211:../../peripheral_library/hal/m7221/src/halBDMA.c **** 
 212:../../peripheral_library/hal/m7221/src/halBDMA.c ****     OUTREG16(BDMA_REG_CTRL(channel),BDMA_CH_TRIGGER);
 698              		.loc 1 212 5 view .LVU143
 699 0004 0F4D     		ldr	r5, .L52+4	@ tmp166,
 700              	@ ../../peripheral_library/hal/m7221/src/halBDMA.c:196:     OUTREG16(BDMA_REG_STATUS(channel),BDMA_
 196:../../peripheral_library/hal/m7221/src/halBDMA.c **** 
 701              		.loc 1 196 5 view .LVU144
 702 0006 8601     		lsls	r6, r0, #6	@ tmp149, channel,
 703 0008 3444     		add	r4, r4, r6	@ _4, tmp149
 704              	@ ../../peripheral_library/hal/m7221/src/halBDMA.c:212:     OUTREG16(BDMA_REG_CTRL(channel),BDMA_CH
 705              		.loc 1 212 5 view .LVU145
 706 000a 0544     		add	r5, r5, r0	@ tmp166, channel
 707              	@ ../../peripheral_library/hal/m7221/src/halBDMA.c:199:     OUTREG16(BDMA_REG_MISC(channel), 0x8000
 199:../../peripheral_library/hal/m7221/src/halBDMA.c **** 
 708              		.loc 1 199 5 view .LVU146
 709 000c 4FF40046 		mov	r6, #32768	@ tmp154,
 710              	@ ../../peripheral_library/hal/m7221/src/halBDMA.c:196:     OUTREG16(BDMA_REG_STATUS(channel),BDMA_
 196:../../peripheral_library/hal/m7221/src/halBDMA.c **** 
 711              		.loc 1 196 5 view .LVU147
 712 0010 1C20     		movs	r0, #28	@ tmp152,
 713              	.LVL35:
 196:../../peripheral_library/hal/m7221/src/halBDMA.c **** 
 714              		.loc 1 196 5 view .LVU148
 715 0012 2080     		strh	r0, [r4]	@ movhi	@ tmp152, *_5
 199:../../peripheral_library/hal/m7221/src/halBDMA.c **** 
 716              		.loc 1 199 5 is_stmt 1 view .LVU149
 717              	@ ../../peripheral_library/hal/m7221/src/halBDMA.c:212:     OUTREG16(BDMA_REG_CTRL(channel),BDMA_CH
 718              		.loc 1 212 5 is_stmt 0 view .LVU150
 719 0014 AD01     		lsls	r5, r5, #6	@ _41, tmp166,
 720              	@ ../../peripheral_library/hal/m7221/src/halBDMA.c:199:     OUTREG16(BDMA_REG_MISC(channel), 0x8000
 199:../../peripheral_library/hal/m7221/src/halBDMA.c **** 
 721              		.loc 1 199 5 view .LVU151
 722 0016 2681     		strh	r6, [r4, #8]	@ movhi	@ tmp154, *_8
ARM GAS  /tmp/cclDP8Fi.s 			page 19


 202:../../peripheral_library/hal/m7221/src/halBDMA.c ****     OUTREG16(BDMA_REG_SRC_ADDR_L(channel),(U16)(u32Src & 0xFFFF));
 723              		.loc 1 202 5 is_stmt 1 view .LVU152
 724 0018 44F24100 		movw	r0, #16449	@ tmp156,
 725              	@ ../../peripheral_library/hal/m7221/src/halBDMA.c:203:     OUTREG16(BDMA_REG_SRC_ADDR_L(channel),(
 203:../../peripheral_library/hal/m7221/src/halBDMA.c ****     OUTREG16(BDMA_REG_SRC_ADDR_H(channel),(U16)((u32Src>>16) & 0xFFFF));
 726              		.loc 1 203 5 is_stmt 0 view .LVU153
 727 001c 8EB2     		uxth	r6, r1	@ _15, u32Src
 728              	@ ../../peripheral_library/hal/m7221/src/halBDMA.c:204:     OUTREG16(BDMA_REG_SRC_ADDR_H(channel),(
 204:../../peripheral_library/hal/m7221/src/halBDMA.c **** 
 729              		.loc 1 204 5 view .LVU154
 730 001e 090C     		lsrs	r1, r1, #16	@ _20, u32Src,
 731              	.LVL36:
 732              	@ ../../peripheral_library/hal/m7221/src/halBDMA.c:202:     OUTREG16(BDMA_REG_DEV_SEL(channel),0x40
 202:../../peripheral_library/hal/m7221/src/halBDMA.c ****     OUTREG16(BDMA_REG_SRC_ADDR_L(channel),(U16)(u32Src & 0xFFFF));
 733              		.loc 1 202 5 view .LVU155
 734 0020 A080     		strh	r0, [r4, #4]	@ movhi	@ tmp156, *_11
 203:../../peripheral_library/hal/m7221/src/halBDMA.c ****     OUTREG16(BDMA_REG_SRC_ADDR_H(channel),(U16)((u32Src>>16) & 0xFFFF));
 735              		.loc 1 203 5 is_stmt 1 view .LVU156
 736 0022 A681     		strh	r6, [r4, #12]	@ movhi	@ _15, *_14
 204:../../peripheral_library/hal/m7221/src/halBDMA.c **** 
 737              		.loc 1 204 5 view .LVU157
 738              	@ ../../peripheral_library/hal/m7221/src/halBDMA.c:206:     OUTREG16(BDMA_REG_DST_ADDR_L(channel), 
 206:../../peripheral_library/hal/m7221/src/halBDMA.c ****     OUTREG16(BDMA_REG_DST_ADDR_H(channel), (U16)((u32Dst>>16) & 0xFFFF));
 739              		.loc 1 206 5 is_stmt 0 view .LVU158
 740 0024 90B2     		uxth	r0, r2	@ _24, u32Dst
 741              	@ ../../peripheral_library/hal/m7221/src/halBDMA.c:204:     OUTREG16(BDMA_REG_SRC_ADDR_H(channel),(
 204:../../peripheral_library/hal/m7221/src/halBDMA.c **** 
 742              		.loc 1 204 5 view .LVU159
 743 0026 2182     		strh	r1, [r4, #16]	@ movhi	@ _20, *_19
 206:../../peripheral_library/hal/m7221/src/halBDMA.c ****     OUTREG16(BDMA_REG_DST_ADDR_H(channel), (U16)((u32Dst>>16) & 0xFFFF));
 744              		.loc 1 206 5 is_stmt 1 view .LVU160
 745              	@ ../../peripheral_library/hal/m7221/src/halBDMA.c:209:     OUTREG16(BDMA_REG_SIZE_L(channel),(U16)
 209:../../peripheral_library/hal/m7221/src/halBDMA.c ****     OUTREG16(BDMA_REG_SIZE_H(channel),(U16)((u32Len>>16) & 0xFFFF));
 746              		.loc 1 209 5 is_stmt 0 view .LVU161
 747 0028 9EB2     		uxth	r6, r3	@ _33, u32Len
 748              	@ ../../peripheral_library/hal/m7221/src/halBDMA.c:212:     OUTREG16(BDMA_REG_CTRL(channel),BDMA_CH
 749              		.loc 1 212 5 view .LVU162
 750 002a 0121     		movs	r1, #1	@ tmp169,
 751              	@ ../../peripheral_library/hal/m7221/src/halBDMA.c:207:     OUTREG16(BDMA_REG_DST_ADDR_H(channel), 
 207:../../peripheral_library/hal/m7221/src/halBDMA.c **** 
 752              		.loc 1 207 5 view .LVU163
 753 002c 120C     		lsrs	r2, r2, #16	@ _29, u32Dst,
 754              	.LVL37:
 755              	@ ../../peripheral_library/hal/m7221/src/halBDMA.c:210:     OUTREG16(BDMA_REG_SIZE_H(channel),(U16)
 210:../../peripheral_library/hal/m7221/src/halBDMA.c **** 
 756              		.loc 1 210 5 view .LVU164
 757 002e 1B0C     		lsrs	r3, r3, #16	@ _38, u32Len,
 758              	.LVL38:
 759              	@ ../../peripheral_library/hal/m7221/src/halBDMA.c:206:     OUTREG16(BDMA_REG_DST_ADDR_L(channel), 
 206:../../peripheral_library/hal/m7221/src/halBDMA.c ****     OUTREG16(BDMA_REG_DST_ADDR_H(channel), (U16)((u32Dst>>16) & 0xFFFF));
 760              		.loc 1 206 5 view .LVU165
 761 0030 A082     		strh	r0, [r4, #20]	@ movhi	@ _24, *_23
 207:../../peripheral_library/hal/m7221/src/halBDMA.c **** 
 762              		.loc 1 207 5 is_stmt 1 view .LVU166
 763 0032 2283     		strh	r2, [r4, #24]	@ movhi	@ _29, *_28
 209:../../peripheral_library/hal/m7221/src/halBDMA.c ****     OUTREG16(BDMA_REG_SIZE_H(channel),(U16)((u32Len>>16) & 0xFFFF));
 764              		.loc 1 209 5 view .LVU167
ARM GAS  /tmp/cclDP8Fi.s 			page 20


 765              	@ ../../peripheral_library/hal/m7221/src/halBDMA.c:215: }
 213:../../peripheral_library/hal/m7221/src/halBDMA.c **** 
 214:../../peripheral_library/hal/m7221/src/halBDMA.c ****     return TRUE;
 215:../../peripheral_library/hal/m7221/src/halBDMA.c **** }
 766              		.loc 1 215 1 is_stmt 0 view .LVU168
 767 0034 0846     		mov	r0, r1	@, tmp169
 768              	@ ../../peripheral_library/hal/m7221/src/halBDMA.c:209:     OUTREG16(BDMA_REG_SIZE_L(channel),(U16)
 209:../../peripheral_library/hal/m7221/src/halBDMA.c ****     OUTREG16(BDMA_REG_SIZE_H(channel),(U16)((u32Len>>16) & 0xFFFF));
 769              		.loc 1 209 5 view .LVU169
 770 0036 A683     		strh	r6, [r4, #28]	@ movhi	@ _33, *_32
 210:../../peripheral_library/hal/m7221/src/halBDMA.c **** 
 771              		.loc 1 210 5 is_stmt 1 view .LVU170
 772 0038 2384     		strh	r3, [r4, #32]	@ movhi	@ _38, *_37
 212:../../peripheral_library/hal/m7221/src/halBDMA.c **** 
 773              		.loc 1 212 5 view .LVU171
 774 003a 2980     		strh	r1, [r5]	@ movhi	@ tmp169, *_41
 214:../../peripheral_library/hal/m7221/src/halBDMA.c **** }
 775              		.loc 1 214 5 view .LVU172
 776              	@ ../../peripheral_library/hal/m7221/src/halBDMA.c:215: }
 777              		.loc 1 215 1 is_stmt 0 view .LVU173
 778 003c 70BC     		pop	{r4, r5, r6}	@
 779              		.cfi_restore 6
 780              		.cfi_restore 5
 781              		.cfi_restore 4
 782              		.cfi_def_cfa_offset 0
 783 003e 7047     		bx	lr	@
 784              	.L53:
 785              		.align	2
 786              	.L52:
 787 0040 04342A40 		.word	1076507652
 788 0044 D0A80001 		.word	16820432
 789              		.cfi_endproc
 790              	.LFE140:
 791              		.size	MHal_BDMA_IMItoMIU, .-MHal_BDMA_IMItoMIU
 792              		.section	.text.MHal_BDMA_MIUtoIMI,"ax",%progbits
 793              		.align	1
 794              		.p2align 2,,3
 795              		.global	MHal_BDMA_MIUtoIMI
 796              		.syntax unified
 797              		.thumb
 798              		.thumb_func
 799              		.fpu fpv4-sp-d16
 800              		.type	MHal_BDMA_MIUtoIMI, %function
 801              	MHal_BDMA_MIUtoIMI:
 802              	.LVL39:
 803              	.LFB141:
 216:../../peripheral_library/hal/m7221/src/halBDMA.c **** 
 217:../../peripheral_library/hal/m7221/src/halBDMA.c **** BOOL MHal_BDMA_MIUtoIMI(BDMA_Ch channel, U32 u32Src, U32 u32Dst, U32 u32Len)
 218:../../peripheral_library/hal/m7221/src/halBDMA.c **** {
 804              		.loc 1 218 1 is_stmt 1 view -0
 805              		.cfi_startproc
 806              		@ args = 0, pretend = 0, frame = 0
 807              		@ frame_needed = 0, uses_anonymous_args = 0
 808              		@ link register save eliminated.
 219:../../peripheral_library/hal/m7221/src/halBDMA.c **** 
 220:../../peripheral_library/hal/m7221/src/halBDMA.c ****     //u32Src &= (~MIU_BASE_ADDR);
 221:../../peripheral_library/hal/m7221/src/halBDMA.c ****     //u32Dst &= (~MIU_BASE_ADDR);
ARM GAS  /tmp/cclDP8Fi.s 			page 21


 222:../../peripheral_library/hal/m7221/src/halBDMA.c **** 
 223:../../peripheral_library/hal/m7221/src/halBDMA.c ****     OUTREG16(BDMA_REG_STATUS(channel),BDMA_CH_CLEAR_STATUS);
 809              		.loc 1 223 5 view .LVU175
 810              	@ ../../peripheral_library/hal/m7221/src/halBDMA.c:218: {
 218:../../peripheral_library/hal/m7221/src/halBDMA.c **** 
 811              		.loc 1 218 1 is_stmt 0 view .LVU176
 812 0000 70B4     		push	{r4, r5, r6}	@
 813              		.cfi_def_cfa_offset 12
 814              		.cfi_offset 4, -12
 815              		.cfi_offset 5, -8
 816              		.cfi_offset 6, -4
 817              	@ ../../peripheral_library/hal/m7221/src/halBDMA.c:223:     OUTREG16(BDMA_REG_STATUS(channel),BDMA_
 818              		.loc 1 223 5 view .LVU177
 819 0002 0F4C     		ldr	r4, .L56	@ _4,
 820              	@ ../../peripheral_library/hal/m7221/src/halBDMA.c:239:     OUTREG16(BDMA_REG_CTRL(channel),BDMA_CH
 224:../../peripheral_library/hal/m7221/src/halBDMA.c **** 
 225:../../peripheral_library/hal/m7221/src/halBDMA.c ****     //OUTREG16(BDMA_REG_MISC(channel),BDMA_CH_DONE_INT_EN | 0x2000);
 226:../../peripheral_library/hal/m7221/src/halBDMA.c ****     OUTREG16(BDMA_REG_MISC(channel), 0x8000);
 227:../../peripheral_library/hal/m7221/src/halBDMA.c **** 
 228:../../peripheral_library/hal/m7221/src/halBDMA.c ****     //OUTREG16(BDMA_REG_DEV_SEL(channel),0x4041);
 229:../../peripheral_library/hal/m7221/src/halBDMA.c ****     OUTREG16(BDMA_REG_DEV_SEL(channel),0x4140); //replace MIU channel0
 230:../../peripheral_library/hal/m7221/src/halBDMA.c ****     OUTREG16(BDMA_REG_SRC_ADDR_L(channel),(U16)(u32Src & 0xFFFF));
 231:../../peripheral_library/hal/m7221/src/halBDMA.c ****     OUTREG16(BDMA_REG_SRC_ADDR_H(channel),(U16)((u32Src>>16) & 0xFFFF));
 232:../../peripheral_library/hal/m7221/src/halBDMA.c **** 
 233:../../peripheral_library/hal/m7221/src/halBDMA.c ****     OUTREG16(BDMA_REG_DST_ADDR_L(channel), (U16)(u32Dst & 0xFFFF));
 234:../../peripheral_library/hal/m7221/src/halBDMA.c ****     OUTREG16(BDMA_REG_DST_ADDR_H(channel), (U16)((u32Dst>>16) & 0xFFFF));
 235:../../peripheral_library/hal/m7221/src/halBDMA.c **** 
 236:../../peripheral_library/hal/m7221/src/halBDMA.c ****     OUTREG16(BDMA_REG_SIZE_L(channel),(U16)(u32Len & 0xFFFF));
 237:../../peripheral_library/hal/m7221/src/halBDMA.c ****     OUTREG16(BDMA_REG_SIZE_H(channel),(U16)((u32Len>>16) & 0xFFFF));
 238:../../peripheral_library/hal/m7221/src/halBDMA.c **** 
 239:../../peripheral_library/hal/m7221/src/halBDMA.c ****     OUTREG16(BDMA_REG_CTRL(channel),BDMA_CH_TRIGGER);
 821              		.loc 1 239 5 view .LVU178
 822 0004 0F4D     		ldr	r5, .L56+4	@ tmp166,
 823              	@ ../../peripheral_library/hal/m7221/src/halBDMA.c:223:     OUTREG16(BDMA_REG_STATUS(channel),BDMA_
 223:../../peripheral_library/hal/m7221/src/halBDMA.c **** 
 824              		.loc 1 223 5 view .LVU179
 825 0006 8601     		lsls	r6, r0, #6	@ tmp149, channel,
 826 0008 3444     		add	r4, r4, r6	@ _4, tmp149
 827              	@ ../../peripheral_library/hal/m7221/src/halBDMA.c:239:     OUTREG16(BDMA_REG_CTRL(channel),BDMA_CH
 828              		.loc 1 239 5 view .LVU180
 829 000a 0544     		add	r5, r5, r0	@ tmp166, channel
 830              	@ ../../peripheral_library/hal/m7221/src/halBDMA.c:226:     OUTREG16(BDMA_REG_MISC(channel), 0x8000
 226:../../peripheral_library/hal/m7221/src/halBDMA.c **** 
 831              		.loc 1 226 5 view .LVU181
 832 000c 4FF40046 		mov	r6, #32768	@ tmp154,
 833              	@ ../../peripheral_library/hal/m7221/src/halBDMA.c:223:     OUTREG16(BDMA_REG_STATUS(channel),BDMA_
 223:../../peripheral_library/hal/m7221/src/halBDMA.c **** 
 834              		.loc 1 223 5 view .LVU182
 835 0010 1C20     		movs	r0, #28	@ tmp152,
 836              	.LVL40:
 223:../../peripheral_library/hal/m7221/src/halBDMA.c **** 
 837              		.loc 1 223 5 view .LVU183
 838 0012 2080     		strh	r0, [r4]	@ movhi	@ tmp152, *_5
 226:../../peripheral_library/hal/m7221/src/halBDMA.c **** 
 839              		.loc 1 226 5 is_stmt 1 view .LVU184
 840              	@ ../../peripheral_library/hal/m7221/src/halBDMA.c:239:     OUTREG16(BDMA_REG_CTRL(channel),BDMA_CH
 841              		.loc 1 239 5 is_stmt 0 view .LVU185
ARM GAS  /tmp/cclDP8Fi.s 			page 22


 842 0014 AD01     		lsls	r5, r5, #6	@ _41, tmp166,
 843              	@ ../../peripheral_library/hal/m7221/src/halBDMA.c:226:     OUTREG16(BDMA_REG_MISC(channel), 0x8000
 226:../../peripheral_library/hal/m7221/src/halBDMA.c **** 
 844              		.loc 1 226 5 view .LVU186
 845 0016 2681     		strh	r6, [r4, #8]	@ movhi	@ tmp154, *_8
 229:../../peripheral_library/hal/m7221/src/halBDMA.c ****     OUTREG16(BDMA_REG_SRC_ADDR_L(channel),(U16)(u32Src & 0xFFFF));
 846              		.loc 1 229 5 is_stmt 1 view .LVU187
 847 0018 44F24010 		movw	r0, #16704	@ tmp156,
 848              	@ ../../peripheral_library/hal/m7221/src/halBDMA.c:230:     OUTREG16(BDMA_REG_SRC_ADDR_L(channel),(
 230:../../peripheral_library/hal/m7221/src/halBDMA.c ****     OUTREG16(BDMA_REG_SRC_ADDR_H(channel),(U16)((u32Src>>16) & 0xFFFF));
 849              		.loc 1 230 5 is_stmt 0 view .LVU188
 850 001c 8EB2     		uxth	r6, r1	@ _15, u32Src
 851              	@ ../../peripheral_library/hal/m7221/src/halBDMA.c:231:     OUTREG16(BDMA_REG_SRC_ADDR_H(channel),(
 231:../../peripheral_library/hal/m7221/src/halBDMA.c **** 
 852              		.loc 1 231 5 view .LVU189
 853 001e 090C     		lsrs	r1, r1, #16	@ _20, u32Src,
 854              	.LVL41:
 855              	@ ../../peripheral_library/hal/m7221/src/halBDMA.c:229:     OUTREG16(BDMA_REG_DEV_SEL(channel),0x41
 229:../../peripheral_library/hal/m7221/src/halBDMA.c ****     OUTREG16(BDMA_REG_SRC_ADDR_L(channel),(U16)(u32Src & 0xFFFF));
 856              		.loc 1 229 5 view .LVU190
 857 0020 A080     		strh	r0, [r4, #4]	@ movhi	@ tmp156, *_11
 230:../../peripheral_library/hal/m7221/src/halBDMA.c ****     OUTREG16(BDMA_REG_SRC_ADDR_H(channel),(U16)((u32Src>>16) & 0xFFFF));
 858              		.loc 1 230 5 is_stmt 1 view .LVU191
 859 0022 A681     		strh	r6, [r4, #12]	@ movhi	@ _15, *_14
 231:../../peripheral_library/hal/m7221/src/halBDMA.c **** 
 860              		.loc 1 231 5 view .LVU192
 861              	@ ../../peripheral_library/hal/m7221/src/halBDMA.c:233:     OUTREG16(BDMA_REG_DST_ADDR_L(channel), 
 233:../../peripheral_library/hal/m7221/src/halBDMA.c ****     OUTREG16(BDMA_REG_DST_ADDR_H(channel), (U16)((u32Dst>>16) & 0xFFFF));
 862              		.loc 1 233 5 is_stmt 0 view .LVU193
 863 0024 90B2     		uxth	r0, r2	@ _24, u32Dst
 864              	@ ../../peripheral_library/hal/m7221/src/halBDMA.c:231:     OUTREG16(BDMA_REG_SRC_ADDR_H(channel),(
 231:../../peripheral_library/hal/m7221/src/halBDMA.c **** 
 865              		.loc 1 231 5 view .LVU194
 866 0026 2182     		strh	r1, [r4, #16]	@ movhi	@ _20, *_19
 233:../../peripheral_library/hal/m7221/src/halBDMA.c ****     OUTREG16(BDMA_REG_DST_ADDR_H(channel), (U16)((u32Dst>>16) & 0xFFFF));
 867              		.loc 1 233 5 is_stmt 1 view .LVU195
 868              	@ ../../peripheral_library/hal/m7221/src/halBDMA.c:236:     OUTREG16(BDMA_REG_SIZE_L(channel),(U16)
 236:../../peripheral_library/hal/m7221/src/halBDMA.c ****     OUTREG16(BDMA_REG_SIZE_H(channel),(U16)((u32Len>>16) & 0xFFFF));
 869              		.loc 1 236 5 is_stmt 0 view .LVU196
 870 0028 9EB2     		uxth	r6, r3	@ _33, u32Len
 871              	@ ../../peripheral_library/hal/m7221/src/halBDMA.c:239:     OUTREG16(BDMA_REG_CTRL(channel),BDMA_CH
 872              		.loc 1 239 5 view .LVU197
 873 002a 0121     		movs	r1, #1	@ tmp169,
 874              	@ ../../peripheral_library/hal/m7221/src/halBDMA.c:234:     OUTREG16(BDMA_REG_DST_ADDR_H(channel), 
 234:../../peripheral_library/hal/m7221/src/halBDMA.c **** 
 875              		.loc 1 234 5 view .LVU198
 876 002c 120C     		lsrs	r2, r2, #16	@ _29, u32Dst,
 877              	.LVL42:
 878              	@ ../../peripheral_library/hal/m7221/src/halBDMA.c:237:     OUTREG16(BDMA_REG_SIZE_H(channel),(U16)
 237:../../peripheral_library/hal/m7221/src/halBDMA.c **** 
 879              		.loc 1 237 5 view .LVU199
 880 002e 1B0C     		lsrs	r3, r3, #16	@ _38, u32Len,
 881              	.LVL43:
 882              	@ ../../peripheral_library/hal/m7221/src/halBDMA.c:233:     OUTREG16(BDMA_REG_DST_ADDR_L(channel), 
 233:../../peripheral_library/hal/m7221/src/halBDMA.c ****     OUTREG16(BDMA_REG_DST_ADDR_H(channel), (U16)((u32Dst>>16) & 0xFFFF));
 883              		.loc 1 233 5 view .LVU200
 884 0030 A082     		strh	r0, [r4, #20]	@ movhi	@ _24, *_23
ARM GAS  /tmp/cclDP8Fi.s 			page 23


 234:../../peripheral_library/hal/m7221/src/halBDMA.c **** 
 885              		.loc 1 234 5 is_stmt 1 view .LVU201
 886 0032 2283     		strh	r2, [r4, #24]	@ movhi	@ _29, *_28
 236:../../peripheral_library/hal/m7221/src/halBDMA.c ****     OUTREG16(BDMA_REG_SIZE_H(channel),(U16)((u32Len>>16) & 0xFFFF));
 887              		.loc 1 236 5 view .LVU202
 888              	@ ../../peripheral_library/hal/m7221/src/halBDMA.c:242: }
 240:../../peripheral_library/hal/m7221/src/halBDMA.c **** 
 241:../../peripheral_library/hal/m7221/src/halBDMA.c ****     return TRUE;
 242:../../peripheral_library/hal/m7221/src/halBDMA.c **** }
 889              		.loc 1 242 1 is_stmt 0 view .LVU203
 890 0034 0846     		mov	r0, r1	@, tmp169
 891              	@ ../../peripheral_library/hal/m7221/src/halBDMA.c:236:     OUTREG16(BDMA_REG_SIZE_L(channel),(U16)
 236:../../peripheral_library/hal/m7221/src/halBDMA.c ****     OUTREG16(BDMA_REG_SIZE_H(channel),(U16)((u32Len>>16) & 0xFFFF));
 892              		.loc 1 236 5 view .LVU204
 893 0036 A683     		strh	r6, [r4, #28]	@ movhi	@ _33, *_32
 237:../../peripheral_library/hal/m7221/src/halBDMA.c **** 
 894              		.loc 1 237 5 is_stmt 1 view .LVU205
 895 0038 2384     		strh	r3, [r4, #32]	@ movhi	@ _38, *_37
 239:../../peripheral_library/hal/m7221/src/halBDMA.c **** 
 896              		.loc 1 239 5 view .LVU206
 897 003a 2980     		strh	r1, [r5]	@ movhi	@ tmp169, *_41
 241:../../peripheral_library/hal/m7221/src/halBDMA.c **** }
 898              		.loc 1 241 5 view .LVU207
 899              	@ ../../peripheral_library/hal/m7221/src/halBDMA.c:242: }
 900              		.loc 1 242 1 is_stmt 0 view .LVU208
 901 003c 70BC     		pop	{r4, r5, r6}	@
 902              		.cfi_restore 6
 903              		.cfi_restore 5
 904              		.cfi_restore 4
 905              		.cfi_def_cfa_offset 0
 906 003e 7047     		bx	lr	@
 907              	.L57:
 908              		.align	2
 909              	.L56:
 910 0040 04342A40 		.word	1076507652
 911 0044 D0A80001 		.word	16820432
 912              		.cfi_endproc
 913              	.LFE141:
 914              		.size	MHal_BDMA_MIUtoIMI, .-MHal_BDMA_MIUtoIMI
 915              		.section	.text.MHal_BDMA_IMItoIMI,"ax",%progbits
 916              		.align	1
 917              		.p2align 2,,3
 918              		.global	MHal_BDMA_IMItoIMI
 919              		.syntax unified
 920              		.thumb
 921              		.thumb_func
 922              		.fpu fpv4-sp-d16
 923              		.type	MHal_BDMA_IMItoIMI, %function
 924              	MHal_BDMA_IMItoIMI:
 925              	.LVL44:
 926              	.LFB142:
 243:../../peripheral_library/hal/m7221/src/halBDMA.c **** 
 244:../../peripheral_library/hal/m7221/src/halBDMA.c **** 
 245:../../peripheral_library/hal/m7221/src/halBDMA.c **** BOOL MHal_BDMA_IMItoIMI(BDMA_Ch channel, U32 u32Src, U32 u32Dst, U32 u32Len)
 246:../../peripheral_library/hal/m7221/src/halBDMA.c **** {
 927              		.loc 1 246 1 is_stmt 1 view -0
 928              		.cfi_startproc
ARM GAS  /tmp/cclDP8Fi.s 			page 24


 929              		@ args = 0, pretend = 0, frame = 0
 930              		@ frame_needed = 0, uses_anonymous_args = 0
 247:../../peripheral_library/hal/m7221/src/halBDMA.c **** 
 248:../../peripheral_library/hal/m7221/src/halBDMA.c ****     //u32Src &= (~IMI_BASE_ADDR);
 249:../../peripheral_library/hal/m7221/src/halBDMA.c ****     //u32Dst &= (~IMI_BASE_ADDR);
 250:../../peripheral_library/hal/m7221/src/halBDMA.c **** 
 251:../../peripheral_library/hal/m7221/src/halBDMA.c ****     BDMA_MSG("MHal_BDMA_IMItoIMI = 0x%x -> 0x%x (0x%x)\n", u32Src, u32Dst, u32Len);
 931              		.loc 1 251 5 view .LVU210
 932              	@ ../../peripheral_library/hal/m7221/src/halBDMA.c:246: {
 246:../../peripheral_library/hal/m7221/src/halBDMA.c **** 
 933              		.loc 1 246 1 is_stmt 0 view .LVU211
 934 0000 2DE9F041 		push	{r4, r5, r6, r7, r8, lr}	@
 935              		.cfi_def_cfa_offset 24
 936              		.cfi_offset 4, -24
 937              		.cfi_offset 5, -20
 938              		.cfi_offset 6, -16
 939              		.cfi_offset 7, -12
 940              		.cfi_offset 8, -8
 941              		.cfi_offset 14, -4
 942              	@ ../../peripheral_library/hal/m7221/src/halBDMA.c:251:     BDMA_MSG("MHal_BDMA_IMItoIMI = 0x%x -> 
 943              		.loc 1 251 5 view .LVU212
 944 0004 164C     		ldr	r4, .L65	@ tmp150,
 945 0006 2468     		ldr	r4, [r4]	@ gu32MosDbgLevel, gu32MosDbgLevel
 946              	@ ../../peripheral_library/hal/m7221/src/halBDMA.c:246: {
 246:../../peripheral_library/hal/m7221/src/halBDMA.c **** 
 947              		.loc 1 246 1 view .LVU213
 948 0008 0546     		mov	r5, r0	@ channel, channel
 949              	@ ../../peripheral_library/hal/m7221/src/halBDMA.c:251:     BDMA_MSG("MHal_BDMA_IMItoIMI = 0x%x -> 
 950              		.loc 1 251 5 view .LVU214
 951 000a E002     		lsls	r0, r4, #11	@, gu32MosDbgLevel,
 952              	.LVL45:
 953              	@ ../../peripheral_library/hal/m7221/src/halBDMA.c:246: {
 246:../../peripheral_library/hal/m7221/src/halBDMA.c **** 
 954              		.loc 1 246 1 view .LVU215
 955 000c 8846     		mov	r8, r1	@ u32Src, u32Src
 956 000e 1746     		mov	r7, r2	@ u32Dst, u32Dst
 957 0010 1E46     		mov	r6, r3	@ u32Len, u32Len
 958              	@ ../../peripheral_library/hal/m7221/src/halBDMA.c:251:     BDMA_MSG("MHal_BDMA_IMItoIMI = 0x%x -> 
 959              		.loc 1 251 5 view .LVU216
 960 0012 20D4     		bmi	.L64		@,
 961              	.LVL46:
 962              	.L59:
 963              		.loc 1 251 83 is_stmt 1 discriminator 3 view .LVU217
 252:../../peripheral_library/hal/m7221/src/halBDMA.c **** 
 253:../../peripheral_library/hal/m7221/src/halBDMA.c ****     OUTREG16(BDMA_REG_STATUS(channel),BDMA_CH_CLEAR_STATUS);
 964              		.loc 1 253 5 discriminator 3 view .LVU218
 965              	@ ../../peripheral_library/hal/m7221/src/halBDMA.c:268:     OUTREG16(BDMA_REG_CTRL(channel),BDMA_CH
 254:../../peripheral_library/hal/m7221/src/halBDMA.c **** 
 255:../../peripheral_library/hal/m7221/src/halBDMA.c ****     OUTREG16(BDMA_REG_MISC(channel),0x8000);
 256:../../peripheral_library/hal/m7221/src/halBDMA.c **** 
 257:../../peripheral_library/hal/m7221/src/halBDMA.c ****     OUTREG16(BDMA_REG_DEV_SEL(channel),0x4141);
 258:../../peripheral_library/hal/m7221/src/halBDMA.c **** 
 259:../../peripheral_library/hal/m7221/src/halBDMA.c ****     OUTREG16(BDMA_REG_SRC_ADDR_L(channel),(U16)(u32Src & 0xFFFF));
 260:../../peripheral_library/hal/m7221/src/halBDMA.c ****     OUTREG16(BDMA_REG_SRC_ADDR_H(channel),(U16)((u32Src>>16) & 0xFFFF));
 261:../../peripheral_library/hal/m7221/src/halBDMA.c **** 
 262:../../peripheral_library/hal/m7221/src/halBDMA.c ****     OUTREG16(BDMA_REG_DST_ADDR_L(channel), (U16)(u32Dst & 0xFFFF));
 263:../../peripheral_library/hal/m7221/src/halBDMA.c ****     OUTREG16(BDMA_REG_DST_ADDR_H(channel), (U16)((u32Dst>>16) & 0xFFFF));
ARM GAS  /tmp/cclDP8Fi.s 			page 25


 264:../../peripheral_library/hal/m7221/src/halBDMA.c **** 
 265:../../peripheral_library/hal/m7221/src/halBDMA.c ****     OUTREG16(BDMA_REG_SIZE_L(channel),(U16)(u32Len & 0xFFFF));
 266:../../peripheral_library/hal/m7221/src/halBDMA.c ****     OUTREG16(BDMA_REG_SIZE_H(channel),(U16)((u32Len>>16) & 0xFFFF));
 267:../../peripheral_library/hal/m7221/src/halBDMA.c **** 
 268:../../peripheral_library/hal/m7221/src/halBDMA.c ****     OUTREG16(BDMA_REG_CTRL(channel),BDMA_CH_TRIGGER);
 966              		.loc 1 268 5 is_stmt 0 discriminator 3 view .LVU219
 967 0014 134B     		ldr	r3, .L65+4	@ tmp172,
 968              	@ ../../peripheral_library/hal/m7221/src/halBDMA.c:253:     OUTREG16(BDMA_REG_STATUS(channel),BDMA_
 253:../../peripheral_library/hal/m7221/src/halBDMA.c **** 
 969              		.loc 1 253 5 discriminator 3 view .LVU220
 970 0016 144C     		ldr	r4, .L65+8	@ _6,
 971 0018 AA01     		lsls	r2, r5, #6	@ tmp155, channel,
 972 001a 1444     		add	r4, r4, r2	@ _6, tmp155
 973              	@ ../../peripheral_library/hal/m7221/src/halBDMA.c:268:     OUTREG16(BDMA_REG_CTRL(channel),BDMA_CH
 974              		.loc 1 268 5 discriminator 3 view .LVU221
 975 001c 2B44     		add	r3, r3, r5	@ tmp172, channel
 976 001e 9D01     		lsls	r5, r3, #6	@ _43, tmp172,
 977              	@ ../../peripheral_library/hal/m7221/src/halBDMA.c:253:     OUTREG16(BDMA_REG_STATUS(channel),BDMA_
 253:../../peripheral_library/hal/m7221/src/halBDMA.c **** 
 978              		.loc 1 253 5 discriminator 3 view .LVU222
 979 0020 1C22     		movs	r2, #28	@ tmp158,
 980              	@ ../../peripheral_library/hal/m7221/src/halBDMA.c:255:     OUTREG16(BDMA_REG_MISC(channel),0x8000)
 255:../../peripheral_library/hal/m7221/src/halBDMA.c **** 
 981              		.loc 1 255 5 discriminator 3 view .LVU223
 982 0022 4FF40043 		mov	r3, #32768	@ tmp160,
 983              	@ ../../peripheral_library/hal/m7221/src/halBDMA.c:253:     OUTREG16(BDMA_REG_STATUS(channel),BDMA_
 253:../../peripheral_library/hal/m7221/src/halBDMA.c **** 
 984              		.loc 1 253 5 discriminator 3 view .LVU224
 985 0026 2280     		strh	r2, [r4]	@ movhi	@ tmp158, *_7
 255:../../peripheral_library/hal/m7221/src/halBDMA.c **** 
 986              		.loc 1 255 5 is_stmt 1 discriminator 3 view .LVU225
 987              	@ ../../peripheral_library/hal/m7221/src/halBDMA.c:260:     OUTREG16(BDMA_REG_SRC_ADDR_H(channel),(
 260:../../peripheral_library/hal/m7221/src/halBDMA.c **** 
 988              		.loc 1 260 5 is_stmt 0 discriminator 3 view .LVU226
 989 0028 4FEA1841 		lsr	r1, r8, #16	@ _22, u32Src,
 990              	@ ../../peripheral_library/hal/m7221/src/halBDMA.c:255:     OUTREG16(BDMA_REG_MISC(channel),0x8000)
 255:../../peripheral_library/hal/m7221/src/halBDMA.c **** 
 991              		.loc 1 255 5 discriminator 3 view .LVU227
 992 002c 2381     		strh	r3, [r4, #8]	@ movhi	@ tmp160, *_10
 257:../../peripheral_library/hal/m7221/src/halBDMA.c **** 
 993              		.loc 1 257 5 is_stmt 1 discriminator 3 view .LVU228
 994 002e 44F24112 		movw	r2, #16705	@ tmp162,
 995              	@ ../../peripheral_library/hal/m7221/src/halBDMA.c:259:     OUTREG16(BDMA_REG_SRC_ADDR_L(channel),(
 259:../../peripheral_library/hal/m7221/src/halBDMA.c ****     OUTREG16(BDMA_REG_SRC_ADDR_H(channel),(U16)((u32Src>>16) & 0xFFFF));
 996              		.loc 1 259 5 is_stmt 0 discriminator 3 view .LVU229
 997 0032 1FFA88F3 		uxth	r3, r8	@ _17, u32Src
 998              	@ ../../peripheral_library/hal/m7221/src/halBDMA.c:257:     OUTREG16(BDMA_REG_DEV_SEL(channel),0x41
 257:../../peripheral_library/hal/m7221/src/halBDMA.c **** 
 999              		.loc 1 257 5 discriminator 3 view .LVU230
 1000 0036 A280     		strh	r2, [r4, #4]	@ movhi	@ tmp162, *_13
 259:../../peripheral_library/hal/m7221/src/halBDMA.c ****     OUTREG16(BDMA_REG_SRC_ADDR_H(channel),(U16)((u32Src>>16) & 0xFFFF));
 1001              		.loc 1 259 5 is_stmt 1 discriminator 3 view .LVU231
 1002              	@ ../../peripheral_library/hal/m7221/src/halBDMA.c:262:     OUTREG16(BDMA_REG_DST_ADDR_L(channel), 
 262:../../peripheral_library/hal/m7221/src/halBDMA.c ****     OUTREG16(BDMA_REG_DST_ADDR_H(channel), (U16)((u32Dst>>16) & 0xFFFF));
 1003              		.loc 1 262 5 is_stmt 0 discriminator 3 view .LVU232
 1004 0038 B8B2     		uxth	r0, r7	@ _26, u32Dst
 1005              	@ ../../peripheral_library/hal/m7221/src/halBDMA.c:259:     OUTREG16(BDMA_REG_SRC_ADDR_L(channel),(
ARM GAS  /tmp/cclDP8Fi.s 			page 26


 259:../../peripheral_library/hal/m7221/src/halBDMA.c ****     OUTREG16(BDMA_REG_SRC_ADDR_H(channel),(U16)((u32Src>>16) & 0xFFFF));
 1006              		.loc 1 259 5 discriminator 3 view .LVU233
 1007 003a A381     		strh	r3, [r4, #12]	@ movhi	@ _17, *_16
 260:../../peripheral_library/hal/m7221/src/halBDMA.c **** 
 1008              		.loc 1 260 5 is_stmt 1 discriminator 3 view .LVU234
 1009              	@ ../../peripheral_library/hal/m7221/src/halBDMA.c:263:     OUTREG16(BDMA_REG_DST_ADDR_H(channel), 
 263:../../peripheral_library/hal/m7221/src/halBDMA.c **** 
 1010              		.loc 1 263 5 is_stmt 0 discriminator 3 view .LVU235
 1011 003c 3A0C     		lsrs	r2, r7, #16	@ _31, u32Dst,
 1012              	@ ../../peripheral_library/hal/m7221/src/halBDMA.c:260:     OUTREG16(BDMA_REG_SRC_ADDR_H(channel),(
 260:../../peripheral_library/hal/m7221/src/halBDMA.c **** 
 1013              		.loc 1 260 5 discriminator 3 view .LVU236
 1014 003e 2182     		strh	r1, [r4, #16]	@ movhi	@ _22, *_21
 262:../../peripheral_library/hal/m7221/src/halBDMA.c ****     OUTREG16(BDMA_REG_DST_ADDR_H(channel), (U16)((u32Dst>>16) & 0xFFFF));
 1015              		.loc 1 262 5 is_stmt 1 discriminator 3 view .LVU237
 1016              	@ ../../peripheral_library/hal/m7221/src/halBDMA.c:265:     OUTREG16(BDMA_REG_SIZE_L(channel),(U16)
 265:../../peripheral_library/hal/m7221/src/halBDMA.c ****     OUTREG16(BDMA_REG_SIZE_H(channel),(U16)((u32Len>>16) & 0xFFFF));
 1017              		.loc 1 265 5 is_stmt 0 discriminator 3 view .LVU238
 1018 0040 B7B2     		uxth	r7, r6	@ _35, u32Len
 1019              	.LVL47:
 1020              	@ ../../peripheral_library/hal/m7221/src/halBDMA.c:268:     OUTREG16(BDMA_REG_CTRL(channel),BDMA_CH
 1021              		.loc 1 268 5 discriminator 3 view .LVU239
 1022 0042 0121     		movs	r1, #1	@ tmp175,
 1023              	@ ../../peripheral_library/hal/m7221/src/halBDMA.c:266:     OUTREG16(BDMA_REG_SIZE_H(channel),(U16)
 266:../../peripheral_library/hal/m7221/src/halBDMA.c **** 
 1024              		.loc 1 266 5 discriminator 3 view .LVU240
 1025 0044 330C     		lsrs	r3, r6, #16	@ _40, u32Len,
 1026              	@ ../../peripheral_library/hal/m7221/src/halBDMA.c:262:     OUTREG16(BDMA_REG_DST_ADDR_L(channel), 
 262:../../peripheral_library/hal/m7221/src/halBDMA.c ****     OUTREG16(BDMA_REG_DST_ADDR_H(channel), (U16)((u32Dst>>16) & 0xFFFF));
 1027              		.loc 1 262 5 discriminator 3 view .LVU241
 1028 0046 A082     		strh	r0, [r4, #20]	@ movhi	@ _26, *_25
 263:../../peripheral_library/hal/m7221/src/halBDMA.c **** 
 1029              		.loc 1 263 5 is_stmt 1 discriminator 3 view .LVU242
 1030 0048 2283     		strh	r2, [r4, #24]	@ movhi	@ _31, *_30
 265:../../peripheral_library/hal/m7221/src/halBDMA.c ****     OUTREG16(BDMA_REG_SIZE_H(channel),(U16)((u32Len>>16) & 0xFFFF));
 1031              		.loc 1 265 5 discriminator 3 view .LVU243
 1032              	@ ../../peripheral_library/hal/m7221/src/halBDMA.c:271: }
 269:../../peripheral_library/hal/m7221/src/halBDMA.c **** 
 270:../../peripheral_library/hal/m7221/src/halBDMA.c ****     return TRUE;
 271:../../peripheral_library/hal/m7221/src/halBDMA.c **** }
 1033              		.loc 1 271 1 is_stmt 0 discriminator 3 view .LVU244
 1034 004a 0846     		mov	r0, r1	@, tmp175
 1035              	@ ../../peripheral_library/hal/m7221/src/halBDMA.c:265:     OUTREG16(BDMA_REG_SIZE_L(channel),(U16)
 265:../../peripheral_library/hal/m7221/src/halBDMA.c ****     OUTREG16(BDMA_REG_SIZE_H(channel),(U16)((u32Len>>16) & 0xFFFF));
 1036              		.loc 1 265 5 discriminator 3 view .LVU245
 1037 004c A783     		strh	r7, [r4, #28]	@ movhi	@ _35, *_34
 266:../../peripheral_library/hal/m7221/src/halBDMA.c **** 
 1038              		.loc 1 266 5 is_stmt 1 discriminator 3 view .LVU246
 1039 004e 2384     		strh	r3, [r4, #32]	@ movhi	@ _40, *_39
 268:../../peripheral_library/hal/m7221/src/halBDMA.c **** 
 1040              		.loc 1 268 5 discriminator 3 view .LVU247
 1041 0050 2980     		strh	r1, [r5]	@ movhi	@ tmp175, *_43
 270:../../peripheral_library/hal/m7221/src/halBDMA.c **** }
 1042              		.loc 1 270 5 discriminator 3 view .LVU248
 1043              	@ ../../peripheral_library/hal/m7221/src/halBDMA.c:271: }
 1044              		.loc 1 271 1 is_stmt 0 discriminator 3 view .LVU249
 1045 0052 BDE8F081 		pop	{r4, r5, r6, r7, r8, pc}	@
ARM GAS  /tmp/cclDP8Fi.s 			page 27


 1046              	.LVL48:
 1047              	.L64:
 251:../../peripheral_library/hal/m7221/src/halBDMA.c **** 
 1048              		.loc 1 251 5 is_stmt 1 discriminator 1 view .LVU250
 1049 0056 0548     		ldr	r0, .L65+12	@,
 1050 0058 FFF7FEFF 		bl	UartSendTrace		@
 1051              	.LVL49:
 251:../../peripheral_library/hal/m7221/src/halBDMA.c **** 
 1052              		.loc 1 251 5 is_stmt 0 discriminator 1 view .LVU251
 1053 005c DAE7     		b	.L59		@
 1054              	.L66:
 1055 005e 00BF     		.align	2
 1056              	.L65:
 1057 0060 00000000 		.word	gu32MosDbgLevel
 1058 0064 D0A80001 		.word	16820432
 1059 0068 04342A40 		.word	1076507652
 1060 006c 00000000 		.word	.LC2
 1061              		.cfi_endproc
 1062              	.LFE142:
 1063              		.size	MHal_BDMA_IMItoIMI, .-MHal_BDMA_IMItoIMI
 1064              		.section	.text.MHal_BDMA_ClearStatus,"ax",%progbits
 1065              		.align	1
 1066              		.p2align 2,,3
 1067              		.global	MHal_BDMA_ClearStatus
 1068              		.syntax unified
 1069              		.thumb
 1070              		.thumb_func
 1071              		.fpu fpv4-sp-d16
 1072              		.type	MHal_BDMA_ClearStatus, %function
 1073              	MHal_BDMA_ClearStatus:
 1074              	.LVL50:
 1075              	.LFB143:
 272:../../peripheral_library/hal/m7221/src/halBDMA.c **** 
 273:../../peripheral_library/hal/m7221/src/halBDMA.c **** 
 274:../../peripheral_library/hal/m7221/src/halBDMA.c **** BOOL MHal_BDMA_ClearStatus(BDMA_Ch channel)
 275:../../peripheral_library/hal/m7221/src/halBDMA.c **** {
 1076              		.loc 1 275 1 is_stmt 1 view -0
 1077              		.cfi_startproc
 1078              		@ args = 0, pretend = 0, frame = 0
 1079              		@ frame_needed = 0, uses_anonymous_args = 0
 1080              		@ link register save eliminated.
 276:../../peripheral_library/hal/m7221/src/halBDMA.c ****     OUTREG16(BDMA_REG_STATUS(channel),BDMA_CH_CLEAR_STATUS);
 1081              		.loc 1 276 5 view .LVU253
 1082 0000 034B     		ldr	r3, .L68	@ _5,
 1083 0002 8001     		lsls	r0, r0, #6	@ tmp118, channel,
 1084              	.LVL51:
 1085              		.loc 1 276 5 is_stmt 0 view .LVU254
 1086 0004 0344     		add	r3, r3, r0	@ _5, tmp118
 1087 0006 1C22     		movs	r2, #28	@ tmp121,
 1088 0008 1A80     		strh	r2, [r3]	@ movhi	@ tmp121, *_5
 277:../../peripheral_library/hal/m7221/src/halBDMA.c ****     return TRUE;
 1089              		.loc 1 277 5 is_stmt 1 view .LVU255
 1090              	@ ../../peripheral_library/hal/m7221/src/halBDMA.c:278: }
 278:../../peripheral_library/hal/m7221/src/halBDMA.c **** }
 1091              		.loc 1 278 1 is_stmt 0 view .LVU256
 1092 000a 0120     		movs	r0, #1	@,
 1093 000c 7047     		bx	lr	@
ARM GAS  /tmp/cclDP8Fi.s 			page 28


 1094              	.L69:
 1095 000e 00BF     		.align	2
 1096              	.L68:
 1097 0010 04342A40 		.word	1076507652
 1098              		.cfi_endproc
 1099              	.LFE143:
 1100              		.size	MHal_BDMA_ClearStatus, .-MHal_BDMA_ClearStatus
 1101              		.section	.text.MHal_BDMA_Init,"ax",%progbits
 1102              		.align	1
 1103              		.p2align 2,,3
 1104              		.global	MHal_BDMA_Init
 1105              		.syntax unified
 1106              		.thumb
 1107              		.thumb_func
 1108              		.fpu fpv4-sp-d16
 1109              		.type	MHal_BDMA_Init, %function
 1110              	MHal_BDMA_Init:
 1111              	.LFB144:
 279:../../peripheral_library/hal/m7221/src/halBDMA.c **** 
 280:../../peripheral_library/hal/m7221/src/halBDMA.c **** void MHal_BDMA_Init(void)
 281:../../peripheral_library/hal/m7221/src/halBDMA.c **** {
 1112              		.loc 1 281 1 is_stmt 1 view -0
 1113              		.cfi_startproc
 1114              		@ args = 0, pretend = 0, frame = 0
 1115              		@ frame_needed = 0, uses_anonymous_args = 0
 1116              		@ link register save eliminated.
 282:../../peripheral_library/hal/m7221/src/halBDMA.c **** 	SETREG16(GET_REG8_ADDR(RIU_BASE_ADDR, 0x112ca4 ), 0x2); // bdma XTAIL Clock
 1117              		.loc 1 282 2 view .LVU258
 1118 0000 034A     		ldr	r2, .L71	@ tmp112,
 1119 0002 1388     		ldrh	r3, [r2]	@, MEM[(volatile short unsigned int *)1075992904B]
 1120 0004 43F00203 		orr	r3, r3, #2	@ _2, MEM[(volatile short unsigned int *)1075992904B],
 1121 0008 1380     		strh	r3, [r2]	@ movhi	@ _2, MEM[(volatile short unsigned int *)1075992904B]
 283:../../peripheral_library/hal/m7221/src/halBDMA.c **** 	MOS_mDelay(1);
 1122              		.loc 1 283 2 view .LVU259
 1123 000a 0120     		movs	r0, #1	@,
 1124 000c FFF7FEBF 		b	MOS_mDelay		@
 1125              	.LVL52:
 1126              	.L72:
 1127              		.align	2
 1128              	.L71:
 1129 0010 48592240 		.word	1075992904
 1130              		.cfi_endproc
 1131              	.LFE144:
 1132              		.size	MHal_BDMA_Init, .-MHal_BDMA_Init
 1133              		.section	.text.MHal_BDMA_Resume,"ax",%progbits
 1134              		.align	1
 1135              		.p2align 2,,3
 1136              		.global	MHal_BDMA_Resume
 1137              		.syntax unified
 1138              		.thumb
 1139              		.thumb_func
 1140              		.fpu fpv4-sp-d16
 1141              		.type	MHal_BDMA_Resume, %function
 1142              	MHal_BDMA_Resume:
 1143              	.LFB145:
 284:../../peripheral_library/hal/m7221/src/halBDMA.c **** }
 285:../../peripheral_library/hal/m7221/src/halBDMA.c **** 
ARM GAS  /tmp/cclDP8Fi.s 			page 29


 286:../../peripheral_library/hal/m7221/src/halBDMA.c **** void MHal_BDMA_Resume(void)
 287:../../peripheral_library/hal/m7221/src/halBDMA.c **** {
 1144              		.loc 1 287 1 view -0
 1145              		.cfi_startproc
 1146              		@ args = 0, pretend = 0, frame = 0
 1147              		@ frame_needed = 0, uses_anonymous_args = 0
 1148              		@ link register save eliminated.
 288:../../peripheral_library/hal/m7221/src/halBDMA.c **** }
 1149              		.loc 1 288 1 view .LVU261
 1150 0000 7047     		bx	lr	@
 1151              		.cfi_endproc
 1152              	.LFE145:
 1153              		.size	MHal_BDMA_Resume, .-MHal_BDMA_Resume
 1154 0002 00BF     		.section	.rodata.MHal_BDMA_FlashToMIU.str1.4,"aMS",%progbits,1
 1155              		.align	2
 1156              	.LC0:
 1157 0000 5B42444D 		.ascii	"[BDMA ERR] MHal_BDMA_FlashToMIU: address or length "
 1157      41204552 
 1157      525D204D 
 1157      48616C5F 
 1157      42444D41 
 1158 0033 73686F75 		.ascii	"should be 16 bytes aligned!!\012\000"
 1158      6C642062 
 1158      65203136 
 1158      20627974 
 1158      65732061 
 1159 0051 000000   		.space	3
 1160              	.LC1:
 1161 0054 5B42444D 		.ascii	"[BDMA ERR] MHal_BDMA_FLASH_TO_MEM error!! device is"
 1161      41204552 
 1161      525D204D 
 1161      48616C5F 
 1161      42444D41 
 1162 0087 20627573 		.ascii	" busy!!\012\000"
 1162      7921210A 
 1162      00
 1163              		.section	.rodata.MHal_BDMA_IMItoIMI.str1.4,"aMS",%progbits,1
 1164              		.align	2
 1165              	.LC2:
 1166 0000 5B42444D 		.ascii	"[BDMA] MHal_BDMA_IMItoIMI = 0x%x -> 0x%x (0x%x)\012"
 1166      415D204D 
 1166      48616C5F 
 1166      42444D41 
 1166      5F494D49 
 1167 0030 00       		.ascii	"\000"
 1168              		.text
 1169              	.Letext0:
 1170              		.file 2 "/home/gu/code/freeRTOS10/vendor/mstar/CM4/tools/gcc-arm-none-eabi-8-2018-q4-major/arm-non
 1171              		.file 3 "/home/gu/code/freeRTOS10/vendor/mstar/CM4/tools/gcc-arm-none-eabi-8-2018-q4-major/arm-non
 1172              		.file 4 "/home/gu/code/freeRTOS10/vendor/mstar/CM4/tools/gcc-arm-none-eabi-8-2018-q4-major/arm-non
 1173              		.file 5 "/home/gu/code/freeRTOS10/vendor/mstar/CM4/tools/gcc-arm-none-eabi-8-2018-q4-major/lib/gcc
 1174              		.file 6 "/home/gu/code/freeRTOS10/vendor/mstar/CM4/tools/gcc-arm-none-eabi-8-2018-q4-major/arm-non
 1175              		.file 7 "/home/gu/code/freeRTOS10/vendor/mstar/CM4/tools/gcc-arm-none-eabi-8-2018-q4-major/arm-non
 1176              		.file 8 "/home/gu/code/freeRTOS10/vendor/mstar/CM4/tools/gcc-arm-none-eabi-8-2018-q4-major/arm-non
 1177              		.file 9 "/home/gu/code/freeRTOS10/vendor/mstar/CM4/tools/gcc-arm-none-eabi-8-2018-q4-major/arm-non
 1178              		.file 10 "../../CMSIS/core_cm4.h"
 1179              		.file 11 "../../peripheral_library/inc/mosWrapper.h"
ARM GAS  /tmp/cclDP8Fi.s 			page 30


 1180              		.file 12 "../../peripheral_library/hal/m7221/inc/halBDMA.h"
 1181              		.file 13 "../../peripheral_library/hal/m7221/inc/halUART.h"