ARM GAS  /tmp/cceGr1q3.s 			page 1


   1              		.cpu cortex-m4
   2              		.eabi_attribute 27, 1	@ Tag_ABI_HardFP_use
   3              		.eabi_attribute 20, 1	@ Tag_ABI_FP_denormal
   4              		.eabi_attribute 21, 1	@ Tag_ABI_FP_exceptions
   5              		.eabi_attribute 23, 3	@ Tag_ABI_FP_number_model
   6              		.eabi_attribute 24, 1	@ Tag_ABI_align8_needed
   7              		.eabi_attribute 25, 1	@ Tag_ABI_align8_preserved
   8              		.eabi_attribute 26, 1	@ Tag_ABI_enum_size
   9              		.eabi_attribute 30, 4	@ Tag_ABI_optimization_goals
  10              		.eabi_attribute 34, 1	@ Tag_CPU_unaligned_access
  11              		.eabi_attribute 18, 4	@ Tag_ABI_PCS_wchar_t
  12              		.file	"halINTC.c"
  13              	@ GNU C89 (GNU Tools for Arm Embedded Processors 8-2018-q4-major) version 8.2.1 20181213 (release) 
  14              	@	compiled by GNU C version 4.8.4, GMP version 6.1.0, MPFR version 3.1.4, MPC version 1.0.3, isl ve
  15              	
  16              	@ GGC heuristics: --param ggc-min-expand=96 --param ggc-min-heapsize=125422
  17              	@ options passed:  -isystem =/include/newlib-nano -I . -I .
  18              	@ -I ../../kernel/FreeRTOS/Source/include
  19              	@ -I ../../kernel/FreeRTOS/Source/portable/GCC/ARM_CM4F
  20              	@ -I ../../kernel/FreeRTOS/Demo/Common/include
  21              	@ -I ../../kernel/FreeRTOS-Plus/Source/FreeRTOS-Plus-CLI
  22              	@ -I ../../peripheral_library/inc -I ../../peripheral_library/hal/m7221/inc
  23              	@ -I ../../CMSIS -I ../../main_full -I ../../3rd/rokid/./ -I /.
  24              	@ -I /../../kernel/FreeRTOS/Source/include
  25              	@ -I /../../kernel/FreeRTOS/Source/portable/GCC/ARM_CM4F
  26              	@ -I /../../kernel/FreeRTOS/Demo/Common/include
  27              	@ -I /../../kernel/FreeRTOS-Plus/Source/FreeRTOS-Plus-CLI
  28              	@ -I /../../peripheral_library/inc
  29              	@ -I /../../peripheral_library/hal/m7221/inc -I /../../CMSIS
  30              	@ -I /../../main_full -I /../../3rd/rokid/./
  31              	@ -imultilib thumb/v7e-m+fp/softfp
  32              	@ -iprefix /home/gu/code/freeRTOS10/vendor/mstar/CM4/tools/gcc-arm-none-eabi-8-2018-q4-major/bin/..
  33              	@ -isysroot /home/gu/code/freeRTOS10/vendor/mstar/CM4/tools/gcc-arm-none-eabi-8-2018-q4-major/bin/.
  34              	@ -MD out/halINTC.d -MF out/halINTC.d -MP -MQ out/halINTC.o
  35              	@ -D__USES_INITFINI__ -D CONFIG_BENCH=0 -D CONFIG_SYS_DBG_LEVEL=0xFFFFFFFF
  36              	@ -D CONFIG_VOC_MIC=6 -D CONFIG_AUD_I2S -D CONFIG_AUD_AEC
  37              	@ -D CONFIG_VOC_MIC_MAPPING -D CONFIG_VOC_SWHPF -D CONFIG_VOC_SW_SRC48K
  38              	@ -D ARM_MATH_CM4 -D BOOTROM_VERSION_ASIC
  39              	@ ../../peripheral_library/hal/m7221/src/halINTC.c -mcpu=cortex-m4 -mthumb
  40              	@ -mthumb-interwork -mfloat-abi=softfp -mfpu=fpv4-sp-d16 -march=armv7e-m+fp
  41              	@ -auxbase-strip out/halINTC.o -g -ggdb3 -Os -Wall -Wstrict-prototypes
  42              	@ -Wextra -std=gnu90 -ffunction-sections -fdata-sections
  43              	@ -fno-builtin-printf -fverbose-asm
  44              	@ options enabled:  -faggressive-loop-optimizations -falign-jumps
  45              	@ -falign-labels -falign-loops -fauto-inc-dec -fbranch-count-reg
  46              	@ -fcaller-saves -fchkp-check-incomplete-type -fchkp-check-read
  47              	@ -fchkp-check-write -fchkp-instrument-calls -fchkp-narrow-bounds
  48              	@ -fchkp-optimize -fchkp-store-bounds -fchkp-use-static-bounds
  49              	@ -fchkp-use-static-const-bounds -fchkp-use-wrappers -fcode-hoisting
  50              	@ -fcombine-stack-adjustments -fcommon -fcompare-elim -fcprop-registers
  51              	@ -fcrossjumping -fcse-follow-jumps -fdata-sections -fdefer-pop
  52              	@ -fdelete-null-pointer-checks -fdevirtualize -fdevirtualize-speculatively
  53              	@ -fdwarf2-cfi-asm -fearly-inlining -feliminate-unused-debug-types
  54              	@ -fexpensive-optimizations -fforward-propagate -ffp-int-builtin-inexact
  55              	@ -ffunction-cse -ffunction-sections -fgcse -fgcse-lm -fgnu-runtime
  56              	@ -fgnu-unique -fguess-branch-probability -fhoist-adjacent-loads -fident
  57              	@ -fif-conversion -fif-conversion2 -findirect-inlining -finline
ARM GAS  /tmp/cceGr1q3.s 			page 2


  58              	@ -finline-atomics -finline-functions -finline-functions-called-once
  59              	@ -finline-small-functions -fipa-bit-cp -fipa-cp -fipa-icf
  60              	@ -fipa-icf-functions -fipa-icf-variables -fipa-profile -fipa-pure-const
  61              	@ -fipa-ra -fipa-reference -fipa-sra -fipa-vrp -fira-hoist-pressure
  62              	@ -fira-share-save-slots -fira-share-spill-slots
  63              	@ -fisolate-erroneous-paths-dereference -fivopts -fkeep-static-consts
  64              	@ -fleading-underscore -flifetime-dse -flra-remat -flto-odr-type-merging
  65              	@ -fmath-errno -fmerge-constants -fmerge-debug-strings
  66              	@ -fmove-loop-invariants -fomit-frame-pointer -foptimize-sibling-calls
  67              	@ -fpartial-inlining -fpeephole -fpeephole2 -fplt -fprefetch-loop-arrays
  68              	@ -freg-struct-return -freorder-blocks -freorder-functions
  69              	@ -frerun-cse-after-loop -fsched-critical-path-heuristic
  70              	@ -fsched-dep-count-heuristic -fsched-group-heuristic -fsched-interblock
  71              	@ -fsched-last-insn-heuristic -fsched-pressure -fsched-rank-heuristic
  72              	@ -fsched-spec -fsched-spec-insn-heuristic -fsched-stalled-insns-dep
  73              	@ -fschedule-insns2 -fsection-anchors -fsemantic-interposition
  74              	@ -fshow-column -fshrink-wrap-separate -fsigned-zeros
  75              	@ -fsplit-ivs-in-unroller -fsplit-wide-types -fssa-backprop -fssa-phiopt
  76              	@ -fstdarg-opt -fstore-merging -fstrict-aliasing
  77              	@ -fstrict-volatile-bitfields -fsync-libcalls -fthread-jumps
  78              	@ -ftoplevel-reorder -ftrapping-math -ftree-bit-ccp -ftree-builtin-call-dce
  79              	@ -ftree-ccp -ftree-ch -ftree-coalesce-vars -ftree-copy-prop -ftree-cselim
  80              	@ -ftree-dce -ftree-dominator-opts -ftree-dse -ftree-forwprop -ftree-fre
  81              	@ -ftree-loop-if-convert -ftree-loop-im -ftree-loop-ivcanon
  82              	@ -ftree-loop-optimize -ftree-parallelize-loops= -ftree-phiprop -ftree-pre
  83              	@ -ftree-pta -ftree-reassoc -ftree-scev-cprop -ftree-sink -ftree-slsr
  84              	@ -ftree-sra -ftree-switch-conversion -ftree-tail-merge -ftree-ter
  85              	@ -ftree-vrp -funit-at-a-time -fvar-tracking -fvar-tracking-assignments
  86              	@ -fverbose-asm -fzero-initialized-in-bss -masm-syntax-unified -mbe32
  87              	@ -mlittle-endian -mpic-data-is-text-relative -msched-prolog -mthumb
  88              	@ -munaligned-access -mvectorize-with-neon-quad
  89              	
  90              		.text
  91              	.Ltext0:
  92              		.cfi_sections	.debug_frame
  93              		.section	.text.MHal_INTC_IRQStatus,"ax",%progbits
  94              		.align	1
  95              		.global	MHal_INTC_IRQStatus
  96              		.arch armv7e-m
  97              		.syntax unified
  98              		.thumb
  99              		.thumb_func
 100              		.fpu fpv4-sp-d16
 101              		.type	MHal_INTC_IRQStatus, %function
 102              	MHal_INTC_IRQStatus:
 103              	.LVL0:
 104              	.LFB0:
 105              		.file 1 "../../peripheral_library/hal/m7221/src/halINTC.c"
   1:../../peripheral_library/hal/m7221/src/halINTC.c **** ////////////////////////////////////////////////////////////////////////////////
   2:../../peripheral_library/hal/m7221/src/halINTC.c **** //
   3:../../peripheral_library/hal/m7221/src/halINTC.c **** // Copyright (c) 2018 MStar Semiconductor, Inc.
   4:../../peripheral_library/hal/m7221/src/halINTC.c **** // All rights reserved.
   5:../../peripheral_library/hal/m7221/src/halINTC.c **** //
   6:../../peripheral_library/hal/m7221/src/halINTC.c **** // Unless otherwise stipulated in writing, any and all information contained
   7:../../peripheral_library/hal/m7221/src/halINTC.c **** // herein regardless in any format shall remain the sole proprietary of
   8:../../peripheral_library/hal/m7221/src/halINTC.c **** // MStar Semiconductor Inc. and be kept in strict confidence
   9:../../peripheral_library/hal/m7221/src/halINTC.c **** // ("MStar Confidential Information") by the recipient.
ARM GAS  /tmp/cceGr1q3.s 			page 3


  10:../../peripheral_library/hal/m7221/src/halINTC.c **** // Any unauthorized act including without limitation unauthorized disclosure,
  11:../../peripheral_library/hal/m7221/src/halINTC.c **** // copying, use, reproduction, sale, distribution, modification, disassembling,
  12:../../peripheral_library/hal/m7221/src/halINTC.c **** // reverse engineering and compiling of the contents of MStar Confidential
  13:../../peripheral_library/hal/m7221/src/halINTC.c **** // Information is unlawful and strictly prohibited. MStar hereby reserves the
  14:../../peripheral_library/hal/m7221/src/halINTC.c **** // rights to any and all damages, losses, costs and expenses resulting therefrom.
  15:../../peripheral_library/hal/m7221/src/halINTC.c **** //
  16:../../peripheral_library/hal/m7221/src/halINTC.c **** ////////////////////////////////////////////////////////////////////////////////
  17:../../peripheral_library/hal/m7221/src/halINTC.c **** 
  18:../../peripheral_library/hal/m7221/src/halINTC.c **** ///////////////////////////////////////////////////////////////////////////////////////////////////
  19:../../peripheral_library/hal/m7221/src/halINTC.c **** /// @file   halINTC.c
  20:../../peripheral_library/hal/m7221/src/halINTC.c **** /// @brief  MStar Interrupt controller HAL Driver DDI
  21:../../peripheral_library/hal/m7221/src/halINTC.c **** /// @author MStar Semiconductor Inc.
  22:../../peripheral_library/hal/m7221/src/halINTC.c **** /// @attention
  23:../../peripheral_library/hal/m7221/src/halINTC.c **** /// <b><em></em></b>
  24:../../peripheral_library/hal/m7221/src/halINTC.c **** ///////////////////////////////////////////////////////////////////////////////////////////////////
  25:../../peripheral_library/hal/m7221/src/halINTC.c **** 
  26:../../peripheral_library/hal/m7221/src/halINTC.c **** #define _HAL_INTC_C
  27:../../peripheral_library/hal/m7221/src/halINTC.c **** 
  28:../../peripheral_library/hal/m7221/src/halINTC.c **** #include "halINTC.h"
  29:../../peripheral_library/hal/m7221/src/halINTC.c **** 
  30:../../peripheral_library/hal/m7221/src/halINTC.c **** /* Timer register address definition */
  31:../../peripheral_library/hal/m7221/src/halINTC.c **** /* Timer 0 */
  32:../../peripheral_library/hal/m7221/src/halINTC.c **** #define INTC_BASE_ADDR        REG_ADDR_BASE_INTC
  33:../../peripheral_library/hal/m7221/src/halINTC.c **** #define INTC_FIQ_FORCE_15_0   GET_REG16_ADDR(INTC_BASE_ADDR, 0x00)
  34:../../peripheral_library/hal/m7221/src/halINTC.c **** #define INTC_FIQ_FORCE_31_16  GET_REG16_ADDR(INTC_BASE_ADDR, 0x01)
  35:../../peripheral_library/hal/m7221/src/halINTC.c **** #define INTC_FIQ_FORCE_47_32  GET_REG16_ADDR(INTC_BASE_ADDR, 0x02)
  36:../../peripheral_library/hal/m7221/src/halINTC.c **** #define INTC_FIQ_FORCE_63_48  GET_REG16_ADDR(INTC_BASE_ADDR, 0x03)
  37:../../peripheral_library/hal/m7221/src/halINTC.c **** #define INTC_FIQ_MASK_15_0    GET_REG16_ADDR(INTC_BASE_ADDR, 0x04)
  38:../../peripheral_library/hal/m7221/src/halINTC.c **** #define INTC_FIQ_MASK_31_16   GET_REG16_ADDR(INTC_BASE_ADDR, 0x05)
  39:../../peripheral_library/hal/m7221/src/halINTC.c **** #define INTC_FIQ_MASK_47_32   GET_REG16_ADDR(INTC_BASE_ADDR, 0x06)
  40:../../peripheral_library/hal/m7221/src/halINTC.c **** #define INTC_FIQ_MASK_63_48   GET_REG16_ADDR(INTC_BASE_ADDR, 0x07)
  41:../../peripheral_library/hal/m7221/src/halINTC.c **** 
  42:../../peripheral_library/hal/m7221/src/halINTC.c **** #define INTC_FIQ_STATUS_15_0    GET_REG16_ADDR(INTC_BASE_ADDR, 0x0c)
  43:../../peripheral_library/hal/m7221/src/halINTC.c **** #define INTC_FIQ_STATUS_31_16   GET_REG16_ADDR(INTC_BASE_ADDR, 0x0d)
  44:../../peripheral_library/hal/m7221/src/halINTC.c **** #define INTC_FIQ_STATUS_47_32   GET_REG16_ADDR(INTC_BASE_ADDR, 0x0e)
  45:../../peripheral_library/hal/m7221/src/halINTC.c **** #define INTC_FIQ_STATUS_63_48   GET_REG16_ADDR(INTC_BASE_ADDR, 0x0f)
  46:../../peripheral_library/hal/m7221/src/halINTC.c **** 
  47:../../peripheral_library/hal/m7221/src/halINTC.c **** 
  48:../../peripheral_library/hal/m7221/src/halINTC.c **** #define INTC_IRQ_FORCE_15_0   GET_REG16_ADDR(INTC_BASE_ADDR, 0x10)
  49:../../peripheral_library/hal/m7221/src/halINTC.c **** #define INTC_IRQ_FORCE_31_16  GET_REG16_ADDR(INTC_BASE_ADDR, 0x11)
  50:../../peripheral_library/hal/m7221/src/halINTC.c **** #define INTC_IRQ_FORCE_47_32  GET_REG16_ADDR(INTC_BASE_ADDR, 0x12)
  51:../../peripheral_library/hal/m7221/src/halINTC.c **** #define INTC_IRQ_FORCE_63_48  GET_REG16_ADDR(INTC_BASE_ADDR, 0x13)
  52:../../peripheral_library/hal/m7221/src/halINTC.c **** #define INTC_IRQ_MASK_15_0    GET_REG16_ADDR(INTC_BASE_ADDR, 0x14)
  53:../../peripheral_library/hal/m7221/src/halINTC.c **** #define INTC_IRQ_MASK_31_16   GET_REG16_ADDR(INTC_BASE_ADDR, 0x15)
  54:../../peripheral_library/hal/m7221/src/halINTC.c **** #define INTC_IRQ_MASK_47_32   GET_REG16_ADDR(INTC_BASE_ADDR, 0x16)
  55:../../peripheral_library/hal/m7221/src/halINTC.c **** #define INTC_IRQ_MASK_63_48   GET_REG16_ADDR(INTC_BASE_ADDR, 0x17)
  56:../../peripheral_library/hal/m7221/src/halINTC.c **** 
  57:../../peripheral_library/hal/m7221/src/halINTC.c **** #define INTC_IRQ_STATUS_15_0    GET_REG16_ADDR(INTC_BASE_ADDR, 0x1c)
  58:../../peripheral_library/hal/m7221/src/halINTC.c **** #define INTC_IRQ_STATUS_31_16   GET_REG16_ADDR(INTC_BASE_ADDR, 0x1d)
  59:../../peripheral_library/hal/m7221/src/halINTC.c **** #define INTC_IRQ_STATUS_47_32   GET_REG16_ADDR(INTC_BASE_ADDR, 0x1e)
  60:../../peripheral_library/hal/m7221/src/halINTC.c **** #define INTC_IRQ_STATUS_63_48   GET_REG16_ADDR(INTC_BASE_ADDR, 0x1f)
  61:../../peripheral_library/hal/m7221/src/halINTC.c **** 
  62:../../peripheral_library/hal/m7221/src/halINTC.c **** 
  63:../../peripheral_library/hal/m7221/src/halINTC.c **** 
  64:../../peripheral_library/hal/m7221/src/halINTC.c **** U16 MHal_INTC_IRQStatus(U32 u32IntcNumber)
  65:../../peripheral_library/hal/m7221/src/halINTC.c **** {
 106              		.loc 1 65 1 view -0
ARM GAS  /tmp/cceGr1q3.s 			page 4


 107              		.cfi_startproc
 108              		@ args = 0, pretend = 0, frame = 0
 109              		@ frame_needed = 0, uses_anonymous_args = 0
 110              		@ link register save eliminated.
  66:../../peripheral_library/hal/m7221/src/halINTC.c ****   if( u32IntcNumber < 64 )
 111              		.loc 1 66 3 view .LVU1
 112              	@ ../../peripheral_library/hal/m7221/src/halINTC.c:66:   if( u32IntcNumber < 64 )
 113              		.loc 1 66 5 is_stmt 0 view .LVU2
 114 0000 3F28     		cmp	r0, #63	@ u32IntcNumber,
 115 0002 1CD8     		bhi	.L6		@,
  67:../../peripheral_library/hal/m7221/src/halINTC.c ****   {
  68:../../peripheral_library/hal/m7221/src/halINTC.c ****     if((u32IntcNumber/16) == 0)
 116              		.loc 1 68 5 is_stmt 1 view .LVU3
 117              	@ ../../peripheral_library/hal/m7221/src/halINTC.c:68:     if((u32IntcNumber/16) == 0)
 118              		.loc 1 68 7 is_stmt 0 view .LVU4
 119 0004 0F28     		cmp	r0, #15	@ u32IntcNumber,
 120 0006 4FF00103 		mov	r3, #1	@ tmp156,
 121 000a 05D8     		bhi	.L3		@,
  69:../../peripheral_library/hal/m7221/src/halINTC.c ****       return (INREG16(INTC_IRQ_STATUS_15_0) & (1 << (u32IntcNumber%16)));
 122              		.loc 1 69 7 is_stmt 1 view .LVU5
 123              	@ ../../peripheral_library/hal/m7221/src/halINTC.c:69:       return (INREG16(INTC_IRQ_STATUS_15_0) 
 124              		.loc 1 69 15 is_stmt 0 view .LVU6
 125 000c 0D4A     		ldr	r2, .L8	@ tmp131,
 126 000e 1288     		ldrh	r2, [r2]	@, MEM[(volatile short unsigned int *)1075852272B]
 127              	@ ../../peripheral_library/hal/m7221/src/halINTC.c:69:       return (INREG16(INTC_IRQ_STATUS_15_0) 
 128              		.loc 1 69 50 view .LVU7
 129 0010 03FA00F0 		lsl	r0, r3, r0	@ tmp133, tmp156, u32IntcNumber
 130              	.LVL1:
 131              	@ ../../peripheral_library/hal/m7221/src/halINTC.c:69:       return (INREG16(INTC_IRQ_STATUS_15_0) 
 132              		.loc 1 69 45 view .LVU8
 133 0014 1040     		ands	r0, r0, r2	@, <retval>, tmp133, MEM[(volatile short unsigned int *)1075852272B]
 134 0016 7047     		bx	lr	@
 135              	.LVL2:
 136              	.L3:
  70:../../peripheral_library/hal/m7221/src/halINTC.c **** 	  else if((u32IntcNumber/16) == 1)
 137              		.loc 1 70 9 is_stmt 1 view .LVU9
 138 0018 00F00F02 		and	r2, r0, #15	@ tmp138, u32IntcNumber,
 139 001c 9340     		lsls	r3, r3, r2	@ tmp139, tmp156, tmp138
 140              	@ ../../peripheral_library/hal/m7221/src/halINTC.c:70: 	  else if((u32IntcNumber/16) == 1)
 141              		.loc 1 70 31 is_stmt 0 view .LVU10
 142 001e A0F11002 		sub	r2, r0, #16	@ tmp141, u32IntcNumber,
 143              	@ ../../peripheral_library/hal/m7221/src/halINTC.c:70: 	  else if((u32IntcNumber/16) == 1)
 144              		.loc 1 70 11 view .LVU11
 145 0022 0F2A     		cmp	r2, #15	@ tmp141,
 146 0024 1BB2     		sxth	r3, r3	@ _39, tmp139
 147 0026 03D8     		bhi	.L4		@,
  71:../../peripheral_library/hal/m7221/src/halINTC.c ****       return (INREG16(INTC_IRQ_STATUS_31_16) & (1 << (u32IntcNumber%16)));
 148              		.loc 1 71 7 is_stmt 1 view .LVU12
 149              	@ ../../peripheral_library/hal/m7221/src/halINTC.c:71:       return (INREG16(INTC_IRQ_STATUS_31_16)
 150              		.loc 1 71 15 is_stmt 0 view .LVU13
 151 0028 074A     		ldr	r2, .L8+4	@ tmp142,
 152              	.LVL3:
 153              	.L7:
 154              	@ ../../peripheral_library/hal/m7221/src/halINTC.c:73:       return (INREG16(INTC_IRQ_STATUS_47_32)
  72:../../peripheral_library/hal/m7221/src/halINTC.c **** 	  else if((u32IntcNumber/16) == 2)
  73:../../peripheral_library/hal/m7221/src/halINTC.c ****       return (INREG16(INTC_IRQ_STATUS_47_32) & (1 << (u32IntcNumber%16)));
 155              		.loc 1 73 15 view .LVU14
ARM GAS  /tmp/cceGr1q3.s 			page 5


 156 002a 1088     		ldrh	r0, [r2]	@,
 157              	@ ../../peripheral_library/hal/m7221/src/halINTC.c:73:       return (INREG16(INTC_IRQ_STATUS_47_32)
 158              		.loc 1 73 46 view .LVU15
 159 002c 1840     		ands	r0, r0, r3	@, <retval>, MEM[(volatile short unsigned int *)1075852280B], _39
 160 002e 7047     		bx	lr	@
 161              	.LVL4:
 162              	.L4:
  72:../../peripheral_library/hal/m7221/src/halINTC.c **** 	  else if((u32IntcNumber/16) == 2)
 163              		.loc 1 72 9 is_stmt 1 view .LVU16
 164              	@ ../../peripheral_library/hal/m7221/src/halINTC.c:72: 	  else if((u32IntcNumber/16) == 2)
  72:../../peripheral_library/hal/m7221/src/halINTC.c **** 	  else if((u32IntcNumber/16) == 2)
 165              		.loc 1 72 31 is_stmt 0 view .LVU17
 166 0030 2038     		subs	r0, r0, #32	@ tmp146, u32IntcNumber,
 167              	.LVL5:
 168              	@ ../../peripheral_library/hal/m7221/src/halINTC.c:72: 	  else if((u32IntcNumber/16) == 2)
  72:../../peripheral_library/hal/m7221/src/halINTC.c **** 	  else if((u32IntcNumber/16) == 2)
 169              		.loc 1 72 11 view .LVU18
 170 0032 0F28     		cmp	r0, #15	@ tmp146,
 171 0034 01D8     		bhi	.L5		@,
 172              		.loc 1 73 7 is_stmt 1 view .LVU19
 173              	@ ../../peripheral_library/hal/m7221/src/halINTC.c:73:       return (INREG16(INTC_IRQ_STATUS_47_32)
 174              		.loc 1 73 15 is_stmt 0 view .LVU20
 175 0036 054A     		ldr	r2, .L8+8	@ tmp147,
 176              	.LVL6:
 177              		.loc 1 73 15 view .LVU21
 178 0038 F7E7     		b	.L7		@
 179              	.L5:
  74:../../peripheral_library/hal/m7221/src/halINTC.c **** 	  else
  75:../../peripheral_library/hal/m7221/src/halINTC.c **** 		  return (INREG16(INTC_IRQ_STATUS_63_48) & (1 << (u32IntcNumber%16)));
 180              		.loc 1 75 5 is_stmt 1 view .LVU22
 181              	@ ../../peripheral_library/hal/m7221/src/halINTC.c:75: 		  return (INREG16(INTC_IRQ_STATUS_63_48) &
 182              		.loc 1 75 13 is_stmt 0 view .LVU23
 183 003a 054A     		ldr	r2, .L8+12	@ tmp151,
 184 003c F5E7     		b	.L7		@
 185              	.LVL7:
 186              	.L6:
 187              	@ ../../peripheral_library/hal/m7221/src/halINTC.c:77:   return 0;
  76:../../peripheral_library/hal/m7221/src/halINTC.c ****   }
  77:../../peripheral_library/hal/m7221/src/halINTC.c ****   return 0;
 188              		.loc 1 77 10 view .LVU24
 189 003e 0020     		movs	r0, #0	@ <retval>,
 190              	.LVL8:
 191              	@ ../../peripheral_library/hal/m7221/src/halINTC.c:78: }
  78:../../peripheral_library/hal/m7221/src/halINTC.c **** }
 192              		.loc 1 78 1 view .LVU25
 193 0040 7047     		bx	lr	@
 194              	.L9:
 195 0042 00BF     		.align	2
 196              	.L8:
 197 0044 F0332040 		.word	1075852272
 198 0048 F4332040 		.word	1075852276
 199 004c F8332040 		.word	1075852280
 200 0050 FC332040 		.word	1075852284
 201              		.cfi_endproc
 202              	.LFE0:
 203              		.size	MHal_INTC_IRQStatus, .-MHal_INTC_IRQStatus
 204              		.section	.text.MHal_INTC_FIQStatus,"ax",%progbits
ARM GAS  /tmp/cceGr1q3.s 			page 6


 205              		.align	1
 206              		.global	MHal_INTC_FIQStatus
 207              		.syntax unified
 208              		.thumb
 209              		.thumb_func
 210              		.fpu fpv4-sp-d16
 211              		.type	MHal_INTC_FIQStatus, %function
 212              	MHal_INTC_FIQStatus:
 213              	.LVL9:
 214              	.LFB1:
  79:../../peripheral_library/hal/m7221/src/halINTC.c **** 
  80:../../peripheral_library/hal/m7221/src/halINTC.c **** U16 MHal_INTC_FIQStatus(U32 u32IntcNumber)
  81:../../peripheral_library/hal/m7221/src/halINTC.c **** {
 215              		.loc 1 81 1 is_stmt 1 view -0
 216              		.cfi_startproc
 217              		@ args = 0, pretend = 0, frame = 0
 218              		@ frame_needed = 0, uses_anonymous_args = 0
 219              		@ link register save eliminated.
  82:../../peripheral_library/hal/m7221/src/halINTC.c ****   if( u32IntcNumber < 64 )
 220              		.loc 1 82 3 view .LVU27
 221              	@ ../../peripheral_library/hal/m7221/src/halINTC.c:82:   if( u32IntcNumber < 64 )
 222              		.loc 1 82 5 is_stmt 0 view .LVU28
 223 0000 3F28     		cmp	r0, #63	@ u32IntcNumber,
 224 0002 1CD8     		bhi	.L15		@,
  83:../../peripheral_library/hal/m7221/src/halINTC.c ****   {
  84:../../peripheral_library/hal/m7221/src/halINTC.c ****     if((u32IntcNumber/16) == 0)
 225              		.loc 1 84 5 is_stmt 1 view .LVU29
 226              	@ ../../peripheral_library/hal/m7221/src/halINTC.c:84:     if((u32IntcNumber/16) == 0)
 227              		.loc 1 84 7 is_stmt 0 view .LVU30
 228 0004 0F28     		cmp	r0, #15	@ u32IntcNumber,
 229 0006 4FF00103 		mov	r3, #1	@ tmp156,
 230 000a 05D8     		bhi	.L12		@,
  85:../../peripheral_library/hal/m7221/src/halINTC.c ****       return (INREG16(INTC_FIQ_STATUS_15_0) & (1 << (u32IntcNumber%16)));
 231              		.loc 1 85 7 is_stmt 1 view .LVU31
 232              	@ ../../peripheral_library/hal/m7221/src/halINTC.c:85:       return (INREG16(INTC_FIQ_STATUS_15_0) 
 233              		.loc 1 85 15 is_stmt 0 view .LVU32
 234 000c 0D4A     		ldr	r2, .L17	@ tmp131,
 235 000e 1288     		ldrh	r2, [r2]	@, MEM[(volatile short unsigned int *)1075852208B]
 236              	@ ../../peripheral_library/hal/m7221/src/halINTC.c:85:       return (INREG16(INTC_FIQ_STATUS_15_0) 
 237              		.loc 1 85 50 view .LVU33
 238 0010 03FA00F0 		lsl	r0, r3, r0	@ tmp133, tmp156, u32IntcNumber
 239              	.LVL10:
 240              	@ ../../peripheral_library/hal/m7221/src/halINTC.c:85:       return (INREG16(INTC_FIQ_STATUS_15_0) 
 241              		.loc 1 85 45 view .LVU34
 242 0014 1040     		ands	r0, r0, r2	@, <retval>, tmp133, MEM[(volatile short unsigned int *)1075852208B]
 243 0016 7047     		bx	lr	@
 244              	.LVL11:
 245              	.L12:
  86:../../peripheral_library/hal/m7221/src/halINTC.c **** 	  else if((u32IntcNumber/16) == 1)
 246              		.loc 1 86 9 is_stmt 1 view .LVU35
 247 0018 00F00F02 		and	r2, r0, #15	@ tmp138, u32IntcNumber,
 248 001c 9340     		lsls	r3, r3, r2	@ tmp139, tmp156, tmp138
 249              	@ ../../peripheral_library/hal/m7221/src/halINTC.c:86: 	  else if((u32IntcNumber/16) == 1)
 250              		.loc 1 86 31 is_stmt 0 view .LVU36
 251 001e A0F11002 		sub	r2, r0, #16	@ tmp141, u32IntcNumber,
 252              	@ ../../peripheral_library/hal/m7221/src/halINTC.c:86: 	  else if((u32IntcNumber/16) == 1)
 253              		.loc 1 86 11 view .LVU37
ARM GAS  /tmp/cceGr1q3.s 			page 7


 254 0022 0F2A     		cmp	r2, #15	@ tmp141,
 255 0024 1BB2     		sxth	r3, r3	@ _39, tmp139
 256 0026 03D8     		bhi	.L13		@,
  87:../../peripheral_library/hal/m7221/src/halINTC.c ****       return (INREG16(INTC_FIQ_STATUS_31_16) & (1 << (u32IntcNumber%16)));
 257              		.loc 1 87 7 is_stmt 1 view .LVU38
 258              	@ ../../peripheral_library/hal/m7221/src/halINTC.c:87:       return (INREG16(INTC_FIQ_STATUS_31_16)
 259              		.loc 1 87 15 is_stmt 0 view .LVU39
 260 0028 074A     		ldr	r2, .L17+4	@ tmp142,
 261              	.LVL12:
 262              	.L16:
 263              	@ ../../peripheral_library/hal/m7221/src/halINTC.c:89:       return (INREG16(INTC_FIQ_STATUS_47_32)
  88:../../peripheral_library/hal/m7221/src/halINTC.c **** 	  else if((u32IntcNumber/16) == 2)
  89:../../peripheral_library/hal/m7221/src/halINTC.c ****       return (INREG16(INTC_FIQ_STATUS_47_32) & (1 << (u32IntcNumber%16)));
 264              		.loc 1 89 15 view .LVU40
 265 002a 1088     		ldrh	r0, [r2]	@,
 266              	@ ../../peripheral_library/hal/m7221/src/halINTC.c:89:       return (INREG16(INTC_FIQ_STATUS_47_32)
 267              		.loc 1 89 46 view .LVU41
 268 002c 1840     		ands	r0, r0, r3	@, <retval>, MEM[(volatile short unsigned int *)1075852216B], _39
 269 002e 7047     		bx	lr	@
 270              	.LVL13:
 271              	.L13:
  88:../../peripheral_library/hal/m7221/src/halINTC.c **** 	  else if((u32IntcNumber/16) == 2)
 272              		.loc 1 88 9 is_stmt 1 view .LVU42
 273              	@ ../../peripheral_library/hal/m7221/src/halINTC.c:88: 	  else if((u32IntcNumber/16) == 2)
  88:../../peripheral_library/hal/m7221/src/halINTC.c **** 	  else if((u32IntcNumber/16) == 2)
 274              		.loc 1 88 31 is_stmt 0 view .LVU43
 275 0030 2038     		subs	r0, r0, #32	@ tmp146, u32IntcNumber,
 276              	.LVL14:
 277              	@ ../../peripheral_library/hal/m7221/src/halINTC.c:88: 	  else if((u32IntcNumber/16) == 2)
  88:../../peripheral_library/hal/m7221/src/halINTC.c **** 	  else if((u32IntcNumber/16) == 2)
 278              		.loc 1 88 11 view .LVU44
 279 0032 0F28     		cmp	r0, #15	@ tmp146,
 280 0034 01D8     		bhi	.L14		@,
 281              		.loc 1 89 7 is_stmt 1 view .LVU45
 282              	@ ../../peripheral_library/hal/m7221/src/halINTC.c:89:       return (INREG16(INTC_FIQ_STATUS_47_32)
 283              		.loc 1 89 15 is_stmt 0 view .LVU46
 284 0036 054A     		ldr	r2, .L17+8	@ tmp147,
 285              	.LVL15:
 286              		.loc 1 89 15 view .LVU47
 287 0038 F7E7     		b	.L16		@
 288              	.L14:
  90:../../peripheral_library/hal/m7221/src/halINTC.c **** 	  else
  91:../../peripheral_library/hal/m7221/src/halINTC.c **** 		  return (INREG16(INTC_FIQ_STATUS_63_48) & (1 << (u32IntcNumber%16)));
 289              		.loc 1 91 5 is_stmt 1 view .LVU48
 290              	@ ../../peripheral_library/hal/m7221/src/halINTC.c:91: 		  return (INREG16(INTC_FIQ_STATUS_63_48) &
 291              		.loc 1 91 13 is_stmt 0 view .LVU49
 292 003a 054A     		ldr	r2, .L17+12	@ tmp151,
 293 003c F5E7     		b	.L16		@
 294              	.LVL16:
 295              	.L15:
 296              	@ ../../peripheral_library/hal/m7221/src/halINTC.c:93:   return 0;
  92:../../peripheral_library/hal/m7221/src/halINTC.c ****   }
  93:../../peripheral_library/hal/m7221/src/halINTC.c ****   return 0;
 297              		.loc 1 93 10 view .LVU50
 298 003e 0020     		movs	r0, #0	@ <retval>,
 299              	.LVL17:
 300              	@ ../../peripheral_library/hal/m7221/src/halINTC.c:94: }
ARM GAS  /tmp/cceGr1q3.s 			page 8


  94:../../peripheral_library/hal/m7221/src/halINTC.c **** }
 301              		.loc 1 94 1 view .LVU51
 302 0040 7047     		bx	lr	@
 303              	.L18:
 304 0042 00BF     		.align	2
 305              	.L17:
 306 0044 B0332040 		.word	1075852208
 307 0048 B4332040 		.word	1075852212
 308 004c B8332040 		.word	1075852216
 309 0050 BC332040 		.word	1075852220
 310              		.cfi_endproc
 311              	.LFE1:
 312              		.size	MHal_INTC_FIQStatus, .-MHal_INTC_FIQStatus
 313              		.section	.text.MHal_INTC_FIQClear,"ax",%progbits
 314              		.align	1
 315              		.global	MHal_INTC_FIQClear
 316              		.syntax unified
 317              		.thumb
 318              		.thumb_func
 319              		.fpu fpv4-sp-d16
 320              		.type	MHal_INTC_FIQClear, %function
 321              	MHal_INTC_FIQClear:
 322              	.LVL18:
 323              	.LFB2:
  95:../../peripheral_library/hal/m7221/src/halINTC.c **** 
  96:../../peripheral_library/hal/m7221/src/halINTC.c **** 
  97:../../peripheral_library/hal/m7221/src/halINTC.c **** void MHal_INTC_FIQClear(U32 u32IntcNumber)
  98:../../peripheral_library/hal/m7221/src/halINTC.c **** {
 324              		.loc 1 98 1 is_stmt 1 view -0
 325              		.cfi_startproc
 326              		@ args = 0, pretend = 0, frame = 0
 327              		@ frame_needed = 0, uses_anonymous_args = 0
 328              		@ link register save eliminated.
  99:../../peripheral_library/hal/m7221/src/halINTC.c ****   if( u32IntcNumber < 64 )
 329              		.loc 1 99 3 view .LVU53
 330              	@ ../../peripheral_library/hal/m7221/src/halINTC.c:99:   if( u32IntcNumber < 64 )
 331              		.loc 1 99 5 is_stmt 0 view .LVU54
 332 0000 3F28     		cmp	r0, #63	@ u32IntcNumber,
 333 0002 07D8     		bhi	.L19		@,
 100:../../peripheral_library/hal/m7221/src/halINTC.c ****   {
 101:../../peripheral_library/hal/m7221/src/halINTC.c ****     if((u32IntcNumber/16) == 0)
 334              		.loc 1 101 5 is_stmt 1 view .LVU55
 335              	@ ../../peripheral_library/hal/m7221/src/halINTC.c:101:     if((u32IntcNumber/16) == 0)
 336              		.loc 1 101 7 is_stmt 0 view .LVU56
 337 0004 0F28     		cmp	r0, #15	@ u32IntcNumber,
 338 0006 4FF00103 		mov	r3, #1	@ tmp133,
 339 000a 04D8     		bhi	.L21		@,
 102:../../peripheral_library/hal/m7221/src/halINTC.c ****       INREG16(INTC_FIQ_STATUS_15_0) = (1 << (u32IntcNumber%16));
 340              		.loc 1 102 7 is_stmt 1 view .LVU57
 341              	@ ../../peripheral_library/hal/m7221/src/halINTC.c:102:       INREG16(INTC_FIQ_STATUS_15_0) = (1 <<
 342              		.loc 1 102 42 is_stmt 0 view .LVU58
 343 000c 8340     		lsls	r3, r3, r0	@ tmp118, tmp133, u32IntcNumber
 344              	@ ../../peripheral_library/hal/m7221/src/halINTC.c:102:       INREG16(INTC_FIQ_STATUS_15_0) = (1 <<
 345              		.loc 1 102 37 view .LVU59
 346 000e 0A4A     		ldr	r2, .L25	@ tmp120,
 347 0010 9BB2     		uxth	r3, r3	@ _3, tmp118
 348              	.LVL19:
ARM GAS  /tmp/cceGr1q3.s 			page 9


 349              	.L24:
 350              	@ ../../peripheral_library/hal/m7221/src/halINTC.c:108:       INREG16(INTC_FIQ_STATUS_63_48) = (1 <
 103:../../peripheral_library/hal/m7221/src/halINTC.c ****     else if((u32IntcNumber/16) == 1)
 104:../../peripheral_library/hal/m7221/src/halINTC.c ****       INREG16(INTC_FIQ_STATUS_31_16) = (1 << (u32IntcNumber%16));
 105:../../peripheral_library/hal/m7221/src/halINTC.c ****     else if((u32IntcNumber/16) == 2)
 106:../../peripheral_library/hal/m7221/src/halINTC.c ****       INREG16(INTC_FIQ_STATUS_47_32) = (1 << (u32IntcNumber%16));
 107:../../peripheral_library/hal/m7221/src/halINTC.c ****     else
 108:../../peripheral_library/hal/m7221/src/halINTC.c ****       INREG16(INTC_FIQ_STATUS_63_48) = (1 << (u32IntcNumber%16));
 351              		.loc 1 108 38 view .LVU60
 352 0012 1380     		strh	r3, [r2]	@ movhi	@ _27,
 353              	.L19:
 354              	@ ../../peripheral_library/hal/m7221/src/halINTC.c:110: }
 109:../../peripheral_library/hal/m7221/src/halINTC.c ****   }
 110:../../peripheral_library/hal/m7221/src/halINTC.c **** }
 355              		.loc 1 110 1 view .LVU61
 356 0014 7047     		bx	lr	@
 357              	.LVL20:
 358              	.L21:
 103:../../peripheral_library/hal/m7221/src/halINTC.c ****     else if((u32IntcNumber/16) == 1)
 359              		.loc 1 103 10 is_stmt 1 view .LVU62
 360 0016 00F00F02 		and	r2, r0, #15	@ tmp122, u32IntcNumber,
 361 001a 9340     		lsls	r3, r3, r2	@ tmp123, tmp133, tmp122
 362              	@ ../../peripheral_library/hal/m7221/src/halINTC.c:103:     else if((u32IntcNumber/16) == 1)
 103:../../peripheral_library/hal/m7221/src/halINTC.c ****     else if((u32IntcNumber/16) == 1)
 363              		.loc 1 103 32 is_stmt 0 view .LVU63
 364 001c A0F11002 		sub	r2, r0, #16	@ tmp125, u32IntcNumber,
 365              	@ ../../peripheral_library/hal/m7221/src/halINTC.c:103:     else if((u32IntcNumber/16) == 1)
 103:../../peripheral_library/hal/m7221/src/halINTC.c ****     else if((u32IntcNumber/16) == 1)
 366              		.loc 1 103 12 view .LVU64
 367 0020 0F2A     		cmp	r2, #15	@ tmp125,
 368 0022 9BB2     		uxth	r3, r3	@ _27, tmp123
 369 0024 01D8     		bhi	.L22		@,
 104:../../peripheral_library/hal/m7221/src/halINTC.c ****     else if((u32IntcNumber/16) == 2)
 370              		.loc 1 104 7 is_stmt 1 view .LVU65
 371              	@ ../../peripheral_library/hal/m7221/src/halINTC.c:104:       INREG16(INTC_FIQ_STATUS_31_16) = (1 <
 104:../../peripheral_library/hal/m7221/src/halINTC.c ****     else if((u32IntcNumber/16) == 2)
 372              		.loc 1 104 38 is_stmt 0 view .LVU66
 373 0026 054A     		ldr	r2, .L25+4	@ tmp126,
 374 0028 F3E7     		b	.L24		@
 375              	.L22:
 105:../../peripheral_library/hal/m7221/src/halINTC.c ****       INREG16(INTC_FIQ_STATUS_47_32) = (1 << (u32IntcNumber%16));
 376              		.loc 1 105 10 is_stmt 1 view .LVU67
 377              	@ ../../peripheral_library/hal/m7221/src/halINTC.c:105:     else if((u32IntcNumber/16) == 2)
 105:../../peripheral_library/hal/m7221/src/halINTC.c ****       INREG16(INTC_FIQ_STATUS_47_32) = (1 << (u32IntcNumber%16));
 378              		.loc 1 105 32 is_stmt 0 view .LVU68
 379 002a 2038     		subs	r0, r0, #32	@ tmp128, u32IntcNumber,
 380              	.LVL21:
 381              	@ ../../peripheral_library/hal/m7221/src/halINTC.c:105:     else if((u32IntcNumber/16) == 2)
 105:../../peripheral_library/hal/m7221/src/halINTC.c ****       INREG16(INTC_FIQ_STATUS_47_32) = (1 << (u32IntcNumber%16));
 382              		.loc 1 105 12 view .LVU69
 383 002c 0F28     		cmp	r0, #15	@ tmp128,
 106:../../peripheral_library/hal/m7221/src/halINTC.c ****     else
 384              		.loc 1 106 7 is_stmt 1 view .LVU70
 385              	@ ../../peripheral_library/hal/m7221/src/halINTC.c:106:       INREG16(INTC_FIQ_STATUS_47_32) = (1 <
 106:../../peripheral_library/hal/m7221/src/halINTC.c ****     else
 386              		.loc 1 106 38 is_stmt 0 view .LVU71
 387 002e 94BF     		ite	ls
ARM GAS  /tmp/cceGr1q3.s 			page 10


 388 0030 034A     		ldrls	r2, .L25+8	@ tmp129,
 389              	.LVL22:
 108:../../peripheral_library/hal/m7221/src/halINTC.c ****   }
 390              		.loc 1 108 7 is_stmt 1 view .LVU72
 391              	@ ../../peripheral_library/hal/m7221/src/halINTC.c:108:       INREG16(INTC_FIQ_STATUS_63_48) = (1 <
 108:../../peripheral_library/hal/m7221/src/halINTC.c ****   }
 392              		.loc 1 108 38 is_stmt 0 view .LVU73
 393 0032 044A     		ldrhi	r2, .L25+12	@ tmp131,
 394 0034 EDE7     		b	.L24		@
 395              	.L26:
 396 0036 00BF     		.align	2
 397              	.L25:
 398 0038 B0332040 		.word	1075852208
 399 003c B4332040 		.word	1075852212
 400 0040 B8332040 		.word	1075852216
 401 0044 BC332040 		.word	1075852220
 402              		.cfi_endproc
 403              	.LFE2:
 404              		.size	MHal_INTC_FIQClear, .-MHal_INTC_FIQClear
 405              		.section	.text.MHal_INTC_IRQMask,"ax",%progbits
 406              		.align	1
 407              		.global	MHal_INTC_IRQMask
 408              		.syntax unified
 409              		.thumb
 410              		.thumb_func
 411              		.fpu fpv4-sp-d16
 412              		.type	MHal_INTC_IRQMask, %function
 413              	MHal_INTC_IRQMask:
 414              	.LVL23:
 415              	.LFB3:
 111:../../peripheral_library/hal/m7221/src/halINTC.c **** 
 112:../../peripheral_library/hal/m7221/src/halINTC.c **** 
 113:../../peripheral_library/hal/m7221/src/halINTC.c **** void MHal_INTC_IRQMask(U32 u32IntcNumber)
 114:../../peripheral_library/hal/m7221/src/halINTC.c **** {
 416              		.loc 1 114 1 is_stmt 1 view -0
 417              		.cfi_startproc
 418              		@ args = 0, pretend = 0, frame = 0
 419              		@ frame_needed = 0, uses_anonymous_args = 0
 420              		@ link register save eliminated.
 115:../../peripheral_library/hal/m7221/src/halINTC.c ****   if( u32IntcNumber < 64 )
 421              		.loc 1 115 3 view .LVU75
 422              	@ ../../peripheral_library/hal/m7221/src/halINTC.c:115:   if( u32IntcNumber < 64 )
 423              		.loc 1 115 5 is_stmt 0 view .LVU76
 424 0000 3F28     		cmp	r0, #63	@ u32IntcNumber,
 425 0002 09D8     		bhi	.L27		@,
 116:../../peripheral_library/hal/m7221/src/halINTC.c ****   {
 117:../../peripheral_library/hal/m7221/src/halINTC.c ****     if((u32IntcNumber/16) == 0)
 426              		.loc 1 117 5 is_stmt 1 view .LVU77
 427              	@ ../../peripheral_library/hal/m7221/src/halINTC.c:117:     if((u32IntcNumber/16) == 0)
 428              		.loc 1 117 7 is_stmt 0 view .LVU78
 429 0004 0F28     		cmp	r0, #15	@ u32IntcNumber,
 430 0006 4FF00103 		mov	r3, #1	@ tmp166,
 431 000a 06D8     		bhi	.L29		@,
 118:../../peripheral_library/hal/m7221/src/halINTC.c ****       INREG16(INTC_IRQ_MASK_15_0)  |= (1 << (u32IntcNumber%16));
 432              		.loc 1 118 7 is_stmt 1 view .LVU79
 433              	@ ../../peripheral_library/hal/m7221/src/halINTC.c:118:       INREG16(INTC_IRQ_MASK_15_0)  |= (1 <<
 434              		.loc 1 118 36 is_stmt 0 view .LVU80
ARM GAS  /tmp/cceGr1q3.s 			page 11


 435 000c 0B4A     		ldr	r2, .L34	@ tmp134,
 436 000e 1188     		ldrh	r1, [r2]	@, MEM[(volatile short unsigned int *)1075852240B]
 437              	@ ../../peripheral_library/hal/m7221/src/halINTC.c:118:       INREG16(INTC_IRQ_MASK_15_0)  |= (1 <<
 438              		.loc 1 118 42 view .LVU81
 439 0010 8340     		lsls	r3, r3, r0	@ tmp136, tmp166, u32IntcNumber
 440              	.LVL24:
 441              	.L32:
 442              	@ ../../peripheral_library/hal/m7221/src/halINTC.c:124: 		  INREG16(INTC_IRQ_MASK_63_48) |= (1 << (
 119:../../peripheral_library/hal/m7221/src/halINTC.c **** 	  else if((u32IntcNumber/16) == 1)
 120:../../peripheral_library/hal/m7221/src/halINTC.c ****       INREG16(INTC_IRQ_MASK_31_16) |= (1 << (u32IntcNumber%16));
 121:../../peripheral_library/hal/m7221/src/halINTC.c **** 	  else if((u32IntcNumber/16) == 2)
 122:../../peripheral_library/hal/m7221/src/halINTC.c ****       INREG16(INTC_IRQ_MASK_47_32) |= (1 << (u32IntcNumber%16));
 123:../../peripheral_library/hal/m7221/src/halINTC.c **** 	  else
 124:../../peripheral_library/hal/m7221/src/halINTC.c **** 		  INREG16(INTC_IRQ_MASK_63_48) |= (1 << (u32IntcNumber%16));
 443              		.loc 1 124 34 view .LVU82
 444 0012 0B43     		orrs	r3, r3, r1	@, tmp163, _43, MEM[(volatile short unsigned int *)1075852252B]
 445 0014 9BB2     		uxth	r3, r3	@ _30, tmp163
 446 0016 1380     		strh	r3, [r2]	@ movhi	@ _30,
 447              	.L27:
 448              	@ ../../peripheral_library/hal/m7221/src/halINTC.c:126: }
 125:../../peripheral_library/hal/m7221/src/halINTC.c ****   }
 126:../../peripheral_library/hal/m7221/src/halINTC.c **** }
 449              		.loc 1 126 1 view .LVU83
 450 0018 7047     		bx	lr	@
 451              	.LVL25:
 452              	.L29:
 119:../../peripheral_library/hal/m7221/src/halINTC.c **** 	  else if((u32IntcNumber/16) == 1)
 453              		.loc 1 119 9 is_stmt 1 view .LVU84
 454 001a 00F00F02 		and	r2, r0, #15	@ tmp143, u32IntcNumber,
 455 001e 9340     		lsls	r3, r3, r2	@ tmp144, tmp166, tmp143
 456              	@ ../../peripheral_library/hal/m7221/src/halINTC.c:119: 	  else if((u32IntcNumber/16) == 1)
 119:../../peripheral_library/hal/m7221/src/halINTC.c **** 	  else if((u32IntcNumber/16) == 1)
 457              		.loc 1 119 31 is_stmt 0 view .LVU85
 458 0020 A0F11002 		sub	r2, r0, #16	@ tmp146, u32IntcNumber,
 459              	@ ../../peripheral_library/hal/m7221/src/halINTC.c:119: 	  else if((u32IntcNumber/16) == 1)
 119:../../peripheral_library/hal/m7221/src/halINTC.c **** 	  else if((u32IntcNumber/16) == 1)
 460              		.loc 1 119 11 view .LVU86
 461 0024 0F2A     		cmp	r2, #15	@ tmp146,
 462 0026 1BB2     		sxth	r3, r3	@ _43, tmp144
 463 0028 02D8     		bhi	.L30		@,
 120:../../peripheral_library/hal/m7221/src/halINTC.c **** 	  else if((u32IntcNumber/16) == 2)
 464              		.loc 1 120 7 is_stmt 1 view .LVU87
 465              	@ ../../peripheral_library/hal/m7221/src/halINTC.c:120:       INREG16(INTC_IRQ_MASK_31_16) |= (1 <<
 120:../../peripheral_library/hal/m7221/src/halINTC.c **** 	  else if((u32IntcNumber/16) == 2)
 466              		.loc 1 120 36 is_stmt 0 view .LVU88
 467 002a 054A     		ldr	r2, .L34+4	@ tmp147,
 468              	.LVL26:
 469              	.L33:
 470              	@ ../../peripheral_library/hal/m7221/src/halINTC.c:124: 		  INREG16(INTC_IRQ_MASK_63_48) |= (1 << (
 124:../../peripheral_library/hal/m7221/src/halINTC.c ****   }
 471              		.loc 1 124 34 view .LVU89
 472 002c 1188     		ldrh	r1, [r2]	@,
 473 002e F0E7     		b	.L32		@
 474              	.LVL27:
 475              	.L30:
 121:../../peripheral_library/hal/m7221/src/halINTC.c ****       INREG16(INTC_IRQ_MASK_47_32) |= (1 << (u32IntcNumber%16));
 476              		.loc 1 121 9 is_stmt 1 view .LVU90
ARM GAS  /tmp/cceGr1q3.s 			page 12


 477              	@ ../../peripheral_library/hal/m7221/src/halINTC.c:121: 	  else if((u32IntcNumber/16) == 2)
 121:../../peripheral_library/hal/m7221/src/halINTC.c ****       INREG16(INTC_IRQ_MASK_47_32) |= (1 << (u32IntcNumber%16));
 478              		.loc 1 121 31 is_stmt 0 view .LVU91
 479 0030 2038     		subs	r0, r0, #32	@ tmp153, u32IntcNumber,
 480              	.LVL28:
 481              	@ ../../peripheral_library/hal/m7221/src/halINTC.c:121: 	  else if((u32IntcNumber/16) == 2)
 121:../../peripheral_library/hal/m7221/src/halINTC.c ****       INREG16(INTC_IRQ_MASK_47_32) |= (1 << (u32IntcNumber%16));
 482              		.loc 1 121 11 view .LVU92
 483 0032 0F28     		cmp	r0, #15	@ tmp153,
 122:../../peripheral_library/hal/m7221/src/halINTC.c **** 	  else
 484              		.loc 1 122 7 is_stmt 1 view .LVU93
 485              	@ ../../peripheral_library/hal/m7221/src/halINTC.c:122:       INREG16(INTC_IRQ_MASK_47_32) |= (1 <<
 122:../../peripheral_library/hal/m7221/src/halINTC.c **** 	  else
 486              		.loc 1 122 36 is_stmt 0 view .LVU94
 487 0034 94BF     		ite	ls
 488 0036 034A     		ldrls	r2, .L34+8	@ tmp154,
 489              	.LVL29:
 124:../../peripheral_library/hal/m7221/src/halINTC.c ****   }
 490              		.loc 1 124 5 is_stmt 1 view .LVU95
 491              	@ ../../peripheral_library/hal/m7221/src/halINTC.c:124: 		  INREG16(INTC_IRQ_MASK_63_48) |= (1 << (
 124:../../peripheral_library/hal/m7221/src/halINTC.c ****   }
 492              		.loc 1 124 34 is_stmt 0 view .LVU96
 493 0038 034A     		ldrhi	r2, .L34+12	@ tmp160,
 494 003a F7E7     		b	.L33		@
 495              	.L35:
 496              		.align	2
 497              	.L34:
 498 003c D0332040 		.word	1075852240
 499 0040 D4332040 		.word	1075852244
 500 0044 D8332040 		.word	1075852248
 501 0048 DC332040 		.word	1075852252
 502              		.cfi_endproc
 503              	.LFE3:
 504              		.size	MHal_INTC_IRQMask, .-MHal_INTC_IRQMask
 505              		.section	.text.MHal_INTC_IRQUnMask,"ax",%progbits
 506              		.align	1
 507              		.global	MHal_INTC_IRQUnMask
 508              		.syntax unified
 509              		.thumb
 510              		.thumb_func
 511              		.fpu fpv4-sp-d16
 512              		.type	MHal_INTC_IRQUnMask, %function
 513              	MHal_INTC_IRQUnMask:
 514              	.LVL30:
 515              	.LFB4:
 127:../../peripheral_library/hal/m7221/src/halINTC.c **** 
 128:../../peripheral_library/hal/m7221/src/halINTC.c **** void MHal_INTC_IRQUnMask(U32 u32IntcNumber)
 129:../../peripheral_library/hal/m7221/src/halINTC.c **** {
 516              		.loc 1 129 1 is_stmt 1 view -0
 517              		.cfi_startproc
 518              		@ args = 0, pretend = 0, frame = 0
 519              		@ frame_needed = 0, uses_anonymous_args = 0
 520              		@ link register save eliminated.
 130:../../peripheral_library/hal/m7221/src/halINTC.c ****   if( u32IntcNumber < 64 )
 521              		.loc 1 130 3 view .LVU98
 522              	@ ../../peripheral_library/hal/m7221/src/halINTC.c:130:   if( u32IntcNumber < 64 )
 523              		.loc 1 130 5 is_stmt 0 view .LVU99
ARM GAS  /tmp/cceGr1q3.s 			page 13


 524 0000 3F28     		cmp	r0, #63	@ u32IntcNumber,
 525 0002 17D8     		bhi	.L36		@,
 131:../../peripheral_library/hal/m7221/src/halINTC.c ****   {
 132:../../peripheral_library/hal/m7221/src/halINTC.c ****     if((u32IntcNumber/16) == 0)
 526              		.loc 1 132 5 is_stmt 1 view .LVU100
 527              	@ ../../peripheral_library/hal/m7221/src/halINTC.c:132:     if((u32IntcNumber/16) == 0)
 528              		.loc 1 132 7 is_stmt 0 view .LVU101
 529 0004 0F28     		cmp	r0, #15	@ u32IntcNumber,
 530 0006 4FF00103 		mov	r3, #1	@ tmp172,
 531 000a 06D8     		bhi	.L38		@,
 133:../../peripheral_library/hal/m7221/src/halINTC.c ****       INREG16(INTC_IRQ_MASK_15_0)  &= ~(1 << (u32IntcNumber%16));
 532              		.loc 1 133 7 is_stmt 1 view .LVU102
 533              	@ ../../peripheral_library/hal/m7221/src/halINTC.c:133:       INREG16(INTC_IRQ_MASK_15_0)  &= ~(1 <
 534              		.loc 1 133 36 is_stmt 0 view .LVU103
 535 000c 0D49     		ldr	r1, .L42	@ tmp136,
 536 000e 0A88     		ldrh	r2, [r1]	@, MEM[(volatile short unsigned int *)1075852240B]
 537              	@ ../../peripheral_library/hal/m7221/src/halINTC.c:133:       INREG16(INTC_IRQ_MASK_15_0)  &= ~(1 <
 538              		.loc 1 133 43 view .LVU104
 539 0010 8340     		lsls	r3, r3, r0	@ tmp138, tmp172, u32IntcNumber
 540              	@ ../../peripheral_library/hal/m7221/src/halINTC.c:133:       INREG16(INTC_IRQ_MASK_15_0)  &= ~(1 <
 541              		.loc 1 133 36 view .LVU105
 542 0012 22EA0303 		bic	r3, r2, r3	@ _8, MEM[(volatile short unsigned int *)1075852240B], tmp138
 543 0016 0B80     		strh	r3, [r1]	@ movhi	@ _8, MEM[(volatile short unsigned int *)1075852240B]
 544 0018 7047     		bx	lr	@
 545              	.L38:
 134:../../peripheral_library/hal/m7221/src/halINTC.c **** 	  else if((u32IntcNumber/16) == 1)
 546              		.loc 1 134 9 is_stmt 1 view .LVU106
 547 001a 00F00F02 		and	r2, r0, #15	@ tmp147, u32IntcNumber,
 548 001e 9340     		lsls	r3, r3, r2	@ tmp148, tmp172, tmp147
 549              	@ ../../peripheral_library/hal/m7221/src/halINTC.c:134: 	  else if((u32IntcNumber/16) == 1)
 550              		.loc 1 134 31 is_stmt 0 view .LVU107
 551 0020 A0F11002 		sub	r2, r0, #16	@ tmp152, u32IntcNumber,
 552 0024 DB43     		mvns	r3, r3	@ tmp151, tmp148
 553              	@ ../../peripheral_library/hal/m7221/src/halINTC.c:134: 	  else if((u32IntcNumber/16) == 1)
 554              		.loc 1 134 11 view .LVU108
 555 0026 0F2A     		cmp	r2, #15	@ tmp152,
 556 0028 1BB2     		sxth	r3, r3	@ _46, tmp151
 557 002a 04D8     		bhi	.L39		@,
 135:../../peripheral_library/hal/m7221/src/halINTC.c ****       INREG16(INTC_IRQ_MASK_31_16) &= ~(1 << (u32IntcNumber%16));
 558              		.loc 1 135 7 is_stmt 1 view .LVU109
 559              	@ ../../peripheral_library/hal/m7221/src/halINTC.c:135:       INREG16(INTC_IRQ_MASK_31_16) &= ~(1 <
 560              		.loc 1 135 36 is_stmt 0 view .LVU110
 561 002c 064A     		ldr	r2, .L42+4	@ tmp153,
 562              	.LVL31:
 563              	.L41:
 564              	@ ../../peripheral_library/hal/m7221/src/halINTC.c:139: 		  INREG16(INTC_IRQ_MASK_63_48) &= ~(1 << 
 136:../../peripheral_library/hal/m7221/src/halINTC.c **** 	  else if((u32IntcNumber/16) == 2)
 137:../../peripheral_library/hal/m7221/src/halINTC.c ****       INREG16(INTC_IRQ_MASK_47_32) &= ~(1 << (u32IntcNumber%16));
 138:../../peripheral_library/hal/m7221/src/halINTC.c **** 	  else
 139:../../peripheral_library/hal/m7221/src/halINTC.c **** 		  INREG16(INTC_IRQ_MASK_63_48) &= ~(1 << (u32IntcNumber%16));
 565              		.loc 1 139 34 view .LVU111
 566 002e 1188     		ldrh	r1, [r2]	@,
 567 0030 0B40     		ands	r3, r3, r1	@, _34, _46, MEM[(volatile short unsigned int *)1075852252B]
 568 0032 1380     		strh	r3, [r2]	@ movhi	@ _34,
 569              	.L36:
 570              	@ ../../peripheral_library/hal/m7221/src/halINTC.c:141: }
 140:../../peripheral_library/hal/m7221/src/halINTC.c ****   }
ARM GAS  /tmp/cceGr1q3.s 			page 14


 141:../../peripheral_library/hal/m7221/src/halINTC.c **** }
 571              		.loc 1 141 1 view .LVU112
 572 0034 7047     		bx	lr	@
 573              	.LVL32:
 574              	.L39:
 136:../../peripheral_library/hal/m7221/src/halINTC.c **** 	  else if((u32IntcNumber/16) == 2)
 575              		.loc 1 136 9 is_stmt 1 view .LVU113
 576              	@ ../../peripheral_library/hal/m7221/src/halINTC.c:136: 	  else if((u32IntcNumber/16) == 2)
 136:../../peripheral_library/hal/m7221/src/halINTC.c **** 	  else if((u32IntcNumber/16) == 2)
 577              		.loc 1 136 31 is_stmt 0 view .LVU114
 578 0036 2038     		subs	r0, r0, #32	@ tmp159, u32IntcNumber,
 579              	.LVL33:
 580              	@ ../../peripheral_library/hal/m7221/src/halINTC.c:136: 	  else if((u32IntcNumber/16) == 2)
 136:../../peripheral_library/hal/m7221/src/halINTC.c **** 	  else if((u32IntcNumber/16) == 2)
 581              		.loc 1 136 11 view .LVU115
 582 0038 0F28     		cmp	r0, #15	@ tmp159,
 137:../../peripheral_library/hal/m7221/src/halINTC.c **** 	  else
 583              		.loc 1 137 7 is_stmt 1 view .LVU116
 584              	@ ../../peripheral_library/hal/m7221/src/halINTC.c:137:       INREG16(INTC_IRQ_MASK_47_32) &= ~(1 <
 137:../../peripheral_library/hal/m7221/src/halINTC.c **** 	  else
 585              		.loc 1 137 36 is_stmt 0 view .LVU117
 586 003a 94BF     		ite	ls
 587 003c 034A     		ldrls	r2, .L42+8	@ tmp160,
 588              	.LVL34:
 139:../../peripheral_library/hal/m7221/src/halINTC.c ****   }
 589              		.loc 1 139 5 is_stmt 1 view .LVU118
 590              	@ ../../peripheral_library/hal/m7221/src/halINTC.c:139: 		  INREG16(INTC_IRQ_MASK_63_48) &= ~(1 << 
 139:../../peripheral_library/hal/m7221/src/halINTC.c ****   }
 591              		.loc 1 139 34 is_stmt 0 view .LVU119
 592 003e 044A     		ldrhi	r2, .L42+12	@ tmp166,
 593 0040 F5E7     		b	.L41		@
 594              	.L43:
 595 0042 00BF     		.align	2
 596              	.L42:
 597 0044 D0332040 		.word	1075852240
 598 0048 D4332040 		.word	1075852244
 599 004c D8332040 		.word	1075852248
 600 0050 DC332040 		.word	1075852252
 601              		.cfi_endproc
 602              	.LFE4:
 603              		.size	MHal_INTC_IRQUnMask, .-MHal_INTC_IRQUnMask
 604              		.section	.text.MHal_INTC_FIQMask,"ax",%progbits
 605              		.align	1
 606              		.global	MHal_INTC_FIQMask
 607              		.syntax unified
 608              		.thumb
 609              		.thumb_func
 610              		.fpu fpv4-sp-d16
 611              		.type	MHal_INTC_FIQMask, %function
 612              	MHal_INTC_FIQMask:
 613              	.LVL35:
 614              	.LFB5:
 142:../../peripheral_library/hal/m7221/src/halINTC.c **** 
 143:../../peripheral_library/hal/m7221/src/halINTC.c **** 
 144:../../peripheral_library/hal/m7221/src/halINTC.c **** void MHal_INTC_FIQMask(U32 u32IntcNumber)
 145:../../peripheral_library/hal/m7221/src/halINTC.c **** {
 615              		.loc 1 145 1 is_stmt 1 view -0
ARM GAS  /tmp/cceGr1q3.s 			page 15


 616              		.cfi_startproc
 617              		@ args = 0, pretend = 0, frame = 0
 618              		@ frame_needed = 0, uses_anonymous_args = 0
 619              		@ link register save eliminated.
 146:../../peripheral_library/hal/m7221/src/halINTC.c ****   if( u32IntcNumber < 64 )
 620              		.loc 1 146 3 view .LVU121
 621              	@ ../../peripheral_library/hal/m7221/src/halINTC.c:146:   if( u32IntcNumber < 64 )
 622              		.loc 1 146 5 is_stmt 0 view .LVU122
 623 0000 3F28     		cmp	r0, #63	@ u32IntcNumber,
 624 0002 09D8     		bhi	.L44		@,
 147:../../peripheral_library/hal/m7221/src/halINTC.c ****   {
 148:../../peripheral_library/hal/m7221/src/halINTC.c ****     if((u32IntcNumber/16) == 0)
 625              		.loc 1 148 5 is_stmt 1 view .LVU123
 626              	@ ../../peripheral_library/hal/m7221/src/halINTC.c:148:     if((u32IntcNumber/16) == 0)
 627              		.loc 1 148 7 is_stmt 0 view .LVU124
 628 0004 0F28     		cmp	r0, #15	@ u32IntcNumber,
 629 0006 4FF00103 		mov	r3, #1	@ tmp166,
 630 000a 06D8     		bhi	.L46		@,
 149:../../peripheral_library/hal/m7221/src/halINTC.c ****       INREG16(INTC_FIQ_MASK_15_0)  |= (1 << (u32IntcNumber%16));
 631              		.loc 1 149 7 is_stmt 1 view .LVU125
 632              	@ ../../peripheral_library/hal/m7221/src/halINTC.c:149:       INREG16(INTC_FIQ_MASK_15_0)  |= (1 <<
 633              		.loc 1 149 36 is_stmt 0 view .LVU126
 634 000c 0B4A     		ldr	r2, .L51	@ tmp134,
 635 000e 1188     		ldrh	r1, [r2]	@, MEM[(volatile short unsigned int *)1075852176B]
 636              	@ ../../peripheral_library/hal/m7221/src/halINTC.c:149:       INREG16(INTC_FIQ_MASK_15_0)  |= (1 <<
 637              		.loc 1 149 42 view .LVU127
 638 0010 8340     		lsls	r3, r3, r0	@ tmp136, tmp166, u32IntcNumber
 639              	.LVL36:
 640              	.L49:
 641              	@ ../../peripheral_library/hal/m7221/src/halINTC.c:155: 		  INREG16(INTC_FIQ_MASK_63_48) |= (1 << (
 150:../../peripheral_library/hal/m7221/src/halINTC.c **** 	  else if((u32IntcNumber/16) == 1)
 151:../../peripheral_library/hal/m7221/src/halINTC.c ****       INREG16(INTC_FIQ_MASK_31_16) |= (1 << (u32IntcNumber%16));
 152:../../peripheral_library/hal/m7221/src/halINTC.c **** 	  else if((u32IntcNumber/16) == 2)
 153:../../peripheral_library/hal/m7221/src/halINTC.c ****       INREG16(INTC_FIQ_MASK_47_32) |= (1 << (u32IntcNumber%16));
 154:../../peripheral_library/hal/m7221/src/halINTC.c **** 	  else
 155:../../peripheral_library/hal/m7221/src/halINTC.c **** 		  INREG16(INTC_FIQ_MASK_63_48) |= (1 << (u32IntcNumber%16));
 642              		.loc 1 155 34 view .LVU128
 643 0012 0B43     		orrs	r3, r3, r1	@, tmp163, _43, MEM[(volatile short unsigned int *)1075852188B]
 644 0014 9BB2     		uxth	r3, r3	@ _30, tmp163
 645 0016 1380     		strh	r3, [r2]	@ movhi	@ _30,
 646              	.L44:
 647              	@ ../../peripheral_library/hal/m7221/src/halINTC.c:157: }
 156:../../peripheral_library/hal/m7221/src/halINTC.c ****   }
 157:../../peripheral_library/hal/m7221/src/halINTC.c **** }
 648              		.loc 1 157 1 view .LVU129
 649 0018 7047     		bx	lr	@
 650              	.LVL37:
 651              	.L46:
 150:../../peripheral_library/hal/m7221/src/halINTC.c **** 	  else if((u32IntcNumber/16) == 1)
 652              		.loc 1 150 9 is_stmt 1 view .LVU130
 653 001a 00F00F02 		and	r2, r0, #15	@ tmp143, u32IntcNumber,
 654 001e 9340     		lsls	r3, r3, r2	@ tmp144, tmp166, tmp143
 655              	@ ../../peripheral_library/hal/m7221/src/halINTC.c:150: 	  else if((u32IntcNumber/16) == 1)
 150:../../peripheral_library/hal/m7221/src/halINTC.c **** 	  else if((u32IntcNumber/16) == 1)
 656              		.loc 1 150 31 is_stmt 0 view .LVU131
 657 0020 A0F11002 		sub	r2, r0, #16	@ tmp146, u32IntcNumber,
 658              	@ ../../peripheral_library/hal/m7221/src/halINTC.c:150: 	  else if((u32IntcNumber/16) == 1)
ARM GAS  /tmp/cceGr1q3.s 			page 16


 150:../../peripheral_library/hal/m7221/src/halINTC.c **** 	  else if((u32IntcNumber/16) == 1)
 659              		.loc 1 150 11 view .LVU132
 660 0024 0F2A     		cmp	r2, #15	@ tmp146,
 661 0026 1BB2     		sxth	r3, r3	@ _43, tmp144
 662 0028 02D8     		bhi	.L47		@,
 151:../../peripheral_library/hal/m7221/src/halINTC.c **** 	  else if((u32IntcNumber/16) == 2)
 663              		.loc 1 151 7 is_stmt 1 view .LVU133
 664              	@ ../../peripheral_library/hal/m7221/src/halINTC.c:151:       INREG16(INTC_FIQ_MASK_31_16) |= (1 <<
 151:../../peripheral_library/hal/m7221/src/halINTC.c **** 	  else if((u32IntcNumber/16) == 2)
 665              		.loc 1 151 36 is_stmt 0 view .LVU134
 666 002a 054A     		ldr	r2, .L51+4	@ tmp147,
 667              	.LVL38:
 668              	.L50:
 669              	@ ../../peripheral_library/hal/m7221/src/halINTC.c:155: 		  INREG16(INTC_FIQ_MASK_63_48) |= (1 << (
 155:../../peripheral_library/hal/m7221/src/halINTC.c ****   }
 670              		.loc 1 155 34 view .LVU135
 671 002c 1188     		ldrh	r1, [r2]	@,
 672 002e F0E7     		b	.L49		@
 673              	.LVL39:
 674              	.L47:
 152:../../peripheral_library/hal/m7221/src/halINTC.c ****       INREG16(INTC_FIQ_MASK_47_32) |= (1 << (u32IntcNumber%16));
 675              		.loc 1 152 9 is_stmt 1 view .LVU136
 676              	@ ../../peripheral_library/hal/m7221/src/halINTC.c:152: 	  else if((u32IntcNumber/16) == 2)
 152:../../peripheral_library/hal/m7221/src/halINTC.c ****       INREG16(INTC_FIQ_MASK_47_32) |= (1 << (u32IntcNumber%16));
 677              		.loc 1 152 31 is_stmt 0 view .LVU137
 678 0030 2038     		subs	r0, r0, #32	@ tmp153, u32IntcNumber,
 679              	.LVL40:
 680              	@ ../../peripheral_library/hal/m7221/src/halINTC.c:152: 	  else if((u32IntcNumber/16) == 2)
 152:../../peripheral_library/hal/m7221/src/halINTC.c ****       INREG16(INTC_FIQ_MASK_47_32) |= (1 << (u32IntcNumber%16));
 681              		.loc 1 152 11 view .LVU138
 682 0032 0F28     		cmp	r0, #15	@ tmp153,
 153:../../peripheral_library/hal/m7221/src/halINTC.c **** 	  else
 683              		.loc 1 153 7 is_stmt 1 view .LVU139
 684              	@ ../../peripheral_library/hal/m7221/src/halINTC.c:153:       INREG16(INTC_FIQ_MASK_47_32) |= (1 <<
 153:../../peripheral_library/hal/m7221/src/halINTC.c **** 	  else
 685              		.loc 1 153 36 is_stmt 0 view .LVU140
 686 0034 94BF     		ite	ls
 687 0036 034A     		ldrls	r2, .L51+8	@ tmp154,
 688              	.LVL41:
 155:../../peripheral_library/hal/m7221/src/halINTC.c ****   }
 689              		.loc 1 155 5 is_stmt 1 view .LVU141
 690              	@ ../../peripheral_library/hal/m7221/src/halINTC.c:155: 		  INREG16(INTC_FIQ_MASK_63_48) |= (1 << (
 155:../../peripheral_library/hal/m7221/src/halINTC.c ****   }
 691              		.loc 1 155 34 is_stmt 0 view .LVU142
 692 0038 034A     		ldrhi	r2, .L51+12	@ tmp160,
 693 003a F7E7     		b	.L50		@
 694              	.L52:
 695              		.align	2
 696              	.L51:
 697 003c 90332040 		.word	1075852176
 698 0040 94332040 		.word	1075852180
 699 0044 98332040 		.word	1075852184
 700 0048 9C332040 		.word	1075852188
 701              		.cfi_endproc
 702              	.LFE5:
 703              		.size	MHal_INTC_FIQMask, .-MHal_INTC_FIQMask
 704              		.section	.text.MHal_INTC_FIQUnMask,"ax",%progbits
ARM GAS  /tmp/cceGr1q3.s 			page 17


 705              		.align	1
 706              		.global	MHal_INTC_FIQUnMask
 707              		.syntax unified
 708              		.thumb
 709              		.thumb_func
 710              		.fpu fpv4-sp-d16
 711              		.type	MHal_INTC_FIQUnMask, %function
 712              	MHal_INTC_FIQUnMask:
 713              	.LVL42:
 714              	.LFB6:
 158:../../peripheral_library/hal/m7221/src/halINTC.c **** 
 159:../../peripheral_library/hal/m7221/src/halINTC.c **** void MHal_INTC_FIQUnMask(U32 u32IntcNumber)
 160:../../peripheral_library/hal/m7221/src/halINTC.c **** {
 715              		.loc 1 160 1 is_stmt 1 view -0
 716              		.cfi_startproc
 717              		@ args = 0, pretend = 0, frame = 0
 718              		@ frame_needed = 0, uses_anonymous_args = 0
 719              		@ link register save eliminated.
 161:../../peripheral_library/hal/m7221/src/halINTC.c ****   if( u32IntcNumber < 64 )
 720              		.loc 1 161 3 view .LVU144
 721              	@ ../../peripheral_library/hal/m7221/src/halINTC.c:161:   if( u32IntcNumber < 64 )
 722              		.loc 1 161 5 is_stmt 0 view .LVU145
 723 0000 3F28     		cmp	r0, #63	@ u32IntcNumber,
 724 0002 17D8     		bhi	.L53		@,
 162:../../peripheral_library/hal/m7221/src/halINTC.c ****   {
 163:../../peripheral_library/hal/m7221/src/halINTC.c ****     if((u32IntcNumber/16) == 0)
 725              		.loc 1 163 5 is_stmt 1 view .LVU146
 726              	@ ../../peripheral_library/hal/m7221/src/halINTC.c:163:     if((u32IntcNumber/16) == 0)
 727              		.loc 1 163 7 is_stmt 0 view .LVU147
 728 0004 0F28     		cmp	r0, #15	@ u32IntcNumber,
 729 0006 4FF00103 		mov	r3, #1	@ tmp172,
 730 000a 06D8     		bhi	.L55		@,
 164:../../peripheral_library/hal/m7221/src/halINTC.c ****       INREG16(INTC_FIQ_MASK_15_0)  &= ~(1 << (u32IntcNumber%16));
 731              		.loc 1 164 7 is_stmt 1 view .LVU148
 732              	@ ../../peripheral_library/hal/m7221/src/halINTC.c:164:       INREG16(INTC_FIQ_MASK_15_0)  &= ~(1 <
 733              		.loc 1 164 36 is_stmt 0 view .LVU149
 734 000c 0D49     		ldr	r1, .L59	@ tmp136,
 735 000e 0A88     		ldrh	r2, [r1]	@, MEM[(volatile short unsigned int *)1075852176B]
 736              	@ ../../peripheral_library/hal/m7221/src/halINTC.c:164:       INREG16(INTC_FIQ_MASK_15_0)  &= ~(1 <
 737              		.loc 1 164 43 view .LVU150
 738 0010 8340     		lsls	r3, r3, r0	@ tmp138, tmp172, u32IntcNumber
 739              	@ ../../peripheral_library/hal/m7221/src/halINTC.c:164:       INREG16(INTC_FIQ_MASK_15_0)  &= ~(1 <
 740              		.loc 1 164 36 view .LVU151
 741 0012 22EA0303 		bic	r3, r2, r3	@ _8, MEM[(volatile short unsigned int *)1075852176B], tmp138
 742 0016 0B80     		strh	r3, [r1]	@ movhi	@ _8, MEM[(volatile short unsigned int *)1075852176B]
 743 0018 7047     		bx	lr	@
 744              	.L55:
 165:../../peripheral_library/hal/m7221/src/halINTC.c **** 	  else if((u32IntcNumber/16) == 1)
 745              		.loc 1 165 9 is_stmt 1 view .LVU152
 746 001a 00F00F02 		and	r2, r0, #15	@ tmp147, u32IntcNumber,
 747 001e 9340     		lsls	r3, r3, r2	@ tmp148, tmp172, tmp147
 748              	@ ../../peripheral_library/hal/m7221/src/halINTC.c:165: 	  else if((u32IntcNumber/16) == 1)
 749              		.loc 1 165 31 is_stmt 0 view .LVU153
 750 0020 A0F11002 		sub	r2, r0, #16	@ tmp152, u32IntcNumber,
 751 0024 DB43     		mvns	r3, r3	@ tmp151, tmp148
 752              	@ ../../peripheral_library/hal/m7221/src/halINTC.c:165: 	  else if((u32IntcNumber/16) == 1)
 753              		.loc 1 165 11 view .LVU154
ARM GAS  /tmp/cceGr1q3.s 			page 18


 754 0026 0F2A     		cmp	r2, #15	@ tmp152,
 755 0028 1BB2     		sxth	r3, r3	@ _46, tmp151
 756 002a 04D8     		bhi	.L56		@,
 166:../../peripheral_library/hal/m7221/src/halINTC.c ****       INREG16(INTC_FIQ_MASK_31_16) &= ~(1 << (u32IntcNumber%16));
 757              		.loc 1 166 7 is_stmt 1 view .LVU155
 758              	@ ../../peripheral_library/hal/m7221/src/halINTC.c:166:       INREG16(INTC_FIQ_MASK_31_16) &= ~(1 <
 759              		.loc 1 166 36 is_stmt 0 view .LVU156
 760 002c 064A     		ldr	r2, .L59+4	@ tmp153,
 761              	.LVL43:
 762              	.L58:
 763              	@ ../../peripheral_library/hal/m7221/src/halINTC.c:170: 		  INREG16(INTC_FIQ_MASK_63_48) &= ~(1 << 
 167:../../peripheral_library/hal/m7221/src/halINTC.c **** 	  else if((u32IntcNumber/16) == 2)
 168:../../peripheral_library/hal/m7221/src/halINTC.c ****       INREG16(INTC_FIQ_MASK_47_32) &= ~(1 << (u32IntcNumber%16));
 169:../../peripheral_library/hal/m7221/src/halINTC.c **** 	  else
 170:../../peripheral_library/hal/m7221/src/halINTC.c **** 		  INREG16(INTC_FIQ_MASK_63_48) &= ~(1 << (u32IntcNumber%16));
 764              		.loc 1 170 34 view .LVU157
 765 002e 1188     		ldrh	r1, [r2]	@,
 766 0030 0B40     		ands	r3, r3, r1	@, _34, _46, MEM[(volatile short unsigned int *)1075852188B]
 767 0032 1380     		strh	r3, [r2]	@ movhi	@ _34,
 768              	.L53:
 769              	@ ../../peripheral_library/hal/m7221/src/halINTC.c:172: }
 171:../../peripheral_library/hal/m7221/src/halINTC.c ****   }
 172:../../peripheral_library/hal/m7221/src/halINTC.c **** }
 770              		.loc 1 172 1 view .LVU158
 771 0034 7047     		bx	lr	@
 772              	.LVL44:
 773              	.L56:
 167:../../peripheral_library/hal/m7221/src/halINTC.c **** 	  else if((u32IntcNumber/16) == 2)
 774              		.loc 1 167 9 is_stmt 1 view .LVU159
 775              	@ ../../peripheral_library/hal/m7221/src/halINTC.c:167: 	  else if((u32IntcNumber/16) == 2)
 167:../../peripheral_library/hal/m7221/src/halINTC.c **** 	  else if((u32IntcNumber/16) == 2)
 776              		.loc 1 167 31 is_stmt 0 view .LVU160
 777 0036 2038     		subs	r0, r0, #32	@ tmp159, u32IntcNumber,
 778              	.LVL45:
 779              	@ ../../peripheral_library/hal/m7221/src/halINTC.c:167: 	  else if((u32IntcNumber/16) == 2)
 167:../../peripheral_library/hal/m7221/src/halINTC.c **** 	  else if((u32IntcNumber/16) == 2)
 780              		.loc 1 167 11 view .LVU161
 781 0038 0F28     		cmp	r0, #15	@ tmp159,
 168:../../peripheral_library/hal/m7221/src/halINTC.c **** 	  else
 782              		.loc 1 168 7 is_stmt 1 view .LVU162
 783              	@ ../../peripheral_library/hal/m7221/src/halINTC.c:168:       INREG16(INTC_FIQ_MASK_47_32) &= ~(1 <
 168:../../peripheral_library/hal/m7221/src/halINTC.c **** 	  else
 784              		.loc 1 168 36 is_stmt 0 view .LVU163
 785 003a 94BF     		ite	ls
 786 003c 034A     		ldrls	r2, .L59+8	@ tmp160,
 787              	.LVL46:
 170:../../peripheral_library/hal/m7221/src/halINTC.c ****   }
 788              		.loc 1 170 5 is_stmt 1 view .LVU164
 789              	@ ../../peripheral_library/hal/m7221/src/halINTC.c:170: 		  INREG16(INTC_FIQ_MASK_63_48) &= ~(1 << 
 170:../../peripheral_library/hal/m7221/src/halINTC.c ****   }
 790              		.loc 1 170 34 is_stmt 0 view .LVU165
 791 003e 044A     		ldrhi	r2, .L59+12	@ tmp166,
 792 0040 F5E7     		b	.L58		@
 793              	.L60:
 794 0042 00BF     		.align	2
 795              	.L59:
 796 0044 90332040 		.word	1075852176
ARM GAS  /tmp/cceGr1q3.s 			page 19


 797 0048 94332040 		.word	1075852180
 798 004c 98332040 		.word	1075852184
 799 0050 9C332040 		.word	1075852188
 800              		.cfi_endproc
 801              	.LFE6:
 802              		.size	MHal_INTC_FIQUnMask, .-MHal_INTC_FIQUnMask
 803              		.text
 804              	.Letext0: