ARM GAS  /tmp/ccNvOUWZ.s 			page 1


   1              		.cpu cortex-m4
   2              		.eabi_attribute 27, 1	@ Tag_ABI_HardFP_use
   3              		.eabi_attribute 20, 1	@ Tag_ABI_FP_denormal
   4              		.eabi_attribute 21, 1	@ Tag_ABI_FP_exceptions
   5              		.eabi_attribute 23, 3	@ Tag_ABI_FP_number_model
   6              		.eabi_attribute 24, 1	@ Tag_ABI_align8_needed
   7              		.eabi_attribute 25, 1	@ Tag_ABI_align8_preserved
   8              		.eabi_attribute 26, 1	@ Tag_ABI_enum_size
   9              		.eabi_attribute 30, 4	@ Tag_ABI_optimization_goals
  10              		.eabi_attribute 34, 1	@ Tag_CPU_unaligned_access
  11              		.eabi_attribute 18, 4	@ Tag_ABI_PCS_wchar_t
  12              		.file	"halTimer.c"
  13              	@ GNU C89 (GNU Tools for Arm Embedded Processors 8-2018-q4-major) version 8.2.1 20181213 (release) 
  14              	@	compiled by GNU C version 4.8.4, GMP version 6.1.0, MPFR version 3.1.4, MPC version 1.0.3, isl ve
  15              	
  16              	@ GGC heuristics: --param ggc-min-expand=96 --param ggc-min-heapsize=125422
  17              	@ options passed:  -isystem =/include/newlib-nano -I . -I .
  18              	@ -I ../../kernel/FreeRTOS/Source/include
  19              	@ -I ../../kernel/FreeRTOS/Source/portable/GCC/ARM_CM4F
  20              	@ -I ../../kernel/FreeRTOS/Demo/Common/include
  21              	@ -I ../../kernel/FreeRTOS-Plus/Source/FreeRTOS-Plus-CLI
  22              	@ -I ../../peripheral_library/inc -I ../../peripheral_library/hal/m7221/inc
  23              	@ -I ../../CMSIS -I ../../main_full -I ../../3rd/rokid/./ -I /.
  24              	@ -I /../../kernel/FreeRTOS/Source/include
  25              	@ -I /../../kernel/FreeRTOS/Source/portable/GCC/ARM_CM4F
  26              	@ -I /../../kernel/FreeRTOS/Demo/Common/include
  27              	@ -I /../../kernel/FreeRTOS-Plus/Source/FreeRTOS-Plus-CLI
  28              	@ -I /../../peripheral_library/inc
  29              	@ -I /../../peripheral_library/hal/m7221/inc -I /../../CMSIS
  30              	@ -I /../../main_full -I /../../3rd/rokid/./
  31              	@ -imultilib thumb/v7e-m+fp/softfp
  32              	@ -iprefix /home/gu/code/freeRTOS10/vendor/mstar/CM4/tools/gcc-arm-none-eabi-8-2018-q4-major/bin/..
  33              	@ -isysroot /home/gu/code/freeRTOS10/vendor/mstar/CM4/tools/gcc-arm-none-eabi-8-2018-q4-major/bin/.
  34              	@ -MD out/halTimer.d -MF out/halTimer.d -MP -MQ out/halTimer.o
  35              	@ -D__USES_INITFINI__ -D CONFIG_BENCH=0 -D CONFIG_SYS_DBG_LEVEL=0xFFFFFFFF
  36              	@ -D CONFIG_VOC_MIC=6 -D CONFIG_AUD_I2S -D CONFIG_AUD_AEC
  37              	@ -D CONFIG_VOC_MIC_MAPPING -D CONFIG_VOC_SWHPF -D CONFIG_VOC_SW_SRC48K
  38              	@ -D ARM_MATH_CM4 -D BOOTROM_VERSION_ASIC
  39              	@ ../../peripheral_library/hal/m7221/src/halTimer.c -mcpu=cortex-m4 -mthumb
  40              	@ -mthumb-interwork -mfloat-abi=softfp -mfpu=fpv4-sp-d16 -march=armv7e-m+fp
  41              	@ -auxbase-strip out/halTimer.o -g -ggdb3 -Os -Wall -Wstrict-prototypes
  42              	@ -Wextra -std=gnu90 -ffunction-sections -fdata-sections
  43              	@ -fno-builtin-printf -fverbose-asm
  44              	@ options enabled:  -faggressive-loop-optimizations -falign-jumps
  45              	@ -falign-labels -falign-loops -fauto-inc-dec -fbranch-count-reg
  46              	@ -fcaller-saves -fchkp-check-incomplete-type -fchkp-check-read
  47              	@ -fchkp-check-write -fchkp-instrument-calls -fchkp-narrow-bounds
  48              	@ -fchkp-optimize -fchkp-store-bounds -fchkp-use-static-bounds
  49              	@ -fchkp-use-static-const-bounds -fchkp-use-wrappers -fcode-hoisting
  50              	@ -fcombine-stack-adjustments -fcommon -fcompare-elim -fcprop-registers
  51              	@ -fcrossjumping -fcse-follow-jumps -fdata-sections -fdefer-pop
  52              	@ -fdelete-null-pointer-checks -fdevirtualize -fdevirtualize-speculatively
  53              	@ -fdwarf2-cfi-asm -fearly-inlining -feliminate-unused-debug-types
  54              	@ -fexpensive-optimizations -fforward-propagate -ffp-int-builtin-inexact
  55              	@ -ffunction-cse -ffunction-sections -fgcse -fgcse-lm -fgnu-runtime
  56              	@ -fgnu-unique -fguess-branch-probability -fhoist-adjacent-loads -fident
  57              	@ -fif-conversion -fif-conversion2 -findirect-inlining -finline
ARM GAS  /tmp/ccNvOUWZ.s 			page 2


  58              	@ -finline-atomics -finline-functions -finline-functions-called-once
  59              	@ -finline-small-functions -fipa-bit-cp -fipa-cp -fipa-icf
  60              	@ -fipa-icf-functions -fipa-icf-variables -fipa-profile -fipa-pure-const
  61              	@ -fipa-ra -fipa-reference -fipa-sra -fipa-vrp -fira-hoist-pressure
  62              	@ -fira-share-save-slots -fira-share-spill-slots
  63              	@ -fisolate-erroneous-paths-dereference -fivopts -fkeep-static-consts
  64              	@ -fleading-underscore -flifetime-dse -flra-remat -flto-odr-type-merging
  65              	@ -fmath-errno -fmerge-constants -fmerge-debug-strings
  66              	@ -fmove-loop-invariants -fomit-frame-pointer -foptimize-sibling-calls
  67              	@ -fpartial-inlining -fpeephole -fpeephole2 -fplt -fprefetch-loop-arrays
  68              	@ -freg-struct-return -freorder-blocks -freorder-functions
  69              	@ -frerun-cse-after-loop -fsched-critical-path-heuristic
  70              	@ -fsched-dep-count-heuristic -fsched-group-heuristic -fsched-interblock
  71              	@ -fsched-last-insn-heuristic -fsched-pressure -fsched-rank-heuristic
  72              	@ -fsched-spec -fsched-spec-insn-heuristic -fsched-stalled-insns-dep
  73              	@ -fschedule-insns2 -fsection-anchors -fsemantic-interposition
  74              	@ -fshow-column -fshrink-wrap-separate -fsigned-zeros
  75              	@ -fsplit-ivs-in-unroller -fsplit-wide-types -fssa-backprop -fssa-phiopt
  76              	@ -fstdarg-opt -fstore-merging -fstrict-aliasing
  77              	@ -fstrict-volatile-bitfields -fsync-libcalls -fthread-jumps
  78              	@ -ftoplevel-reorder -ftrapping-math -ftree-bit-ccp -ftree-builtin-call-dce
  79              	@ -ftree-ccp -ftree-ch -ftree-coalesce-vars -ftree-copy-prop -ftree-cselim
  80              	@ -ftree-dce -ftree-dominator-opts -ftree-dse -ftree-forwprop -ftree-fre
  81              	@ -ftree-loop-if-convert -ftree-loop-im -ftree-loop-ivcanon
  82              	@ -ftree-loop-optimize -ftree-parallelize-loops= -ftree-phiprop -ftree-pre
  83              	@ -ftree-pta -ftree-reassoc -ftree-scev-cprop -ftree-sink -ftree-slsr
  84              	@ -ftree-sra -ftree-switch-conversion -ftree-tail-merge -ftree-ter
  85              	@ -ftree-vrp -funit-at-a-time -fvar-tracking -fvar-tracking-assignments
  86              	@ -fverbose-asm -fzero-initialized-in-bss -masm-syntax-unified -mbe32
  87              	@ -mlittle-endian -mpic-data-is-text-relative -msched-prolog -mthumb
  88              	@ -munaligned-access -mvectorize-with-neon-quad
  89              	
  90              		.text
  91              	.Ltext0:
  92              		.cfi_sections	.debug_frame
  93              		.section	.text.MHal_Timer_Reset,"ax",%progbits
  94              		.align	1
  95              		.global	MHal_Timer_Reset
  96              		.arch armv7e-m
  97              		.syntax unified
  98              		.thumb
  99              		.thumb_func
 100              		.fpu fpv4-sp-d16
 101              		.type	MHal_Timer_Reset, %function
 102              	MHal_Timer_Reset:
 103              	.LFB0:
 104              		.file 1 "../../peripheral_library/hal/m7221/src/halTimer.c"
   1:../../peripheral_library/hal/m7221/src/halTimer.c **** ////////////////////////////////////////////////////////////////////////////////
   2:../../peripheral_library/hal/m7221/src/halTimer.c **** //
   3:../../peripheral_library/hal/m7221/src/halTimer.c **** // Copyright (c) 2018 MStar Semiconductor, Inc.
   4:../../peripheral_library/hal/m7221/src/halTimer.c **** // All rights reserved.
   5:../../peripheral_library/hal/m7221/src/halTimer.c **** //
   6:../../peripheral_library/hal/m7221/src/halTimer.c **** // Unless otherwise stipulated in writing, any and all information contained
   7:../../peripheral_library/hal/m7221/src/halTimer.c **** // herein regardless in any format shall remain the sole proprietary of
   8:../../peripheral_library/hal/m7221/src/halTimer.c **** // MStar Semiconductor Inc. and be kept in strict confidence
   9:../../peripheral_library/hal/m7221/src/halTimer.c **** // ("MStar Confidential Information") by the recipient.
  10:../../peripheral_library/hal/m7221/src/halTimer.c **** // Any unauthorized act including without limitation unauthorized disclosure,
ARM GAS  /tmp/ccNvOUWZ.s 			page 3


  11:../../peripheral_library/hal/m7221/src/halTimer.c **** // copying, use, reproduction, sale, distribution, modification, disassembling,
  12:../../peripheral_library/hal/m7221/src/halTimer.c **** // reverse engineering and compiling of the contents of MStar Confidential
  13:../../peripheral_library/hal/m7221/src/halTimer.c **** // Information is unlawful and strictly prohibited. MStar hereby reserves the
  14:../../peripheral_library/hal/m7221/src/halTimer.c **** // rights to any and all damages, losses, costs and expenses resulting therefrom.
  15:../../peripheral_library/hal/m7221/src/halTimer.c **** //
  16:../../peripheral_library/hal/m7221/src/halTimer.c **** ////////////////////////////////////////////////////////////////////////////////
  17:../../peripheral_library/hal/m7221/src/halTimer.c **** 
  18:../../peripheral_library/hal/m7221/src/halTimer.c **** ///////////////////////////////////////////////////////////////////////////////////////////////////
  19:../../peripheral_library/hal/m7221/src/halTimer.c **** /// @file   halTimer.c
  20:../../peripheral_library/hal/m7221/src/halTimer.c **** /// @brief  MStar Timer HAL Driver DDI
  21:../../peripheral_library/hal/m7221/src/halTimer.c **** /// @author MStar Semiconductor Inc.
  22:../../peripheral_library/hal/m7221/src/halTimer.c **** /// @attention
  23:../../peripheral_library/hal/m7221/src/halTimer.c **** /// <b><em></em></b>
  24:../../peripheral_library/hal/m7221/src/halTimer.c **** ///////////////////////////////////////////////////////////////////////////////////////////////////
  25:../../peripheral_library/hal/m7221/src/halTimer.c **** 
  26:../../peripheral_library/hal/m7221/src/halTimer.c **** #define _HAL_TIMER_C
  27:../../peripheral_library/hal/m7221/src/halTimer.c **** 
  28:../../peripheral_library/hal/m7221/src/halTimer.c **** #include "halTimer.h"
  29:../../peripheral_library/hal/m7221/src/halTimer.c **** 
  30:../../peripheral_library/hal/m7221/src/halTimer.c **** /* Timer register address definition */
  31:../../peripheral_library/hal/m7221/src/halTimer.c **** /* Timer 0 */
  32:../../peripheral_library/hal/m7221/src/halTimer.c **** #define TIMER_BASE_ADDR     REG_ADDR_BASE_TIMER0
  33:../../peripheral_library/hal/m7221/src/halTimer.c **** #define TIMER_CTRL_ADDR     GET_REG16_ADDR(TIMER_BASE_ADDR, 0x00)
  34:../../peripheral_library/hal/m7221/src/halTimer.c **** #define TIMER_HIT_ADDR      GET_REG16_ADDR(TIMER_BASE_ADDR, 0x01)
  35:../../peripheral_library/hal/m7221/src/halTimer.c **** #define TIMER_MAX_L_ADDR    GET_REG16_ADDR(TIMER_BASE_ADDR, 0x02)
  36:../../peripheral_library/hal/m7221/src/halTimer.c **** #define TIMER_MAX_H_ADDR    GET_REG16_ADDR(TIMER_BASE_ADDR, 0x03)
  37:../../peripheral_library/hal/m7221/src/halTimer.c **** #define TIMER_CAPCNT_L_ADDR GET_REG16_ADDR(TIMER_BASE_ADDR, 0x04)
  38:../../peripheral_library/hal/m7221/src/halTimer.c **** #define TIMER_CAPCNT_H_ADDR GET_REG16_ADDR(TIMER_BASE_ADDR, 0x05)
  39:../../peripheral_library/hal/m7221/src/halTimer.c **** 
  40:../../peripheral_library/hal/m7221/src/halTimer.c **** 
  41:../../peripheral_library/hal/m7221/src/halTimer.c **** #if 0
  42:../../peripheral_library/hal/m7221/src/halTimer.c **** void timer_reset(void)
  43:../../peripheral_library/hal/m7221/src/halTimer.c **** {
  44:../../peripheral_library/hal/m7221/src/halTimer.c ****     REG(TIMER_CTRL_ADDR)=0;
  45:../../peripheral_library/hal/m7221/src/halTimer.c ****     REG(TIMER_CTRL_ADDR)=0x1;
  46:../../peripheral_library/hal/m7221/src/halTimer.c **** }
  47:../../peripheral_library/hal/m7221/src/halTimer.c **** 
  48:../../peripheral_library/hal/m7221/src/halTimer.c **** U32 timer_get_count(void)
  49:../../peripheral_library/hal/m7221/src/halTimer.c **** {
  50:../../peripheral_library/hal/m7221/src/halTimer.c **** 
  51:../../peripheral_library/hal/m7221/src/halTimer.c ****     // 1 tick = 1/OSC1 sec
  52:../../peripheral_library/hal/m7221/src/halTimer.c ****     U32 val=0;
  53:../../peripheral_library/hal/m7221/src/halTimer.c ****     val = (REG(TIMER_CAPCNT_L_ADDR)& 0xFFFF);
  54:../../peripheral_library/hal/m7221/src/halTimer.c ****     val +=  (REG(TIMER_CAPCNT_H_ADDR)<<16);
  55:../../peripheral_library/hal/m7221/src/halTimer.c ****     return val;
  56:../../peripheral_library/hal/m7221/src/halTimer.c **** }
  57:../../peripheral_library/hal/m7221/src/halTimer.c **** 
  58:../../peripheral_library/hal/m7221/src/halTimer.c **** U32 timer_get_max(void)
  59:../../peripheral_library/hal/m7221/src/halTimer.c **** {
  60:../../peripheral_library/hal/m7221/src/halTimer.c ****     // 1 tick = 1/OSC1 sec
  61:../../peripheral_library/hal/m7221/src/halTimer.c ****     U32 val=0;
  62:../../peripheral_library/hal/m7221/src/halTimer.c **** 
  63:../../peripheral_library/hal/m7221/src/halTimer.c ****     val = (REG(TIMER_MAX_L_ADDR)& 0xFFFF);
  64:../../peripheral_library/hal/m7221/src/halTimer.c ****     val +=  (REG(TIMER_MAX_H_ADDR)<<16);
  65:../../peripheral_library/hal/m7221/src/halTimer.c **** 
  66:../../peripheral_library/hal/m7221/src/halTimer.c ****     return val;
  67:../../peripheral_library/hal/m7221/src/halTimer.c **** }
ARM GAS  /tmp/ccNvOUWZ.s 			page 4


  68:../../peripheral_library/hal/m7221/src/halTimer.c **** 
  69:../../peripheral_library/hal/m7221/src/halTimer.c **** 
  70:../../peripheral_library/hal/m7221/src/halTimer.c **** //void timer_stop(void)
  71:../../peripheral_library/hal/m7221/src/halTimer.c **** //{
  72:../../peripheral_library/hal/m7221/src/halTimer.c **** //    REG(TIMER_CTRL_ADDR)=0;
  73:../../peripheral_library/hal/m7221/src/halTimer.c **** //}
  74:../../peripheral_library/hal/m7221/src/halTimer.c **** 
  75:../../peripheral_library/hal/m7221/src/halTimer.c **** void loop_delay_timer(unsigned long count)
  76:../../peripheral_library/hal/m7221/src/halTimer.c **** {
  77:../../peripheral_library/hal/m7221/src/halTimer.c ****     U32 st0=0;
  78:../../peripheral_library/hal/m7221/src/halTimer.c ****     U32 tick_count=0;
  79:../../peripheral_library/hal/m7221/src/halTimer.c ****     U32 st1=0;
  80:../../peripheral_library/hal/m7221/src/halTimer.c **** 
  81:../../peripheral_library/hal/m7221/src/halTimer.c ****     st0=timer_get_count();
  82:../../peripheral_library/hal/m7221/src/halTimer.c **** 
  83:../../peripheral_library/hal/m7221/src/halTimer.c **** 
  84:../../peripheral_library/hal/m7221/src/halTimer.c ****     //uart_write_U32_hex(count);
  85:../../peripheral_library/hal/m7221/src/halTimer.c ****     if(0==count)
  86:../../peripheral_library/hal/m7221/src/halTimer.c ****     {
  87:../../peripheral_library/hal/m7221/src/halTimer.c ****     return;
  88:../../peripheral_library/hal/m7221/src/halTimer.c ****     }
  89:../../peripheral_library/hal/m7221/src/halTimer.c **** 
  90:../../peripheral_library/hal/m7221/src/halTimer.c ****     while(1)
  91:../../peripheral_library/hal/m7221/src/halTimer.c ****     {
  92:../../peripheral_library/hal/m7221/src/halTimer.c **** 
  93:../../peripheral_library/hal/m7221/src/halTimer.c ****     st1=timer_get_count();
  94:../../peripheral_library/hal/m7221/src/halTimer.c **** 
  95:../../peripheral_library/hal/m7221/src/halTimer.c ****     if(st1<st0)
  96:../../peripheral_library/hal/m7221/src/halTimer.c ****     {
  97:../../peripheral_library/hal/m7221/src/halTimer.c **** 
  98:../../peripheral_library/hal/m7221/src/halTimer.c ****     tick_count+=((timer_get_max()-st0) + st1);
  99:../../peripheral_library/hal/m7221/src/halTimer.c ****     }
 100:../../peripheral_library/hal/m7221/src/halTimer.c ****     else
 101:../../peripheral_library/hal/m7221/src/halTimer.c ****     {
 102:../../peripheral_library/hal/m7221/src/halTimer.c ****     tick_count+=(st1-st0);
 103:../../peripheral_library/hal/m7221/src/halTimer.c ****     }
 104:../../peripheral_library/hal/m7221/src/halTimer.c ****     st0=st1;
 105:../../peripheral_library/hal/m7221/src/halTimer.c **** 
 106:../../peripheral_library/hal/m7221/src/halTimer.c ****     if(tick_count>=count)
 107:../../peripheral_library/hal/m7221/src/halTimer.c ****     {
 108:../../peripheral_library/hal/m7221/src/halTimer.c ****     break;
 109:../../peripheral_library/hal/m7221/src/halTimer.c ****     }
 110:../../peripheral_library/hal/m7221/src/halTimer.c **** 
 111:../../peripheral_library/hal/m7221/src/halTimer.c ****     }
 112:../../peripheral_library/hal/m7221/src/halTimer.c **** }
 113:../../peripheral_library/hal/m7221/src/halTimer.c **** #endif
 114:../../peripheral_library/hal/m7221/src/halTimer.c **** 
 115:../../peripheral_library/hal/m7221/src/halTimer.c **** void MHal_Timer_Reset(void)
 116:../../peripheral_library/hal/m7221/src/halTimer.c **** {
 105              		.loc 1 116 1 view -0
 106              		.cfi_startproc
 107              		@ args = 0, pretend = 0, frame = 0
 108              		@ frame_needed = 0, uses_anonymous_args = 0
 109              		@ link register save eliminated.
 117:../../peripheral_library/hal/m7221/src/halTimer.c ****     REG(TIMER_CTRL_ADDR)=0;
 110              		.loc 1 117 5 view .LVU1
 111              	@ ../../peripheral_library/hal/m7221/src/halTimer.c:117:     REG(TIMER_CTRL_ADDR)=0;
ARM GAS  /tmp/ccNvOUWZ.s 			page 5


 112              		.loc 1 117 25 is_stmt 0 view .LVU2
 113 0000 024B     		ldr	r3, .L2	@ tmp110,
 114 0002 0022     		movs	r2, #0	@ tmp111,
 115 0004 1A60     		str	r2, [r3]	@ tmp111, MEM[(volatile long unsigned int *)1073766464B]
 118:../../peripheral_library/hal/m7221/src/halTimer.c ****     REG(TIMER_CTRL_ADDR)=0x1;
 116              		.loc 1 118 5 is_stmt 1 view .LVU3
 117              	@ ../../peripheral_library/hal/m7221/src/halTimer.c:118:     REG(TIMER_CTRL_ADDR)=0x1;
 118              		.loc 1 118 25 is_stmt 0 view .LVU4
 119 0006 0122     		movs	r2, #1	@ tmp113,
 120 0008 1A60     		str	r2, [r3]	@ tmp113, MEM[(volatile long unsigned int *)1073766464B]
 121              	@ ../../peripheral_library/hal/m7221/src/halTimer.c:119: }
 119:../../peripheral_library/hal/m7221/src/halTimer.c **** }
 122              		.loc 1 119 1 view .LVU5
 123 000a 7047     		bx	lr	@
 124              	.L3:
 125              		.align	2
 126              	.L2:
 127 000c 40600040 		.word	1073766464
 128              		.cfi_endproc
 129              	.LFE0:
 130              		.size	MHal_Timer_Reset, .-MHal_Timer_Reset
 131              		.section	.text.MHal_Timer_GetTick,"ax",%progbits
 132              		.align	1
 133              		.global	MHal_Timer_GetTick
 134              		.syntax unified
 135              		.thumb
 136              		.thumb_func
 137              		.fpu fpv4-sp-d16
 138              		.type	MHal_Timer_GetTick, %function
 139              	MHal_Timer_GetTick:
 140              	.LFB1:
 120:../../peripheral_library/hal/m7221/src/halTimer.c **** 
 121:../../peripheral_library/hal/m7221/src/halTimer.c **** U32 MHal_Timer_GetTick(void)
 122:../../peripheral_library/hal/m7221/src/halTimer.c **** {
 141              		.loc 1 122 1 is_stmt 1 view -0
 142              		.cfi_startproc
 143              		@ args = 0, pretend = 0, frame = 0
 144              		@ frame_needed = 0, uses_anonymous_args = 0
 145              		@ link register save eliminated.
 123:../../peripheral_library/hal/m7221/src/halTimer.c ****     // 1 tick = 1/OSC1 sec
 124:../../peripheral_library/hal/m7221/src/halTimer.c ****     U32 val=0;
 146              		.loc 1 124 5 view .LVU7
 147              	.LVL0:
 125:../../peripheral_library/hal/m7221/src/halTimer.c ****     val = (REG(TIMER_CAPCNT_L_ADDR)& 0xFFFF);
 148              		.loc 1 125 5 view .LVU8
 149              	@ ../../peripheral_library/hal/m7221/src/halTimer.c:125:     val = (REG(TIMER_CAPCNT_L_ADDR)& 0xFFF
 150              		.loc 1 125 12 is_stmt 0 view .LVU9
 151 0000 034B     		ldr	r3, .L5	@ tmp115,
 152 0002 1868     		ldr	r0, [r3]	@ _1, MEM[(volatile long unsigned int *)1073766480B]
 153              	.LVL1:
 126:../../peripheral_library/hal/m7221/src/halTimer.c ****     val +=  (REG(TIMER_CAPCNT_H_ADDR)<<16);
 154              		.loc 1 126 5 is_stmt 1 view .LVU10
 155              	@ ../../peripheral_library/hal/m7221/src/halTimer.c:126:     val +=  (REG(TIMER_CAPCNT_H_ADDR)<<16)
 156              		.loc 1 126 14 is_stmt 0 view .LVU11
 157 0004 0433     		adds	r3, r3, #4	@ tmp117, tmp117,
 158 0006 1B68     		ldr	r3, [r3]	@ _2, MEM[(volatile long unsigned int *)1073766484B]
 159              	.LVL2:
ARM GAS  /tmp/ccNvOUWZ.s 			page 6


 127:../../peripheral_library/hal/m7221/src/halTimer.c ****     return val;
 160              		.loc 1 127 5 is_stmt 1 view .LVU12
 161              	@ ../../peripheral_library/hal/m7221/src/halTimer.c:126:     val +=  (REG(TIMER_CAPCNT_H_ADDR)<<16)
 126:../../peripheral_library/hal/m7221/src/halTimer.c ****     val +=  (REG(TIMER_CAPCNT_H_ADDR)<<16);
 162              		.loc 1 126 38 is_stmt 0 view .LVU13
 163 0008 1B04     		lsls	r3, r3, #16	@ tmp119, _2,
 164              	.LVL3:
 165              	@ ../../peripheral_library/hal/m7221/src/halTimer.c:128: }
 128:../../peripheral_library/hal/m7221/src/halTimer.c **** }
 166              		.loc 1 128 1 view .LVU14
 167 000a 13FA80F0 		uxtah	r0, r3, r0	@, tmp119, _1
 168              	.LVL4:
 169              		.loc 1 128 1 view .LVU15
 170 000e 7047     		bx	lr	@
 171              	.L6:
 172              		.align	2
 173              	.L5:
 174 0010 50600040 		.word	1073766480
 175              		.cfi_endproc
 176              	.LFE1:
 177              		.size	MHal_Timer_GetTick, .-MHal_Timer_GetTick
 178              		.section	.text.MHal_Timer_GetMax,"ax",%progbits
 179              		.align	1
 180              		.global	MHal_Timer_GetMax
 181              		.syntax unified
 182              		.thumb
 183              		.thumb_func
 184              		.fpu fpv4-sp-d16
 185              		.type	MHal_Timer_GetMax, %function
 186              	MHal_Timer_GetMax:
 187              	.LFB2:
 129:../../peripheral_library/hal/m7221/src/halTimer.c **** 
 130:../../peripheral_library/hal/m7221/src/halTimer.c **** U32 MHal_Timer_GetMax(void)
 131:../../peripheral_library/hal/m7221/src/halTimer.c **** {
 188              		.loc 1 131 1 is_stmt 1 view -0
 189              		.cfi_startproc
 190              		@ args = 0, pretend = 0, frame = 0
 191              		@ frame_needed = 0, uses_anonymous_args = 0
 192              		@ link register save eliminated.
 132:../../peripheral_library/hal/m7221/src/halTimer.c ****     // 1 tick = 1/OSC1 sec
 133:../../peripheral_library/hal/m7221/src/halTimer.c ****     U32 val=0;
 193              		.loc 1 133 5 view .LVU17
 194              	.LVL5:
 134:../../peripheral_library/hal/m7221/src/halTimer.c ****     val = (REG(TIMER_MAX_L_ADDR)& 0xFFFF);
 195              		.loc 1 134 5 view .LVU18
 196              	@ ../../peripheral_library/hal/m7221/src/halTimer.c:134:     val = (REG(TIMER_MAX_L_ADDR)& 0xFFFF);
 197              		.loc 1 134 12 is_stmt 0 view .LVU19
 198 0000 034B     		ldr	r3, .L8	@ tmp115,
 199 0002 1868     		ldr	r0, [r3]	@ _1, MEM[(volatile long unsigned int *)1073766472B]
 200              	.LVL6:
 135:../../peripheral_library/hal/m7221/src/halTimer.c ****     val +=  (REG(TIMER_MAX_H_ADDR)<<16);
 201              		.loc 1 135 5 is_stmt 1 view .LVU20
 202              	@ ../../peripheral_library/hal/m7221/src/halTimer.c:135:     val +=  (REG(TIMER_MAX_H_ADDR)<<16);
 203              		.loc 1 135 14 is_stmt 0 view .LVU21
 204 0004 0433     		adds	r3, r3, #4	@ tmp117, tmp117,
 205 0006 1B68     		ldr	r3, [r3]	@ _2, MEM[(volatile long unsigned int *)1073766476B]
 206              	.LVL7:
ARM GAS  /tmp/ccNvOUWZ.s 			page 7


 136:../../peripheral_library/hal/m7221/src/halTimer.c ****     return val;
 207              		.loc 1 136 5 is_stmt 1 view .LVU22
 208              	@ ../../peripheral_library/hal/m7221/src/halTimer.c:135:     val +=  (REG(TIMER_MAX_H_ADDR)<<16);
 135:../../peripheral_library/hal/m7221/src/halTimer.c ****     val +=  (REG(TIMER_MAX_H_ADDR)<<16);
 209              		.loc 1 135 35 is_stmt 0 view .LVU23
 210 0008 1B04     		lsls	r3, r3, #16	@ tmp119, _2,
 211              	.LVL8:
 212              	@ ../../peripheral_library/hal/m7221/src/halTimer.c:137: }
 137:../../peripheral_library/hal/m7221/src/halTimer.c **** }
 213              		.loc 1 137 1 view .LVU24
 214 000a 13FA80F0 		uxtah	r0, r3, r0	@, tmp119, _1
 215              	.LVL9:
 216              		.loc 1 137 1 view .LVU25
 217 000e 7047     		bx	lr	@
 218              	.L9:
 219              		.align	2
 220              	.L8:
 221 0010 48600040 		.word	1073766472
 222              		.cfi_endproc
 223              	.LFE2:
 224              		.size	MHal_Timer_GetMax, .-MHal_Timer_GetMax
 225              		.section	.text.MHal_Timer_Delay,"ax",%progbits
 226              		.align	1
 227              		.global	MHal_Timer_Delay
 228              		.syntax unified
 229              		.thumb
 230              		.thumb_func
 231              		.fpu fpv4-sp-d16
 232              		.type	MHal_Timer_Delay, %function
 233              	MHal_Timer_Delay:
 234              	.LVL10:
 235              	.LFB3:
 138:../../peripheral_library/hal/m7221/src/halTimer.c **** 
 139:../../peripheral_library/hal/m7221/src/halTimer.c **** 
 140:../../peripheral_library/hal/m7221/src/halTimer.c **** void MHal_Timer_Delay(U32 count)
 141:../../peripheral_library/hal/m7221/src/halTimer.c **** {
 236              		.loc 1 141 1 is_stmt 1 view -0
 237              		.cfi_startproc
 238              		@ args = 0, pretend = 0, frame = 0
 239              		@ frame_needed = 0, uses_anonymous_args = 0
 142:../../peripheral_library/hal/m7221/src/halTimer.c ****     U32 st0=0;
 240              		.loc 1 142 5 view .LVU27
 143:../../peripheral_library/hal/m7221/src/halTimer.c ****     U32 tick_count=0;
 241              		.loc 1 143 5 view .LVU28
 144:../../peripheral_library/hal/m7221/src/halTimer.c ****     U32 st1=0;
 242              		.loc 1 144 5 view .LVU29
 145:../../peripheral_library/hal/m7221/src/halTimer.c **** 
 146:../../peripheral_library/hal/m7221/src/halTimer.c ****     st0=MHal_Timer_GetTick();
 243              		.loc 1 146 5 view .LVU30
 244              	@ ../../peripheral_library/hal/m7221/src/halTimer.c:141: {
 141:../../peripheral_library/hal/m7221/src/halTimer.c ****     U32 st0=0;
 245              		.loc 1 141 1 is_stmt 0 view .LVU31
 246 0000 38B5     		push	{r3, r4, r5, lr}	@
 247              		.cfi_def_cfa_offset 16
 248              		.cfi_offset 3, -16
 249              		.cfi_offset 4, -12
 250              		.cfi_offset 5, -8
ARM GAS  /tmp/ccNvOUWZ.s 			page 8


 251              		.cfi_offset 14, -4
 252              	@ ../../peripheral_library/hal/m7221/src/halTimer.c:141: {
 141:../../peripheral_library/hal/m7221/src/halTimer.c ****     U32 st0=0;
 253              		.loc 1 141 1 view .LVU32
 254 0002 0546     		mov	r5, r0	@ count, count
 255              	@ ../../peripheral_library/hal/m7221/src/halTimer.c:146:     st0=MHal_Timer_GetTick();
 256              		.loc 1 146 9 view .LVU33
 257 0004 FFF7FEFF 		bl	MHal_Timer_GetTick		@
 258              	.LVL11:
 259              		.loc 1 146 9 view .LVU34
 260 0008 0146     		mov	r1, r0	@ st0,
 261              	.LVL12:
 147:../../peripheral_library/hal/m7221/src/halTimer.c **** 
 148:../../peripheral_library/hal/m7221/src/halTimer.c **** 
 149:../../peripheral_library/hal/m7221/src/halTimer.c ****     //uart_write_U32_hex(count);
 150:../../peripheral_library/hal/m7221/src/halTimer.c ****     if(0==count)
 262              		.loc 1 150 5 is_stmt 1 view .LVU35
 263              	@ ../../peripheral_library/hal/m7221/src/halTimer.c:150:     if(0==count)
 264              		.loc 1 150 7 is_stmt 0 view .LVU36
 265 000a 6DB1     		cbz	r5, .L10	@ count,
 266              	@ ../../peripheral_library/hal/m7221/src/halTimer.c:143:     U32 tick_count=0;
 143:../../peripheral_library/hal/m7221/src/halTimer.c ****     U32 st1=0;
 267              		.loc 1 143 9 view .LVU37
 268 000c 0022     		movs	r2, #0	@ tick_count,
 269              	.LVL13:
 270              	.L11:
 151:../../peripheral_library/hal/m7221/src/halTimer.c ****     {
 152:../../peripheral_library/hal/m7221/src/halTimer.c ****     return;
 153:../../peripheral_library/hal/m7221/src/halTimer.c ****     }
 154:../../peripheral_library/hal/m7221/src/halTimer.c **** 
 155:../../peripheral_library/hal/m7221/src/halTimer.c ****     while(1)
 271              		.loc 1 155 5 is_stmt 1 view .LVU38
 156:../../peripheral_library/hal/m7221/src/halTimer.c ****     {
 157:../../peripheral_library/hal/m7221/src/halTimer.c **** 
 158:../../peripheral_library/hal/m7221/src/halTimer.c ****     st1=MHal_Timer_GetTick();
 272              		.loc 1 158 5 view .LVU39
 273              	@ ../../peripheral_library/hal/m7221/src/halTimer.c:158:     st1=MHal_Timer_GetTick();
 274              		.loc 1 158 9 is_stmt 0 view .LVU40
 275 000e FFF7FEFF 		bl	MHal_Timer_GetTick		@
 276              	.LVL14:
 277 0012 431A     		subs	r3, r0, r1	@ tmp116, st1, st0
 278              	@ ../../peripheral_library/hal/m7221/src/halTimer.c:160:     if(st1<st0)
 159:../../peripheral_library/hal/m7221/src/halTimer.c **** 
 160:../../peripheral_library/hal/m7221/src/halTimer.c ****     if(st1<st0)
 279              		.loc 1 160 7 view .LVU41
 280 0014 8142     		cmp	r1, r0	@ st0, st1
 281              	@ ../../peripheral_library/hal/m7221/src/halTimer.c:158:     st1=MHal_Timer_GetTick();
 158:../../peripheral_library/hal/m7221/src/halTimer.c **** 
 282              		.loc 1 158 9 view .LVU42
 283 0016 0446     		mov	r4, r0	@ st1,
 284              	.LVL15:
 285              		.loc 1 160 5 is_stmt 1 view .LVU43
 286 0018 1A44     		add	r2, r2, r3	@ tick_count, tmp116
 287              	.LVL16:
 288              	@ ../../peripheral_library/hal/m7221/src/halTimer.c:160:     if(st1<st0)
 289              		.loc 1 160 7 is_stmt 0 view .LVU44
 290 001a 02D9     		bls	.L12		@,
ARM GAS  /tmp/ccNvOUWZ.s 			page 9


 161:../../peripheral_library/hal/m7221/src/halTimer.c ****     {
 162:../../peripheral_library/hal/m7221/src/halTimer.c **** 
 163:../../peripheral_library/hal/m7221/src/halTimer.c ****     tick_count+=((MHal_Timer_GetMax()-st0) + st1);
 291              		.loc 1 163 5 is_stmt 1 view .LVU45
 292              	@ ../../peripheral_library/hal/m7221/src/halTimer.c:163:     tick_count+=((MHal_Timer_GetMax()-st0)
 293              		.loc 1 163 19 is_stmt 0 view .LVU46
 294 001c FFF7FEFF 		bl	MHal_Timer_GetMax		@
 295              	.LVL17:
 296              	@ ../../peripheral_library/hal/m7221/src/halTimer.c:163:     tick_count+=((MHal_Timer_GetMax()-st0)
 297              		.loc 1 163 15 view .LVU47
 298 0020 0244     		add	r2, r2, r0	@ tick_count,
 299              	.LVL18:
 300              	.L12:
 164:../../peripheral_library/hal/m7221/src/halTimer.c ****     }
 165:../../peripheral_library/hal/m7221/src/halTimer.c ****     else
 166:../../peripheral_library/hal/m7221/src/halTimer.c ****     {
 167:../../peripheral_library/hal/m7221/src/halTimer.c ****     tick_count+=(st1-st0);
 168:../../peripheral_library/hal/m7221/src/halTimer.c ****     }
 169:../../peripheral_library/hal/m7221/src/halTimer.c ****     st0=st1;
 301              		.loc 1 169 5 is_stmt 1 view .LVU48
 170:../../peripheral_library/hal/m7221/src/halTimer.c **** 
 171:../../peripheral_library/hal/m7221/src/halTimer.c ****     if(tick_count>=count)
 302              		.loc 1 171 5 view .LVU49
 303              	@ ../../peripheral_library/hal/m7221/src/halTimer.c:171:     if(tick_count>=count)
 304              		.loc 1 171 7 is_stmt 0 view .LVU50
 305 0022 AA42     		cmp	r2, r5	@ tick_count, count
 306              	@ ../../peripheral_library/hal/m7221/src/halTimer.c:158:     st1=MHal_Timer_GetTick();
 158:../../peripheral_library/hal/m7221/src/halTimer.c **** 
 307              		.loc 1 158 9 view .LVU51
 308 0024 2146     		mov	r1, r4	@ st0, st1
 309              	@ ../../peripheral_library/hal/m7221/src/halTimer.c:171:     if(tick_count>=count)
 310              		.loc 1 171 7 view .LVU52
 311 0026 F2D3     		bcc	.L11		@,
 312              	.LVL19:
 313              	.L10:
 314              	@ ../../peripheral_library/hal/m7221/src/halTimer.c:177: }
 172:../../peripheral_library/hal/m7221/src/halTimer.c ****     {
 173:../../peripheral_library/hal/m7221/src/halTimer.c ****     break;
 174:../../peripheral_library/hal/m7221/src/halTimer.c ****     }
 175:../../peripheral_library/hal/m7221/src/halTimer.c **** 
 176:../../peripheral_library/hal/m7221/src/halTimer.c ****     }
 177:../../peripheral_library/hal/m7221/src/halTimer.c **** }
 315              		.loc 1 177 1 view .LVU53
 316 0028 38BD     		pop	{r3, r4, r5, pc}	@
 317              		.loc 1 177 1 view .LVU54
 318              		.cfi_endproc
 319              	.LFE3:
 320              		.size	MHal_Timer_Delay, .-MHal_Timer_Delay
 321              		.text
 322              	.Letext0: