ARM GAS  /tmp/cc5qDK7o.s 			page 1


   1              		.cpu cortex-m4
   2              		.eabi_attribute 27, 1	@ Tag_ABI_HardFP_use
   3              		.eabi_attribute 20, 1	@ Tag_ABI_FP_denormal
   4              		.eabi_attribute 21, 1	@ Tag_ABI_FP_exceptions
   5              		.eabi_attribute 23, 3	@ Tag_ABI_FP_number_model
   6              		.eabi_attribute 24, 1	@ Tag_ABI_align8_needed
   7              		.eabi_attribute 25, 1	@ Tag_ABI_align8_preserved
   8              		.eabi_attribute 26, 1	@ Tag_ABI_enum_size
   9              		.eabi_attribute 30, 2	@ Tag_ABI_optimization_goals
  10              		.eabi_attribute 34, 1	@ Tag_CPU_unaligned_access
  11              		.eabi_attribute 18, 4	@ Tag_ABI_PCS_wchar_t
  12              		.file	"port.c"
  13              	@ GNU C89 (GNU Tools for Arm Embedded Processors 8-2018-q4-major) version 8.2.1 20181213 (release) 
  14              	@	compiled by GNU C version 4.8.4, GMP version 6.1.0, MPFR version 3.1.4, MPC version 1.0.3, isl ve
  15              	
  16              	@ GGC heuristics: --param ggc-min-expand=96 --param ggc-min-heapsize=125422
  17              	@ options passed:  -isystem =/include/newlib-nano -I . -I .
  18              	@ -I ../../kernel/FreeRTOS/Source/include
  19              	@ -I ../../kernel/FreeRTOS/Source/portable/GCC/ARM_CM4F
  20              	@ -I ../../kernel/FreeRTOS/Demo/Common/include
  21              	@ -I ../../kernel/FreeRTOS-Plus/Source/FreeRTOS-Plus-CLI
  22              	@ -I ../../peripheral_library/inc -I ../../peripheral_library/hal/m7221/inc
  23              	@ -I ../../CMSIS -I ../../main_full -I ../../3rd/rokid/./ -I /.
  24              	@ -I /../../kernel/FreeRTOS/Source/include
  25              	@ -I /../../kernel/FreeRTOS/Source/portable/GCC/ARM_CM4F
  26              	@ -I /../../kernel/FreeRTOS/Demo/Common/include
  27              	@ -I /../../kernel/FreeRTOS-Plus/Source/FreeRTOS-Plus-CLI
  28              	@ -I /../../peripheral_library/inc
  29              	@ -I /../../peripheral_library/hal/m7221/inc -I /../../CMSIS
  30              	@ -I /../../main_full -I /../../3rd/rokid/./
  31              	@ -imultilib thumb/v7e-m+fp/softfp
  32              	@ -iprefix /home/gu/code/freeRTOS10/vendor/mstar/CM4/tools/gcc-arm-none-eabi-8-2018-q4-major/bin/..
  33              	@ -isysroot /home/gu/code/freeRTOS10/vendor/mstar/CM4/tools/gcc-arm-none-eabi-8-2018-q4-major/bin/.
  34              	@ -MD out/port.d -MF out/port.d -MP -MQ out/port.o -D__USES_INITFINI__
  35              	@ -D CONFIG_BENCH=0 -D CONFIG_SYS_DBG_LEVEL=0xFFFFFFFF -D CONFIG_VOC_MIC=6
  36              	@ -D CONFIG_AUD_I2S -D CONFIG_AUD_AEC -D CONFIG_VOC_MIC_MAPPING
  37              	@ -D CONFIG_VOC_SWHPF -D CONFIG_VOC_SW_SRC48K -D ARM_MATH_CM4
  38              	@ -D BOOTROM_VERSION_ASIC
  39              	@ ../../kernel/FreeRTOS/Source/portable/GCC/ARM_CM4F/port.c -mcpu=cortex-m4
  40              	@ -mthumb -mthumb-interwork -mfloat-abi=softfp -mfpu=fpv4-sp-d16
  41              	@ -march=armv7e-m+fp -auxbase-strip out/port.o -g -ggdb3 -O3 -Wall
  42              	@ -Wstrict-prototypes -Wextra -std=gnu90 -ffunction-sections
  43              	@ -fdata-sections -fno-builtin-printf -fverbose-asm
  44              	@ options enabled:  -faggressive-loop-optimizations -falign-jumps
  45              	@ -falign-labels -falign-loops -fauto-inc-dec -fbranch-count-reg
  46              	@ -fcaller-saves -fchkp-check-incomplete-type -fchkp-check-read
  47              	@ -fchkp-check-write -fchkp-instrument-calls -fchkp-narrow-bounds
  48              	@ -fchkp-optimize -fchkp-store-bounds -fchkp-use-static-bounds
  49              	@ -fchkp-use-static-const-bounds -fchkp-use-wrappers -fcode-hoisting
  50              	@ -fcombine-stack-adjustments -fcommon -fcompare-elim -fcprop-registers
  51              	@ -fcrossjumping -fcse-follow-jumps -fdata-sections -fdefer-pop
  52              	@ -fdelete-null-pointer-checks -fdevirtualize -fdevirtualize-speculatively
  53              	@ -fdwarf2-cfi-asm -fearly-inlining -feliminate-unused-debug-types
  54              	@ -fexpensive-optimizations -fforward-propagate -ffp-int-builtin-inexact
  55              	@ -ffunction-cse -ffunction-sections -fgcse -fgcse-after-reload -fgcse-lm
  56              	@ -fgnu-runtime -fgnu-unique -fguess-branch-probability
  57              	@ -fhoist-adjacent-loads -fident -fif-conversion -fif-conversion2
ARM GAS  /tmp/cc5qDK7o.s 			page 2


  58              	@ -findirect-inlining -finline -finline-atomics -finline-functions
  59              	@ -finline-functions-called-once -finline-small-functions -fipa-bit-cp
  60              	@ -fipa-cp -fipa-cp-clone -fipa-icf -fipa-icf-functions -fipa-icf-variables
  61              	@ -fipa-profile -fipa-pure-const -fipa-ra -fipa-reference -fipa-sra
  62              	@ -fipa-vrp -fira-hoist-pressure -fira-share-save-slots
  63              	@ -fira-share-spill-slots -fisolate-erroneous-paths-dereference -fivopts
  64              	@ -fkeep-static-consts -fleading-underscore -flifetime-dse
  65              	@ -floop-interchange -floop-unroll-and-jam -flra-remat
  66              	@ -flto-odr-type-merging -fmath-errno -fmerge-constants
  67              	@ -fmerge-debug-strings -fmove-loop-invariants -fomit-frame-pointer
  68              	@ -foptimize-sibling-calls -foptimize-strlen -fpartial-inlining
  69              	@ -fpeel-loops -fpeephole -fpeephole2 -fplt -fpredictive-commoning
  70              	@ -fprefetch-loop-arrays -freg-struct-return -freorder-blocks
  71              	@ -freorder-functions -frerun-cse-after-loop
  72              	@ -fsched-critical-path-heuristic -fsched-dep-count-heuristic
  73              	@ -fsched-group-heuristic -fsched-interblock -fsched-last-insn-heuristic
  74              	@ -fsched-pressure -fsched-rank-heuristic -fsched-spec
  75              	@ -fsched-spec-insn-heuristic -fsched-stalled-insns-dep -fschedule-insns
  76              	@ -fschedule-insns2 -fsection-anchors -fsemantic-interposition
  77              	@ -fshow-column -fshrink-wrap -fshrink-wrap-separate -fsigned-zeros
  78              	@ -fsplit-ivs-in-unroller -fsplit-loops -fsplit-paths -fsplit-wide-types
  79              	@ -fssa-backprop -fssa-phiopt -fstdarg-opt -fstore-merging
  80              	@ -fstrict-aliasing -fstrict-volatile-bitfields -fsync-libcalls
  81              	@ -fthread-jumps -ftoplevel-reorder -ftrapping-math -ftree-bit-ccp
  82              	@ -ftree-builtin-call-dce -ftree-ccp -ftree-ch -ftree-coalesce-vars
  83              	@ -ftree-copy-prop -ftree-cselim -ftree-dce -ftree-dominator-opts
  84              	@ -ftree-dse -ftree-forwprop -ftree-fre -ftree-loop-distribute-patterns
  85              	@ -ftree-loop-distribution -ftree-loop-if-convert -ftree-loop-im
  86              	@ -ftree-loop-ivcanon -ftree-loop-optimize -ftree-loop-vectorize
  87              	@ -ftree-parallelize-loops= -ftree-partial-pre -ftree-phiprop -ftree-pre
  88              	@ -ftree-pta -ftree-reassoc -ftree-scev-cprop -ftree-sink
  89              	@ -ftree-slp-vectorize -ftree-slsr -ftree-sra -ftree-switch-conversion
  90              	@ -ftree-tail-merge -ftree-ter -ftree-vrp -funit-at-a-time -funswitch-loops
  91              	@ -fvar-tracking -fvar-tracking-assignments -fverbose-asm
  92              	@ -fzero-initialized-in-bss -masm-syntax-unified -mbe32 -mlittle-endian
  93              	@ -mpic-data-is-text-relative -msched-prolog -mthumb -munaligned-access
  94              	@ -mvectorize-with-neon-quad
  95              	
  96              		.text
  97              	.Ltext0:
  98              		.cfi_sections	.debug_frame
  99              		.section	.text.prvPortStartFirstTask,"ax",%progbits
 100              		.align	1
 101              		.p2align 2,,3
 102              		.arch armv7e-m
 103              		.syntax unified
 104              		.thumb
 105              		.thumb_func
 106              		.fpu fpv4-sp-d16
 107              		.type	prvPortStartFirstTask, %function
 108              	prvPortStartFirstTask:
 109              	.LFB7:
 110              		.file 1 "../../kernel/FreeRTOS/Source/portable/GCC/ARM_CM4F/port.c"
   1:../../kernel/FreeRTOS/Source/portable/GCC/ARM_CM4F/port.c **** /*
   2:../../kernel/FreeRTOS/Source/portable/GCC/ARM_CM4F/port.c ****  * FreeRTOS Kernel V10.0.1
   3:../../kernel/FreeRTOS/Source/portable/GCC/ARM_CM4F/port.c ****  * Copyright (C) 2017 Amazon.com, Inc. or its affiliates.  All Rights Reserved.
   4:../../kernel/FreeRTOS/Source/portable/GCC/ARM_CM4F/port.c ****  *
ARM GAS  /tmp/cc5qDK7o.s 			page 3


   5:../../kernel/FreeRTOS/Source/portable/GCC/ARM_CM4F/port.c ****  * Permission is hereby granted, free of charge, to any person obtaining a copy of
   6:../../kernel/FreeRTOS/Source/portable/GCC/ARM_CM4F/port.c ****  * this software and associated documentation files (the "Software"), to deal in
   7:../../kernel/FreeRTOS/Source/portable/GCC/ARM_CM4F/port.c ****  * the Software without restriction, including without limitation the rights to
   8:../../kernel/FreeRTOS/Source/portable/GCC/ARM_CM4F/port.c ****  * use, copy, modify, merge, publish, distribute, sublicense, and/or sell copies of
   9:../../kernel/FreeRTOS/Source/portable/GCC/ARM_CM4F/port.c ****  * the Software, and to permit persons to whom the Software is furnished to do so,
  10:../../kernel/FreeRTOS/Source/portable/GCC/ARM_CM4F/port.c ****  * subject to the following conditions:
  11:../../kernel/FreeRTOS/Source/portable/GCC/ARM_CM4F/port.c ****  *
  12:../../kernel/FreeRTOS/Source/portable/GCC/ARM_CM4F/port.c ****  * The above copyright notice and this permission notice shall be included in all
  13:../../kernel/FreeRTOS/Source/portable/GCC/ARM_CM4F/port.c ****  * copies or substantial portions of the Software.
  14:../../kernel/FreeRTOS/Source/portable/GCC/ARM_CM4F/port.c ****  *
  15:../../kernel/FreeRTOS/Source/portable/GCC/ARM_CM4F/port.c ****  * THE SOFTWARE IS PROVIDED "AS IS", WITHOUT WARRANTY OF ANY KIND, EXPRESS OR
  16:../../kernel/FreeRTOS/Source/portable/GCC/ARM_CM4F/port.c ****  * IMPLIED, INCLUDING BUT NOT LIMITED TO THE WARRANTIES OF MERCHANTABILITY, FITNESS
  17:../../kernel/FreeRTOS/Source/portable/GCC/ARM_CM4F/port.c ****  * FOR A PARTICULAR PURPOSE AND NONINFRINGEMENT. IN NO EVENT SHALL THE AUTHORS OR
  18:../../kernel/FreeRTOS/Source/portable/GCC/ARM_CM4F/port.c ****  * COPYRIGHT HOLDERS BE LIABLE FOR ANY CLAIM, DAMAGES OR OTHER LIABILITY, WHETHER
  19:../../kernel/FreeRTOS/Source/portable/GCC/ARM_CM4F/port.c ****  * IN AN ACTION OF CONTRACT, TORT OR OTHERWISE, ARISING FROM, OUT OF OR IN
  20:../../kernel/FreeRTOS/Source/portable/GCC/ARM_CM4F/port.c ****  * CONNECTION WITH THE SOFTWARE OR THE USE OR OTHER DEALINGS IN THE SOFTWARE.
  21:../../kernel/FreeRTOS/Source/portable/GCC/ARM_CM4F/port.c ****  *
  22:../../kernel/FreeRTOS/Source/portable/GCC/ARM_CM4F/port.c ****  * http://www.FreeRTOS.org
  23:../../kernel/FreeRTOS/Source/portable/GCC/ARM_CM4F/port.c ****  * http://aws.amazon.com/freertos
  24:../../kernel/FreeRTOS/Source/portable/GCC/ARM_CM4F/port.c ****  *
  25:../../kernel/FreeRTOS/Source/portable/GCC/ARM_CM4F/port.c ****  * 1 tab == 4 spaces!
  26:../../kernel/FreeRTOS/Source/portable/GCC/ARM_CM4F/port.c ****  */
  27:../../kernel/FreeRTOS/Source/portable/GCC/ARM_CM4F/port.c **** 
  28:../../kernel/FreeRTOS/Source/portable/GCC/ARM_CM4F/port.c **** /*-----------------------------------------------------------
  29:../../kernel/FreeRTOS/Source/portable/GCC/ARM_CM4F/port.c ****  * Implementation of functions defined in portable.h for the ARM CM4F port.
  30:../../kernel/FreeRTOS/Source/portable/GCC/ARM_CM4F/port.c ****  *----------------------------------------------------------*/
  31:../../kernel/FreeRTOS/Source/portable/GCC/ARM_CM4F/port.c **** 
  32:../../kernel/FreeRTOS/Source/portable/GCC/ARM_CM4F/port.c **** /* Scheduler includes. */
  33:../../kernel/FreeRTOS/Source/portable/GCC/ARM_CM4F/port.c **** #include "FreeRTOS.h"
  34:../../kernel/FreeRTOS/Source/portable/GCC/ARM_CM4F/port.c **** #include "task.h"
  35:../../kernel/FreeRTOS/Source/portable/GCC/ARM_CM4F/port.c **** 
  36:../../kernel/FreeRTOS/Source/portable/GCC/ARM_CM4F/port.c **** #ifndef __VFP_FP__
  37:../../kernel/FreeRTOS/Source/portable/GCC/ARM_CM4F/port.c **** 	#error This port can only be used when the project options are configured to enable hardware float
  38:../../kernel/FreeRTOS/Source/portable/GCC/ARM_CM4F/port.c **** #endif
  39:../../kernel/FreeRTOS/Source/portable/GCC/ARM_CM4F/port.c **** 
  40:../../kernel/FreeRTOS/Source/portable/GCC/ARM_CM4F/port.c **** #ifndef configSYSTICK_CLOCK_HZ
  41:../../kernel/FreeRTOS/Source/portable/GCC/ARM_CM4F/port.c **** 	#define configSYSTICK_CLOCK_HZ configCPU_CLOCK_HZ
  42:../../kernel/FreeRTOS/Source/portable/GCC/ARM_CM4F/port.c **** 	/* Ensure the SysTick is clocked at the same frequency as the core. */
  43:../../kernel/FreeRTOS/Source/portable/GCC/ARM_CM4F/port.c **** 	#define portNVIC_SYSTICK_CLK_BIT	( 1UL << 2UL )
  44:../../kernel/FreeRTOS/Source/portable/GCC/ARM_CM4F/port.c **** #else
  45:../../kernel/FreeRTOS/Source/portable/GCC/ARM_CM4F/port.c **** 	/* The way the SysTick is clocked is not modified in case it is not the same
  46:../../kernel/FreeRTOS/Source/portable/GCC/ARM_CM4F/port.c **** 	as the core. */
  47:../../kernel/FreeRTOS/Source/portable/GCC/ARM_CM4F/port.c **** 	#define portNVIC_SYSTICK_CLK_BIT	( 0 )
  48:../../kernel/FreeRTOS/Source/portable/GCC/ARM_CM4F/port.c **** #endif
  49:../../kernel/FreeRTOS/Source/portable/GCC/ARM_CM4F/port.c **** 
  50:../../kernel/FreeRTOS/Source/portable/GCC/ARM_CM4F/port.c **** /* Constants required to manipulate the core.  Registers first... */
  51:../../kernel/FreeRTOS/Source/portable/GCC/ARM_CM4F/port.c **** #define portNVIC_SYSTICK_CTRL_REG			( * ( ( volatile uint32_t * ) 0xe000e010 ) )
  52:../../kernel/FreeRTOS/Source/portable/GCC/ARM_CM4F/port.c **** #define portNVIC_SYSTICK_LOAD_REG			( * ( ( volatile uint32_t * ) 0xe000e014 ) )
  53:../../kernel/FreeRTOS/Source/portable/GCC/ARM_CM4F/port.c **** #define portNVIC_SYSTICK_CURRENT_VALUE_REG	( * ( ( volatile uint32_t * ) 0xe000e018 ) )
  54:../../kernel/FreeRTOS/Source/portable/GCC/ARM_CM4F/port.c **** #define portNVIC_SYSPRI2_REG				( * ( ( volatile uint32_t * ) 0xe000ed20 ) )
  55:../../kernel/FreeRTOS/Source/portable/GCC/ARM_CM4F/port.c **** /* ...then bits in the registers. */
  56:../../kernel/FreeRTOS/Source/portable/GCC/ARM_CM4F/port.c **** #define portNVIC_SYSTICK_INT_BIT			( 1UL << 1UL )
  57:../../kernel/FreeRTOS/Source/portable/GCC/ARM_CM4F/port.c **** #define portNVIC_SYSTICK_ENABLE_BIT			( 1UL << 0UL )
  58:../../kernel/FreeRTOS/Source/portable/GCC/ARM_CM4F/port.c **** #define portNVIC_SYSTICK_COUNT_FLAG_BIT		( 1UL << 16UL )
  59:../../kernel/FreeRTOS/Source/portable/GCC/ARM_CM4F/port.c **** #define portNVIC_PENDSVCLEAR_BIT 			( 1UL << 27UL )
  60:../../kernel/FreeRTOS/Source/portable/GCC/ARM_CM4F/port.c **** #define portNVIC_PEND_SYSTICK_CLEAR_BIT		( 1UL << 25UL )
  61:../../kernel/FreeRTOS/Source/portable/GCC/ARM_CM4F/port.c **** 
ARM GAS  /tmp/cc5qDK7o.s 			page 4


  62:../../kernel/FreeRTOS/Source/portable/GCC/ARM_CM4F/port.c **** /* Constants used to detect a Cortex-M7 r0p1 core, which should use the ARM_CM7
  63:../../kernel/FreeRTOS/Source/portable/GCC/ARM_CM4F/port.c **** r0p1 port. */
  64:../../kernel/FreeRTOS/Source/portable/GCC/ARM_CM4F/port.c **** #define portCPUID							( * ( ( volatile uint32_t * ) 0xE000ed00 ) )
  65:../../kernel/FreeRTOS/Source/portable/GCC/ARM_CM4F/port.c **** #define portCORTEX_M7_r0p1_ID				( 0x410FC271UL )
  66:../../kernel/FreeRTOS/Source/portable/GCC/ARM_CM4F/port.c **** #define portCORTEX_M7_r0p0_ID				( 0x410FC270UL )
  67:../../kernel/FreeRTOS/Source/portable/GCC/ARM_CM4F/port.c **** 
  68:../../kernel/FreeRTOS/Source/portable/GCC/ARM_CM4F/port.c **** #define portNVIC_PENDSV_PRI					( ( ( uint32_t ) configKERNEL_INTERRUPT_PRIORITY ) << 16UL )
  69:../../kernel/FreeRTOS/Source/portable/GCC/ARM_CM4F/port.c **** #define portNVIC_SYSTICK_PRI				( ( ( uint32_t ) configKERNEL_INTERRUPT_PRIORITY ) << 24UL )
  70:../../kernel/FreeRTOS/Source/portable/GCC/ARM_CM4F/port.c **** 
  71:../../kernel/FreeRTOS/Source/portable/GCC/ARM_CM4F/port.c **** /* Constants required to check the validity of an interrupt priority. */
  72:../../kernel/FreeRTOS/Source/portable/GCC/ARM_CM4F/port.c **** #define portFIRST_USER_INTERRUPT_NUMBER		( 16 )
  73:../../kernel/FreeRTOS/Source/portable/GCC/ARM_CM4F/port.c **** #define portNVIC_IP_REGISTERS_OFFSET_16 	( 0xE000E3F0 )
  74:../../kernel/FreeRTOS/Source/portable/GCC/ARM_CM4F/port.c **** #define portAIRCR_REG						( * ( ( volatile uint32_t * ) 0xE000ED0C ) )
  75:../../kernel/FreeRTOS/Source/portable/GCC/ARM_CM4F/port.c **** #define portMAX_8_BIT_VALUE					( ( uint8_t ) 0xff )
  76:../../kernel/FreeRTOS/Source/portable/GCC/ARM_CM4F/port.c **** #define portTOP_BIT_OF_BYTE					( ( uint8_t ) 0x80 )
  77:../../kernel/FreeRTOS/Source/portable/GCC/ARM_CM4F/port.c **** #define portMAX_PRIGROUP_BITS				( ( uint8_t ) 7 )
  78:../../kernel/FreeRTOS/Source/portable/GCC/ARM_CM4F/port.c **** #define portPRIORITY_GROUP_MASK				( 0x07UL << 8UL )
  79:../../kernel/FreeRTOS/Source/portable/GCC/ARM_CM4F/port.c **** #define portPRIGROUP_SHIFT					( 8UL )
  80:../../kernel/FreeRTOS/Source/portable/GCC/ARM_CM4F/port.c **** 
  81:../../kernel/FreeRTOS/Source/portable/GCC/ARM_CM4F/port.c **** /* Masks off all bits but the VECTACTIVE bits in the ICSR register. */
  82:../../kernel/FreeRTOS/Source/portable/GCC/ARM_CM4F/port.c **** #define portVECTACTIVE_MASK					( 0xFFUL )
  83:../../kernel/FreeRTOS/Source/portable/GCC/ARM_CM4F/port.c **** 
  84:../../kernel/FreeRTOS/Source/portable/GCC/ARM_CM4F/port.c **** /* Constants required to manipulate the VFP. */
  85:../../kernel/FreeRTOS/Source/portable/GCC/ARM_CM4F/port.c **** #define portFPCCR							( ( volatile uint32_t * ) 0xe000ef34 ) /* Floating point context control re
  86:../../kernel/FreeRTOS/Source/portable/GCC/ARM_CM4F/port.c **** #define portASPEN_AND_LSPEN_BITS			( 0x3UL << 30UL )
  87:../../kernel/FreeRTOS/Source/portable/GCC/ARM_CM4F/port.c **** 
  88:../../kernel/FreeRTOS/Source/portable/GCC/ARM_CM4F/port.c **** /* Constants required to set up the initial stack. */
  89:../../kernel/FreeRTOS/Source/portable/GCC/ARM_CM4F/port.c **** #define portINITIAL_XPSR					( 0x01000000 )
  90:../../kernel/FreeRTOS/Source/portable/GCC/ARM_CM4F/port.c **** #define portINITIAL_EXC_RETURN				( 0xfffffffd )
  91:../../kernel/FreeRTOS/Source/portable/GCC/ARM_CM4F/port.c **** 
  92:../../kernel/FreeRTOS/Source/portable/GCC/ARM_CM4F/port.c **** /* The systick is a 24-bit counter. */
  93:../../kernel/FreeRTOS/Source/portable/GCC/ARM_CM4F/port.c **** #define portMAX_24_BIT_NUMBER				( 0xffffffUL )
  94:../../kernel/FreeRTOS/Source/portable/GCC/ARM_CM4F/port.c **** 
  95:../../kernel/FreeRTOS/Source/portable/GCC/ARM_CM4F/port.c **** /* For strict compliance with the Cortex-M spec the task start address should
  96:../../kernel/FreeRTOS/Source/portable/GCC/ARM_CM4F/port.c **** have bit-0 clear, as it is loaded into the PC on exit from an ISR. */
  97:../../kernel/FreeRTOS/Source/portable/GCC/ARM_CM4F/port.c **** #define portSTART_ADDRESS_MASK		( ( StackType_t ) 0xfffffffeUL )
  98:../../kernel/FreeRTOS/Source/portable/GCC/ARM_CM4F/port.c **** 
  99:../../kernel/FreeRTOS/Source/portable/GCC/ARM_CM4F/port.c **** /* A fiddle factor to estimate the number of SysTick counts that would have
 100:../../kernel/FreeRTOS/Source/portable/GCC/ARM_CM4F/port.c **** occurred while the SysTick counter is stopped during tickless idle
 101:../../kernel/FreeRTOS/Source/portable/GCC/ARM_CM4F/port.c **** calculations. */
 102:../../kernel/FreeRTOS/Source/portable/GCC/ARM_CM4F/port.c **** #define portMISSED_COUNTS_FACTOR			( 45UL )
 103:../../kernel/FreeRTOS/Source/portable/GCC/ARM_CM4F/port.c **** 
 104:../../kernel/FreeRTOS/Source/portable/GCC/ARM_CM4F/port.c **** /* Let the user override the pre-loading of the initial LR with the address of
 105:../../kernel/FreeRTOS/Source/portable/GCC/ARM_CM4F/port.c **** prvTaskExitError() in case it messes up unwinding of the stack in the
 106:../../kernel/FreeRTOS/Source/portable/GCC/ARM_CM4F/port.c **** debugger. */
 107:../../kernel/FreeRTOS/Source/portable/GCC/ARM_CM4F/port.c **** #ifdef configTASK_RETURN_ADDRESS
 108:../../kernel/FreeRTOS/Source/portable/GCC/ARM_CM4F/port.c **** 	#define portTASK_RETURN_ADDRESS	configTASK_RETURN_ADDRESS
 109:../../kernel/FreeRTOS/Source/portable/GCC/ARM_CM4F/port.c **** #else
 110:../../kernel/FreeRTOS/Source/portable/GCC/ARM_CM4F/port.c **** 	#define portTASK_RETURN_ADDRESS	prvTaskExitError
 111:../../kernel/FreeRTOS/Source/portable/GCC/ARM_CM4F/port.c **** #endif
 112:../../kernel/FreeRTOS/Source/portable/GCC/ARM_CM4F/port.c **** 
 113:../../kernel/FreeRTOS/Source/portable/GCC/ARM_CM4F/port.c **** /*
 114:../../kernel/FreeRTOS/Source/portable/GCC/ARM_CM4F/port.c ****  * Setup the timer to generate the tick interrupts.  The implementation in this
 115:../../kernel/FreeRTOS/Source/portable/GCC/ARM_CM4F/port.c ****  * file is weak to allow application writers to change the timer used to
 116:../../kernel/FreeRTOS/Source/portable/GCC/ARM_CM4F/port.c ****  * generate the tick interrupt.
 117:../../kernel/FreeRTOS/Source/portable/GCC/ARM_CM4F/port.c ****  */
 118:../../kernel/FreeRTOS/Source/portable/GCC/ARM_CM4F/port.c **** void vPortSetupTimerInterrupt( void );
ARM GAS  /tmp/cc5qDK7o.s 			page 5


 119:../../kernel/FreeRTOS/Source/portable/GCC/ARM_CM4F/port.c **** 
 120:../../kernel/FreeRTOS/Source/portable/GCC/ARM_CM4F/port.c **** /*
 121:../../kernel/FreeRTOS/Source/portable/GCC/ARM_CM4F/port.c ****  * Exception handlers.
 122:../../kernel/FreeRTOS/Source/portable/GCC/ARM_CM4F/port.c ****  */
 123:../../kernel/FreeRTOS/Source/portable/GCC/ARM_CM4F/port.c **** void xPortPendSVHandler( void ) __attribute__ (( naked ));
 124:../../kernel/FreeRTOS/Source/portable/GCC/ARM_CM4F/port.c **** void xPortSysTickHandler( void );
 125:../../kernel/FreeRTOS/Source/portable/GCC/ARM_CM4F/port.c **** void vPortSVCHandler( void ) __attribute__ (( naked ));
 126:../../kernel/FreeRTOS/Source/portable/GCC/ARM_CM4F/port.c **** 
 127:../../kernel/FreeRTOS/Source/portable/GCC/ARM_CM4F/port.c **** /*
 128:../../kernel/FreeRTOS/Source/portable/GCC/ARM_CM4F/port.c ****  * Start first task is a separate function so it can be tested in isolation.
 129:../../kernel/FreeRTOS/Source/portable/GCC/ARM_CM4F/port.c ****  */
 130:../../kernel/FreeRTOS/Source/portable/GCC/ARM_CM4F/port.c **** static void prvPortStartFirstTask( void ) __attribute__ (( naked ));
 131:../../kernel/FreeRTOS/Source/portable/GCC/ARM_CM4F/port.c **** 
 132:../../kernel/FreeRTOS/Source/portable/GCC/ARM_CM4F/port.c **** /*
 133:../../kernel/FreeRTOS/Source/portable/GCC/ARM_CM4F/port.c ****  * Function to enable the VFP.
 134:../../kernel/FreeRTOS/Source/portable/GCC/ARM_CM4F/port.c ****  */
 135:../../kernel/FreeRTOS/Source/portable/GCC/ARM_CM4F/port.c **** static void vPortEnableVFP( void ) __attribute__ (( naked ));
 136:../../kernel/FreeRTOS/Source/portable/GCC/ARM_CM4F/port.c **** 
 137:../../kernel/FreeRTOS/Source/portable/GCC/ARM_CM4F/port.c **** /*
 138:../../kernel/FreeRTOS/Source/portable/GCC/ARM_CM4F/port.c ****  * Used to catch tasks that attempt to return from their implementing function.
 139:../../kernel/FreeRTOS/Source/portable/GCC/ARM_CM4F/port.c ****  */
 140:../../kernel/FreeRTOS/Source/portable/GCC/ARM_CM4F/port.c **** static void prvTaskExitError( void );
 141:../../kernel/FreeRTOS/Source/portable/GCC/ARM_CM4F/port.c **** 
 142:../../kernel/FreeRTOS/Source/portable/GCC/ARM_CM4F/port.c **** /*-----------------------------------------------------------*/
 143:../../kernel/FreeRTOS/Source/portable/GCC/ARM_CM4F/port.c **** 
 144:../../kernel/FreeRTOS/Source/portable/GCC/ARM_CM4F/port.c **** /* Each task maintains its own interrupt status in the critical nesting
 145:../../kernel/FreeRTOS/Source/portable/GCC/ARM_CM4F/port.c **** variable. */
 146:../../kernel/FreeRTOS/Source/portable/GCC/ARM_CM4F/port.c **** static UBaseType_t uxCriticalNesting = 0xaaaaaaaa;
 147:../../kernel/FreeRTOS/Source/portable/GCC/ARM_CM4F/port.c **** 
 148:../../kernel/FreeRTOS/Source/portable/GCC/ARM_CM4F/port.c **** /*
 149:../../kernel/FreeRTOS/Source/portable/GCC/ARM_CM4F/port.c ****  * The number of SysTick increments that make up one tick period.
 150:../../kernel/FreeRTOS/Source/portable/GCC/ARM_CM4F/port.c ****  */
 151:../../kernel/FreeRTOS/Source/portable/GCC/ARM_CM4F/port.c **** #if( configUSE_TICKLESS_IDLE == 1 )
 152:../../kernel/FreeRTOS/Source/portable/GCC/ARM_CM4F/port.c **** 	static uint32_t ulTimerCountsForOneTick = 0;
 153:../../kernel/FreeRTOS/Source/portable/GCC/ARM_CM4F/port.c **** #endif /* configUSE_TICKLESS_IDLE */
 154:../../kernel/FreeRTOS/Source/portable/GCC/ARM_CM4F/port.c **** 
 155:../../kernel/FreeRTOS/Source/portable/GCC/ARM_CM4F/port.c **** /*
 156:../../kernel/FreeRTOS/Source/portable/GCC/ARM_CM4F/port.c ****  * The maximum number of tick periods that can be suppressed is limited by the
 157:../../kernel/FreeRTOS/Source/portable/GCC/ARM_CM4F/port.c ****  * 24 bit resolution of the SysTick timer.
 158:../../kernel/FreeRTOS/Source/portable/GCC/ARM_CM4F/port.c ****  */
 159:../../kernel/FreeRTOS/Source/portable/GCC/ARM_CM4F/port.c **** #if( configUSE_TICKLESS_IDLE == 1 )
 160:../../kernel/FreeRTOS/Source/portable/GCC/ARM_CM4F/port.c **** 	static uint32_t xMaximumPossibleSuppressedTicks = 0;
 161:../../kernel/FreeRTOS/Source/portable/GCC/ARM_CM4F/port.c **** #endif /* configUSE_TICKLESS_IDLE */
 162:../../kernel/FreeRTOS/Source/portable/GCC/ARM_CM4F/port.c **** 
 163:../../kernel/FreeRTOS/Source/portable/GCC/ARM_CM4F/port.c **** /*
 164:../../kernel/FreeRTOS/Source/portable/GCC/ARM_CM4F/port.c ****  * Compensate for the CPU cycles that pass while the SysTick is stopped (low
 165:../../kernel/FreeRTOS/Source/portable/GCC/ARM_CM4F/port.c ****  * power functionality only.
 166:../../kernel/FreeRTOS/Source/portable/GCC/ARM_CM4F/port.c ****  */
 167:../../kernel/FreeRTOS/Source/portable/GCC/ARM_CM4F/port.c **** #if( configUSE_TICKLESS_IDLE == 1 )
 168:../../kernel/FreeRTOS/Source/portable/GCC/ARM_CM4F/port.c **** 	static uint32_t ulStoppedTimerCompensation = 0;
 169:../../kernel/FreeRTOS/Source/portable/GCC/ARM_CM4F/port.c **** #endif /* configUSE_TICKLESS_IDLE */
 170:../../kernel/FreeRTOS/Source/portable/GCC/ARM_CM4F/port.c **** 
 171:../../kernel/FreeRTOS/Source/portable/GCC/ARM_CM4F/port.c **** /*
 172:../../kernel/FreeRTOS/Source/portable/GCC/ARM_CM4F/port.c ****  * Used by the portASSERT_IF_INTERRUPT_PRIORITY_INVALID() macro to ensure
 173:../../kernel/FreeRTOS/Source/portable/GCC/ARM_CM4F/port.c ****  * FreeRTOS API functions are not called from interrupts that have been assigned
 174:../../kernel/FreeRTOS/Source/portable/GCC/ARM_CM4F/port.c ****  * a priority above configMAX_SYSCALL_INTERRUPT_PRIORITY.
 175:../../kernel/FreeRTOS/Source/portable/GCC/ARM_CM4F/port.c ****  */
ARM GAS  /tmp/cc5qDK7o.s 			page 6


 176:../../kernel/FreeRTOS/Source/portable/GCC/ARM_CM4F/port.c **** #if( configASSERT_DEFINED == 1 )
 177:../../kernel/FreeRTOS/Source/portable/GCC/ARM_CM4F/port.c **** 	 static uint8_t ucMaxSysCallPriority = 0;
 178:../../kernel/FreeRTOS/Source/portable/GCC/ARM_CM4F/port.c **** 	 static uint32_t ulMaxPRIGROUPValue = 0;
 179:../../kernel/FreeRTOS/Source/portable/GCC/ARM_CM4F/port.c **** 	 static const volatile uint8_t * const pcInterruptPriorityRegisters = ( const volatile uint8_t * c
 180:../../kernel/FreeRTOS/Source/portable/GCC/ARM_CM4F/port.c **** #endif /* configASSERT_DEFINED */
 181:../../kernel/FreeRTOS/Source/portable/GCC/ARM_CM4F/port.c **** 
 182:../../kernel/FreeRTOS/Source/portable/GCC/ARM_CM4F/port.c **** /*-----------------------------------------------------------*/
 183:../../kernel/FreeRTOS/Source/portable/GCC/ARM_CM4F/port.c **** 
 184:../../kernel/FreeRTOS/Source/portable/GCC/ARM_CM4F/port.c **** /*
 185:../../kernel/FreeRTOS/Source/portable/GCC/ARM_CM4F/port.c ****  * See header file for description.
 186:../../kernel/FreeRTOS/Source/portable/GCC/ARM_CM4F/port.c ****  */
 187:../../kernel/FreeRTOS/Source/portable/GCC/ARM_CM4F/port.c **** StackType_t *pxPortInitialiseStack( StackType_t *pxTopOfStack, TaskFunction_t pxCode, void *pvParam
 188:../../kernel/FreeRTOS/Source/portable/GCC/ARM_CM4F/port.c **** {
 189:../../kernel/FreeRTOS/Source/portable/GCC/ARM_CM4F/port.c **** 	/* Simulate the stack frame as it would be created by a context switch
 190:../../kernel/FreeRTOS/Source/portable/GCC/ARM_CM4F/port.c **** 	interrupt. */
 191:../../kernel/FreeRTOS/Source/portable/GCC/ARM_CM4F/port.c **** 
 192:../../kernel/FreeRTOS/Source/portable/GCC/ARM_CM4F/port.c **** 	/* Offset added to account for the way the MCU uses the stack on entry/exit
 193:../../kernel/FreeRTOS/Source/portable/GCC/ARM_CM4F/port.c **** 	of interrupts, and to ensure alignment. */
 194:../../kernel/FreeRTOS/Source/portable/GCC/ARM_CM4F/port.c **** 	pxTopOfStack--;
 195:../../kernel/FreeRTOS/Source/portable/GCC/ARM_CM4F/port.c **** 
 196:../../kernel/FreeRTOS/Source/portable/GCC/ARM_CM4F/port.c **** 	*pxTopOfStack = portINITIAL_XPSR;	/* xPSR */
 197:../../kernel/FreeRTOS/Source/portable/GCC/ARM_CM4F/port.c **** 	pxTopOfStack--;
 198:../../kernel/FreeRTOS/Source/portable/GCC/ARM_CM4F/port.c **** 	*pxTopOfStack = ( ( StackType_t ) pxCode ) & portSTART_ADDRESS_MASK;	/* PC */
 199:../../kernel/FreeRTOS/Source/portable/GCC/ARM_CM4F/port.c **** 	pxTopOfStack--;
 200:../../kernel/FreeRTOS/Source/portable/GCC/ARM_CM4F/port.c **** 	*pxTopOfStack = ( StackType_t ) portTASK_RETURN_ADDRESS;	/* LR */
 201:../../kernel/FreeRTOS/Source/portable/GCC/ARM_CM4F/port.c **** 
 202:../../kernel/FreeRTOS/Source/portable/GCC/ARM_CM4F/port.c **** 	/* Save code space by skipping register initialisation. */
 203:../../kernel/FreeRTOS/Source/portable/GCC/ARM_CM4F/port.c **** 	pxTopOfStack -= 5;	/* R12, R3, R2 and R1. */
 204:../../kernel/FreeRTOS/Source/portable/GCC/ARM_CM4F/port.c **** 	*pxTopOfStack = ( StackType_t ) pvParameters;	/* R0 */
 205:../../kernel/FreeRTOS/Source/portable/GCC/ARM_CM4F/port.c **** 
 206:../../kernel/FreeRTOS/Source/portable/GCC/ARM_CM4F/port.c **** 	/* A save method is being used that requires each task to maintain its
 207:../../kernel/FreeRTOS/Source/portable/GCC/ARM_CM4F/port.c **** 	own exec return value. */
 208:../../kernel/FreeRTOS/Source/portable/GCC/ARM_CM4F/port.c **** 	pxTopOfStack--;
 209:../../kernel/FreeRTOS/Source/portable/GCC/ARM_CM4F/port.c **** 	*pxTopOfStack = portINITIAL_EXC_RETURN;
 210:../../kernel/FreeRTOS/Source/portable/GCC/ARM_CM4F/port.c **** 
 211:../../kernel/FreeRTOS/Source/portable/GCC/ARM_CM4F/port.c **** 	pxTopOfStack -= 8;	/* R11, R10, R9, R8, R7, R6, R5 and R4. */
 212:../../kernel/FreeRTOS/Source/portable/GCC/ARM_CM4F/port.c **** 
 213:../../kernel/FreeRTOS/Source/portable/GCC/ARM_CM4F/port.c **** 	return pxTopOfStack;
 214:../../kernel/FreeRTOS/Source/portable/GCC/ARM_CM4F/port.c **** }
 215:../../kernel/FreeRTOS/Source/portable/GCC/ARM_CM4F/port.c **** /*-----------------------------------------------------------*/
 216:../../kernel/FreeRTOS/Source/portable/GCC/ARM_CM4F/port.c **** 
 217:../../kernel/FreeRTOS/Source/portable/GCC/ARM_CM4F/port.c **** static void prvTaskExitError( void )
 218:../../kernel/FreeRTOS/Source/portable/GCC/ARM_CM4F/port.c **** {
 219:../../kernel/FreeRTOS/Source/portable/GCC/ARM_CM4F/port.c **** volatile uint32_t ulDummy = 0;
 220:../../kernel/FreeRTOS/Source/portable/GCC/ARM_CM4F/port.c **** 
 221:../../kernel/FreeRTOS/Source/portable/GCC/ARM_CM4F/port.c **** 	/* A function that implements a task must not exit or attempt to return to
 222:../../kernel/FreeRTOS/Source/portable/GCC/ARM_CM4F/port.c **** 	its caller as there is nothing to return to.  If a task wants to exit it
 223:../../kernel/FreeRTOS/Source/portable/GCC/ARM_CM4F/port.c **** 	should instead call vTaskDelete( NULL ).
 224:../../kernel/FreeRTOS/Source/portable/GCC/ARM_CM4F/port.c **** 
 225:../../kernel/FreeRTOS/Source/portable/GCC/ARM_CM4F/port.c **** 	Artificially force an assert() to be triggered if configASSERT() is
 226:../../kernel/FreeRTOS/Source/portable/GCC/ARM_CM4F/port.c **** 	defined, then stop here so application writers can catch the error. */
 227:../../kernel/FreeRTOS/Source/portable/GCC/ARM_CM4F/port.c **** 	configASSERT( uxCriticalNesting == ~0UL );
 228:../../kernel/FreeRTOS/Source/portable/GCC/ARM_CM4F/port.c **** 	portDISABLE_INTERRUPTS();
 229:../../kernel/FreeRTOS/Source/portable/GCC/ARM_CM4F/port.c **** 	while( ulDummy == 0 )
 230:../../kernel/FreeRTOS/Source/portable/GCC/ARM_CM4F/port.c **** 	{
 231:../../kernel/FreeRTOS/Source/portable/GCC/ARM_CM4F/port.c **** 		/* This file calls prvTaskExitError() after the scheduler has been
 232:../../kernel/FreeRTOS/Source/portable/GCC/ARM_CM4F/port.c **** 		started to remove a compiler warning about the function being defined
ARM GAS  /tmp/cc5qDK7o.s 			page 7


 233:../../kernel/FreeRTOS/Source/portable/GCC/ARM_CM4F/port.c **** 		but never called.  ulDummy is used purely to quieten other warnings
 234:../../kernel/FreeRTOS/Source/portable/GCC/ARM_CM4F/port.c **** 		about code appearing after this function is called - making ulDummy
 235:../../kernel/FreeRTOS/Source/portable/GCC/ARM_CM4F/port.c **** 		volatile makes the compiler think the function could return and
 236:../../kernel/FreeRTOS/Source/portable/GCC/ARM_CM4F/port.c **** 		therefore not output an 'unreachable code' warning for code that appears
 237:../../kernel/FreeRTOS/Source/portable/GCC/ARM_CM4F/port.c **** 		after it. */
 238:../../kernel/FreeRTOS/Source/portable/GCC/ARM_CM4F/port.c **** 	}
 239:../../kernel/FreeRTOS/Source/portable/GCC/ARM_CM4F/port.c **** }
 240:../../kernel/FreeRTOS/Source/portable/GCC/ARM_CM4F/port.c **** /*-----------------------------------------------------------*/
 241:../../kernel/FreeRTOS/Source/portable/GCC/ARM_CM4F/port.c **** 
 242:../../kernel/FreeRTOS/Source/portable/GCC/ARM_CM4F/port.c **** void vPortSVCHandler( void )
 243:../../kernel/FreeRTOS/Source/portable/GCC/ARM_CM4F/port.c **** {
 244:../../kernel/FreeRTOS/Source/portable/GCC/ARM_CM4F/port.c **** 	__asm volatile (
 245:../../kernel/FreeRTOS/Source/portable/GCC/ARM_CM4F/port.c **** 					"	ldr	r3, pxCurrentTCBConst2		\n" /* Restore the context. */
 246:../../kernel/FreeRTOS/Source/portable/GCC/ARM_CM4F/port.c **** 					"	ldr r1, [r3]					\n" /* Use pxCurrentTCBConst to get the pxCurrentTCB address. */
 247:../../kernel/FreeRTOS/Source/portable/GCC/ARM_CM4F/port.c **** 					"	ldr r0, [r1]					\n" /* The first item in pxCurrentTCB is the task top of stack. */
 248:../../kernel/FreeRTOS/Source/portable/GCC/ARM_CM4F/port.c **** 					"	ldmia r0!, {r4-r11, r14}		\n" /* Pop the registers that are not automatically saved on excep
 249:../../kernel/FreeRTOS/Source/portable/GCC/ARM_CM4F/port.c **** 					"	msr psp, r0						\n" /* Restore the task stack pointer. */
 250:../../kernel/FreeRTOS/Source/portable/GCC/ARM_CM4F/port.c **** 					"	isb								\n"
 251:../../kernel/FreeRTOS/Source/portable/GCC/ARM_CM4F/port.c **** 					"	mov r0, #0 						\n"
 252:../../kernel/FreeRTOS/Source/portable/GCC/ARM_CM4F/port.c **** 					"	msr	basepri, r0					\n"
 253:../../kernel/FreeRTOS/Source/portable/GCC/ARM_CM4F/port.c **** 					"	bx r14							\n"
 254:../../kernel/FreeRTOS/Source/portable/GCC/ARM_CM4F/port.c **** 					"									\n"
 255:../../kernel/FreeRTOS/Source/portable/GCC/ARM_CM4F/port.c **** 					"	.align 4						\n"
 256:../../kernel/FreeRTOS/Source/portable/GCC/ARM_CM4F/port.c **** 					"pxCurrentTCBConst2: .word pxCurrentTCB				\n"
 257:../../kernel/FreeRTOS/Source/portable/GCC/ARM_CM4F/port.c **** 				);
 258:../../kernel/FreeRTOS/Source/portable/GCC/ARM_CM4F/port.c **** }
 259:../../kernel/FreeRTOS/Source/portable/GCC/ARM_CM4F/port.c **** /*-----------------------------------------------------------*/
 260:../../kernel/FreeRTOS/Source/portable/GCC/ARM_CM4F/port.c **** 
 261:../../kernel/FreeRTOS/Source/portable/GCC/ARM_CM4F/port.c **** static void prvPortStartFirstTask( void )
 262:../../kernel/FreeRTOS/Source/portable/GCC/ARM_CM4F/port.c **** {
 111              		.loc 1 262 1 view -0
 112              		.cfi_startproc
 113              		@ Naked Function: prologue and epilogue provided by programmer.
 114              		@ args = 0, pretend = 0, frame = 0
 115              		@ frame_needed = 0, uses_anonymous_args = 0
 263:../../kernel/FreeRTOS/Source/portable/GCC/ARM_CM4F/port.c **** 	/* Start the first task.  This also clears the bit that indicates the FPU is
 264:../../kernel/FreeRTOS/Source/portable/GCC/ARM_CM4F/port.c **** 	in use in case the FPU was used before the scheduler was started - which
 265:../../kernel/FreeRTOS/Source/portable/GCC/ARM_CM4F/port.c **** 	would otherwise result in the unnecessary leaving of space in the SVC stack
 266:../../kernel/FreeRTOS/Source/portable/GCC/ARM_CM4F/port.c **** 	for lazy saving of FPU registers. */
 267:../../kernel/FreeRTOS/Source/portable/GCC/ARM_CM4F/port.c **** 	__asm volatile(
 116              		.loc 1 267 2 view .LVU1
 117              		.syntax unified
 118              	@ 267 "../../kernel/FreeRTOS/Source/portable/GCC/ARM_CM4F/port.c" 1
 119 0000 0848     		 ldr r0, =0xE000ED08 	
 120 0002 0068     	 ldr r0, [r0] 			
 121 0004 0068     	 ldr r0, [r0] 			
 122 0006 80F30888 	 msr msp, r0			
 123 000a 4FF00000 	 mov r0, #0			
 124 000e 80F31488 	 msr control, r0		
 125 0012 62B6     	 cpsie i				
 126 0014 61B6     	 cpsie f				
 127 0016 BFF34F8F 	 dsb					
 128 001a BFF36F8F 	 isb					
 129 001e 00DF     	 svc 0					
 130 0020 00BF     	 nop					
 131              	
 132              	@ 0 "" 2
ARM GAS  /tmp/cc5qDK7o.s 			page 8


 133              	@ ../../kernel/FreeRTOS/Source/portable/GCC/ARM_CM4F/port.c:281: }
 268:../../kernel/FreeRTOS/Source/portable/GCC/ARM_CM4F/port.c **** 					" ldr r0, =0xE000ED08 	\n" /* Use the NVIC offset register to locate the stack. */
 269:../../kernel/FreeRTOS/Source/portable/GCC/ARM_CM4F/port.c **** 					" ldr r0, [r0] 			\n"
 270:../../kernel/FreeRTOS/Source/portable/GCC/ARM_CM4F/port.c **** 					" ldr r0, [r0] 			\n"
 271:../../kernel/FreeRTOS/Source/portable/GCC/ARM_CM4F/port.c **** 					" msr msp, r0			\n" /* Set the msp back to the start of the stack. */
 272:../../kernel/FreeRTOS/Source/portable/GCC/ARM_CM4F/port.c **** 					" mov r0, #0			\n" /* Clear the bit that indicates the FPU is in use, see comment above. */
 273:../../kernel/FreeRTOS/Source/portable/GCC/ARM_CM4F/port.c **** 					" msr control, r0		\n"
 274:../../kernel/FreeRTOS/Source/portable/GCC/ARM_CM4F/port.c **** 					" cpsie i				\n" /* Globally enable interrupts. */
 275:../../kernel/FreeRTOS/Source/portable/GCC/ARM_CM4F/port.c **** 					" cpsie f				\n"
 276:../../kernel/FreeRTOS/Source/portable/GCC/ARM_CM4F/port.c **** 					" dsb					\n"
 277:../../kernel/FreeRTOS/Source/portable/GCC/ARM_CM4F/port.c **** 					" isb					\n"
 278:../../kernel/FreeRTOS/Source/portable/GCC/ARM_CM4F/port.c **** 					" svc 0					\n" /* System call to start first task. */
 279:../../kernel/FreeRTOS/Source/portable/GCC/ARM_CM4F/port.c **** 					" nop					\n"
 280:../../kernel/FreeRTOS/Source/portable/GCC/ARM_CM4F/port.c **** 				);
 281:../../kernel/FreeRTOS/Source/portable/GCC/ARM_CM4F/port.c **** }
 134              		.loc 1 281 1 is_stmt 0 view .LVU2
 135              		.thumb
 136              		.syntax unified
 137              		.cfi_endproc
 138              	.LFE7:
 139              		.size	prvPortStartFirstTask, .-prvPortStartFirstTask
 140 0022 0000     		.section	.text.vPortEnableVFP,"ax",%progbits
 141              		.align	1
 142              		.p2align 2,,3
 143              		.syntax unified
 144              		.thumb
 145              		.thumb_func
 146              		.fpu fpv4-sp-d16
 147              		.type	vPortEnableVFP, %function
 148              	vPortEnableVFP:
 149              	.LFB16:
 282:../../kernel/FreeRTOS/Source/portable/GCC/ARM_CM4F/port.c **** /*-----------------------------------------------------------*/
 283:../../kernel/FreeRTOS/Source/portable/GCC/ARM_CM4F/port.c **** 
 284:../../kernel/FreeRTOS/Source/portable/GCC/ARM_CM4F/port.c **** /*
 285:../../kernel/FreeRTOS/Source/portable/GCC/ARM_CM4F/port.c ****  * See header file for description.
 286:../../kernel/FreeRTOS/Source/portable/GCC/ARM_CM4F/port.c ****  */
 287:../../kernel/FreeRTOS/Source/portable/GCC/ARM_CM4F/port.c **** BaseType_t xPortStartScheduler( void )
 288:../../kernel/FreeRTOS/Source/portable/GCC/ARM_CM4F/port.c **** {
 289:../../kernel/FreeRTOS/Source/portable/GCC/ARM_CM4F/port.c **** 	/* configMAX_SYSCALL_INTERRUPT_PRIORITY must not be set to 0.
 290:../../kernel/FreeRTOS/Source/portable/GCC/ARM_CM4F/port.c **** 	See http://www.FreeRTOS.org/RTOS-Cortex-M3-M4.html */
 291:../../kernel/FreeRTOS/Source/portable/GCC/ARM_CM4F/port.c **** 	configASSERT( configMAX_SYSCALL_INTERRUPT_PRIORITY );
 292:../../kernel/FreeRTOS/Source/portable/GCC/ARM_CM4F/port.c **** 
 293:../../kernel/FreeRTOS/Source/portable/GCC/ARM_CM4F/port.c **** 	/* This port can be used on all revisions of the Cortex-M7 core other than
 294:../../kernel/FreeRTOS/Source/portable/GCC/ARM_CM4F/port.c **** 	the r0p1 parts.  r0p1 parts should use the port from the
 295:../../kernel/FreeRTOS/Source/portable/GCC/ARM_CM4F/port.c **** 	/source/portable/GCC/ARM_CM7/r0p1 directory. */
 296:../../kernel/FreeRTOS/Source/portable/GCC/ARM_CM4F/port.c **** 	configASSERT( portCPUID != portCORTEX_M7_r0p1_ID );
 297:../../kernel/FreeRTOS/Source/portable/GCC/ARM_CM4F/port.c **** 	configASSERT( portCPUID != portCORTEX_M7_r0p0_ID );
 298:../../kernel/FreeRTOS/Source/portable/GCC/ARM_CM4F/port.c **** 
 299:../../kernel/FreeRTOS/Source/portable/GCC/ARM_CM4F/port.c **** 	#if( configASSERT_DEFINED == 1 )
 300:../../kernel/FreeRTOS/Source/portable/GCC/ARM_CM4F/port.c **** 	{
 301:../../kernel/FreeRTOS/Source/portable/GCC/ARM_CM4F/port.c **** 		volatile uint32_t ulOriginalPriority;
 302:../../kernel/FreeRTOS/Source/portable/GCC/ARM_CM4F/port.c **** 		volatile uint8_t * const pucFirstUserPriorityRegister = ( volatile uint8_t * const ) ( portNVIC_I
 303:../../kernel/FreeRTOS/Source/portable/GCC/ARM_CM4F/port.c **** 		volatile uint8_t ucMaxPriorityValue;
 304:../../kernel/FreeRTOS/Source/portable/GCC/ARM_CM4F/port.c **** 
 305:../../kernel/FreeRTOS/Source/portable/GCC/ARM_CM4F/port.c **** 		/* Determine the maximum priority from which ISR safe FreeRTOS API
 306:../../kernel/FreeRTOS/Source/portable/GCC/ARM_CM4F/port.c **** 		functions can be called.  ISR safe functions are those that end in
 307:../../kernel/FreeRTOS/Source/portable/GCC/ARM_CM4F/port.c **** 		"FromISR".  FreeRTOS maintains separate thread and ISR API functions to
ARM GAS  /tmp/cc5qDK7o.s 			page 9


 308:../../kernel/FreeRTOS/Source/portable/GCC/ARM_CM4F/port.c **** 		ensure interrupt entry is as fast and simple as possible.
 309:../../kernel/FreeRTOS/Source/portable/GCC/ARM_CM4F/port.c **** 
 310:../../kernel/FreeRTOS/Source/portable/GCC/ARM_CM4F/port.c **** 		Save the interrupt priority value that is about to be clobbered. */
 311:../../kernel/FreeRTOS/Source/portable/GCC/ARM_CM4F/port.c **** 		ulOriginalPriority = *pucFirstUserPriorityRegister;
 312:../../kernel/FreeRTOS/Source/portable/GCC/ARM_CM4F/port.c **** 
 313:../../kernel/FreeRTOS/Source/portable/GCC/ARM_CM4F/port.c **** 		/* Determine the number of priority bits available.  First write to all
 314:../../kernel/FreeRTOS/Source/portable/GCC/ARM_CM4F/port.c **** 		possible bits. */
 315:../../kernel/FreeRTOS/Source/portable/GCC/ARM_CM4F/port.c **** 		*pucFirstUserPriorityRegister = portMAX_8_BIT_VALUE;
 316:../../kernel/FreeRTOS/Source/portable/GCC/ARM_CM4F/port.c **** 
 317:../../kernel/FreeRTOS/Source/portable/GCC/ARM_CM4F/port.c **** 		/* Read the value back to see how many bits stuck. */
 318:../../kernel/FreeRTOS/Source/portable/GCC/ARM_CM4F/port.c **** 		ucMaxPriorityValue = *pucFirstUserPriorityRegister;
 319:../../kernel/FreeRTOS/Source/portable/GCC/ARM_CM4F/port.c **** 
 320:../../kernel/FreeRTOS/Source/portable/GCC/ARM_CM4F/port.c **** 		/* Use the same mask on the maximum system call priority. */
 321:../../kernel/FreeRTOS/Source/portable/GCC/ARM_CM4F/port.c **** 		ucMaxSysCallPriority = configMAX_SYSCALL_INTERRUPT_PRIORITY & ucMaxPriorityValue;
 322:../../kernel/FreeRTOS/Source/portable/GCC/ARM_CM4F/port.c **** 
 323:../../kernel/FreeRTOS/Source/portable/GCC/ARM_CM4F/port.c **** 		/* Calculate the maximum acceptable priority group value for the number
 324:../../kernel/FreeRTOS/Source/portable/GCC/ARM_CM4F/port.c **** 		of bits read back. */
 325:../../kernel/FreeRTOS/Source/portable/GCC/ARM_CM4F/port.c **** 		ulMaxPRIGROUPValue = portMAX_PRIGROUP_BITS;
 326:../../kernel/FreeRTOS/Source/portable/GCC/ARM_CM4F/port.c **** 		while( ( ucMaxPriorityValue & portTOP_BIT_OF_BYTE ) == portTOP_BIT_OF_BYTE )
 327:../../kernel/FreeRTOS/Source/portable/GCC/ARM_CM4F/port.c **** 		{
 328:../../kernel/FreeRTOS/Source/portable/GCC/ARM_CM4F/port.c **** 			ulMaxPRIGROUPValue--;
 329:../../kernel/FreeRTOS/Source/portable/GCC/ARM_CM4F/port.c **** 			ucMaxPriorityValue <<= ( uint8_t ) 0x01;
 330:../../kernel/FreeRTOS/Source/portable/GCC/ARM_CM4F/port.c **** 		}
 331:../../kernel/FreeRTOS/Source/portable/GCC/ARM_CM4F/port.c **** 
 332:../../kernel/FreeRTOS/Source/portable/GCC/ARM_CM4F/port.c **** 		#ifdef __NVIC_PRIO_BITS
 333:../../kernel/FreeRTOS/Source/portable/GCC/ARM_CM4F/port.c **** 		{
 334:../../kernel/FreeRTOS/Source/portable/GCC/ARM_CM4F/port.c **** 			/* Check the CMSIS configuration that defines the number of
 335:../../kernel/FreeRTOS/Source/portable/GCC/ARM_CM4F/port.c **** 			priority bits matches the number of priority bits actually queried
 336:../../kernel/FreeRTOS/Source/portable/GCC/ARM_CM4F/port.c **** 			from the hardware. */
 337:../../kernel/FreeRTOS/Source/portable/GCC/ARM_CM4F/port.c **** 			configASSERT( ( portMAX_PRIGROUP_BITS - ulMaxPRIGROUPValue ) == __NVIC_PRIO_BITS );
 338:../../kernel/FreeRTOS/Source/portable/GCC/ARM_CM4F/port.c **** 		}
 339:../../kernel/FreeRTOS/Source/portable/GCC/ARM_CM4F/port.c **** 		#endif
 340:../../kernel/FreeRTOS/Source/portable/GCC/ARM_CM4F/port.c **** 
 341:../../kernel/FreeRTOS/Source/portable/GCC/ARM_CM4F/port.c **** 		#ifdef configPRIO_BITS
 342:../../kernel/FreeRTOS/Source/portable/GCC/ARM_CM4F/port.c **** 		{
 343:../../kernel/FreeRTOS/Source/portable/GCC/ARM_CM4F/port.c **** 			/* Check the FreeRTOS configuration that defines the number of
 344:../../kernel/FreeRTOS/Source/portable/GCC/ARM_CM4F/port.c **** 			priority bits matches the number of priority bits actually queried
 345:../../kernel/FreeRTOS/Source/portable/GCC/ARM_CM4F/port.c **** 			from the hardware. */
 346:../../kernel/FreeRTOS/Source/portable/GCC/ARM_CM4F/port.c **** 			configASSERT( ( portMAX_PRIGROUP_BITS - ulMaxPRIGROUPValue ) == configPRIO_BITS );
 347:../../kernel/FreeRTOS/Source/portable/GCC/ARM_CM4F/port.c **** 		}
 348:../../kernel/FreeRTOS/Source/portable/GCC/ARM_CM4F/port.c **** 		#endif
 349:../../kernel/FreeRTOS/Source/portable/GCC/ARM_CM4F/port.c **** 
 350:../../kernel/FreeRTOS/Source/portable/GCC/ARM_CM4F/port.c **** 		/* Shift the priority group value back to its position within the AIRCR
 351:../../kernel/FreeRTOS/Source/portable/GCC/ARM_CM4F/port.c **** 		register. */
 352:../../kernel/FreeRTOS/Source/portable/GCC/ARM_CM4F/port.c **** 		ulMaxPRIGROUPValue <<= portPRIGROUP_SHIFT;
 353:../../kernel/FreeRTOS/Source/portable/GCC/ARM_CM4F/port.c **** 		ulMaxPRIGROUPValue &= portPRIORITY_GROUP_MASK;
 354:../../kernel/FreeRTOS/Source/portable/GCC/ARM_CM4F/port.c **** 
 355:../../kernel/FreeRTOS/Source/portable/GCC/ARM_CM4F/port.c **** 		/* Restore the clobbered interrupt priority register to its original
 356:../../kernel/FreeRTOS/Source/portable/GCC/ARM_CM4F/port.c **** 		value. */
 357:../../kernel/FreeRTOS/Source/portable/GCC/ARM_CM4F/port.c **** 		*pucFirstUserPriorityRegister = ulOriginalPriority;
 358:../../kernel/FreeRTOS/Source/portable/GCC/ARM_CM4F/port.c **** 	}
 359:../../kernel/FreeRTOS/Source/portable/GCC/ARM_CM4F/port.c **** 	#endif /* conifgASSERT_DEFINED */
 360:../../kernel/FreeRTOS/Source/portable/GCC/ARM_CM4F/port.c **** 
 361:../../kernel/FreeRTOS/Source/portable/GCC/ARM_CM4F/port.c **** 	/* Make PendSV and SysTick the lowest priority interrupts. */
 362:../../kernel/FreeRTOS/Source/portable/GCC/ARM_CM4F/port.c **** 	portNVIC_SYSPRI2_REG |= portNVIC_PENDSV_PRI;
 363:../../kernel/FreeRTOS/Source/portable/GCC/ARM_CM4F/port.c **** 	portNVIC_SYSPRI2_REG |= portNVIC_SYSTICK_PRI;
 364:../../kernel/FreeRTOS/Source/portable/GCC/ARM_CM4F/port.c **** 
ARM GAS  /tmp/cc5qDK7o.s 			page 10


 365:../../kernel/FreeRTOS/Source/portable/GCC/ARM_CM4F/port.c **** 	/* Start the timer that generates the tick ISR.  Interrupts are disabled
 366:../../kernel/FreeRTOS/Source/portable/GCC/ARM_CM4F/port.c **** 	here already. */
 367:../../kernel/FreeRTOS/Source/portable/GCC/ARM_CM4F/port.c **** 	vPortSetupTimerInterrupt();
 368:../../kernel/FreeRTOS/Source/portable/GCC/ARM_CM4F/port.c **** 
 369:../../kernel/FreeRTOS/Source/portable/GCC/ARM_CM4F/port.c **** 	/* Initialise the critical nesting count ready for the first task. */
 370:../../kernel/FreeRTOS/Source/portable/GCC/ARM_CM4F/port.c **** 	uxCriticalNesting = 0;
 371:../../kernel/FreeRTOS/Source/portable/GCC/ARM_CM4F/port.c **** 
 372:../../kernel/FreeRTOS/Source/portable/GCC/ARM_CM4F/port.c **** 	/* Ensure the VFP is enabled - it should be anyway. */
 373:../../kernel/FreeRTOS/Source/portable/GCC/ARM_CM4F/port.c **** 	vPortEnableVFP();
 374:../../kernel/FreeRTOS/Source/portable/GCC/ARM_CM4F/port.c **** 
 375:../../kernel/FreeRTOS/Source/portable/GCC/ARM_CM4F/port.c **** 	/* Lazy save always. */
 376:../../kernel/FreeRTOS/Source/portable/GCC/ARM_CM4F/port.c **** 	*( portFPCCR ) |= portASPEN_AND_LSPEN_BITS;
 377:../../kernel/FreeRTOS/Source/portable/GCC/ARM_CM4F/port.c **** 
 378:../../kernel/FreeRTOS/Source/portable/GCC/ARM_CM4F/port.c **** 	/* Start the first task. */
 379:../../kernel/FreeRTOS/Source/portable/GCC/ARM_CM4F/port.c **** 	prvPortStartFirstTask();
 380:../../kernel/FreeRTOS/Source/portable/GCC/ARM_CM4F/port.c **** 
 381:../../kernel/FreeRTOS/Source/portable/GCC/ARM_CM4F/port.c **** 	/* Should never get here as the tasks will now be executing!  Call the task
 382:../../kernel/FreeRTOS/Source/portable/GCC/ARM_CM4F/port.c **** 	exit error function to prevent compiler warnings about a static function
 383:../../kernel/FreeRTOS/Source/portable/GCC/ARM_CM4F/port.c **** 	not being called in the case that the application writer overrides this
 384:../../kernel/FreeRTOS/Source/portable/GCC/ARM_CM4F/port.c **** 	functionality by defining configTASK_RETURN_ADDRESS.  Call
 385:../../kernel/FreeRTOS/Source/portable/GCC/ARM_CM4F/port.c **** 	vTaskSwitchContext() so link time optimisation does not remove the
 386:../../kernel/FreeRTOS/Source/portable/GCC/ARM_CM4F/port.c **** 	symbol. */
 387:../../kernel/FreeRTOS/Source/portable/GCC/ARM_CM4F/port.c **** 	vTaskSwitchContext();
 388:../../kernel/FreeRTOS/Source/portable/GCC/ARM_CM4F/port.c **** 	prvTaskExitError();
 389:../../kernel/FreeRTOS/Source/portable/GCC/ARM_CM4F/port.c **** 
 390:../../kernel/FreeRTOS/Source/portable/GCC/ARM_CM4F/port.c **** 	/* Should not get here! */
 391:../../kernel/FreeRTOS/Source/portable/GCC/ARM_CM4F/port.c **** 	return 0;
 392:../../kernel/FreeRTOS/Source/portable/GCC/ARM_CM4F/port.c **** }
 393:../../kernel/FreeRTOS/Source/portable/GCC/ARM_CM4F/port.c **** /*-----------------------------------------------------------*/
 394:../../kernel/FreeRTOS/Source/portable/GCC/ARM_CM4F/port.c **** 
 395:../../kernel/FreeRTOS/Source/portable/GCC/ARM_CM4F/port.c **** void vPortEndScheduler( void )
 396:../../kernel/FreeRTOS/Source/portable/GCC/ARM_CM4F/port.c **** {
 397:../../kernel/FreeRTOS/Source/portable/GCC/ARM_CM4F/port.c **** 	/* Not implemented in ports where there is nothing to return to.
 398:../../kernel/FreeRTOS/Source/portable/GCC/ARM_CM4F/port.c **** 	Artificially force an assert. */
 399:../../kernel/FreeRTOS/Source/portable/GCC/ARM_CM4F/port.c **** 	configASSERT( uxCriticalNesting == 1000UL );
 400:../../kernel/FreeRTOS/Source/portable/GCC/ARM_CM4F/port.c **** }
 401:../../kernel/FreeRTOS/Source/portable/GCC/ARM_CM4F/port.c **** /*-----------------------------------------------------------*/
 402:../../kernel/FreeRTOS/Source/portable/GCC/ARM_CM4F/port.c **** 
 403:../../kernel/FreeRTOS/Source/portable/GCC/ARM_CM4F/port.c **** void vPortEnterCritical( void )
 404:../../kernel/FreeRTOS/Source/portable/GCC/ARM_CM4F/port.c **** {
 405:../../kernel/FreeRTOS/Source/portable/GCC/ARM_CM4F/port.c **** 	portDISABLE_INTERRUPTS();
 406:../../kernel/FreeRTOS/Source/portable/GCC/ARM_CM4F/port.c **** 	uxCriticalNesting++;
 407:../../kernel/FreeRTOS/Source/portable/GCC/ARM_CM4F/port.c **** 
 408:../../kernel/FreeRTOS/Source/portable/GCC/ARM_CM4F/port.c **** 	/* This is not the interrupt safe version of the enter critical function so
 409:../../kernel/FreeRTOS/Source/portable/GCC/ARM_CM4F/port.c **** 	assert() if it is being called from an interrupt context.  Only API
 410:../../kernel/FreeRTOS/Source/portable/GCC/ARM_CM4F/port.c **** 	functions that end in "FromISR" can be used in an interrupt.  Only assert if
 411:../../kernel/FreeRTOS/Source/portable/GCC/ARM_CM4F/port.c **** 	the critical nesting count is 1 to protect against recursive calls if the
 412:../../kernel/FreeRTOS/Source/portable/GCC/ARM_CM4F/port.c **** 	assert function also uses a critical section. */
 413:../../kernel/FreeRTOS/Source/portable/GCC/ARM_CM4F/port.c **** 	if( uxCriticalNesting == 1 )
 414:../../kernel/FreeRTOS/Source/portable/GCC/ARM_CM4F/port.c **** 	{
 415:../../kernel/FreeRTOS/Source/portable/GCC/ARM_CM4F/port.c **** 		configASSERT( ( portNVIC_INT_CTRL_REG & portVECTACTIVE_MASK ) == 0 );
 416:../../kernel/FreeRTOS/Source/portable/GCC/ARM_CM4F/port.c **** 	}
 417:../../kernel/FreeRTOS/Source/portable/GCC/ARM_CM4F/port.c **** }
 418:../../kernel/FreeRTOS/Source/portable/GCC/ARM_CM4F/port.c **** /*-----------------------------------------------------------*/
 419:../../kernel/FreeRTOS/Source/portable/GCC/ARM_CM4F/port.c **** 
 420:../../kernel/FreeRTOS/Source/portable/GCC/ARM_CM4F/port.c **** void vPortExitCritical( void )
 421:../../kernel/FreeRTOS/Source/portable/GCC/ARM_CM4F/port.c **** {
ARM GAS  /tmp/cc5qDK7o.s 			page 11


 422:../../kernel/FreeRTOS/Source/portable/GCC/ARM_CM4F/port.c **** 	configASSERT( uxCriticalNesting );
 423:../../kernel/FreeRTOS/Source/portable/GCC/ARM_CM4F/port.c **** 	uxCriticalNesting--;
 424:../../kernel/FreeRTOS/Source/portable/GCC/ARM_CM4F/port.c **** 	if( uxCriticalNesting == 0 )
 425:../../kernel/FreeRTOS/Source/portable/GCC/ARM_CM4F/port.c **** 	{
 426:../../kernel/FreeRTOS/Source/portable/GCC/ARM_CM4F/port.c **** 		portENABLE_INTERRUPTS();
 427:../../kernel/FreeRTOS/Source/portable/GCC/ARM_CM4F/port.c **** 	}
 428:../../kernel/FreeRTOS/Source/portable/GCC/ARM_CM4F/port.c **** }
 429:../../kernel/FreeRTOS/Source/portable/GCC/ARM_CM4F/port.c **** /*-----------------------------------------------------------*/
 430:../../kernel/FreeRTOS/Source/portable/GCC/ARM_CM4F/port.c **** 
 431:../../kernel/FreeRTOS/Source/portable/GCC/ARM_CM4F/port.c **** void xPortPendSVHandler( void )
 432:../../kernel/FreeRTOS/Source/portable/GCC/ARM_CM4F/port.c **** {
 433:../../kernel/FreeRTOS/Source/portable/GCC/ARM_CM4F/port.c **** 	/* This is a naked function. */
 434:../../kernel/FreeRTOS/Source/portable/GCC/ARM_CM4F/port.c **** 
 435:../../kernel/FreeRTOS/Source/portable/GCC/ARM_CM4F/port.c **** 	__asm volatile
 436:../../kernel/FreeRTOS/Source/portable/GCC/ARM_CM4F/port.c **** 	(
 437:../../kernel/FreeRTOS/Source/portable/GCC/ARM_CM4F/port.c **** 	"	mrs r0, psp							\n"
 438:../../kernel/FreeRTOS/Source/portable/GCC/ARM_CM4F/port.c **** 	"	isb									\n"
 439:../../kernel/FreeRTOS/Source/portable/GCC/ARM_CM4F/port.c **** 	"										\n"
 440:../../kernel/FreeRTOS/Source/portable/GCC/ARM_CM4F/port.c **** 	"	ldr	r3, pxCurrentTCBConst			\n" /* Get the location of the current TCB. */
 441:../../kernel/FreeRTOS/Source/portable/GCC/ARM_CM4F/port.c **** 	"	ldr	r2, [r3]						\n"
 442:../../kernel/FreeRTOS/Source/portable/GCC/ARM_CM4F/port.c **** 	"										\n"
 443:../../kernel/FreeRTOS/Source/portable/GCC/ARM_CM4F/port.c **** 	"	tst r14, #0x10						\n" /* Is the task using the FPU context?  If so, push high vfp registers. *
 444:../../kernel/FreeRTOS/Source/portable/GCC/ARM_CM4F/port.c **** 	"	it eq								\n"
 445:../../kernel/FreeRTOS/Source/portable/GCC/ARM_CM4F/port.c **** 	"	vstmdbeq r0!, {s16-s31}				\n"
 446:../../kernel/FreeRTOS/Source/portable/GCC/ARM_CM4F/port.c **** 	"										\n"
 447:../../kernel/FreeRTOS/Source/portable/GCC/ARM_CM4F/port.c **** 	"	stmdb r0!, {r4-r11, r14}			\n" /* Save the core registers. */
 448:../../kernel/FreeRTOS/Source/portable/GCC/ARM_CM4F/port.c **** 	"	str r0, [r2]						\n" /* Save the new top of stack into the first member of the TCB. */
 449:../../kernel/FreeRTOS/Source/portable/GCC/ARM_CM4F/port.c **** 	"										\n"
 450:../../kernel/FreeRTOS/Source/portable/GCC/ARM_CM4F/port.c **** 	"	stmdb sp!, {r0, r3}					\n"
 451:../../kernel/FreeRTOS/Source/portable/GCC/ARM_CM4F/port.c **** 	"	mov r0, %0 							\n"
 452:../../kernel/FreeRTOS/Source/portable/GCC/ARM_CM4F/port.c **** 	"	msr basepri, r0						\n"
 453:../../kernel/FreeRTOS/Source/portable/GCC/ARM_CM4F/port.c **** 	"	dsb									\n"
 454:../../kernel/FreeRTOS/Source/portable/GCC/ARM_CM4F/port.c **** 	"	isb									\n"
 455:../../kernel/FreeRTOS/Source/portable/GCC/ARM_CM4F/port.c **** 	"	bl vTaskSwitchContext				\n"
 456:../../kernel/FreeRTOS/Source/portable/GCC/ARM_CM4F/port.c **** 	"	mov r0, #0							\n"
 457:../../kernel/FreeRTOS/Source/portable/GCC/ARM_CM4F/port.c **** 	"	msr basepri, r0						\n"
 458:../../kernel/FreeRTOS/Source/portable/GCC/ARM_CM4F/port.c **** 	"	ldmia sp!, {r0, r3}					\n"
 459:../../kernel/FreeRTOS/Source/portable/GCC/ARM_CM4F/port.c **** 	"										\n"
 460:../../kernel/FreeRTOS/Source/portable/GCC/ARM_CM4F/port.c **** 	"	ldr r1, [r3]						\n" /* The first item in pxCurrentTCB is the task top of stack. */
 461:../../kernel/FreeRTOS/Source/portable/GCC/ARM_CM4F/port.c **** 	"	ldr r0, [r1]						\n"
 462:../../kernel/FreeRTOS/Source/portable/GCC/ARM_CM4F/port.c **** 	"										\n"
 463:../../kernel/FreeRTOS/Source/portable/GCC/ARM_CM4F/port.c **** 	"	ldmia r0!, {r4-r11, r14}			\n" /* Pop the core registers. */
 464:../../kernel/FreeRTOS/Source/portable/GCC/ARM_CM4F/port.c **** 	"										\n"
 465:../../kernel/FreeRTOS/Source/portable/GCC/ARM_CM4F/port.c **** 	"	tst r14, #0x10						\n" /* Is the task using the FPU context?  If so, pop the high vfp registers
 466:../../kernel/FreeRTOS/Source/portable/GCC/ARM_CM4F/port.c **** 	"	it eq								\n"
 467:../../kernel/FreeRTOS/Source/portable/GCC/ARM_CM4F/port.c **** 	"	vldmiaeq r0!, {s16-s31}				\n"
 468:../../kernel/FreeRTOS/Source/portable/GCC/ARM_CM4F/port.c **** 	"										\n"
 469:../../kernel/FreeRTOS/Source/portable/GCC/ARM_CM4F/port.c **** 	"	msr psp, r0							\n"
 470:../../kernel/FreeRTOS/Source/portable/GCC/ARM_CM4F/port.c **** 	"	isb									\n"
 471:../../kernel/FreeRTOS/Source/portable/GCC/ARM_CM4F/port.c **** 	"										\n"
 472:../../kernel/FreeRTOS/Source/portable/GCC/ARM_CM4F/port.c **** 	#ifdef WORKAROUND_PMU_CM001 /* XMC4000 specific errata workaround. */
 473:../../kernel/FreeRTOS/Source/portable/GCC/ARM_CM4F/port.c **** 		#if WORKAROUND_PMU_CM001 == 1
 474:../../kernel/FreeRTOS/Source/portable/GCC/ARM_CM4F/port.c **** 	"			push { r14 }				\n"
 475:../../kernel/FreeRTOS/Source/portable/GCC/ARM_CM4F/port.c **** 	"			pop { pc }					\n"
 476:../../kernel/FreeRTOS/Source/portable/GCC/ARM_CM4F/port.c **** 		#endif
 477:../../kernel/FreeRTOS/Source/portable/GCC/ARM_CM4F/port.c **** 	#endif
 478:../../kernel/FreeRTOS/Source/portable/GCC/ARM_CM4F/port.c **** 	"										\n"
ARM GAS  /tmp/cc5qDK7o.s 			page 12


 479:../../kernel/FreeRTOS/Source/portable/GCC/ARM_CM4F/port.c **** 	"	bx r14								\n"
 480:../../kernel/FreeRTOS/Source/portable/GCC/ARM_CM4F/port.c **** 	"										\n"
 481:../../kernel/FreeRTOS/Source/portable/GCC/ARM_CM4F/port.c **** 	"	.align 4							\n"
 482:../../kernel/FreeRTOS/Source/portable/GCC/ARM_CM4F/port.c **** 	"pxCurrentTCBConst: .word pxCurrentTCB	\n"
 483:../../kernel/FreeRTOS/Source/portable/GCC/ARM_CM4F/port.c **** 	::"i"(configMAX_SYSCALL_INTERRUPT_PRIORITY)
 484:../../kernel/FreeRTOS/Source/portable/GCC/ARM_CM4F/port.c **** 	);
 485:../../kernel/FreeRTOS/Source/portable/GCC/ARM_CM4F/port.c **** }
 486:../../kernel/FreeRTOS/Source/portable/GCC/ARM_CM4F/port.c **** /*-----------------------------------------------------------*/
 487:../../kernel/FreeRTOS/Source/portable/GCC/ARM_CM4F/port.c **** 
 488:../../kernel/FreeRTOS/Source/portable/GCC/ARM_CM4F/port.c **** void xPortSysTickHandler( void )
 489:../../kernel/FreeRTOS/Source/portable/GCC/ARM_CM4F/port.c **** {
 490:../../kernel/FreeRTOS/Source/portable/GCC/ARM_CM4F/port.c **** 	/* The SysTick runs at the lowest interrupt priority, so when this interrupt
 491:../../kernel/FreeRTOS/Source/portable/GCC/ARM_CM4F/port.c **** 	executes all interrupts must be unmasked.  There is therefore no need to
 492:../../kernel/FreeRTOS/Source/portable/GCC/ARM_CM4F/port.c **** 	save and then restore the interrupt mask value as its value is already
 493:../../kernel/FreeRTOS/Source/portable/GCC/ARM_CM4F/port.c **** 	known. */
 494:../../kernel/FreeRTOS/Source/portable/GCC/ARM_CM4F/port.c **** 	portDISABLE_INTERRUPTS();
 495:../../kernel/FreeRTOS/Source/portable/GCC/ARM_CM4F/port.c **** 	{
 496:../../kernel/FreeRTOS/Source/portable/GCC/ARM_CM4F/port.c **** 		/* Increment the RTOS tick. */
 497:../../kernel/FreeRTOS/Source/portable/GCC/ARM_CM4F/port.c **** 		if( xTaskIncrementTick() != pdFALSE )
 498:../../kernel/FreeRTOS/Source/portable/GCC/ARM_CM4F/port.c **** 		{
 499:../../kernel/FreeRTOS/Source/portable/GCC/ARM_CM4F/port.c **** 			/* A context switch is required.  Context switching is performed in
 500:../../kernel/FreeRTOS/Source/portable/GCC/ARM_CM4F/port.c **** 			the PendSV interrupt.  Pend the PendSV interrupt. */
 501:../../kernel/FreeRTOS/Source/portable/GCC/ARM_CM4F/port.c **** 			portNVIC_INT_CTRL_REG = portNVIC_PENDSVSET_BIT;
 502:../../kernel/FreeRTOS/Source/portable/GCC/ARM_CM4F/port.c **** 		}
 503:../../kernel/FreeRTOS/Source/portable/GCC/ARM_CM4F/port.c **** 	}
 504:../../kernel/FreeRTOS/Source/portable/GCC/ARM_CM4F/port.c **** 	portENABLE_INTERRUPTS();
 505:../../kernel/FreeRTOS/Source/portable/GCC/ARM_CM4F/port.c **** }
 506:../../kernel/FreeRTOS/Source/portable/GCC/ARM_CM4F/port.c **** /*-----------------------------------------------------------*/
 507:../../kernel/FreeRTOS/Source/portable/GCC/ARM_CM4F/port.c **** 
 508:../../kernel/FreeRTOS/Source/portable/GCC/ARM_CM4F/port.c **** #if( configUSE_TICKLESS_IDLE == 1 )
 509:../../kernel/FreeRTOS/Source/portable/GCC/ARM_CM4F/port.c **** 
 510:../../kernel/FreeRTOS/Source/portable/GCC/ARM_CM4F/port.c **** 	__attribute__((weak)) void vPortSuppressTicksAndSleep( TickType_t xExpectedIdleTime )
 511:../../kernel/FreeRTOS/Source/portable/GCC/ARM_CM4F/port.c **** 	{
 512:../../kernel/FreeRTOS/Source/portable/GCC/ARM_CM4F/port.c **** 	uint32_t ulReloadValue, ulCompleteTickPeriods, ulCompletedSysTickDecrements;
 513:../../kernel/FreeRTOS/Source/portable/GCC/ARM_CM4F/port.c **** 	TickType_t xModifiableIdleTime;
 514:../../kernel/FreeRTOS/Source/portable/GCC/ARM_CM4F/port.c **** 
 515:../../kernel/FreeRTOS/Source/portable/GCC/ARM_CM4F/port.c **** 		/* Make sure the SysTick reload value does not overflow the counter. */
 516:../../kernel/FreeRTOS/Source/portable/GCC/ARM_CM4F/port.c **** 		if( xExpectedIdleTime > xMaximumPossibleSuppressedTicks )
 517:../../kernel/FreeRTOS/Source/portable/GCC/ARM_CM4F/port.c **** 		{
 518:../../kernel/FreeRTOS/Source/portable/GCC/ARM_CM4F/port.c **** 			xExpectedIdleTime = xMaximumPossibleSuppressedTicks;
 519:../../kernel/FreeRTOS/Source/portable/GCC/ARM_CM4F/port.c **** 		}
 520:../../kernel/FreeRTOS/Source/portable/GCC/ARM_CM4F/port.c **** 
 521:../../kernel/FreeRTOS/Source/portable/GCC/ARM_CM4F/port.c **** 		/* Stop the SysTick momentarily.  The time the SysTick is stopped for
 522:../../kernel/FreeRTOS/Source/portable/GCC/ARM_CM4F/port.c **** 		is accounted for as best it can be, but using the tickless mode will
 523:../../kernel/FreeRTOS/Source/portable/GCC/ARM_CM4F/port.c **** 		inevitably result in some tiny drift of the time maintained by the
 524:../../kernel/FreeRTOS/Source/portable/GCC/ARM_CM4F/port.c **** 		kernel with respect to calendar time. */
 525:../../kernel/FreeRTOS/Source/portable/GCC/ARM_CM4F/port.c **** 		portNVIC_SYSTICK_CTRL_REG &= ~portNVIC_SYSTICK_ENABLE_BIT;
 526:../../kernel/FreeRTOS/Source/portable/GCC/ARM_CM4F/port.c **** 
 527:../../kernel/FreeRTOS/Source/portable/GCC/ARM_CM4F/port.c **** 		/* Calculate the reload value required to wait xExpectedIdleTime
 528:../../kernel/FreeRTOS/Source/portable/GCC/ARM_CM4F/port.c **** 		tick periods.  -1 is used because this code will execute part way
 529:../../kernel/FreeRTOS/Source/portable/GCC/ARM_CM4F/port.c **** 		through one of the tick periods. */
 530:../../kernel/FreeRTOS/Source/portable/GCC/ARM_CM4F/port.c **** 		ulReloadValue = portNVIC_SYSTICK_CURRENT_VALUE_REG + ( ulTimerCountsForOneTick * ( xExpectedIdleT
 531:../../kernel/FreeRTOS/Source/portable/GCC/ARM_CM4F/port.c **** 		if( ulReloadValue > ulStoppedTimerCompensation )
 532:../../kernel/FreeRTOS/Source/portable/GCC/ARM_CM4F/port.c **** 		{
 533:../../kernel/FreeRTOS/Source/portable/GCC/ARM_CM4F/port.c **** 			ulReloadValue -= ulStoppedTimerCompensation;
 534:../../kernel/FreeRTOS/Source/portable/GCC/ARM_CM4F/port.c **** 		}
 535:../../kernel/FreeRTOS/Source/portable/GCC/ARM_CM4F/port.c **** 
ARM GAS  /tmp/cc5qDK7o.s 			page 13


 536:../../kernel/FreeRTOS/Source/portable/GCC/ARM_CM4F/port.c **** 		/* Enter a critical section but don't use the taskENTER_CRITICAL()
 537:../../kernel/FreeRTOS/Source/portable/GCC/ARM_CM4F/port.c **** 		method as that will mask interrupts that should exit sleep mode. */
 538:../../kernel/FreeRTOS/Source/portable/GCC/ARM_CM4F/port.c **** 		__asm volatile( "cpsid i" ::: "memory" );
 539:../../kernel/FreeRTOS/Source/portable/GCC/ARM_CM4F/port.c **** 		__asm volatile( "dsb" );
 540:../../kernel/FreeRTOS/Source/portable/GCC/ARM_CM4F/port.c **** 		__asm volatile( "isb" );
 541:../../kernel/FreeRTOS/Source/portable/GCC/ARM_CM4F/port.c **** 
 542:../../kernel/FreeRTOS/Source/portable/GCC/ARM_CM4F/port.c **** 		/* If a context switch is pending or a task is waiting for the scheduler
 543:../../kernel/FreeRTOS/Source/portable/GCC/ARM_CM4F/port.c **** 		to be unsuspended then abandon the low power entry. */
 544:../../kernel/FreeRTOS/Source/portable/GCC/ARM_CM4F/port.c **** 		if( eTaskConfirmSleepModeStatus() == eAbortSleep )
 545:../../kernel/FreeRTOS/Source/portable/GCC/ARM_CM4F/port.c **** 		{
 546:../../kernel/FreeRTOS/Source/portable/GCC/ARM_CM4F/port.c **** 			/* Restart from whatever is left in the count register to complete
 547:../../kernel/FreeRTOS/Source/portable/GCC/ARM_CM4F/port.c **** 			this tick period. */
 548:../../kernel/FreeRTOS/Source/portable/GCC/ARM_CM4F/port.c **** 			portNVIC_SYSTICK_LOAD_REG = portNVIC_SYSTICK_CURRENT_VALUE_REG;
 549:../../kernel/FreeRTOS/Source/portable/GCC/ARM_CM4F/port.c **** 
 550:../../kernel/FreeRTOS/Source/portable/GCC/ARM_CM4F/port.c **** 			/* Restart SysTick. */
 551:../../kernel/FreeRTOS/Source/portable/GCC/ARM_CM4F/port.c **** 			portNVIC_SYSTICK_CTRL_REG |= portNVIC_SYSTICK_ENABLE_BIT;
 552:../../kernel/FreeRTOS/Source/portable/GCC/ARM_CM4F/port.c **** 
 553:../../kernel/FreeRTOS/Source/portable/GCC/ARM_CM4F/port.c **** 			/* Reset the reload register to the value required for normal tick
 554:../../kernel/FreeRTOS/Source/portable/GCC/ARM_CM4F/port.c **** 			periods. */
 555:../../kernel/FreeRTOS/Source/portable/GCC/ARM_CM4F/port.c **** 			portNVIC_SYSTICK_LOAD_REG = ulTimerCountsForOneTick - 1UL;
 556:../../kernel/FreeRTOS/Source/portable/GCC/ARM_CM4F/port.c **** 
 557:../../kernel/FreeRTOS/Source/portable/GCC/ARM_CM4F/port.c **** 			/* Re-enable interrupts - see comments above the cpsid instruction()
 558:../../kernel/FreeRTOS/Source/portable/GCC/ARM_CM4F/port.c **** 			above. */
 559:../../kernel/FreeRTOS/Source/portable/GCC/ARM_CM4F/port.c **** 			__asm volatile( "cpsie i" ::: "memory" );
 560:../../kernel/FreeRTOS/Source/portable/GCC/ARM_CM4F/port.c **** 		}
 561:../../kernel/FreeRTOS/Source/portable/GCC/ARM_CM4F/port.c **** 		else
 562:../../kernel/FreeRTOS/Source/portable/GCC/ARM_CM4F/port.c **** 		{
 563:../../kernel/FreeRTOS/Source/portable/GCC/ARM_CM4F/port.c **** 			/* Set the new reload value. */
 564:../../kernel/FreeRTOS/Source/portable/GCC/ARM_CM4F/port.c **** 			portNVIC_SYSTICK_LOAD_REG = ulReloadValue;
 565:../../kernel/FreeRTOS/Source/portable/GCC/ARM_CM4F/port.c **** 
 566:../../kernel/FreeRTOS/Source/portable/GCC/ARM_CM4F/port.c **** 			/* Clear the SysTick count flag and set the count value back to
 567:../../kernel/FreeRTOS/Source/portable/GCC/ARM_CM4F/port.c **** 			zero. */
 568:../../kernel/FreeRTOS/Source/portable/GCC/ARM_CM4F/port.c **** 			portNVIC_SYSTICK_CURRENT_VALUE_REG = 0UL;
 569:../../kernel/FreeRTOS/Source/portable/GCC/ARM_CM4F/port.c **** 
 570:../../kernel/FreeRTOS/Source/portable/GCC/ARM_CM4F/port.c **** 			/* Restart SysTick. */
 571:../../kernel/FreeRTOS/Source/portable/GCC/ARM_CM4F/port.c **** 			portNVIC_SYSTICK_CTRL_REG |= portNVIC_SYSTICK_ENABLE_BIT;
 572:../../kernel/FreeRTOS/Source/portable/GCC/ARM_CM4F/port.c **** 
 573:../../kernel/FreeRTOS/Source/portable/GCC/ARM_CM4F/port.c **** 			/* Sleep until something happens.  configPRE_SLEEP_PROCESSING() can
 574:../../kernel/FreeRTOS/Source/portable/GCC/ARM_CM4F/port.c **** 			set its parameter to 0 to indicate that its implementation contains
 575:../../kernel/FreeRTOS/Source/portable/GCC/ARM_CM4F/port.c **** 			its own wait for interrupt or wait for event instruction, and so wfi
 576:../../kernel/FreeRTOS/Source/portable/GCC/ARM_CM4F/port.c **** 			should not be executed again.  However, the original expected idle
 577:../../kernel/FreeRTOS/Source/portable/GCC/ARM_CM4F/port.c **** 			time variable must remain unmodified, so a copy is taken. */
 578:../../kernel/FreeRTOS/Source/portable/GCC/ARM_CM4F/port.c **** 			xModifiableIdleTime = xExpectedIdleTime;
 579:../../kernel/FreeRTOS/Source/portable/GCC/ARM_CM4F/port.c **** 			configPRE_SLEEP_PROCESSING( xModifiableIdleTime );
 580:../../kernel/FreeRTOS/Source/portable/GCC/ARM_CM4F/port.c **** 			if( xModifiableIdleTime > 0 )
 581:../../kernel/FreeRTOS/Source/portable/GCC/ARM_CM4F/port.c **** 			{
 582:../../kernel/FreeRTOS/Source/portable/GCC/ARM_CM4F/port.c **** 				__asm volatile( "dsb" ::: "memory" );
 583:../../kernel/FreeRTOS/Source/portable/GCC/ARM_CM4F/port.c **** 				__asm volatile( "wfi" );
 584:../../kernel/FreeRTOS/Source/portable/GCC/ARM_CM4F/port.c **** 				__asm volatile( "isb" );
 585:../../kernel/FreeRTOS/Source/portable/GCC/ARM_CM4F/port.c **** 			}
 586:../../kernel/FreeRTOS/Source/portable/GCC/ARM_CM4F/port.c **** 			configPOST_SLEEP_PROCESSING( xExpectedIdleTime );
 587:../../kernel/FreeRTOS/Source/portable/GCC/ARM_CM4F/port.c **** 
 588:../../kernel/FreeRTOS/Source/portable/GCC/ARM_CM4F/port.c **** 			/* Re-enable interrupts to allow the interrupt that brought the MCU
 589:../../kernel/FreeRTOS/Source/portable/GCC/ARM_CM4F/port.c **** 			out of sleep mode to execute immediately.  see comments above
 590:../../kernel/FreeRTOS/Source/portable/GCC/ARM_CM4F/port.c **** 			__disable_interrupt() call above. */
 591:../../kernel/FreeRTOS/Source/portable/GCC/ARM_CM4F/port.c **** 			__asm volatile( "cpsie i" ::: "memory" );
 592:../../kernel/FreeRTOS/Source/portable/GCC/ARM_CM4F/port.c **** 			__asm volatile( "dsb" );
ARM GAS  /tmp/cc5qDK7o.s 			page 14


 593:../../kernel/FreeRTOS/Source/portable/GCC/ARM_CM4F/port.c **** 			__asm volatile( "isb" );
 594:../../kernel/FreeRTOS/Source/portable/GCC/ARM_CM4F/port.c **** 
 595:../../kernel/FreeRTOS/Source/portable/GCC/ARM_CM4F/port.c **** 			/* Disable interrupts again because the clock is about to be stopped
 596:../../kernel/FreeRTOS/Source/portable/GCC/ARM_CM4F/port.c **** 			and interrupts that execute while the clock is stopped will increase
 597:../../kernel/FreeRTOS/Source/portable/GCC/ARM_CM4F/port.c **** 			any slippage between the time maintained by the RTOS and calendar
 598:../../kernel/FreeRTOS/Source/portable/GCC/ARM_CM4F/port.c **** 			time. */
 599:../../kernel/FreeRTOS/Source/portable/GCC/ARM_CM4F/port.c **** 			__asm volatile( "cpsid i" ::: "memory" );
 600:../../kernel/FreeRTOS/Source/portable/GCC/ARM_CM4F/port.c **** 			__asm volatile( "dsb" );
 601:../../kernel/FreeRTOS/Source/portable/GCC/ARM_CM4F/port.c **** 			__asm volatile( "isb" );
 602:../../kernel/FreeRTOS/Source/portable/GCC/ARM_CM4F/port.c **** 
 603:../../kernel/FreeRTOS/Source/portable/GCC/ARM_CM4F/port.c **** 			/* Disable the SysTick clock without reading the
 604:../../kernel/FreeRTOS/Source/portable/GCC/ARM_CM4F/port.c **** 			portNVIC_SYSTICK_CTRL_REG register to ensure the
 605:../../kernel/FreeRTOS/Source/portable/GCC/ARM_CM4F/port.c **** 			portNVIC_SYSTICK_COUNT_FLAG_BIT is not cleared if it is set.  Again,
 606:../../kernel/FreeRTOS/Source/portable/GCC/ARM_CM4F/port.c **** 			the time the SysTick is stopped for is accounted for as best it can
 607:../../kernel/FreeRTOS/Source/portable/GCC/ARM_CM4F/port.c **** 			be, but using the tickless mode will inevitably result in some tiny
 608:../../kernel/FreeRTOS/Source/portable/GCC/ARM_CM4F/port.c **** 			drift of the time maintained by the kernel with respect to calendar
 609:../../kernel/FreeRTOS/Source/portable/GCC/ARM_CM4F/port.c **** 			time*/
 610:../../kernel/FreeRTOS/Source/portable/GCC/ARM_CM4F/port.c **** 			portNVIC_SYSTICK_CTRL_REG = ( portNVIC_SYSTICK_CLK_BIT | portNVIC_SYSTICK_INT_BIT );
 611:../../kernel/FreeRTOS/Source/portable/GCC/ARM_CM4F/port.c **** 
 612:../../kernel/FreeRTOS/Source/portable/GCC/ARM_CM4F/port.c **** 			/* Determine if the SysTick clock has already counted to zero and
 613:../../kernel/FreeRTOS/Source/portable/GCC/ARM_CM4F/port.c **** 			been set back to the current reload value (the reload back being
 614:../../kernel/FreeRTOS/Source/portable/GCC/ARM_CM4F/port.c **** 			correct for the entire expected idle time) or if the SysTick is yet
 615:../../kernel/FreeRTOS/Source/portable/GCC/ARM_CM4F/port.c **** 			to count to zero (in which case an interrupt other than the SysTick
 616:../../kernel/FreeRTOS/Source/portable/GCC/ARM_CM4F/port.c **** 			must have brought the system out of sleep mode). */
 617:../../kernel/FreeRTOS/Source/portable/GCC/ARM_CM4F/port.c **** 			if( ( portNVIC_SYSTICK_CTRL_REG & portNVIC_SYSTICK_COUNT_FLAG_BIT ) != 0 )
 618:../../kernel/FreeRTOS/Source/portable/GCC/ARM_CM4F/port.c **** 			{
 619:../../kernel/FreeRTOS/Source/portable/GCC/ARM_CM4F/port.c **** 				uint32_t ulCalculatedLoadValue;
 620:../../kernel/FreeRTOS/Source/portable/GCC/ARM_CM4F/port.c **** 
 621:../../kernel/FreeRTOS/Source/portable/GCC/ARM_CM4F/port.c **** 				/* The tick interrupt is already pending, and the SysTick count
 622:../../kernel/FreeRTOS/Source/portable/GCC/ARM_CM4F/port.c **** 				reloaded with ulReloadValue.  Reset the
 623:../../kernel/FreeRTOS/Source/portable/GCC/ARM_CM4F/port.c **** 				portNVIC_SYSTICK_LOAD_REG with whatever remains of this tick
 624:../../kernel/FreeRTOS/Source/portable/GCC/ARM_CM4F/port.c **** 				period. */
 625:../../kernel/FreeRTOS/Source/portable/GCC/ARM_CM4F/port.c **** 				ulCalculatedLoadValue = ( ulTimerCountsForOneTick - 1UL ) - ( ulReloadValue - portNVIC_SYSTICK_
 626:../../kernel/FreeRTOS/Source/portable/GCC/ARM_CM4F/port.c **** 
 627:../../kernel/FreeRTOS/Source/portable/GCC/ARM_CM4F/port.c **** 				/* Don't allow a tiny value, or values that have somehow
 628:../../kernel/FreeRTOS/Source/portable/GCC/ARM_CM4F/port.c **** 				underflowed because the post sleep hook did something
 629:../../kernel/FreeRTOS/Source/portable/GCC/ARM_CM4F/port.c **** 				that took too long. */
 630:../../kernel/FreeRTOS/Source/portable/GCC/ARM_CM4F/port.c **** 				if( ( ulCalculatedLoadValue < ulStoppedTimerCompensation ) || ( ulCalculatedLoadValue > ulTimer
 631:../../kernel/FreeRTOS/Source/portable/GCC/ARM_CM4F/port.c **** 				{
 632:../../kernel/FreeRTOS/Source/portable/GCC/ARM_CM4F/port.c **** 					ulCalculatedLoadValue = ( ulTimerCountsForOneTick - 1UL );
 633:../../kernel/FreeRTOS/Source/portable/GCC/ARM_CM4F/port.c **** 				}
 634:../../kernel/FreeRTOS/Source/portable/GCC/ARM_CM4F/port.c **** 
 635:../../kernel/FreeRTOS/Source/portable/GCC/ARM_CM4F/port.c **** 				portNVIC_SYSTICK_LOAD_REG = ulCalculatedLoadValue;
 636:../../kernel/FreeRTOS/Source/portable/GCC/ARM_CM4F/port.c **** 
 637:../../kernel/FreeRTOS/Source/portable/GCC/ARM_CM4F/port.c **** 				/* As the pending tick will be processed as soon as this
 638:../../kernel/FreeRTOS/Source/portable/GCC/ARM_CM4F/port.c **** 				function exits, the tick value maintained by the tick is stepped
 639:../../kernel/FreeRTOS/Source/portable/GCC/ARM_CM4F/port.c **** 				forward by one less than the time spent waiting. */
 640:../../kernel/FreeRTOS/Source/portable/GCC/ARM_CM4F/port.c **** 				ulCompleteTickPeriods = xExpectedIdleTime - 1UL;
 641:../../kernel/FreeRTOS/Source/portable/GCC/ARM_CM4F/port.c **** 			}
 642:../../kernel/FreeRTOS/Source/portable/GCC/ARM_CM4F/port.c **** 			else
 643:../../kernel/FreeRTOS/Source/portable/GCC/ARM_CM4F/port.c **** 			{
 644:../../kernel/FreeRTOS/Source/portable/GCC/ARM_CM4F/port.c **** 				/* Something other than the tick interrupt ended the sleep.
 645:../../kernel/FreeRTOS/Source/portable/GCC/ARM_CM4F/port.c **** 				Work out how long the sleep lasted rounded to complete tick
 646:../../kernel/FreeRTOS/Source/portable/GCC/ARM_CM4F/port.c **** 				periods (not the ulReload value which accounted for part
 647:../../kernel/FreeRTOS/Source/portable/GCC/ARM_CM4F/port.c **** 				ticks). */
 648:../../kernel/FreeRTOS/Source/portable/GCC/ARM_CM4F/port.c **** 				ulCompletedSysTickDecrements = ( xExpectedIdleTime * ulTimerCountsForOneTick ) - portNVIC_SYSTI
 649:../../kernel/FreeRTOS/Source/portable/GCC/ARM_CM4F/port.c **** 
ARM GAS  /tmp/cc5qDK7o.s 			page 15


 650:../../kernel/FreeRTOS/Source/portable/GCC/ARM_CM4F/port.c **** 				/* How many complete tick periods passed while the processor
 651:../../kernel/FreeRTOS/Source/portable/GCC/ARM_CM4F/port.c **** 				was waiting? */
 652:../../kernel/FreeRTOS/Source/portable/GCC/ARM_CM4F/port.c **** 				ulCompleteTickPeriods = ulCompletedSysTickDecrements / ulTimerCountsForOneTick;
 653:../../kernel/FreeRTOS/Source/portable/GCC/ARM_CM4F/port.c **** 
 654:../../kernel/FreeRTOS/Source/portable/GCC/ARM_CM4F/port.c **** 				/* The reload value is set to whatever fraction of a single tick
 655:../../kernel/FreeRTOS/Source/portable/GCC/ARM_CM4F/port.c **** 				period remains. */
 656:../../kernel/FreeRTOS/Source/portable/GCC/ARM_CM4F/port.c **** 				portNVIC_SYSTICK_LOAD_REG = ( ( ulCompleteTickPeriods + 1UL ) * ulTimerCountsForOneTick ) - ulC
 657:../../kernel/FreeRTOS/Source/portable/GCC/ARM_CM4F/port.c **** 			}
 658:../../kernel/FreeRTOS/Source/portable/GCC/ARM_CM4F/port.c **** 
 659:../../kernel/FreeRTOS/Source/portable/GCC/ARM_CM4F/port.c **** 			/* Restart SysTick so it runs from portNVIC_SYSTICK_LOAD_REG
 660:../../kernel/FreeRTOS/Source/portable/GCC/ARM_CM4F/port.c **** 			again, then set portNVIC_SYSTICK_LOAD_REG back to its standard
 661:../../kernel/FreeRTOS/Source/portable/GCC/ARM_CM4F/port.c **** 			value. */
 662:../../kernel/FreeRTOS/Source/portable/GCC/ARM_CM4F/port.c **** 			portNVIC_SYSTICK_CURRENT_VALUE_REG = 0UL;
 663:../../kernel/FreeRTOS/Source/portable/GCC/ARM_CM4F/port.c **** 			portNVIC_SYSTICK_CTRL_REG |= portNVIC_SYSTICK_ENABLE_BIT;
 664:../../kernel/FreeRTOS/Source/portable/GCC/ARM_CM4F/port.c **** 			vTaskStepTick( ulCompleteTickPeriods );
 665:../../kernel/FreeRTOS/Source/portable/GCC/ARM_CM4F/port.c **** 			portNVIC_SYSTICK_LOAD_REG = ulTimerCountsForOneTick - 1UL;
 666:../../kernel/FreeRTOS/Source/portable/GCC/ARM_CM4F/port.c **** 
 667:../../kernel/FreeRTOS/Source/portable/GCC/ARM_CM4F/port.c **** 			/* Exit with interrpts enabled. */
 668:../../kernel/FreeRTOS/Source/portable/GCC/ARM_CM4F/port.c **** 			__asm volatile( "cpsie i" ::: "memory" );
 669:../../kernel/FreeRTOS/Source/portable/GCC/ARM_CM4F/port.c **** 		}
 670:../../kernel/FreeRTOS/Source/portable/GCC/ARM_CM4F/port.c **** 	}
 671:../../kernel/FreeRTOS/Source/portable/GCC/ARM_CM4F/port.c **** 
 672:../../kernel/FreeRTOS/Source/portable/GCC/ARM_CM4F/port.c **** #endif /* #if configUSE_TICKLESS_IDLE */
 673:../../kernel/FreeRTOS/Source/portable/GCC/ARM_CM4F/port.c **** /*-----------------------------------------------------------*/
 674:../../kernel/FreeRTOS/Source/portable/GCC/ARM_CM4F/port.c **** 
 675:../../kernel/FreeRTOS/Source/portable/GCC/ARM_CM4F/port.c **** /*
 676:../../kernel/FreeRTOS/Source/portable/GCC/ARM_CM4F/port.c ****  * Setup the systick timer to generate the tick interrupts at the required
 677:../../kernel/FreeRTOS/Source/portable/GCC/ARM_CM4F/port.c ****  * frequency.
 678:../../kernel/FreeRTOS/Source/portable/GCC/ARM_CM4F/port.c ****  */
 679:../../kernel/FreeRTOS/Source/portable/GCC/ARM_CM4F/port.c **** __attribute__(( weak )) void vPortSetupTimerInterrupt( void )
 680:../../kernel/FreeRTOS/Source/portable/GCC/ARM_CM4F/port.c **** {
 681:../../kernel/FreeRTOS/Source/portable/GCC/ARM_CM4F/port.c **** 	/* Calculate the constants required to configure the tick interrupt. */
 682:../../kernel/FreeRTOS/Source/portable/GCC/ARM_CM4F/port.c **** 	#if( configUSE_TICKLESS_IDLE == 1 )
 683:../../kernel/FreeRTOS/Source/portable/GCC/ARM_CM4F/port.c **** 	{
 684:../../kernel/FreeRTOS/Source/portable/GCC/ARM_CM4F/port.c **** 		ulTimerCountsForOneTick = ( configSYSTICK_CLOCK_HZ / configTICK_RATE_HZ );
 685:../../kernel/FreeRTOS/Source/portable/GCC/ARM_CM4F/port.c **** 		xMaximumPossibleSuppressedTicks = portMAX_24_BIT_NUMBER / ulTimerCountsForOneTick;
 686:../../kernel/FreeRTOS/Source/portable/GCC/ARM_CM4F/port.c **** 		ulStoppedTimerCompensation = portMISSED_COUNTS_FACTOR / ( configCPU_CLOCK_HZ / configSYSTICK_CLOC
 687:../../kernel/FreeRTOS/Source/portable/GCC/ARM_CM4F/port.c **** 	}
 688:../../kernel/FreeRTOS/Source/portable/GCC/ARM_CM4F/port.c **** 	#endif /* configUSE_TICKLESS_IDLE */
 689:../../kernel/FreeRTOS/Source/portable/GCC/ARM_CM4F/port.c **** 
 690:../../kernel/FreeRTOS/Source/portable/GCC/ARM_CM4F/port.c **** 	/* Stop and clear the SysTick. */
 691:../../kernel/FreeRTOS/Source/portable/GCC/ARM_CM4F/port.c **** 	portNVIC_SYSTICK_CTRL_REG = 0UL;
 692:../../kernel/FreeRTOS/Source/portable/GCC/ARM_CM4F/port.c **** 	portNVIC_SYSTICK_CURRENT_VALUE_REG = 0UL;
 693:../../kernel/FreeRTOS/Source/portable/GCC/ARM_CM4F/port.c **** 
 694:../../kernel/FreeRTOS/Source/portable/GCC/ARM_CM4F/port.c **** 	/* Configure SysTick to interrupt at the requested rate. */
 695:../../kernel/FreeRTOS/Source/portable/GCC/ARM_CM4F/port.c **** 	portNVIC_SYSTICK_LOAD_REG = ( configSYSTICK_CLOCK_HZ / configTICK_RATE_HZ ) - 1UL;
 696:../../kernel/FreeRTOS/Source/portable/GCC/ARM_CM4F/port.c **** 	portNVIC_SYSTICK_CTRL_REG = ( portNVIC_SYSTICK_CLK_BIT | portNVIC_SYSTICK_INT_BIT | portNVIC_SYSTI
 697:../../kernel/FreeRTOS/Source/portable/GCC/ARM_CM4F/port.c **** }
 698:../../kernel/FreeRTOS/Source/portable/GCC/ARM_CM4F/port.c **** /*-----------------------------------------------------------*/
 699:../../kernel/FreeRTOS/Source/portable/GCC/ARM_CM4F/port.c **** 
 700:../../kernel/FreeRTOS/Source/portable/GCC/ARM_CM4F/port.c **** /* This is a naked function. */
 701:../../kernel/FreeRTOS/Source/portable/GCC/ARM_CM4F/port.c **** static void vPortEnableVFP( void )
 702:../../kernel/FreeRTOS/Source/portable/GCC/ARM_CM4F/port.c **** {
 150              		.loc 1 702 1 is_stmt 1 view -0
 151              		.cfi_startproc
 152              		@ Naked Function: prologue and epilogue provided by programmer.
 153              		@ args = 0, pretend = 0, frame = 0
ARM GAS  /tmp/cc5qDK7o.s 			page 16


 154              		@ frame_needed = 0, uses_anonymous_args = 0
 703:../../kernel/FreeRTOS/Source/portable/GCC/ARM_CM4F/port.c **** 	__asm volatile
 155              		.loc 1 703 2 view .LVU4
 156              		.syntax unified
 157              	@ 703 "../../kernel/FreeRTOS/Source/portable/GCC/ARM_CM4F/port.c" 1
 158 0000 DFF80C00 			ldr.w r0, =0xE000ED88		
 159 0004 0168     		ldr r1, [r0]				
 160              									
 161 0006 41F47001 		orr r1, r1, #( 0xf << 20 )	
 162 000a 0160     		str r1, [r0]				
 163 000c 7047     		bx r14						
 164              	@ 0 "" 2
 165              	@ ../../kernel/FreeRTOS/Source/portable/GCC/ARM_CM4F/port.c:712: }
 704:../../kernel/FreeRTOS/Source/portable/GCC/ARM_CM4F/port.c **** 	(
 705:../../kernel/FreeRTOS/Source/portable/GCC/ARM_CM4F/port.c **** 		"	ldr.w r0, =0xE000ED88		\n" /* The FPU enable bits are in the CPACR. */
 706:../../kernel/FreeRTOS/Source/portable/GCC/ARM_CM4F/port.c **** 		"	ldr r1, [r0]				\n"
 707:../../kernel/FreeRTOS/Source/portable/GCC/ARM_CM4F/port.c **** 		"								\n"
 708:../../kernel/FreeRTOS/Source/portable/GCC/ARM_CM4F/port.c **** 		"	orr r1, r1, #( 0xf << 20 )	\n" /* Enable CP10 and CP11 coprocessors, then save back. */
 709:../../kernel/FreeRTOS/Source/portable/GCC/ARM_CM4F/port.c **** 		"	str r1, [r0]				\n"
 710:../../kernel/FreeRTOS/Source/portable/GCC/ARM_CM4F/port.c **** 		"	bx r14						"
 711:../../kernel/FreeRTOS/Source/portable/GCC/ARM_CM4F/port.c **** 	);
 712:../../kernel/FreeRTOS/Source/portable/GCC/ARM_CM4F/port.c **** }
 166              		.loc 1 712 1 is_stmt 0 view .LVU5
 167              		.thumb
 168              		.syntax unified
 169              		.cfi_endproc
 170              	.LFE16:
 171              		.size	vPortEnableVFP, .-vPortEnableVFP
 172 000e 0000     		.section	.text.prvTaskExitError,"ax",%progbits
 173              		.align	1
 174              		.p2align 2,,3
 175              		.syntax unified
 176              		.thumb
 177              		.thumb_func
 178              		.fpu fpv4-sp-d16
 179              		.type	prvTaskExitError, %function
 180              	prvTaskExitError:
 181              	.LFB5:
 218:../../kernel/FreeRTOS/Source/portable/GCC/ARM_CM4F/port.c **** volatile uint32_t ulDummy = 0;
 182              		.loc 1 218 1 is_stmt 1 view -0
 183              		.cfi_startproc
 184              		@ args = 0, pretend = 0, frame = 8
 185              		@ frame_needed = 0, uses_anonymous_args = 0
 186              		@ link register save eliminated.
 219:../../kernel/FreeRTOS/Source/portable/GCC/ARM_CM4F/port.c **** 
 187              		.loc 1 219 1 view .LVU7
 188              	@ ../../kernel/FreeRTOS/Source/portable/GCC/ARM_CM4F/port.c:227: 	configASSERT( uxCriticalNesting =
 227:../../kernel/FreeRTOS/Source/portable/GCC/ARM_CM4F/port.c **** 	portDISABLE_INTERRUPTS();
 189              		.loc 1 227 2 is_stmt 0 view .LVU8
 190 0000 0E4B     		ldr	r3, .L11	@ tmp115,
 191 0002 1B68     		ldr	r3, [r3]	@ uxCriticalNesting, uxCriticalNesting
 192              	@ ../../kernel/FreeRTOS/Source/portable/GCC/ARM_CM4F/port.c:218: {
 218:../../kernel/FreeRTOS/Source/portable/GCC/ARM_CM4F/port.c **** volatile uint32_t ulDummy = 0;
 193              		.loc 1 218 1 view .LVU9
 194 0004 82B0     		sub	sp, sp, #8	@,,
 195              		.cfi_def_cfa_offset 8
 196              	@ ../../kernel/FreeRTOS/Source/portable/GCC/ARM_CM4F/port.c:219: volatile uint32_t ulDummy = 0;
ARM GAS  /tmp/cc5qDK7o.s 			page 17


 219:../../kernel/FreeRTOS/Source/portable/GCC/ARM_CM4F/port.c **** 
 197              		.loc 1 219 19 view .LVU10
 198 0006 0022     		movs	r2, #0	@ tmp114,
 199              	@ ../../kernel/FreeRTOS/Source/portable/GCC/ARM_CM4F/port.c:227: 	configASSERT( uxCriticalNesting =
 227:../../kernel/FreeRTOS/Source/portable/GCC/ARM_CM4F/port.c **** 	portDISABLE_INTERRUPTS();
 200              		.loc 1 227 2 view .LVU11
 201 0008 0133     		adds	r3, r3, #1	@ uxCriticalNesting, uxCriticalNesting,
 202              	@ ../../kernel/FreeRTOS/Source/portable/GCC/ARM_CM4F/port.c:219: volatile uint32_t ulDummy = 0;
 219:../../kernel/FreeRTOS/Source/portable/GCC/ARM_CM4F/port.c **** 
 203              		.loc 1 219 19 view .LVU12
 204 000a 0192     		str	r2, [sp, #4]	@ tmp114, ulDummy
 227:../../kernel/FreeRTOS/Source/portable/GCC/ARM_CM4F/port.c **** 	portDISABLE_INTERRUPTS();
 205              		.loc 1 227 2 is_stmt 1 view .LVU13
 206 000c 08D0     		beq	.L5		@,
 207              	.LBB45:
 208              	.LBI45:
 217:../../kernel/FreeRTOS/Source/portable/GCC/ARM_CM4F/port.c **** {
 209              		.loc 1 217 13 view .LVU14
 210              	.LBB46:
 227:../../kernel/FreeRTOS/Source/portable/GCC/ARM_CM4F/port.c **** 	portDISABLE_INTERRUPTS();
 211              		.loc 1 227 2 view .LVU15
 212              	.LBB47:
 213              	.LBI47:
 214              		.file 2 "../../kernel/FreeRTOS/Source/portable/GCC/ARM_CM4F/portmacro.h"
   1:../../kernel/FreeRTOS/Source/portable/GCC/ARM_CM4F/portmacro.h **** /*
   2:../../kernel/FreeRTOS/Source/portable/GCC/ARM_CM4F/portmacro.h ****  * FreeRTOS Kernel V10.0.1
   3:../../kernel/FreeRTOS/Source/portable/GCC/ARM_CM4F/portmacro.h ****  * Copyright (C) 2017 Amazon.com, Inc. or its affiliates.  All Rights Reserved.
   4:../../kernel/FreeRTOS/Source/portable/GCC/ARM_CM4F/portmacro.h ****  *
   5:../../kernel/FreeRTOS/Source/portable/GCC/ARM_CM4F/portmacro.h ****  * Permission is hereby granted, free of charge, to any person obtaining a copy of
   6:../../kernel/FreeRTOS/Source/portable/GCC/ARM_CM4F/portmacro.h ****  * this software and associated documentation files (the "Software"), to deal in
   7:../../kernel/FreeRTOS/Source/portable/GCC/ARM_CM4F/portmacro.h ****  * the Software without restriction, including without limitation the rights to
   8:../../kernel/FreeRTOS/Source/portable/GCC/ARM_CM4F/portmacro.h ****  * use, copy, modify, merge, publish, distribute, sublicense, and/or sell copies of
   9:../../kernel/FreeRTOS/Source/portable/GCC/ARM_CM4F/portmacro.h ****  * the Software, and to permit persons to whom the Software is furnished to do so,
  10:../../kernel/FreeRTOS/Source/portable/GCC/ARM_CM4F/portmacro.h ****  * subject to the following conditions:
  11:../../kernel/FreeRTOS/Source/portable/GCC/ARM_CM4F/portmacro.h ****  *
  12:../../kernel/FreeRTOS/Source/portable/GCC/ARM_CM4F/portmacro.h ****  * The above copyright notice and this permission notice shall be included in all
  13:../../kernel/FreeRTOS/Source/portable/GCC/ARM_CM4F/portmacro.h ****  * copies or substantial portions of the Software.
  14:../../kernel/FreeRTOS/Source/portable/GCC/ARM_CM4F/portmacro.h ****  *
  15:../../kernel/FreeRTOS/Source/portable/GCC/ARM_CM4F/portmacro.h ****  * THE SOFTWARE IS PROVIDED "AS IS", WITHOUT WARRANTY OF ANY KIND, EXPRESS OR
  16:../../kernel/FreeRTOS/Source/portable/GCC/ARM_CM4F/portmacro.h ****  * IMPLIED, INCLUDING BUT NOT LIMITED TO THE WARRANTIES OF MERCHANTABILITY, FITNESS
  17:../../kernel/FreeRTOS/Source/portable/GCC/ARM_CM4F/portmacro.h ****  * FOR A PARTICULAR PURPOSE AND NONINFRINGEMENT. IN NO EVENT SHALL THE AUTHORS OR
  18:../../kernel/FreeRTOS/Source/portable/GCC/ARM_CM4F/portmacro.h ****  * COPYRIGHT HOLDERS BE LIABLE FOR ANY CLAIM, DAMAGES OR OTHER LIABILITY, WHETHER
  19:../../kernel/FreeRTOS/Source/portable/GCC/ARM_CM4F/portmacro.h ****  * IN AN ACTION OF CONTRACT, TORT OR OTHERWISE, ARISING FROM, OUT OF OR IN
  20:../../kernel/FreeRTOS/Source/portable/GCC/ARM_CM4F/portmacro.h ****  * CONNECTION WITH THE SOFTWARE OR THE USE OR OTHER DEALINGS IN THE SOFTWARE.
  21:../../kernel/FreeRTOS/Source/portable/GCC/ARM_CM4F/portmacro.h ****  *
  22:../../kernel/FreeRTOS/Source/portable/GCC/ARM_CM4F/portmacro.h ****  * http://www.FreeRTOS.org
  23:../../kernel/FreeRTOS/Source/portable/GCC/ARM_CM4F/portmacro.h ****  * http://aws.amazon.com/freertos
  24:../../kernel/FreeRTOS/Source/portable/GCC/ARM_CM4F/portmacro.h ****  *
  25:../../kernel/FreeRTOS/Source/portable/GCC/ARM_CM4F/portmacro.h ****  * 1 tab == 4 spaces!
  26:../../kernel/FreeRTOS/Source/portable/GCC/ARM_CM4F/portmacro.h ****  */
  27:../../kernel/FreeRTOS/Source/portable/GCC/ARM_CM4F/portmacro.h **** 
  28:../../kernel/FreeRTOS/Source/portable/GCC/ARM_CM4F/portmacro.h **** 
  29:../../kernel/FreeRTOS/Source/portable/GCC/ARM_CM4F/portmacro.h **** #ifndef PORTMACRO_H
  30:../../kernel/FreeRTOS/Source/portable/GCC/ARM_CM4F/portmacro.h **** #define PORTMACRO_H
  31:../../kernel/FreeRTOS/Source/portable/GCC/ARM_CM4F/portmacro.h **** 
  32:../../kernel/FreeRTOS/Source/portable/GCC/ARM_CM4F/portmacro.h **** #ifdef __cplusplus
  33:../../kernel/FreeRTOS/Source/portable/GCC/ARM_CM4F/portmacro.h **** extern "C" {
ARM GAS  /tmp/cc5qDK7o.s 			page 18


  34:../../kernel/FreeRTOS/Source/portable/GCC/ARM_CM4F/portmacro.h **** #endif
  35:../../kernel/FreeRTOS/Source/portable/GCC/ARM_CM4F/portmacro.h **** 
  36:../../kernel/FreeRTOS/Source/portable/GCC/ARM_CM4F/portmacro.h **** /*-----------------------------------------------------------
  37:../../kernel/FreeRTOS/Source/portable/GCC/ARM_CM4F/portmacro.h ****  * Port specific definitions.
  38:../../kernel/FreeRTOS/Source/portable/GCC/ARM_CM4F/portmacro.h ****  *
  39:../../kernel/FreeRTOS/Source/portable/GCC/ARM_CM4F/portmacro.h ****  * The settings in this file configure FreeRTOS correctly for the
  40:../../kernel/FreeRTOS/Source/portable/GCC/ARM_CM4F/portmacro.h ****  * given hardware and compiler.
  41:../../kernel/FreeRTOS/Source/portable/GCC/ARM_CM4F/portmacro.h ****  *
  42:../../kernel/FreeRTOS/Source/portable/GCC/ARM_CM4F/portmacro.h ****  * These settings should not be altered.
  43:../../kernel/FreeRTOS/Source/portable/GCC/ARM_CM4F/portmacro.h ****  *-----------------------------------------------------------
  44:../../kernel/FreeRTOS/Source/portable/GCC/ARM_CM4F/portmacro.h ****  */
  45:../../kernel/FreeRTOS/Source/portable/GCC/ARM_CM4F/portmacro.h **** 
  46:../../kernel/FreeRTOS/Source/portable/GCC/ARM_CM4F/portmacro.h **** /* Type definitions. */
  47:../../kernel/FreeRTOS/Source/portable/GCC/ARM_CM4F/portmacro.h **** #define portCHAR		char
  48:../../kernel/FreeRTOS/Source/portable/GCC/ARM_CM4F/portmacro.h **** #define portFLOAT		float
  49:../../kernel/FreeRTOS/Source/portable/GCC/ARM_CM4F/portmacro.h **** #define portDOUBLE		double
  50:../../kernel/FreeRTOS/Source/portable/GCC/ARM_CM4F/portmacro.h **** #define portLONG		long
  51:../../kernel/FreeRTOS/Source/portable/GCC/ARM_CM4F/portmacro.h **** #define portSHORT		short
  52:../../kernel/FreeRTOS/Source/portable/GCC/ARM_CM4F/portmacro.h **** #define portSTACK_TYPE	uint32_t
  53:../../kernel/FreeRTOS/Source/portable/GCC/ARM_CM4F/portmacro.h **** #define portBASE_TYPE	long
  54:../../kernel/FreeRTOS/Source/portable/GCC/ARM_CM4F/portmacro.h **** 
  55:../../kernel/FreeRTOS/Source/portable/GCC/ARM_CM4F/portmacro.h **** typedef portSTACK_TYPE StackType_t;
  56:../../kernel/FreeRTOS/Source/portable/GCC/ARM_CM4F/portmacro.h **** typedef long BaseType_t;
  57:../../kernel/FreeRTOS/Source/portable/GCC/ARM_CM4F/portmacro.h **** typedef unsigned long UBaseType_t;
  58:../../kernel/FreeRTOS/Source/portable/GCC/ARM_CM4F/portmacro.h **** 
  59:../../kernel/FreeRTOS/Source/portable/GCC/ARM_CM4F/portmacro.h **** #if( configUSE_16_BIT_TICKS == 1 )
  60:../../kernel/FreeRTOS/Source/portable/GCC/ARM_CM4F/portmacro.h **** 	typedef uint16_t TickType_t;
  61:../../kernel/FreeRTOS/Source/portable/GCC/ARM_CM4F/portmacro.h **** 	#define portMAX_DELAY ( TickType_t ) 0xffff
  62:../../kernel/FreeRTOS/Source/portable/GCC/ARM_CM4F/portmacro.h **** #else
  63:../../kernel/FreeRTOS/Source/portable/GCC/ARM_CM4F/portmacro.h **** 	typedef uint32_t TickType_t;
  64:../../kernel/FreeRTOS/Source/portable/GCC/ARM_CM4F/portmacro.h **** 	#define portMAX_DELAY ( TickType_t ) 0xffffffffUL
  65:../../kernel/FreeRTOS/Source/portable/GCC/ARM_CM4F/portmacro.h **** 
  66:../../kernel/FreeRTOS/Source/portable/GCC/ARM_CM4F/portmacro.h **** 	/* 32-bit tick type on a 32-bit architecture, so reads of the tick count do
  67:../../kernel/FreeRTOS/Source/portable/GCC/ARM_CM4F/portmacro.h **** 	not need to be guarded with a critical section. */
  68:../../kernel/FreeRTOS/Source/portable/GCC/ARM_CM4F/portmacro.h **** 	#define portTICK_TYPE_IS_ATOMIC 1
  69:../../kernel/FreeRTOS/Source/portable/GCC/ARM_CM4F/portmacro.h **** #endif
  70:../../kernel/FreeRTOS/Source/portable/GCC/ARM_CM4F/portmacro.h **** /*-----------------------------------------------------------*/
  71:../../kernel/FreeRTOS/Source/portable/GCC/ARM_CM4F/portmacro.h **** 
  72:../../kernel/FreeRTOS/Source/portable/GCC/ARM_CM4F/portmacro.h **** /* Architecture specifics. */
  73:../../kernel/FreeRTOS/Source/portable/GCC/ARM_CM4F/portmacro.h **** #define portSTACK_GROWTH			( -1 )
  74:../../kernel/FreeRTOS/Source/portable/GCC/ARM_CM4F/portmacro.h **** #define portTICK_PERIOD_MS			( ( TickType_t ) 1000 / configTICK_RATE_HZ )
  75:../../kernel/FreeRTOS/Source/portable/GCC/ARM_CM4F/portmacro.h **** #define portBYTE_ALIGNMENT			8
  76:../../kernel/FreeRTOS/Source/portable/GCC/ARM_CM4F/portmacro.h **** /*-----------------------------------------------------------*/
  77:../../kernel/FreeRTOS/Source/portable/GCC/ARM_CM4F/portmacro.h **** 
  78:../../kernel/FreeRTOS/Source/portable/GCC/ARM_CM4F/portmacro.h **** /* Scheduler utilities. */
  79:../../kernel/FreeRTOS/Source/portable/GCC/ARM_CM4F/portmacro.h **** #define portYIELD() 															\
  80:../../kernel/FreeRTOS/Source/portable/GCC/ARM_CM4F/portmacro.h **** {																				\
  81:../../kernel/FreeRTOS/Source/portable/GCC/ARM_CM4F/portmacro.h **** 	/* Set a PendSV to request a context switch. */								\
  82:../../kernel/FreeRTOS/Source/portable/GCC/ARM_CM4F/portmacro.h **** 	portNVIC_INT_CTRL_REG = portNVIC_PENDSVSET_BIT;								\
  83:../../kernel/FreeRTOS/Source/portable/GCC/ARM_CM4F/portmacro.h **** 																				\
  84:../../kernel/FreeRTOS/Source/portable/GCC/ARM_CM4F/portmacro.h **** 	/* Barriers are normally not required but do ensure the code is completely	\
  85:../../kernel/FreeRTOS/Source/portable/GCC/ARM_CM4F/portmacro.h **** 	within the specified behaviour for the architecture. */						\
  86:../../kernel/FreeRTOS/Source/portable/GCC/ARM_CM4F/portmacro.h **** 	__asm volatile( "dsb" ::: "memory" );										\
  87:../../kernel/FreeRTOS/Source/portable/GCC/ARM_CM4F/portmacro.h **** 	__asm volatile( "isb" );													\
  88:../../kernel/FreeRTOS/Source/portable/GCC/ARM_CM4F/portmacro.h **** }
  89:../../kernel/FreeRTOS/Source/portable/GCC/ARM_CM4F/portmacro.h **** 
  90:../../kernel/FreeRTOS/Source/portable/GCC/ARM_CM4F/portmacro.h **** #define portNVIC_INT_CTRL_REG		( * ( ( volatile uint32_t * ) 0xe000ed04 ) )
ARM GAS  /tmp/cc5qDK7o.s 			page 19


  91:../../kernel/FreeRTOS/Source/portable/GCC/ARM_CM4F/portmacro.h **** #define portNVIC_PENDSVSET_BIT		( 1UL << 28UL )
  92:../../kernel/FreeRTOS/Source/portable/GCC/ARM_CM4F/portmacro.h **** #define portEND_SWITCHING_ISR( xSwitchRequired ) if( xSwitchRequired != pdFALSE ) portYIELD()
  93:../../kernel/FreeRTOS/Source/portable/GCC/ARM_CM4F/portmacro.h **** #define portYIELD_FROM_ISR( x ) portEND_SWITCHING_ISR( x )
  94:../../kernel/FreeRTOS/Source/portable/GCC/ARM_CM4F/portmacro.h **** /*-----------------------------------------------------------*/
  95:../../kernel/FreeRTOS/Source/portable/GCC/ARM_CM4F/portmacro.h **** 
  96:../../kernel/FreeRTOS/Source/portable/GCC/ARM_CM4F/portmacro.h **** /* Critical section management. */
  97:../../kernel/FreeRTOS/Source/portable/GCC/ARM_CM4F/portmacro.h **** extern void vPortEnterCritical( void );
  98:../../kernel/FreeRTOS/Source/portable/GCC/ARM_CM4F/portmacro.h **** extern void vPortExitCritical( void );
  99:../../kernel/FreeRTOS/Source/portable/GCC/ARM_CM4F/portmacro.h **** #define portSET_INTERRUPT_MASK_FROM_ISR()		ulPortRaiseBASEPRI()
 100:../../kernel/FreeRTOS/Source/portable/GCC/ARM_CM4F/portmacro.h **** #define portCLEAR_INTERRUPT_MASK_FROM_ISR(x)	vPortSetBASEPRI(x)
 101:../../kernel/FreeRTOS/Source/portable/GCC/ARM_CM4F/portmacro.h **** #define portDISABLE_INTERRUPTS()				vPortRaiseBASEPRI()
 102:../../kernel/FreeRTOS/Source/portable/GCC/ARM_CM4F/portmacro.h **** #define portENABLE_INTERRUPTS()					vPortSetBASEPRI(0)
 103:../../kernel/FreeRTOS/Source/portable/GCC/ARM_CM4F/portmacro.h **** #define portENTER_CRITICAL()					vPortEnterCritical()
 104:../../kernel/FreeRTOS/Source/portable/GCC/ARM_CM4F/portmacro.h **** #define portEXIT_CRITICAL()						vPortExitCritical()
 105:../../kernel/FreeRTOS/Source/portable/GCC/ARM_CM4F/portmacro.h **** 
 106:../../kernel/FreeRTOS/Source/portable/GCC/ARM_CM4F/portmacro.h **** /*-----------------------------------------------------------*/
 107:../../kernel/FreeRTOS/Source/portable/GCC/ARM_CM4F/portmacro.h **** 
 108:../../kernel/FreeRTOS/Source/portable/GCC/ARM_CM4F/portmacro.h **** /* Task function macros as described on the FreeRTOS.org WEB site.  These are
 109:../../kernel/FreeRTOS/Source/portable/GCC/ARM_CM4F/portmacro.h **** not necessary for to use this port.  They are defined so the common demo files
 110:../../kernel/FreeRTOS/Source/portable/GCC/ARM_CM4F/portmacro.h **** (which build with all the ports) will build. */
 111:../../kernel/FreeRTOS/Source/portable/GCC/ARM_CM4F/portmacro.h **** #define portTASK_FUNCTION_PROTO( vFunction, pvParameters ) void vFunction( void *pvParameters )
 112:../../kernel/FreeRTOS/Source/portable/GCC/ARM_CM4F/portmacro.h **** #define portTASK_FUNCTION( vFunction, pvParameters ) void vFunction( void *pvParameters )
 113:../../kernel/FreeRTOS/Source/portable/GCC/ARM_CM4F/portmacro.h **** /*-----------------------------------------------------------*/
 114:../../kernel/FreeRTOS/Source/portable/GCC/ARM_CM4F/portmacro.h **** 
 115:../../kernel/FreeRTOS/Source/portable/GCC/ARM_CM4F/portmacro.h **** /* Tickless idle/low power functionality. */
 116:../../kernel/FreeRTOS/Source/portable/GCC/ARM_CM4F/portmacro.h **** #ifndef portSUPPRESS_TICKS_AND_SLEEP
 117:../../kernel/FreeRTOS/Source/portable/GCC/ARM_CM4F/portmacro.h **** 	extern void vPortSuppressTicksAndSleep( TickType_t xExpectedIdleTime );
 118:../../kernel/FreeRTOS/Source/portable/GCC/ARM_CM4F/portmacro.h **** 	#define portSUPPRESS_TICKS_AND_SLEEP( xExpectedIdleTime ) vPortSuppressTicksAndSleep( xExpectedIdl
 119:../../kernel/FreeRTOS/Source/portable/GCC/ARM_CM4F/portmacro.h **** #endif
 120:../../kernel/FreeRTOS/Source/portable/GCC/ARM_CM4F/portmacro.h **** /*-----------------------------------------------------------*/
 121:../../kernel/FreeRTOS/Source/portable/GCC/ARM_CM4F/portmacro.h **** 
 122:../../kernel/FreeRTOS/Source/portable/GCC/ARM_CM4F/portmacro.h **** /* Architecture specific optimisations. */
 123:../../kernel/FreeRTOS/Source/portable/GCC/ARM_CM4F/portmacro.h **** #ifndef configUSE_PORT_OPTIMISED_TASK_SELECTION
 124:../../kernel/FreeRTOS/Source/portable/GCC/ARM_CM4F/portmacro.h **** 	#define configUSE_PORT_OPTIMISED_TASK_SELECTION 1
 125:../../kernel/FreeRTOS/Source/portable/GCC/ARM_CM4F/portmacro.h **** #endif
 126:../../kernel/FreeRTOS/Source/portable/GCC/ARM_CM4F/portmacro.h **** 
 127:../../kernel/FreeRTOS/Source/portable/GCC/ARM_CM4F/portmacro.h **** #if configUSE_PORT_OPTIMISED_TASK_SELECTION == 1
 128:../../kernel/FreeRTOS/Source/portable/GCC/ARM_CM4F/portmacro.h **** 
 129:../../kernel/FreeRTOS/Source/portable/GCC/ARM_CM4F/portmacro.h **** 	/* Generic helper function. */
 130:../../kernel/FreeRTOS/Source/portable/GCC/ARM_CM4F/portmacro.h **** 	__attribute__( ( always_inline ) ) static inline uint8_t ucPortCountLeadingZeros( uint32_t ulBitma
 131:../../kernel/FreeRTOS/Source/portable/GCC/ARM_CM4F/portmacro.h **** 	{
 132:../../kernel/FreeRTOS/Source/portable/GCC/ARM_CM4F/portmacro.h **** 	uint8_t ucReturn;
 133:../../kernel/FreeRTOS/Source/portable/GCC/ARM_CM4F/portmacro.h **** 
 134:../../kernel/FreeRTOS/Source/portable/GCC/ARM_CM4F/portmacro.h **** 		__asm volatile ( "clz %0, %1" : "=r" ( ucReturn ) : "r" ( ulBitmap ) : "memory" );
 135:../../kernel/FreeRTOS/Source/portable/GCC/ARM_CM4F/portmacro.h **** 		return ucReturn;
 136:../../kernel/FreeRTOS/Source/portable/GCC/ARM_CM4F/portmacro.h **** 	}
 137:../../kernel/FreeRTOS/Source/portable/GCC/ARM_CM4F/portmacro.h **** 
 138:../../kernel/FreeRTOS/Source/portable/GCC/ARM_CM4F/portmacro.h **** 	/* Check the configuration. */
 139:../../kernel/FreeRTOS/Source/portable/GCC/ARM_CM4F/portmacro.h **** 	#if( configMAX_PRIORITIES > 32 )
 140:../../kernel/FreeRTOS/Source/portable/GCC/ARM_CM4F/portmacro.h **** 		#error configUSE_PORT_OPTIMISED_TASK_SELECTION can only be set to 1 when configMAX_PRIORITIES is 
 141:../../kernel/FreeRTOS/Source/portable/GCC/ARM_CM4F/portmacro.h **** 	#endif
 142:../../kernel/FreeRTOS/Source/portable/GCC/ARM_CM4F/portmacro.h **** 
 143:../../kernel/FreeRTOS/Source/portable/GCC/ARM_CM4F/portmacro.h **** 	/* Store/clear the ready priorities in a bit map. */
 144:../../kernel/FreeRTOS/Source/portable/GCC/ARM_CM4F/portmacro.h **** 	#define portRECORD_READY_PRIORITY( uxPriority, uxReadyPriorities ) ( uxReadyPriorities ) |= ( 1UL 
 145:../../kernel/FreeRTOS/Source/portable/GCC/ARM_CM4F/portmacro.h **** 	#define portRESET_READY_PRIORITY( uxPriority, uxReadyPriorities ) ( uxReadyPriorities ) &= ~( 1UL 
 146:../../kernel/FreeRTOS/Source/portable/GCC/ARM_CM4F/portmacro.h **** 
 147:../../kernel/FreeRTOS/Source/portable/GCC/ARM_CM4F/portmacro.h **** 	/*-----------------------------------------------------------*/
ARM GAS  /tmp/cc5qDK7o.s 			page 20


 148:../../kernel/FreeRTOS/Source/portable/GCC/ARM_CM4F/portmacro.h **** 
 149:../../kernel/FreeRTOS/Source/portable/GCC/ARM_CM4F/portmacro.h **** 	#define portGET_HIGHEST_PRIORITY( uxTopPriority, uxReadyPriorities ) uxTopPriority = ( 31UL - ( ui
 150:../../kernel/FreeRTOS/Source/portable/GCC/ARM_CM4F/portmacro.h **** 
 151:../../kernel/FreeRTOS/Source/portable/GCC/ARM_CM4F/portmacro.h **** #endif /* configUSE_PORT_OPTIMISED_TASK_SELECTION */
 152:../../kernel/FreeRTOS/Source/portable/GCC/ARM_CM4F/portmacro.h **** 
 153:../../kernel/FreeRTOS/Source/portable/GCC/ARM_CM4F/portmacro.h **** /*-----------------------------------------------------------*/
 154:../../kernel/FreeRTOS/Source/portable/GCC/ARM_CM4F/portmacro.h **** 
 155:../../kernel/FreeRTOS/Source/portable/GCC/ARM_CM4F/portmacro.h **** #ifdef configASSERT
 156:../../kernel/FreeRTOS/Source/portable/GCC/ARM_CM4F/portmacro.h **** 	void vPortValidateInterruptPriority( void );
 157:../../kernel/FreeRTOS/Source/portable/GCC/ARM_CM4F/portmacro.h **** 	#define portASSERT_IF_INTERRUPT_PRIORITY_INVALID() 	vPortValidateInterruptPriority()
 158:../../kernel/FreeRTOS/Source/portable/GCC/ARM_CM4F/portmacro.h **** #endif
 159:../../kernel/FreeRTOS/Source/portable/GCC/ARM_CM4F/portmacro.h **** 
 160:../../kernel/FreeRTOS/Source/portable/GCC/ARM_CM4F/portmacro.h **** /* portNOP() is not required by this port. */
 161:../../kernel/FreeRTOS/Source/portable/GCC/ARM_CM4F/portmacro.h **** #define portNOP()
 162:../../kernel/FreeRTOS/Source/portable/GCC/ARM_CM4F/portmacro.h **** 
 163:../../kernel/FreeRTOS/Source/portable/GCC/ARM_CM4F/portmacro.h **** #define portINLINE	__inline
 164:../../kernel/FreeRTOS/Source/portable/GCC/ARM_CM4F/portmacro.h **** 
 165:../../kernel/FreeRTOS/Source/portable/GCC/ARM_CM4F/portmacro.h **** #ifndef portFORCE_INLINE
 166:../../kernel/FreeRTOS/Source/portable/GCC/ARM_CM4F/portmacro.h **** 	#define portFORCE_INLINE inline __attribute__(( always_inline))
 167:../../kernel/FreeRTOS/Source/portable/GCC/ARM_CM4F/portmacro.h **** #endif
 168:../../kernel/FreeRTOS/Source/portable/GCC/ARM_CM4F/portmacro.h **** 
 169:../../kernel/FreeRTOS/Source/portable/GCC/ARM_CM4F/portmacro.h **** portFORCE_INLINE static BaseType_t xPortIsInsideInterrupt( void )
 170:../../kernel/FreeRTOS/Source/portable/GCC/ARM_CM4F/portmacro.h **** {
 171:../../kernel/FreeRTOS/Source/portable/GCC/ARM_CM4F/portmacro.h **** uint32_t ulCurrentInterrupt;
 172:../../kernel/FreeRTOS/Source/portable/GCC/ARM_CM4F/portmacro.h **** BaseType_t xReturn;
 173:../../kernel/FreeRTOS/Source/portable/GCC/ARM_CM4F/portmacro.h **** 
 174:../../kernel/FreeRTOS/Source/portable/GCC/ARM_CM4F/portmacro.h **** 	/* Obtain the number of the currently executing interrupt. */
 175:../../kernel/FreeRTOS/Source/portable/GCC/ARM_CM4F/portmacro.h **** 	__asm volatile( "mrs %0, ipsr" : "=r"( ulCurrentInterrupt ) :: "memory" );
 176:../../kernel/FreeRTOS/Source/portable/GCC/ARM_CM4F/portmacro.h **** 
 177:../../kernel/FreeRTOS/Source/portable/GCC/ARM_CM4F/portmacro.h **** 	if( ulCurrentInterrupt == 0 )
 178:../../kernel/FreeRTOS/Source/portable/GCC/ARM_CM4F/portmacro.h **** 	{
 179:../../kernel/FreeRTOS/Source/portable/GCC/ARM_CM4F/portmacro.h **** 		xReturn = pdFALSE;
 180:../../kernel/FreeRTOS/Source/portable/GCC/ARM_CM4F/portmacro.h **** 	}
 181:../../kernel/FreeRTOS/Source/portable/GCC/ARM_CM4F/portmacro.h **** 	else
 182:../../kernel/FreeRTOS/Source/portable/GCC/ARM_CM4F/portmacro.h **** 	{
 183:../../kernel/FreeRTOS/Source/portable/GCC/ARM_CM4F/portmacro.h **** 		xReturn = pdTRUE;
 184:../../kernel/FreeRTOS/Source/portable/GCC/ARM_CM4F/portmacro.h **** 	}
 185:../../kernel/FreeRTOS/Source/portable/GCC/ARM_CM4F/portmacro.h **** 
 186:../../kernel/FreeRTOS/Source/portable/GCC/ARM_CM4F/portmacro.h **** 	return xReturn;
 187:../../kernel/FreeRTOS/Source/portable/GCC/ARM_CM4F/portmacro.h **** }
 188:../../kernel/FreeRTOS/Source/portable/GCC/ARM_CM4F/portmacro.h **** 
 189:../../kernel/FreeRTOS/Source/portable/GCC/ARM_CM4F/portmacro.h **** /*-----------------------------------------------------------*/
 190:../../kernel/FreeRTOS/Source/portable/GCC/ARM_CM4F/portmacro.h **** 
 191:../../kernel/FreeRTOS/Source/portable/GCC/ARM_CM4F/portmacro.h **** portFORCE_INLINE static void vPortRaiseBASEPRI( void )
 215              		.loc 2 191 30 view .LVU16
 216              	.LBB48:
 192:../../kernel/FreeRTOS/Source/portable/GCC/ARM_CM4F/portmacro.h **** {
 193:../../kernel/FreeRTOS/Source/portable/GCC/ARM_CM4F/portmacro.h **** uint32_t ulNewBASEPRI;
 217              		.loc 2 193 1 view .LVU17
 194:../../kernel/FreeRTOS/Source/portable/GCC/ARM_CM4F/portmacro.h **** 
 195:../../kernel/FreeRTOS/Source/portable/GCC/ARM_CM4F/portmacro.h **** 	__asm volatile
 218              		.loc 2 195 2 view .LVU18
 219              		.syntax unified
 220              	@ 195 "../../kernel/FreeRTOS/Source/portable/GCC/ARM_CM4F/portmacro.h" 1
 221 000e 4FF0A003 			mov r3, #160													@ ulNewBASEPRI,
 222 0012 83F31188 		msr basepri, r3												@ ulNewBASEPRI
 223 0016 BFF36F8F 		isb														
ARM GAS  /tmp/cc5qDK7o.s 			page 21


 224 001a BFF34F8F 		dsb														
 225              	
 226              	@ 0 "" 2
 227              	.LVL0:
 228              		.thumb
 229              		.syntax unified
 230              	.L6:
 231              		.loc 2 195 2 is_stmt 0 view .LVU19
 232              	.LBE48:
 233              	.LBE47:
 227:../../kernel/FreeRTOS/Source/portable/GCC/ARM_CM4F/port.c **** 	portDISABLE_INTERRUPTS();
 234              		.loc 1 227 2 is_stmt 1 view .LVU20
 227:../../kernel/FreeRTOS/Source/portable/GCC/ARM_CM4F/port.c **** 	portDISABLE_INTERRUPTS();
 235              		.loc 1 227 2 view .LVU21
 227:../../kernel/FreeRTOS/Source/portable/GCC/ARM_CM4F/port.c **** 	portDISABLE_INTERRUPTS();
 236              		.loc 1 227 2 view .LVU22
 227:../../kernel/FreeRTOS/Source/portable/GCC/ARM_CM4F/port.c **** 	portDISABLE_INTERRUPTS();
 237              		.loc 1 227 2 view .LVU23
 238 001e FEE7     		b	.L6		@
 239              	.L5:
 227:../../kernel/FreeRTOS/Source/portable/GCC/ARM_CM4F/port.c **** 	portDISABLE_INTERRUPTS();
 240              		.loc 1 227 2 is_stmt 0 view .LVU24
 241              	.LBE46:
 242              	.LBE45:
 227:../../kernel/FreeRTOS/Source/portable/GCC/ARM_CM4F/port.c **** 	portDISABLE_INTERRUPTS();
 243              		.loc 1 227 43 is_stmt 1 view .LVU25
 228:../../kernel/FreeRTOS/Source/portable/GCC/ARM_CM4F/port.c **** 	while( ulDummy == 0 )
 244              		.loc 1 228 2 view .LVU26
 245              	.LBB49:
 246              	.LBI49:
 191:../../kernel/FreeRTOS/Source/portable/GCC/ARM_CM4F/portmacro.h **** {
 247              		.loc 2 191 30 view .LVU27
 248              	.LBB50:
 193:../../kernel/FreeRTOS/Source/portable/GCC/ARM_CM4F/portmacro.h **** 
 249              		.loc 2 193 1 view .LVU28
 250              		.loc 2 195 2 view .LVU29
 251              		.syntax unified
 252              	@ 195 "../../kernel/FreeRTOS/Source/portable/GCC/ARM_CM4F/portmacro.h" 1
 253 0020 4FF0A003 			mov r3, #160													@ ulNewBASEPRI,
 254 0024 83F31188 		msr basepri, r3												@ ulNewBASEPRI
 255 0028 BFF36F8F 		isb														
 256 002c BFF34F8F 		dsb														
 257              	
 258              	@ 0 "" 2
 259              	.LVL1:
 260              		.thumb
 261              		.syntax unified
 262              	.L7:
 263              		.loc 2 195 2 is_stmt 0 view .LVU30
 264              	.LBE50:
 265              	.LBE49:
 238:../../kernel/FreeRTOS/Source/portable/GCC/ARM_CM4F/port.c **** }
 266              		.loc 1 238 2 is_stmt 1 discriminator 1 view .LVU31
 267              	@ ../../kernel/FreeRTOS/Source/portable/GCC/ARM_CM4F/port.c:229: 	while( ulDummy == 0 )
 229:../../kernel/FreeRTOS/Source/portable/GCC/ARM_CM4F/port.c **** 	{
 268              		.loc 1 229 17 is_stmt 0 discriminator 1 view .LVU32
 269 0030 019B     		ldr	r3, [sp, #4]	@ ulDummy.4_2, ulDummy
ARM GAS  /tmp/cc5qDK7o.s 			page 22


 270              	@ ../../kernel/FreeRTOS/Source/portable/GCC/ARM_CM4F/port.c:229: 	while( ulDummy == 0 )
 229:../../kernel/FreeRTOS/Source/portable/GCC/ARM_CM4F/port.c **** 	{
 271              		.loc 1 229 7 discriminator 1 view .LVU33
 272 0032 002B     		cmp	r3, #0	@ ulDummy.4_2
 273 0034 FCD0     		beq	.L7	@
 274              	@ ../../kernel/FreeRTOS/Source/portable/GCC/ARM_CM4F/port.c:239: }
 239:../../kernel/FreeRTOS/Source/portable/GCC/ARM_CM4F/port.c **** /*-----------------------------------------------------------*/
 275              		.loc 1 239 1 view .LVU34
 276 0036 02B0     		add	sp, sp, #8	@,,
 277              		.cfi_def_cfa_offset 0
 278              		@ sp needed	@
 279 0038 7047     		bx	lr	@
 280              	.L12:
 281 003a 00BF     		.align	2
 282              	.L11:
 283 003c 00000000 		.word	.LANCHOR0
 284              		.cfi_endproc
 285              	.LFE5:
 286              		.size	prvTaskExitError, .-prvTaskExitError
 287              		.section	.text.pxPortInitialiseStack,"ax",%progbits
 288              		.align	1
 289              		.p2align 2,,3
 290              		.global	pxPortInitialiseStack
 291              		.syntax unified
 292              		.thumb
 293              		.thumb_func
 294              		.fpu fpv4-sp-d16
 295              		.type	pxPortInitialiseStack, %function
 296              	pxPortInitialiseStack:
 297              	.LVL2:
 298              	.LFB4:
 188:../../kernel/FreeRTOS/Source/portable/GCC/ARM_CM4F/port.c **** 	/* Simulate the stack frame as it would be created by a context switch
 299              		.loc 1 188 1 is_stmt 1 view -0
 300              		.cfi_startproc
 301              		@ args = 0, pretend = 0, frame = 0
 302              		@ frame_needed = 0, uses_anonymous_args = 0
 303              		@ link register save eliminated.
 194:../../kernel/FreeRTOS/Source/portable/GCC/ARM_CM4F/port.c **** 
 304              		.loc 1 194 2 view .LVU36
 196:../../kernel/FreeRTOS/Source/portable/GCC/ARM_CM4F/port.c **** 	pxTopOfStack--;
 305              		.loc 1 196 2 view .LVU37
 306              	@ ../../kernel/FreeRTOS/Source/portable/GCC/ARM_CM4F/port.c:188: {
 188:../../kernel/FreeRTOS/Source/portable/GCC/ARM_CM4F/port.c **** 	/* Simulate the stack frame as it would be created by a context switch
 307              		.loc 1 188 1 is_stmt 0 view .LVU38
 308 0000 30B4     		push	{r4, r5}	@
 309              		.cfi_def_cfa_offset 8
 310              		.cfi_offset 4, -8
 311              		.cfi_offset 5, -4
 312              	@ ../../kernel/FreeRTOS/Source/portable/GCC/ARM_CM4F/port.c:198: 	*pxTopOfStack = ( ( StackType_t )
 198:../../kernel/FreeRTOS/Source/portable/GCC/ARM_CM4F/port.c **** 	pxTopOfStack--;
 313              		.loc 1 198 45 view .LVU39
 314 0002 21F00101 		bic	r1, r1, #1	@ tmp119, pxCode,
 315              	.LVL3:
 316              	@ ../../kernel/FreeRTOS/Source/portable/GCC/ARM_CM4F/port.c:196: 	*pxTopOfStack = portINITIAL_XPSR;
 196:../../kernel/FreeRTOS/Source/portable/GCC/ARM_CM4F/port.c **** 	pxTopOfStack--;
 317              		.loc 1 196 16 view .LVU40
 318 0006 4FF08075 		mov	r5, #16777216	@ tmp118,
ARM GAS  /tmp/cc5qDK7o.s 			page 23


 319              	@ ../../kernel/FreeRTOS/Source/portable/GCC/ARM_CM4F/port.c:200: 	*pxTopOfStack = ( StackType_t ) p
 200:../../kernel/FreeRTOS/Source/portable/GCC/ARM_CM4F/port.c **** 
 320              		.loc 1 200 16 view .LVU41
 321 000a 074C     		ldr	r4, .L15	@ tmp120,
 322 000c 40F80C4C 		str	r4, [r0, #-12]	@ tmp120, MEM[(StackType_t *)pxTopOfStack_5(D) + 4294967284B]
 323              	@ ../../kernel/FreeRTOS/Source/portable/GCC/ARM_CM4F/port.c:209: 	*pxTopOfStack = portINITIAL_EXC_R
 209:../../kernel/FreeRTOS/Source/portable/GCC/ARM_CM4F/port.c **** 
 324              		.loc 1 209 16 view .LVU42
 325 0010 6FF00203 		mvn	r3, #2	@ tmp121,
 326              	@ ../../kernel/FreeRTOS/Source/portable/GCC/ARM_CM4F/port.c:204: 	*pxTopOfStack = ( StackType_t ) p
 204:../../kernel/FreeRTOS/Source/portable/GCC/ARM_CM4F/port.c **** 
 327              		.loc 1 204 16 view .LVU43
 328 0014 40F8202C 		str	r2, [r0, #-32]	@ pvParameters, MEM[(StackType_t *)pxTopOfStack_5(D) + 4294967264B]
 329              	@ ../../kernel/FreeRTOS/Source/portable/GCC/ARM_CM4F/port.c:196: 	*pxTopOfStack = portINITIAL_XPSR;
 196:../../kernel/FreeRTOS/Source/portable/GCC/ARM_CM4F/port.c **** 	pxTopOfStack--;
 330              		.loc 1 196 16 view .LVU44
 331 0018 40E90215 		strd	r1, r5, [r0, #-8]	@ tmp119, tmp118, pxTopOfStack,
 197:../../kernel/FreeRTOS/Source/portable/GCC/ARM_CM4F/port.c **** 	*pxTopOfStack = ( ( StackType_t ) pxCode ) & portSTART_ADDRESS_MASK;	/* PC */
 332              		.loc 1 197 2 is_stmt 1 view .LVU45
 333              	.LVL4:
 198:../../kernel/FreeRTOS/Source/portable/GCC/ARM_CM4F/port.c **** 	pxTopOfStack--;
 334              		.loc 1 198 2 view .LVU46
 199:../../kernel/FreeRTOS/Source/portable/GCC/ARM_CM4F/port.c **** 	*pxTopOfStack = ( StackType_t ) portTASK_RETURN_ADDRESS;	/* LR */
 335              		.loc 1 199 2 view .LVU47
 200:../../kernel/FreeRTOS/Source/portable/GCC/ARM_CM4F/port.c **** 
 336              		.loc 1 200 2 view .LVU48
 203:../../kernel/FreeRTOS/Source/portable/GCC/ARM_CM4F/port.c **** 	*pxTopOfStack = ( StackType_t ) pvParameters;	/* R0 */
 337              		.loc 1 203 2 view .LVU49
 204:../../kernel/FreeRTOS/Source/portable/GCC/ARM_CM4F/port.c **** 
 338              		.loc 1 204 2 view .LVU50
 208:../../kernel/FreeRTOS/Source/portable/GCC/ARM_CM4F/port.c **** 	*pxTopOfStack = portINITIAL_EXC_RETURN;
 339              		.loc 1 208 2 view .LVU51
 209:../../kernel/FreeRTOS/Source/portable/GCC/ARM_CM4F/port.c **** 
 340              		.loc 1 209 2 view .LVU52
 341              	@ ../../kernel/FreeRTOS/Source/portable/GCC/ARM_CM4F/port.c:209: 	*pxTopOfStack = portINITIAL_EXC_R
 209:../../kernel/FreeRTOS/Source/portable/GCC/ARM_CM4F/port.c **** 
 342              		.loc 1 209 16 is_stmt 0 view .LVU53
 343 001c 40F8243C 		str	r3, [r0, #-36]	@ tmp121, MEM[(StackType_t *)pxTopOfStack_5(D) + 4294967260B]
 211:../../kernel/FreeRTOS/Source/portable/GCC/ARM_CM4F/port.c **** 
 344              		.loc 1 211 2 is_stmt 1 view .LVU54
 345              	.LVL5:
 213:../../kernel/FreeRTOS/Source/portable/GCC/ARM_CM4F/port.c **** }
 346              		.loc 1 213 2 view .LVU55
 347              	@ ../../kernel/FreeRTOS/Source/portable/GCC/ARM_CM4F/port.c:214: }
 214:../../kernel/FreeRTOS/Source/portable/GCC/ARM_CM4F/port.c **** /*-----------------------------------------------------------*/
 348              		.loc 1 214 1 is_stmt 0 view .LVU56
 349 0020 30BC     		pop	{r4, r5}	@
 350              		.cfi_restore 5
 351              		.cfi_restore 4
 352              		.cfi_def_cfa_offset 0
 353 0022 4438     		subs	r0, r0, #68	@, pxTopOfStack,
 354              	.LVL6:
 214:../../kernel/FreeRTOS/Source/portable/GCC/ARM_CM4F/port.c **** /*-----------------------------------------------------------*/
 355              		.loc 1 214 1 view .LVU57
 356 0024 7047     		bx	lr	@
 357              	.L16:
 358 0026 00BF     		.align	2
ARM GAS  /tmp/cc5qDK7o.s 			page 24


 359              	.L15:
 360 0028 00000000 		.word	prvTaskExitError
 361              		.cfi_endproc
 362              	.LFE4:
 363              		.size	pxPortInitialiseStack, .-pxPortInitialiseStack
 364              		.section	.text.SVC_Handler,"ax",%progbits
 365              		.align	1
 366              		.p2align 2,,3
 367              		.global	SVC_Handler
 368              		.syntax unified
 369              		.thumb
 370              		.thumb_func
 371              		.fpu fpv4-sp-d16
 372              		.type	SVC_Handler, %function
 373              	SVC_Handler:
 374              	.LFB6:
 243:../../kernel/FreeRTOS/Source/portable/GCC/ARM_CM4F/port.c **** 	__asm volatile (
 375              		.loc 1 243 1 is_stmt 1 view -0
 376              		.cfi_startproc
 377              		@ Naked Function: prologue and epilogue provided by programmer.
 378              		@ args = 0, pretend = 0, frame = 0
 379              		@ frame_needed = 0, uses_anonymous_args = 0
 244:../../kernel/FreeRTOS/Source/portable/GCC/ARM_CM4F/port.c **** 					"	ldr	r3, pxCurrentTCBConst2		\n" /* Restore the context. */
 380              		.loc 1 244 2 view .LVU59
 381              		.syntax unified
 382              	@ 244 "../../kernel/FreeRTOS/Source/portable/GCC/ARM_CM4F/port.c" 1
 383 0000 074B     			ldr	r3, pxCurrentTCBConst2		
 384 0002 1968     		ldr r1, [r3]					
 385 0004 0868     		ldr r0, [r1]					
 386 0006 B0E8F04F 		ldmia r0!, {r4-r11, r14}		
 387 000a 80F30988 		msr psp, r0						
 388 000e BFF36F8F 		isb								
 389 0012 4FF00000 		mov r0, #0 						
 390 0016 80F31188 		msr	basepri, r0					
 391 001a 7047     		bx r14							
 392              										
 393 001c AFF30080 		.align 4						
 394 0020 00000000 	pxCurrentTCBConst2: .word pxCurrentTCB				
 395              	
 396              	@ 0 "" 2
 397              	@ ../../kernel/FreeRTOS/Source/portable/GCC/ARM_CM4F/port.c:258: }
 258:../../kernel/FreeRTOS/Source/portable/GCC/ARM_CM4F/port.c **** /*-----------------------------------------------------------*/
 398              		.loc 1 258 1 is_stmt 0 view .LVU60
 399              		.thumb
 400              		.syntax unified
 401              		.cfi_endproc
 402              	.LFE6:
 403              		.size	SVC_Handler, .-SVC_Handler
 404              		.section	.text.vPortEndScheduler,"ax",%progbits
 405              		.align	1
 406              		.p2align 2,,3
 407              		.global	vPortEndScheduler
 408              		.syntax unified
 409              		.thumb
 410              		.thumb_func
 411              		.fpu fpv4-sp-d16
 412              		.type	vPortEndScheduler, %function
ARM GAS  /tmp/cc5qDK7o.s 			page 25


 413              	vPortEndScheduler:
 414              	.LFB9:
 396:../../kernel/FreeRTOS/Source/portable/GCC/ARM_CM4F/port.c **** 	/* Not implemented in ports where there is nothing to return to.
 415              		.loc 1 396 1 is_stmt 1 view -0
 416              		.cfi_startproc
 417              		@ args = 0, pretend = 0, frame = 0
 418              		@ frame_needed = 0, uses_anonymous_args = 0
 419              		@ link register save eliminated.
 399:../../kernel/FreeRTOS/Source/portable/GCC/ARM_CM4F/port.c **** }
 420              		.loc 1 399 2 view .LVU62
 421 0000 074B     		ldr	r3, .L21	@ tmp112,
 422 0002 1B68     		ldr	r3, [r3]	@ uxCriticalNesting, uxCriticalNesting
 423 0004 B3F57A7F 		cmp	r3, #1000	@ uxCriticalNesting,
 424 0008 08D0     		beq	.L18		@,
 399:../../kernel/FreeRTOS/Source/portable/GCC/ARM_CM4F/port.c **** }
 425              		.loc 1 399 2 view .LVU63
 426              	.LBB51:
 427              	.LBI51:
 191:../../kernel/FreeRTOS/Source/portable/GCC/ARM_CM4F/portmacro.h **** {
 428              		.loc 2 191 30 view .LVU64
 429              	.LBB52:
 193:../../kernel/FreeRTOS/Source/portable/GCC/ARM_CM4F/portmacro.h **** 
 430              		.loc 2 193 1 view .LVU65
 431              		.loc 2 195 2 view .LVU66
 432              		.syntax unified
 433              	@ 195 "../../kernel/FreeRTOS/Source/portable/GCC/ARM_CM4F/portmacro.h" 1
 434 000a 4FF0A003 			mov r3, #160													@ ulNewBASEPRI,
 435 000e 83F31188 		msr basepri, r3												@ ulNewBASEPRI
 436 0012 BFF36F8F 		isb														
 437 0016 BFF34F8F 		dsb														
 438              	
 439              	@ 0 "" 2
 440              	.LVL7:
 441              		.thumb
 442              		.syntax unified
 443              	.L20:
 444              		.loc 2 195 2 is_stmt 0 view .LVU67
 445              	.LBE52:
 446              	.LBE51:
 399:../../kernel/FreeRTOS/Source/portable/GCC/ARM_CM4F/port.c **** }
 447              		.loc 1 399 2 is_stmt 1 discriminator 1 view .LVU68
 399:../../kernel/FreeRTOS/Source/portable/GCC/ARM_CM4F/port.c **** }
 448              		.loc 1 399 2 discriminator 1 view .LVU69
 399:../../kernel/FreeRTOS/Source/portable/GCC/ARM_CM4F/port.c **** }
 449              		.loc 1 399 2 discriminator 1 view .LVU70
 399:../../kernel/FreeRTOS/Source/portable/GCC/ARM_CM4F/port.c **** }
 450              		.loc 1 399 2 discriminator 1 view .LVU71
 451 001a FEE7     		b	.L20		@
 452              	.L18:
 453              	@ ../../kernel/FreeRTOS/Source/portable/GCC/ARM_CM4F/port.c:400: }
 400:../../kernel/FreeRTOS/Source/portable/GCC/ARM_CM4F/port.c **** /*-----------------------------------------------------------*/
 454              		.loc 1 400 1 is_stmt 0 view .LVU72
 455 001c 7047     		bx	lr	@
 456              	.L22:
 457 001e 00BF     		.align	2
 458              	.L21:
 459 0020 00000000 		.word	.LANCHOR0
ARM GAS  /tmp/cc5qDK7o.s 			page 26


 460              		.cfi_endproc
 461              	.LFE9:
 462              		.size	vPortEndScheduler, .-vPortEndScheduler
 463              		.section	.text.vPortEnterCritical,"ax",%progbits
 464              		.align	1
 465              		.p2align 2,,3
 466              		.global	vPortEnterCritical
 467              		.syntax unified
 468              		.thumb
 469              		.thumb_func
 470              		.fpu fpv4-sp-d16
 471              		.type	vPortEnterCritical, %function
 472              	vPortEnterCritical:
 473              	.LFB10:
 404:../../kernel/FreeRTOS/Source/portable/GCC/ARM_CM4F/port.c **** 	portDISABLE_INTERRUPTS();
 474              		.loc 1 404 1 is_stmt 1 view -0
 475              		.cfi_startproc
 476              		@ args = 0, pretend = 0, frame = 0
 477              		@ frame_needed = 0, uses_anonymous_args = 0
 478              		@ link register save eliminated.
 405:../../kernel/FreeRTOS/Source/portable/GCC/ARM_CM4F/port.c **** 	uxCriticalNesting++;
 479              		.loc 1 405 2 view .LVU74
 480              	.LBB53:
 481              	.LBI53:
 191:../../kernel/FreeRTOS/Source/portable/GCC/ARM_CM4F/portmacro.h **** {
 482              		.loc 2 191 30 view .LVU75
 483              	.LBB54:
 193:../../kernel/FreeRTOS/Source/portable/GCC/ARM_CM4F/portmacro.h **** 
 484              		.loc 2 193 1 view .LVU76
 485              		.loc 2 195 2 view .LVU77
 486              		.syntax unified
 487              	@ 195 "../../kernel/FreeRTOS/Source/portable/GCC/ARM_CM4F/portmacro.h" 1
 488 0000 4FF0A003 			mov r3, #160													@ ulNewBASEPRI,
 489 0004 83F31188 		msr basepri, r3												@ ulNewBASEPRI
 490 0008 BFF36F8F 		isb														
 491 000c BFF34F8F 		dsb														
 492              	
 493              	@ 0 "" 2
 494              		.thumb
 495              		.syntax unified
 496              	.LBE54:
 497              	.LBE53:
 406:../../kernel/FreeRTOS/Source/portable/GCC/ARM_CM4F/port.c **** 
 498              		.loc 1 406 2 view .LVU78
 499              	@ ../../kernel/FreeRTOS/Source/portable/GCC/ARM_CM4F/port.c:406: 	uxCriticalNesting++;
 406:../../kernel/FreeRTOS/Source/portable/GCC/ARM_CM4F/port.c **** 
 500              		.loc 1 406 19 is_stmt 0 view .LVU79
 501 0010 0A4A     		ldr	r2, .L30	@ tmp117,
 502 0012 1368     		ldr	r3, [r2]	@ uxCriticalNesting, uxCriticalNesting
 503 0014 0133     		adds	r3, r3, #1	@ _2, uxCriticalNesting,
 504              	@ ../../kernel/FreeRTOS/Source/portable/GCC/ARM_CM4F/port.c:413: 	if( uxCriticalNesting == 1 )
 413:../../kernel/FreeRTOS/Source/portable/GCC/ARM_CM4F/port.c **** 	{
 505              		.loc 1 413 4 view .LVU80
 506 0016 012B     		cmp	r3, #1	@ _2,
 507              	@ ../../kernel/FreeRTOS/Source/portable/GCC/ARM_CM4F/port.c:406: 	uxCriticalNesting++;
 406:../../kernel/FreeRTOS/Source/portable/GCC/ARM_CM4F/port.c **** 
 508              		.loc 1 406 19 view .LVU81
ARM GAS  /tmp/cc5qDK7o.s 			page 27


 509 0018 1360     		str	r3, [r2]	@ _2, uxCriticalNesting
 413:../../kernel/FreeRTOS/Source/portable/GCC/ARM_CM4F/port.c **** 	{
 510              		.loc 1 413 2 is_stmt 1 view .LVU82
 511              	@ ../../kernel/FreeRTOS/Source/portable/GCC/ARM_CM4F/port.c:413: 	if( uxCriticalNesting == 1 )
 413:../../kernel/FreeRTOS/Source/portable/GCC/ARM_CM4F/port.c **** 	{
 512              		.loc 1 413 4 is_stmt 0 view .LVU83
 513 001a 00D0     		beq	.L29		@,
 514              	.L23:
 515              	@ ../../kernel/FreeRTOS/Source/portable/GCC/ARM_CM4F/port.c:417: }
 417:../../kernel/FreeRTOS/Source/portable/GCC/ARM_CM4F/port.c **** /*-----------------------------------------------------------*/
 516              		.loc 1 417 1 view .LVU84
 517 001c 7047     		bx	lr	@
 518              	.L29:
 415:../../kernel/FreeRTOS/Source/portable/GCC/ARM_CM4F/port.c **** 	}
 519              		.loc 1 415 3 is_stmt 1 view .LVU85
 520 001e 084B     		ldr	r3, .L30+4	@ tmp120,
 521 0020 1B68     		ldr	r3, [r3]	@ _3, MEM[(volatile uint32_t *)3758157060B]
 522 0022 13F0FF0F 		tst	r3, #255	@ _3
 523 0026 F9D0     		beq	.L23		@,
 415:../../kernel/FreeRTOS/Source/portable/GCC/ARM_CM4F/port.c **** 	}
 524              		.loc 1 415 3 view .LVU86
 525              	.LBB55:
 526              	.LBI55:
 191:../../kernel/FreeRTOS/Source/portable/GCC/ARM_CM4F/portmacro.h **** {
 527              		.loc 2 191 30 view .LVU87
 528              	.LBB56:
 193:../../kernel/FreeRTOS/Source/portable/GCC/ARM_CM4F/portmacro.h **** 
 529              		.loc 2 193 1 view .LVU88
 530              		.loc 2 195 2 view .LVU89
 531              		.syntax unified
 532              	@ 195 "../../kernel/FreeRTOS/Source/portable/GCC/ARM_CM4F/portmacro.h" 1
 533 0028 4FF0A003 			mov r3, #160													@ ulNewBASEPRI,
 534 002c 83F31188 		msr basepri, r3												@ ulNewBASEPRI
 535 0030 BFF36F8F 		isb														
 536 0034 BFF34F8F 		dsb														
 537              	
 538              	@ 0 "" 2
 539              	.LVL8:
 540              		.thumb
 541              		.syntax unified
 542              	.L25:
 543              		.loc 2 195 2 is_stmt 0 view .LVU90
 544              	.LBE56:
 545              	.LBE55:
 415:../../kernel/FreeRTOS/Source/portable/GCC/ARM_CM4F/port.c **** 	}
 546              		.loc 1 415 3 is_stmt 1 discriminator 1 view .LVU91
 415:../../kernel/FreeRTOS/Source/portable/GCC/ARM_CM4F/port.c **** 	}
 547              		.loc 1 415 3 discriminator 1 view .LVU92
 415:../../kernel/FreeRTOS/Source/portable/GCC/ARM_CM4F/port.c **** 	}
 548              		.loc 1 415 3 discriminator 1 view .LVU93
 415:../../kernel/FreeRTOS/Source/portable/GCC/ARM_CM4F/port.c **** 	}
 549              		.loc 1 415 3 discriminator 1 view .LVU94
 550 0038 FEE7     		b	.L25		@
 551              	.L31:
 552 003a 00BF     		.align	2
 553              	.L30:
 554 003c 00000000 		.word	.LANCHOR0
ARM GAS  /tmp/cc5qDK7o.s 			page 28


 555 0040 04ED00E0 		.word	-536810236
 556              		.cfi_endproc
 557              	.LFE10:
 558              		.size	vPortEnterCritical, .-vPortEnterCritical
 559              		.section	.text.vPortExitCritical,"ax",%progbits
 560              		.align	1
 561              		.p2align 2,,3
 562              		.global	vPortExitCritical
 563              		.syntax unified
 564              		.thumb
 565              		.thumb_func
 566              		.fpu fpv4-sp-d16
 567              		.type	vPortExitCritical, %function
 568              	vPortExitCritical:
 569              	.LFB11:
 421:../../kernel/FreeRTOS/Source/portable/GCC/ARM_CM4F/port.c **** 	configASSERT( uxCriticalNesting );
 570              		.loc 1 421 1 view -0
 571              		.cfi_startproc
 572              		@ args = 0, pretend = 0, frame = 0
 573              		@ frame_needed = 0, uses_anonymous_args = 0
 574              		@ link register save eliminated.
 422:../../kernel/FreeRTOS/Source/portable/GCC/ARM_CM4F/port.c **** 	uxCriticalNesting--;
 575              		.loc 1 422 2 view .LVU96
 576 0000 084A     		ldr	r2, .L36	@ tmp113,
 577 0002 1368     		ldr	r3, [r2]	@ uxCriticalNesting.16_1, uxCriticalNesting
 578 0004 43B9     		cbnz	r3, .L33	@ uxCriticalNesting.16_1,
 422:../../kernel/FreeRTOS/Source/portable/GCC/ARM_CM4F/port.c **** 	uxCriticalNesting--;
 579              		.loc 1 422 2 view .LVU97
 580              	.LBB57:
 581              	.LBI57:
 191:../../kernel/FreeRTOS/Source/portable/GCC/ARM_CM4F/portmacro.h **** {
 582              		.loc 2 191 30 view .LVU98
 583              	.LBB58:
 193:../../kernel/FreeRTOS/Source/portable/GCC/ARM_CM4F/portmacro.h **** 
 584              		.loc 2 193 1 view .LVU99
 585              		.loc 2 195 2 view .LVU100
 586              		.syntax unified
 587              	@ 195 "../../kernel/FreeRTOS/Source/portable/GCC/ARM_CM4F/portmacro.h" 1
 588 0006 4FF0A003 			mov r3, #160													@ ulNewBASEPRI,
 589 000a 83F31188 		msr basepri, r3												@ ulNewBASEPRI
 590 000e BFF36F8F 		isb														
 591 0012 BFF34F8F 		dsb														
 592              	
 593              	@ 0 "" 2
 594              	.LVL9:
 595              		.thumb
 596              		.syntax unified
 597              	.L34:
 598              		.loc 2 195 2 is_stmt 0 view .LVU101
 599              	.LBE58:
 600              	.LBE57:
 422:../../kernel/FreeRTOS/Source/portable/GCC/ARM_CM4F/port.c **** 	uxCriticalNesting--;
 601              		.loc 1 422 2 is_stmt 1 discriminator 1 view .LVU102
 422:../../kernel/FreeRTOS/Source/portable/GCC/ARM_CM4F/port.c **** 	uxCriticalNesting--;
 602              		.loc 1 422 2 discriminator 1 view .LVU103
 422:../../kernel/FreeRTOS/Source/portable/GCC/ARM_CM4F/port.c **** 	uxCriticalNesting--;
 603              		.loc 1 422 2 discriminator 1 view .LVU104
ARM GAS  /tmp/cc5qDK7o.s 			page 29


 422:../../kernel/FreeRTOS/Source/portable/GCC/ARM_CM4F/port.c **** 	uxCriticalNesting--;
 604              		.loc 1 422 2 discriminator 1 view .LVU105
 605 0016 FEE7     		b	.L34		@
 606              	.L33:
 422:../../kernel/FreeRTOS/Source/portable/GCC/ARM_CM4F/port.c **** 	uxCriticalNesting--;
 607              		.loc 1 422 35 discriminator 2 view .LVU106
 423:../../kernel/FreeRTOS/Source/portable/GCC/ARM_CM4F/port.c **** 	if( uxCriticalNesting == 0 )
 608              		.loc 1 423 2 discriminator 2 view .LVU107
 609              	@ ../../kernel/FreeRTOS/Source/portable/GCC/ARM_CM4F/port.c:423: 	uxCriticalNesting--;
 423:../../kernel/FreeRTOS/Source/portable/GCC/ARM_CM4F/port.c **** 	if( uxCriticalNesting == 0 )
 610              		.loc 1 423 19 is_stmt 0 discriminator 2 view .LVU108
 611 0018 013B     		subs	r3, r3, #1	@ _2, uxCriticalNesting.16_1,
 612 001a 1360     		str	r3, [r2]	@ _2, uxCriticalNesting
 424:../../kernel/FreeRTOS/Source/portable/GCC/ARM_CM4F/port.c **** 	{
 613              		.loc 1 424 2 is_stmt 1 discriminator 2 view .LVU109
 614              	@ ../../kernel/FreeRTOS/Source/portable/GCC/ARM_CM4F/port.c:424: 	if( uxCriticalNesting == 0 )
 424:../../kernel/FreeRTOS/Source/portable/GCC/ARM_CM4F/port.c **** 	{
 615              		.loc 1 424 4 is_stmt 0 discriminator 2 view .LVU110
 616 001c 0BB9     		cbnz	r3, .L32	@ _2,
 426:../../kernel/FreeRTOS/Source/portable/GCC/ARM_CM4F/port.c **** 	}
 617              		.loc 1 426 3 is_stmt 1 view .LVU111
 618              	.LVL10:
 619              	.LBB59:
 620              	.LBI59:
 196:../../kernel/FreeRTOS/Source/portable/GCC/ARM_CM4F/portmacro.h **** 	(
 197:../../kernel/FreeRTOS/Source/portable/GCC/ARM_CM4F/portmacro.h **** 		"	mov %0, %1												\n"	\
 198:../../kernel/FreeRTOS/Source/portable/GCC/ARM_CM4F/portmacro.h **** 		"	msr basepri, %0											\n" \
 199:../../kernel/FreeRTOS/Source/portable/GCC/ARM_CM4F/portmacro.h **** 		"	isb														\n" \
 200:../../kernel/FreeRTOS/Source/portable/GCC/ARM_CM4F/portmacro.h **** 		"	dsb														\n" \
 201:../../kernel/FreeRTOS/Source/portable/GCC/ARM_CM4F/portmacro.h **** 		:"=r" (ulNewBASEPRI) : "i" ( configMAX_SYSCALL_INTERRUPT_PRIORITY ) : "memory"
 202:../../kernel/FreeRTOS/Source/portable/GCC/ARM_CM4F/portmacro.h **** 	);
 203:../../kernel/FreeRTOS/Source/portable/GCC/ARM_CM4F/portmacro.h **** }
 204:../../kernel/FreeRTOS/Source/portable/GCC/ARM_CM4F/portmacro.h **** 
 205:../../kernel/FreeRTOS/Source/portable/GCC/ARM_CM4F/portmacro.h **** /*-----------------------------------------------------------*/
 206:../../kernel/FreeRTOS/Source/portable/GCC/ARM_CM4F/portmacro.h **** 
 207:../../kernel/FreeRTOS/Source/portable/GCC/ARM_CM4F/portmacro.h **** portFORCE_INLINE static uint32_t ulPortRaiseBASEPRI( void )
 208:../../kernel/FreeRTOS/Source/portable/GCC/ARM_CM4F/portmacro.h **** {
 209:../../kernel/FreeRTOS/Source/portable/GCC/ARM_CM4F/portmacro.h **** uint32_t ulOriginalBASEPRI, ulNewBASEPRI;
 210:../../kernel/FreeRTOS/Source/portable/GCC/ARM_CM4F/portmacro.h **** 
 211:../../kernel/FreeRTOS/Source/portable/GCC/ARM_CM4F/portmacro.h **** 	__asm volatile
 212:../../kernel/FreeRTOS/Source/portable/GCC/ARM_CM4F/portmacro.h **** 	(
 213:../../kernel/FreeRTOS/Source/portable/GCC/ARM_CM4F/portmacro.h **** 		"	mrs %0, basepri											\n" \
 214:../../kernel/FreeRTOS/Source/portable/GCC/ARM_CM4F/portmacro.h **** 		"	mov %1, %2												\n"	\
 215:../../kernel/FreeRTOS/Source/portable/GCC/ARM_CM4F/portmacro.h **** 		"	msr basepri, %1											\n" \
 216:../../kernel/FreeRTOS/Source/portable/GCC/ARM_CM4F/portmacro.h **** 		"	isb														\n" \
 217:../../kernel/FreeRTOS/Source/portable/GCC/ARM_CM4F/portmacro.h **** 		"	dsb														\n" \
 218:../../kernel/FreeRTOS/Source/portable/GCC/ARM_CM4F/portmacro.h **** 		:"=r" (ulOriginalBASEPRI), "=r" (ulNewBASEPRI) : "i" ( configMAX_SYSCALL_INTERRUPT_PRIORITY ) : "
 219:../../kernel/FreeRTOS/Source/portable/GCC/ARM_CM4F/portmacro.h **** 	);
 220:../../kernel/FreeRTOS/Source/portable/GCC/ARM_CM4F/portmacro.h **** 
 221:../../kernel/FreeRTOS/Source/portable/GCC/ARM_CM4F/portmacro.h **** 	/* This return will not be reached but is necessary to prevent compiler
 222:../../kernel/FreeRTOS/Source/portable/GCC/ARM_CM4F/portmacro.h **** 	warnings. */
 223:../../kernel/FreeRTOS/Source/portable/GCC/ARM_CM4F/portmacro.h **** 	return ulOriginalBASEPRI;
 224:../../kernel/FreeRTOS/Source/portable/GCC/ARM_CM4F/portmacro.h **** }
 225:../../kernel/FreeRTOS/Source/portable/GCC/ARM_CM4F/portmacro.h **** /*-----------------------------------------------------------*/
 226:../../kernel/FreeRTOS/Source/portable/GCC/ARM_CM4F/portmacro.h **** 
 227:../../kernel/FreeRTOS/Source/portable/GCC/ARM_CM4F/portmacro.h **** portFORCE_INLINE static void vPortSetBASEPRI( uint32_t ulNewMaskValue )
 621              		.loc 2 227 30 view .LVU112
ARM GAS  /tmp/cc5qDK7o.s 			page 30


 622              	.LBB60:
 228:../../kernel/FreeRTOS/Source/portable/GCC/ARM_CM4F/portmacro.h **** {
 229:../../kernel/FreeRTOS/Source/portable/GCC/ARM_CM4F/portmacro.h **** 	__asm volatile
 623              		.loc 2 229 2 view .LVU113
 624              		.syntax unified
 625              	@ 229 "../../kernel/FreeRTOS/Source/portable/GCC/ARM_CM4F/portmacro.h" 1
 626 001e 83F31188 			msr basepri, r3		@ _2
 627              	@ 0 "" 2
 628              	.LVL11:
 629              		.thumb
 630              		.syntax unified
 631              	.L32:
 632              		.loc 2 229 2 is_stmt 0 view .LVU114
 633              	.LBE60:
 634              	.LBE59:
 635              	@ ../../kernel/FreeRTOS/Source/portable/GCC/ARM_CM4F/port.c:428: }
 428:../../kernel/FreeRTOS/Source/portable/GCC/ARM_CM4F/port.c **** /*-----------------------------------------------------------*/
 636              		.loc 1 428 1 view .LVU115
 637 0022 7047     		bx	lr	@
 638              	.L37:
 639              		.align	2
 640              	.L36:
 641 0024 00000000 		.word	.LANCHOR0
 642              		.cfi_endproc
 643              	.LFE11:
 644              		.size	vPortExitCritical, .-vPortExitCritical
 645              		.section	.text.PendSV_Handler,"ax",%progbits
 646              		.align	1
 647              		.p2align 2,,3
 648              		.global	PendSV_Handler
 649              		.syntax unified
 650              		.thumb
 651              		.thumb_func
 652              		.fpu fpv4-sp-d16
 653              		.type	PendSV_Handler, %function
 654              	PendSV_Handler:
 655              	.LFB12:
 432:../../kernel/FreeRTOS/Source/portable/GCC/ARM_CM4F/port.c **** 	/* This is a naked function. */
 656              		.loc 1 432 1 is_stmt 1 view -0
 657              		.cfi_startproc
 658              		@ Naked Function: prologue and epilogue provided by programmer.
 659              		@ args = 0, pretend = 0, frame = 0
 660              		@ frame_needed = 0, uses_anonymous_args = 0
 435:../../kernel/FreeRTOS/Source/portable/GCC/ARM_CM4F/port.c **** 	(
 661              		.loc 1 435 2 view .LVU117
 662              		.syntax unified
 663              	@ 435 "../../kernel/FreeRTOS/Source/portable/GCC/ARM_CM4F/port.c" 1
 664 0000 EFF30980 			mrs r0, psp							
 665 0004 BFF36F8F 		isb									
 666              											
 667 0008 154B     		ldr	r3, pxCurrentTCBConst			
 668 000a 1A68     		ldr	r2, [r3]						
 669              											
 670 000c 1EF0100F 		tst r14, #0x10						
 671 0010 08BF     		it eq								
 672 0012 20ED108A 		vstmdbeq r0!, {s16-s31}				
 673              											
ARM GAS  /tmp/cc5qDK7o.s 			page 31


 674 0016 20E9F04F 		stmdb r0!, {r4-r11, r14}			
 675 001a 1060     		str r0, [r2]						
 676              											
 677 001c 2DE90900 		stmdb sp!, {r0, r3}					
 678 0020 4FF0A000 		mov r0, #160 								@
 679 0024 80F31188 		msr basepri, r0						
 680 0028 BFF34F8F 		dsb									
 681 002c BFF36F8F 		isb									
 682 0030 FFF7FEFF 		bl vTaskSwitchContext				
 683 0034 4FF00000 		mov r0, #0							
 684 0038 80F31188 		msr basepri, r0						
 685 003c 09BC     		ldmia sp!, {r0, r3}					
 686              											
 687 003e 1968     		ldr r1, [r3]						
 688 0040 0868     		ldr r0, [r1]						
 689              											
 690 0042 B0E8F04F 		ldmia r0!, {r4-r11, r14}			
 691              											
 692 0046 1EF0100F 		tst r14, #0x10						
 693 004a 08BF     		it eq								
 694 004c B0EC108A 		vldmiaeq r0!, {s16-s31}				
 695              											
 696 0050 80F30988 		msr psp, r0							
 697 0054 BFF36F8F 		isb									
 698              											
 699              											
 700 0058 7047     		bx r14								
 701              											
 702 005a 00BFAFF3 		.align 4							
 702      0080
 703 0060 00000000 	pxCurrentTCBConst: .word pxCurrentTCB	
 704              	
 705              	@ 0 "" 2
 706              	@ ../../kernel/FreeRTOS/Source/portable/GCC/ARM_CM4F/port.c:485: }
 485:../../kernel/FreeRTOS/Source/portable/GCC/ARM_CM4F/port.c **** /*-----------------------------------------------------------*/
 707              		.loc 1 485 1 is_stmt 0 view .LVU118
 708              		.thumb
 709              		.syntax unified
 710              		.cfi_endproc
 711              	.LFE12:
 712              		.size	PendSV_Handler, .-PendSV_Handler
 713              		.section	.text.SysTick_Handler,"ax",%progbits
 714              		.align	1
 715              		.p2align 2,,3
 716              		.global	SysTick_Handler
 717              		.syntax unified
 718              		.thumb
 719              		.thumb_func
 720              		.fpu fpv4-sp-d16
 721              		.type	SysTick_Handler, %function
 722              	SysTick_Handler:
 723              	.LFB13:
 489:../../kernel/FreeRTOS/Source/portable/GCC/ARM_CM4F/port.c **** 	/* The SysTick runs at the lowest interrupt priority, so when this interrupt
 724              		.loc 1 489 1 is_stmt 1 view -0
 725              		.cfi_startproc
 726              		@ args = 0, pretend = 0, frame = 0
 727              		@ frame_needed = 0, uses_anonymous_args = 0
ARM GAS  /tmp/cc5qDK7o.s 			page 32


 494:../../kernel/FreeRTOS/Source/portable/GCC/ARM_CM4F/port.c **** 	{
 728              		.loc 1 494 2 view .LVU120
 729              	.LBB61:
 730              	.LBI61:
 191:../../kernel/FreeRTOS/Source/portable/GCC/ARM_CM4F/portmacro.h **** {
 731              		.loc 2 191 30 view .LVU121
 732              	.LBB62:
 193:../../kernel/FreeRTOS/Source/portable/GCC/ARM_CM4F/portmacro.h **** 
 733              		.loc 2 193 1 view .LVU122
 195:../../kernel/FreeRTOS/Source/portable/GCC/ARM_CM4F/portmacro.h **** 	(
 734              		.loc 2 195 2 view .LVU123
 735              	.LBE62:
 736              	.LBE61:
 737              	@ ../../kernel/FreeRTOS/Source/portable/GCC/ARM_CM4F/port.c:489: {
 489:../../kernel/FreeRTOS/Source/portable/GCC/ARM_CM4F/port.c **** 	/* The SysTick runs at the lowest interrupt priority, so when this interrupt
 738              		.loc 1 489 1 is_stmt 0 view .LVU124
 739 0000 08B5     		push	{r3, lr}	@
 740              		.cfi_def_cfa_offset 8
 741              		.cfi_offset 3, -8
 742              		.cfi_offset 14, -4
 743              	.LBB64:
 744              	.LBB63:
 745              	@ ../../kernel/FreeRTOS/Source/portable/GCC/ARM_CM4F/portmacro.h:195: 	__asm volatile
 195:../../kernel/FreeRTOS/Source/portable/GCC/ARM_CM4F/portmacro.h **** 	(
 746              		.loc 2 195 2 view .LVU125
 747              		.syntax unified
 748              	@ 195 "../../kernel/FreeRTOS/Source/portable/GCC/ARM_CM4F/portmacro.h" 1
 749 0002 4FF0A003 			mov r3, #160													@ ulNewBASEPRI,
 750 0006 83F31188 		msr basepri, r3												@ ulNewBASEPRI
 751 000a BFF36F8F 		isb														
 752 000e BFF34F8F 		dsb														
 753              	
 754              	@ 0 "" 2
 755              		.thumb
 756              		.syntax unified
 757              	.LBE63:
 758              	.LBE64:
 497:../../kernel/FreeRTOS/Source/portable/GCC/ARM_CM4F/port.c **** 		{
 759              		.loc 1 497 3 is_stmt 1 view .LVU126
 760              	@ ../../kernel/FreeRTOS/Source/portable/GCC/ARM_CM4F/port.c:497: 		if( xTaskIncrementTick() != pdFA
 497:../../kernel/FreeRTOS/Source/portable/GCC/ARM_CM4F/port.c **** 		{
 761              		.loc 1 497 7 is_stmt 0 view .LVU127
 762 0012 FFF7FEFF 		bl	xTaskIncrementTick		@
 763              	.LVL12:
 764              	@ ../../kernel/FreeRTOS/Source/portable/GCC/ARM_CM4F/port.c:497: 		if( xTaskIncrementTick() != pdFA
 497:../../kernel/FreeRTOS/Source/portable/GCC/ARM_CM4F/port.c **** 		{
 765              		.loc 1 497 5 view .LVU128
 766 0016 18B1     		cbz	r0, .L40	@,
 501:../../kernel/FreeRTOS/Source/portable/GCC/ARM_CM4F/port.c **** 		}
 767              		.loc 1 501 4 is_stmt 1 view .LVU129
 768              	@ ../../kernel/FreeRTOS/Source/portable/GCC/ARM_CM4F/port.c:501: 			portNVIC_INT_CTRL_REG = portNVI
 501:../../kernel/FreeRTOS/Source/portable/GCC/ARM_CM4F/port.c **** 		}
 769              		.loc 1 501 26 is_stmt 0 view .LVU130
 770 0018 034B     		ldr	r3, .L45	@ tmp113,
 771 001a 4FF08052 		mov	r2, #268435456	@ tmp114,
 772 001e 1A60     		str	r2, [r3]	@ tmp114, MEM[(volatile uint32_t *)3758157060B]
 773              	.L40:
ARM GAS  /tmp/cc5qDK7o.s 			page 33


 504:../../kernel/FreeRTOS/Source/portable/GCC/ARM_CM4F/port.c **** }
 774              		.loc 1 504 2 is_stmt 1 view .LVU131
 775              	.LVL13:
 776              	.LBB65:
 777              	.LBI65:
 227:../../kernel/FreeRTOS/Source/portable/GCC/ARM_CM4F/portmacro.h **** {
 778              		.loc 2 227 30 view .LVU132
 779              	.LBB66:
 780              		.loc 2 229 2 view .LVU133
 781 0020 0023     		movs	r3, #0	@ tmp115,
 782              		.syntax unified
 783              	@ 229 "../../kernel/FreeRTOS/Source/portable/GCC/ARM_CM4F/portmacro.h" 1
 784 0022 83F31188 			msr basepri, r3		@ tmp115
 785              	@ 0 "" 2
 786              	.LVL14:
 787              		.loc 2 229 2 is_stmt 0 view .LVU134
 788              		.thumb
 789              		.syntax unified
 790              	.LBE66:
 791              	.LBE65:
 792              	@ ../../kernel/FreeRTOS/Source/portable/GCC/ARM_CM4F/port.c:505: }
 505:../../kernel/FreeRTOS/Source/portable/GCC/ARM_CM4F/port.c **** /*-----------------------------------------------------------*/
 793              		.loc 1 505 1 view .LVU135
 794 0026 08BD     		pop	{r3, pc}	@
 795              	.L46:
 796              		.align	2
 797              	.L45:
 798 0028 04ED00E0 		.word	-536810236
 799              		.cfi_endproc
 800              	.LFE13:
 801              		.size	SysTick_Handler, .-SysTick_Handler
 802              		.section	.text.vPortSuppressTicksAndSleep,"ax",%progbits
 803              		.align	1
 804              		.p2align 2,,3
 805              		.weak	vPortSuppressTicksAndSleep
 806              		.syntax unified
 807              		.thumb
 808              		.thumb_func
 809              		.fpu fpv4-sp-d16
 810              		.type	vPortSuppressTicksAndSleep, %function
 811              	vPortSuppressTicksAndSleep:
 812              	.LVL15:
 813              	.LFB14:
 511:../../kernel/FreeRTOS/Source/portable/GCC/ARM_CM4F/port.c **** 	uint32_t ulReloadValue, ulCompleteTickPeriods, ulCompletedSysTickDecrements;
 814              		.loc 1 511 2 is_stmt 1 view -0
 815              		.cfi_startproc
 816              		@ args = 0, pretend = 0, frame = 0
 817              		@ frame_needed = 0, uses_anonymous_args = 0
 512:../../kernel/FreeRTOS/Source/portable/GCC/ARM_CM4F/port.c **** 	TickType_t xModifiableIdleTime;
 818              		.loc 1 512 2 view .LVU137
 513:../../kernel/FreeRTOS/Source/portable/GCC/ARM_CM4F/port.c **** 
 819              		.loc 1 513 2 view .LVU138
 516:../../kernel/FreeRTOS/Source/portable/GCC/ARM_CM4F/port.c **** 		{
 820              		.loc 1 516 3 view .LVU139
 821              	@ ../../kernel/FreeRTOS/Source/portable/GCC/ARM_CM4F/port.c:525: 		portNVIC_SYSTICK_CTRL_REG &= ~po
 525:../../kernel/FreeRTOS/Source/portable/GCC/ARM_CM4F/port.c **** 
 822              		.loc 1 525 29 is_stmt 0 view .LVU140
ARM GAS  /tmp/cc5qDK7o.s 			page 34


 823 0000 404A     		ldr	r2, .L61	@ tmp151,
 824              	@ ../../kernel/FreeRTOS/Source/portable/GCC/ARM_CM4F/port.c:516: 		if( xExpectedIdleTime > xMaximum
 516:../../kernel/FreeRTOS/Source/portable/GCC/ARM_CM4F/port.c **** 		{
 825              		.loc 1 516 25 view .LVU141
 826 0002 4149     		ldr	r1, .L61+4	@ tmp149,
 827              	@ ../../kernel/FreeRTOS/Source/portable/GCC/ARM_CM4F/port.c:525: 		portNVIC_SYSTICK_CTRL_REG &= ~po
 525:../../kernel/FreeRTOS/Source/portable/GCC/ARM_CM4F/port.c **** 
 828              		.loc 1 525 29 view .LVU142
 829 0004 1368     		ldr	r3, [r2]	@ _3, MEM[(volatile uint32_t *)3758153744B]
 830              	@ ../../kernel/FreeRTOS/Source/portable/GCC/ARM_CM4F/port.c:511: 	{
 511:../../kernel/FreeRTOS/Source/portable/GCC/ARM_CM4F/port.c **** 	uint32_t ulReloadValue, ulCompleteTickPeriods, ulCompletedSysTickDecrements;
 831              		.loc 1 511 2 view .LVU143
 832 0006 2DE9F041 		push	{r4, r5, r6, r7, r8, lr}	@
 833              		.cfi_def_cfa_offset 24
 834              		.cfi_offset 4, -24
 835              		.cfi_offset 5, -20
 836              		.cfi_offset 6, -16
 837              		.cfi_offset 7, -12
 838              		.cfi_offset 8, -8
 839              		.cfi_offset 14, -4
 840 000a 0C68     		ldr	r4, [r1]	@ xMaximumPossibleSuppressedTicks, xMaximumPossibleSuppressedTicks
 841              	@ ../../kernel/FreeRTOS/Source/portable/GCC/ARM_CM4F/port.c:530: 		ulReloadValue = portNVIC_SYSTICK
 530:../../kernel/FreeRTOS/Source/portable/GCC/ARM_CM4F/port.c **** 		if( ulReloadValue > ulStoppedTimerCompensation )
 842              		.loc 1 530 82 view .LVU144
 843 000c 3F4D     		ldr	r5, .L61+8	@ tmp197,
 844              	@ ../../kernel/FreeRTOS/Source/portable/GCC/ARM_CM4F/port.c:530: 		ulReloadValue = portNVIC_SYSTICK
 530:../../kernel/FreeRTOS/Source/portable/GCC/ARM_CM4F/port.c **** 		if( ulReloadValue > ulStoppedTimerCompensation )
 845              		.loc 1 530 19 view .LVU145
 846 000e 4049     		ldr	r1, .L61+12	@ tmp153,
 847              	@ ../../kernel/FreeRTOS/Source/portable/GCC/ARM_CM4F/port.c:531: 		if( ulReloadValue > ulStoppedTim
 531:../../kernel/FreeRTOS/Source/portable/GCC/ARM_CM4F/port.c **** 		{
 848              		.loc 1 531 21 view .LVU146
 849 0010 404F     		ldr	r7, .L61+16	@ tmp196,
 850 0012 8442     		cmp	r4, r0	@ xMaximumPossibleSuppressedTicks, xExpectedIdleTime
 851              	@ ../../kernel/FreeRTOS/Source/portable/GCC/ARM_CM4F/port.c:525: 		portNVIC_SYSTICK_CTRL_REG &= ~po
 525:../../kernel/FreeRTOS/Source/portable/GCC/ARM_CM4F/port.c **** 
 852              		.loc 1 525 29 view .LVU147
 853 0014 23F00103 		bic	r3, r3, #1	@ _4, _3,
 854 0018 28BF     		it	cs
 855 001a 0446     		movcs	r4, r0	@ xMaximumPossibleSuppressedTicks, xExpectedIdleTime
 856 001c 1360     		str	r3, [r2]	@ _4, MEM[(volatile uint32_t *)3758153744B]
 857 001e A046     		mov	r8, r4	@ xExpectedIdleTime, xMaximumPossibleSuppressedTicks
 858              	.LVL16:
 525:../../kernel/FreeRTOS/Source/portable/GCC/ARM_CM4F/port.c **** 
 859              		.loc 1 525 3 is_stmt 1 view .LVU148
 530:../../kernel/FreeRTOS/Source/portable/GCC/ARM_CM4F/port.c **** 		if( ulReloadValue > ulStoppedTimerCompensation )
 860              		.loc 1 530 3 view .LVU149
 861              	@ ../../kernel/FreeRTOS/Source/portable/GCC/ARM_CM4F/port.c:530: 		ulReloadValue = portNVIC_SYSTICK
 530:../../kernel/FreeRTOS/Source/portable/GCC/ARM_CM4F/port.c **** 		if( ulReloadValue > ulStoppedTimerCompensation )
 862              		.loc 1 530 19 is_stmt 0 view .LVU150
 863 0020 0968     		ldr	r1, [r1]	@ _5, MEM[(volatile uint32_t *)3758153752B]
 864              	@ ../../kernel/FreeRTOS/Source/portable/GCC/ARM_CM4F/port.c:530: 		ulReloadValue = portNVIC_SYSTICK
 530:../../kernel/FreeRTOS/Source/portable/GCC/ARM_CM4F/port.c **** 		if( ulReloadValue > ulStoppedTimerCompensation )
 865              		.loc 1 530 82 view .LVU151
 866 0022 2C68     		ldr	r4, [r5]	@ ulTimerCountsForOneTick, ulTimerCountsForOneTick
 867              	.LVL17:
 868              	@ ../../kernel/FreeRTOS/Source/portable/GCC/ARM_CM4F/port.c:531: 		if( ulReloadValue > ulStoppedTim
ARM GAS  /tmp/cc5qDK7o.s 			page 35


 531:../../kernel/FreeRTOS/Source/portable/GCC/ARM_CM4F/port.c **** 		{
 869              		.loc 1 531 21 view .LVU152
 870 0024 3A68     		ldr	r2, [r7]	@ ulStoppedTimerCompensation.21_9, ulStoppedTimerCompensation
 871              	@ ../../kernel/FreeRTOS/Source/portable/GCC/ARM_CM4F/port.c:530: 		ulReloadValue = portNVIC_SYSTICK
 530:../../kernel/FreeRTOS/Source/portable/GCC/ARM_CM4F/port.c **** 		if( ulReloadValue > ulStoppedTimerCompensation )
 872              		.loc 1 530 104 view .LVU153
 873 0026 08F1FF36 		add	r6, r8, #-1	@ ulCompleteTickPeriods, xExpectedIdleTime,
 874              	@ ../../kernel/FreeRTOS/Source/portable/GCC/ARM_CM4F/port.c:530: 		ulReloadValue = portNVIC_SYSTICK
 530:../../kernel/FreeRTOS/Source/portable/GCC/ARM_CM4F/port.c **** 		if( ulReloadValue > ulStoppedTimerCompensation )
 875              		.loc 1 530 17 view .LVU154
 876 002a 04FB0614 		mla	r4, r4, r6, r1	@ ulReloadValue, ulTimerCountsForOneTick, ulCompleteTickPeriods, _5
 877              	.LVL18:
 531:../../kernel/FreeRTOS/Source/portable/GCC/ARM_CM4F/port.c **** 		{
 878              		.loc 1 531 3 is_stmt 1 view .LVU155
 879              	@ ../../kernel/FreeRTOS/Source/portable/GCC/ARM_CM4F/port.c:531: 		if( ulReloadValue > ulStoppedTim
 531:../../kernel/FreeRTOS/Source/portable/GCC/ARM_CM4F/port.c **** 		{
 880              		.loc 1 531 5 is_stmt 0 view .LVU156
 881 002e A242     		cmp	r2, r4	@ ulStoppedTimerCompensation.21_9, ulReloadValue
 533:../../kernel/FreeRTOS/Source/portable/GCC/ARM_CM4F/port.c **** 		}
 882              		.loc 1 533 4 is_stmt 1 view .LVU157
 883              	@ ../../kernel/FreeRTOS/Source/portable/GCC/ARM_CM4F/port.c:533: 			ulReloadValue -= ulStoppedTimer
 533:../../kernel/FreeRTOS/Source/portable/GCC/ARM_CM4F/port.c **** 		}
 884              		.loc 1 533 18 is_stmt 0 view .LVU158
 885 0030 38BF     		it	cc
 886 0032 A41A     		subcc	r4, r4, r2	@ ulReloadValue, ulReloadValue, ulStoppedTimerCompensation.21_9
 887              	.LVL19:
 538:../../kernel/FreeRTOS/Source/portable/GCC/ARM_CM4F/port.c **** 		__asm volatile( "dsb" );
 888              		.loc 1 538 3 is_stmt 1 view .LVU159
 889              		.syntax unified
 890              	@ 538 "../../kernel/FreeRTOS/Source/portable/GCC/ARM_CM4F/port.c" 1
 891 0034 72B6     		cpsid i	
 892              	@ 0 "" 2
 539:../../kernel/FreeRTOS/Source/portable/GCC/ARM_CM4F/port.c **** 		__asm volatile( "isb" );
 893              		.loc 1 539 3 view .LVU160
 894              	@ 539 "../../kernel/FreeRTOS/Source/portable/GCC/ARM_CM4F/port.c" 1
 895 0036 BFF34F8F 		dsb
 896              	@ 0 "" 2
 540:../../kernel/FreeRTOS/Source/portable/GCC/ARM_CM4F/port.c **** 
 897              		.loc 1 540 3 view .LVU161
 898              	@ 540 "../../kernel/FreeRTOS/Source/portable/GCC/ARM_CM4F/port.c" 1
 899 003a BFF36F8F 		isb
 900              	@ 0 "" 2
 544:../../kernel/FreeRTOS/Source/portable/GCC/ARM_CM4F/port.c **** 		{
 901              		.loc 1 544 3 view .LVU162
 902              	@ ../../kernel/FreeRTOS/Source/portable/GCC/ARM_CM4F/port.c:544: 		if( eTaskConfirmSleepModeStatus(
 544:../../kernel/FreeRTOS/Source/portable/GCC/ARM_CM4F/port.c **** 		{
 903              		.loc 1 544 7 is_stmt 0 view .LVU163
 904              		.thumb
 905              		.syntax unified
 906 003e FFF7FEFF 		bl	eTaskConfirmSleepModeStatus		@
 907              	.LVL20:
 908              	@ ../../kernel/FreeRTOS/Source/portable/GCC/ARM_CM4F/port.c:544: 		if( eTaskConfirmSleepModeStatus(
 544:../../kernel/FreeRTOS/Source/portable/GCC/ARM_CM4F/port.c **** 		{
 909              		.loc 1 544 5 view .LVU164
 910 0042 70B9     		cbnz	r0, .L49	@,
 548:../../kernel/FreeRTOS/Source/portable/GCC/ARM_CM4F/port.c **** 
 911              		.loc 1 548 4 is_stmt 1 view .LVU165
ARM GAS  /tmp/cc5qDK7o.s 			page 36


 912              	@ ../../kernel/FreeRTOS/Source/portable/GCC/ARM_CM4F/port.c:548: 			portNVIC_SYSTICK_LOAD_REG = por
 548:../../kernel/FreeRTOS/Source/portable/GCC/ARM_CM4F/port.c **** 
 913              		.loc 1 548 32 is_stmt 0 view .LVU166
 914 0044 324B     		ldr	r3, .L61+12	@ tmp159,
 915              	@ ../../kernel/FreeRTOS/Source/portable/GCC/ARM_CM4F/port.c:548: 			portNVIC_SYSTICK_LOAD_REG = por
 548:../../kernel/FreeRTOS/Source/portable/GCC/ARM_CM4F/port.c **** 
 916              		.loc 1 548 30 view .LVU167
 917 0046 344A     		ldr	r2, .L61+20	@ tmp160,
 918              	@ ../../kernel/FreeRTOS/Source/portable/GCC/ARM_CM4F/port.c:548: 			portNVIC_SYSTICK_LOAD_REG = por
 548:../../kernel/FreeRTOS/Source/portable/GCC/ARM_CM4F/port.c **** 
 919              		.loc 1 548 32 view .LVU168
 920 0048 1B68     		ldr	r3, [r3]	@ _11, MEM[(volatile uint32_t *)3758153752B]
 921              	@ ../../kernel/FreeRTOS/Source/portable/GCC/ARM_CM4F/port.c:551: 			portNVIC_SYSTICK_CTRL_REG |= po
 551:../../kernel/FreeRTOS/Source/portable/GCC/ARM_CM4F/port.c **** 
 922              		.loc 1 551 30 view .LVU169
 923 004a 2E49     		ldr	r1, .L61	@ tmp161,
 924              	@ ../../kernel/FreeRTOS/Source/portable/GCC/ARM_CM4F/port.c:548: 			portNVIC_SYSTICK_LOAD_REG = por
 548:../../kernel/FreeRTOS/Source/portable/GCC/ARM_CM4F/port.c **** 
 925              		.loc 1 548 30 view .LVU170
 926 004c 1360     		str	r3, [r2]	@ _11, MEM[(volatile uint32_t *)3758153748B]
 551:../../kernel/FreeRTOS/Source/portable/GCC/ARM_CM4F/port.c **** 
 927              		.loc 1 551 4 is_stmt 1 view .LVU171
 928              	@ ../../kernel/FreeRTOS/Source/portable/GCC/ARM_CM4F/port.c:551: 			portNVIC_SYSTICK_CTRL_REG |= po
 551:../../kernel/FreeRTOS/Source/portable/GCC/ARM_CM4F/port.c **** 
 929              		.loc 1 551 30 is_stmt 0 view .LVU172
 930 004e 0B68     		ldr	r3, [r1]	@ _12, MEM[(volatile uint32_t *)3758153744B]
 931 0050 43F00103 		orr	r3, r3, #1	@ _13, _12,
 932 0054 0B60     		str	r3, [r1]	@ _13, MEM[(volatile uint32_t *)3758153744B]
 555:../../kernel/FreeRTOS/Source/portable/GCC/ARM_CM4F/port.c **** 
 933              		.loc 1 555 4 is_stmt 1 view .LVU173
 934              	@ ../../kernel/FreeRTOS/Source/portable/GCC/ARM_CM4F/port.c:555: 			portNVIC_SYSTICK_LOAD_REG = ulT
 555:../../kernel/FreeRTOS/Source/portable/GCC/ARM_CM4F/port.c **** 
 935              		.loc 1 555 56 is_stmt 0 view .LVU174
 936 0056 2B68     		ldr	r3, [r5]	@ ulTimerCountsForOneTick, ulTimerCountsForOneTick
 937 0058 013B     		subs	r3, r3, #1	@ _15, ulTimerCountsForOneTick,
 938              	@ ../../kernel/FreeRTOS/Source/portable/GCC/ARM_CM4F/port.c:555: 			portNVIC_SYSTICK_LOAD_REG = ulT
 555:../../kernel/FreeRTOS/Source/portable/GCC/ARM_CM4F/port.c **** 
 939              		.loc 1 555 30 view .LVU175
 940 005a 1360     		str	r3, [r2]	@ _15,
 559:../../kernel/FreeRTOS/Source/portable/GCC/ARM_CM4F/port.c **** 		}
 941              		.loc 1 559 4 is_stmt 1 view .LVU176
 942              		.syntax unified
 943              	@ 559 "../../kernel/FreeRTOS/Source/portable/GCC/ARM_CM4F/port.c" 1
 944 005c 62B6     		cpsie i	
 945              	@ 0 "" 2
 946              	@ ../../kernel/FreeRTOS/Source/portable/GCC/ARM_CM4F/port.c:670: 	}
 670:../../kernel/FreeRTOS/Source/portable/GCC/ARM_CM4F/port.c **** 
 947              		.loc 1 670 2 is_stmt 0 view .LVU177
 948              		.thumb
 949              		.syntax unified
 950 005e BDE8F081 		pop	{r4, r5, r6, r7, r8, pc}	@
 951              	.LVL21:
 952              	.L49:
 564:../../kernel/FreeRTOS/Source/portable/GCC/ARM_CM4F/port.c **** 
 953              		.loc 1 564 4 is_stmt 1 view .LVU178
 954              	@ ../../kernel/FreeRTOS/Source/portable/GCC/ARM_CM4F/port.c:564: 			portNVIC_SYSTICK_LOAD_REG = ulR
 564:../../kernel/FreeRTOS/Source/portable/GCC/ARM_CM4F/port.c **** 
ARM GAS  /tmp/cc5qDK7o.s 			page 37


 955              		.loc 1 564 30 is_stmt 0 view .LVU179
 956 0062 2D49     		ldr	r1, .L61+20	@ tmp166,
 957              	@ ../../kernel/FreeRTOS/Source/portable/GCC/ARM_CM4F/port.c:568: 			portNVIC_SYSTICK_CURRENT_VALUE_
 568:../../kernel/FreeRTOS/Source/portable/GCC/ARM_CM4F/port.c **** 
 958              		.loc 1 568 39 view .LVU180
 959 0064 2A4A     		ldr	r2, .L61+12	@ tmp167,
 960              	@ ../../kernel/FreeRTOS/Source/portable/GCC/ARM_CM4F/port.c:564: 			portNVIC_SYSTICK_LOAD_REG = ulR
 564:../../kernel/FreeRTOS/Source/portable/GCC/ARM_CM4F/port.c **** 
 961              		.loc 1 564 30 view .LVU181
 962 0066 0C60     		str	r4, [r1]	@ ulReloadValue, MEM[(volatile uint32_t *)3758153748B]
 568:../../kernel/FreeRTOS/Source/portable/GCC/ARM_CM4F/port.c **** 
 963              		.loc 1 568 4 is_stmt 1 view .LVU182
 964              	@ ../../kernel/FreeRTOS/Source/portable/GCC/ARM_CM4F/port.c:571: 			portNVIC_SYSTICK_CTRL_REG |= po
 571:../../kernel/FreeRTOS/Source/portable/GCC/ARM_CM4F/port.c **** 
 965              		.loc 1 571 30 is_stmt 0 view .LVU183
 966 0068 264B     		ldr	r3, .L61	@ tmp169,
 967              	@ ../../kernel/FreeRTOS/Source/portable/GCC/ARM_CM4F/port.c:568: 			portNVIC_SYSTICK_CURRENT_VALUE_
 568:../../kernel/FreeRTOS/Source/portable/GCC/ARM_CM4F/port.c **** 
 968              		.loc 1 568 39 view .LVU184
 969 006a 0021     		movs	r1, #0	@ tmp168,
 970 006c 1160     		str	r1, [r2]	@ tmp168, MEM[(volatile uint32_t *)3758153752B]
 571:../../kernel/FreeRTOS/Source/portable/GCC/ARM_CM4F/port.c **** 
 971              		.loc 1 571 4 is_stmt 1 view .LVU185
 972              	@ ../../kernel/FreeRTOS/Source/portable/GCC/ARM_CM4F/port.c:571: 			portNVIC_SYSTICK_CTRL_REG |= po
 571:../../kernel/FreeRTOS/Source/portable/GCC/ARM_CM4F/port.c **** 
 973              		.loc 1 571 30 is_stmt 0 view .LVU186
 974 006e 1A68     		ldr	r2, [r3]	@ _16, MEM[(volatile uint32_t *)3758153744B]
 975 0070 42F00102 		orr	r2, r2, #1	@ _17, _16,
 976 0074 1A60     		str	r2, [r3]	@ _17, MEM[(volatile uint32_t *)3758153744B]
 578:../../kernel/FreeRTOS/Source/portable/GCC/ARM_CM4F/port.c **** 			configPRE_SLEEP_PROCESSING( xModifiableIdleTime );
 977              		.loc 1 578 4 is_stmt 1 view .LVU187
 978              	.LVL22:
 579:../../kernel/FreeRTOS/Source/portable/GCC/ARM_CM4F/port.c **** 			if( xModifiableIdleTime > 0 )
 979              		.loc 1 579 53 view .LVU188
 580:../../kernel/FreeRTOS/Source/portable/GCC/ARM_CM4F/port.c **** 			{
 980              		.loc 1 580 4 view .LVU189
 981              	@ ../../kernel/FreeRTOS/Source/portable/GCC/ARM_CM4F/port.c:580: 			if( xModifiableIdleTime > 0 )
 580:../../kernel/FreeRTOS/Source/portable/GCC/ARM_CM4F/port.c **** 			{
 982              		.loc 1 580 6 is_stmt 0 view .LVU190
 983 0076 B8F1000F 		cmp	r8, #0	@ xExpectedIdleTime
 984 007a 04D0     		beq	.L51	@
 582:../../kernel/FreeRTOS/Source/portable/GCC/ARM_CM4F/port.c **** 				__asm volatile( "wfi" );
 985              		.loc 1 582 5 is_stmt 1 view .LVU191
 986              		.syntax unified
 987              	@ 582 "../../kernel/FreeRTOS/Source/portable/GCC/ARM_CM4F/port.c" 1
 988 007c BFF34F8F 		dsb	
 989              	@ 0 "" 2
 583:../../kernel/FreeRTOS/Source/portable/GCC/ARM_CM4F/port.c **** 				__asm volatile( "isb" );
 990              		.loc 1 583 5 view .LVU192
 991              	@ 583 "../../kernel/FreeRTOS/Source/portable/GCC/ARM_CM4F/port.c" 1
 992 0080 30BF     		wfi
 993              	@ 0 "" 2
 584:../../kernel/FreeRTOS/Source/portable/GCC/ARM_CM4F/port.c **** 			}
 994              		.loc 1 584 5 view .LVU193
 995              	@ 584 "../../kernel/FreeRTOS/Source/portable/GCC/ARM_CM4F/port.c" 1
 996 0082 BFF36F8F 		isb
 997              	@ 0 "" 2
ARM GAS  /tmp/cc5qDK7o.s 			page 38


 998              		.thumb
 999              		.syntax unified
 1000              	.L51:
 586:../../kernel/FreeRTOS/Source/portable/GCC/ARM_CM4F/port.c **** 
 1001              		.loc 1 586 52 view .LVU194
 591:../../kernel/FreeRTOS/Source/portable/GCC/ARM_CM4F/port.c **** 			__asm volatile( "dsb" );
 1002              		.loc 1 591 4 view .LVU195
 1003              		.syntax unified
 1004              	@ 591 "../../kernel/FreeRTOS/Source/portable/GCC/ARM_CM4F/port.c" 1
 1005 0086 62B6     		cpsie i	
 1006              	@ 0 "" 2
 592:../../kernel/FreeRTOS/Source/portable/GCC/ARM_CM4F/port.c **** 			__asm volatile( "isb" );
 1007              		.loc 1 592 4 view .LVU196
 1008              	@ 592 "../../kernel/FreeRTOS/Source/portable/GCC/ARM_CM4F/port.c" 1
 1009 0088 BFF34F8F 		dsb
 1010              	@ 0 "" 2
 593:../../kernel/FreeRTOS/Source/portable/GCC/ARM_CM4F/port.c **** 
 1011              		.loc 1 593 4 view .LVU197
 1012              	@ 593 "../../kernel/FreeRTOS/Source/portable/GCC/ARM_CM4F/port.c" 1
 1013 008c BFF36F8F 		isb
 1014              	@ 0 "" 2
 599:../../kernel/FreeRTOS/Source/portable/GCC/ARM_CM4F/port.c **** 			__asm volatile( "dsb" );
 1015              		.loc 1 599 4 view .LVU198
 1016              	@ 599 "../../kernel/FreeRTOS/Source/portable/GCC/ARM_CM4F/port.c" 1
 1017 0090 72B6     		cpsid i	
 1018              	@ 0 "" 2
 600:../../kernel/FreeRTOS/Source/portable/GCC/ARM_CM4F/port.c **** 			__asm volatile( "isb" );
 1019              		.loc 1 600 4 view .LVU199
 1020              	@ 600 "../../kernel/FreeRTOS/Source/portable/GCC/ARM_CM4F/port.c" 1
 1021 0092 BFF34F8F 		dsb
 1022              	@ 0 "" 2
 601:../../kernel/FreeRTOS/Source/portable/GCC/ARM_CM4F/port.c **** 
 1023              		.loc 1 601 4 view .LVU200
 1024              	@ 601 "../../kernel/FreeRTOS/Source/portable/GCC/ARM_CM4F/port.c" 1
 1025 0096 BFF36F8F 		isb
 1026              	@ 0 "" 2
 610:../../kernel/FreeRTOS/Source/portable/GCC/ARM_CM4F/port.c **** 
 1027              		.loc 1 610 4 view .LVU201
 1028              	@ ../../kernel/FreeRTOS/Source/portable/GCC/ARM_CM4F/port.c:610: 			portNVIC_SYSTICK_CTRL_REG = ( p
 610:../../kernel/FreeRTOS/Source/portable/GCC/ARM_CM4F/port.c **** 
 1029              		.loc 1 610 30 is_stmt 0 view .LVU202
 1030              		.thumb
 1031              		.syntax unified
 1032 009a 1A4B     		ldr	r3, .L61	@ tmp171,
 1033 009c 0622     		movs	r2, #6	@ tmp172,
 1034 009e 1A60     		str	r2, [r3]	@ tmp172, MEM[(volatile uint32_t *)3758153744B]
 617:../../kernel/FreeRTOS/Source/portable/GCC/ARM_CM4F/port.c **** 			{
 1035              		.loc 1 617 4 is_stmt 1 view .LVU203
 1036              	@ ../../kernel/FreeRTOS/Source/portable/GCC/ARM_CM4F/port.c:617: 			if( ( portNVIC_SYSTICK_CTRL_REG
 617:../../kernel/FreeRTOS/Source/portable/GCC/ARM_CM4F/port.c **** 			{
 1037              		.loc 1 617 10 is_stmt 0 view .LVU204
 1038 00a0 1B68     		ldr	r3, [r3]	@ _18, MEM[(volatile uint32_t *)3758153744B]
 1039              	.LBB67:
 1040              	@ ../../kernel/FreeRTOS/Source/portable/GCC/ARM_CM4F/port.c:625: 				ulCalculatedLoadValue = ( ulTi
 625:../../kernel/FreeRTOS/Source/portable/GCC/ARM_CM4F/port.c **** 
 1041              		.loc 1 625 63 view .LVU205
 1042 00a2 2A68     		ldr	r2, [r5]	@ ulTimerCountsForOneTick.24_20, ulTimerCountsForOneTick
ARM GAS  /tmp/cc5qDK7o.s 			page 39


 1043              	.LBE67:
 1044              	@ ../../kernel/FreeRTOS/Source/portable/GCC/ARM_CM4F/port.c:617: 			if( ( portNVIC_SYSTICK_CTRL_REG
 617:../../kernel/FreeRTOS/Source/portable/GCC/ARM_CM4F/port.c **** 			{
 1045              		.loc 1 617 6 view .LVU206
 1046 00a4 13F4803F 		tst	r3, #65536	@ _18,
 1047              	.LBB68:
 1048              	@ ../../kernel/FreeRTOS/Source/portable/GCC/ARM_CM4F/port.c:625: 				ulCalculatedLoadValue = ( ulTi
 625:../../kernel/FreeRTOS/Source/portable/GCC/ARM_CM4F/port.c **** 
 1049              		.loc 1 625 83 view .LVU207
 1050 00a8 194B     		ldr	r3, .L61+12	@ tmp176,
 1051              	.LBE68:
 1052              	@ ../../kernel/FreeRTOS/Source/portable/GCC/ARM_CM4F/port.c:617: 			if( ( portNVIC_SYSTICK_CTRL_REG
 617:../../kernel/FreeRTOS/Source/portable/GCC/ARM_CM4F/port.c **** 			{
 1053              		.loc 1 617 6 view .LVU208
 1054 00aa 0AD0     		beq	.L52		@,
 1055              	.LBB69:
 619:../../kernel/FreeRTOS/Source/portable/GCC/ARM_CM4F/port.c **** 
 1056              		.loc 1 619 5 is_stmt 1 view .LVU209
 625:../../kernel/FreeRTOS/Source/portable/GCC/ARM_CM4F/port.c **** 
 1057              		.loc 1 625 5 view .LVU210
 1058              	@ ../../kernel/FreeRTOS/Source/portable/GCC/ARM_CM4F/port.c:625: 				ulCalculatedLoadValue = ( ulTi
 625:../../kernel/FreeRTOS/Source/portable/GCC/ARM_CM4F/port.c **** 
 1059              		.loc 1 625 83 is_stmt 0 view .LVU211
 1060 00ac 1B68     		ldr	r3, [r3]	@ _21, MEM[(volatile uint32_t *)3758153752B]
 1061              	@ ../../kernel/FreeRTOS/Source/portable/GCC/ARM_CM4F/port.c:630: 				if( ( ulCalculatedLoadValue < 
 630:../../kernel/FreeRTOS/Source/portable/GCC/ARM_CM4F/port.c **** 				{
 1062              		.loc 1 630 7 view .LVU212
 1063 00ae 3968     		ldr	r1, [r7]	@ ulStoppedTimerCompensation, ulStoppedTimerCompensation
 1064              	@ ../../kernel/FreeRTOS/Source/portable/GCC/ARM_CM4F/port.c:625: 				ulCalculatedLoadValue = ( ulTi
 625:../../kernel/FreeRTOS/Source/portable/GCC/ARM_CM4F/port.c **** 
 1065              		.loc 1 625 27 view .LVU213
 1066 00b0 1344     		add	r3, r3, r2	@ tmp177, ulTimerCountsForOneTick.24_20
 1067 00b2 013B     		subs	r3, r3, #1	@ tmp178, tmp177,
 1068 00b4 1C1B     		subs	r4, r3, r4	@ ulCalculatedLoadValue, tmp178, ulReloadValue
 1069              	.LVL23:
 630:../../kernel/FreeRTOS/Source/portable/GCC/ARM_CM4F/port.c **** 				{
 1070              		.loc 1 630 5 is_stmt 1 view .LVU214
 1071              	@ ../../kernel/FreeRTOS/Source/portable/GCC/ARM_CM4F/port.c:630: 				if( ( ulCalculatedLoadValue < 
 630:../../kernel/FreeRTOS/Source/portable/GCC/ARM_CM4F/port.c **** 				{
 1072              		.loc 1 630 7 is_stmt 0 view .LVU215
 1073 00b6 A142     		cmp	r1, r4	@ ulStoppedTimerCompensation, ulCalculatedLoadValue
 1074 00b8 21D9     		bls	.L60		@,
 1075              	.L53:
 632:../../kernel/FreeRTOS/Source/portable/GCC/ARM_CM4F/port.c **** 				}
 1076              		.loc 1 632 6 is_stmt 1 view .LVU216
 1077              	@ ../../kernel/FreeRTOS/Source/portable/GCC/ARM_CM4F/port.c:632: 					ulCalculatedLoadValue = ( ulT
 632:../../kernel/FreeRTOS/Source/portable/GCC/ARM_CM4F/port.c **** 				}
 1078              		.loc 1 632 28 is_stmt 0 view .LVU217
 1079 00ba 541E     		subs	r4, r2, #1	@ ulCalculatedLoadValue, ulTimerCountsForOneTick.24_20,
 1080              	.LVL24:
 1081              	.L54:
 635:../../kernel/FreeRTOS/Source/portable/GCC/ARM_CM4F/port.c **** 
 1082              		.loc 1 635 5 is_stmt 1 view .LVU218
 1083              	@ ../../kernel/FreeRTOS/Source/portable/GCC/ARM_CM4F/port.c:635: 				portNVIC_SYSTICK_LOAD_REG = ul
 635:../../kernel/FreeRTOS/Source/portable/GCC/ARM_CM4F/port.c **** 
 1084              		.loc 1 635 31 is_stmt 0 view .LVU219
 1085 00bc 164B     		ldr	r3, .L61+20	@ tmp181,
ARM GAS  /tmp/cc5qDK7o.s 			page 40


 1086 00be 1C60     		str	r4, [r3]	@ ulCalculatedLoadValue, MEM[(volatile uint32_t *)3758153748B]
 640:../../kernel/FreeRTOS/Source/portable/GCC/ARM_CM4F/port.c **** 			}
 1087              		.loc 1 640 5 is_stmt 1 view .LVU220
 1088              	.LVL25:
 640:../../kernel/FreeRTOS/Source/portable/GCC/ARM_CM4F/port.c **** 			}
 1089              		.loc 1 640 5 is_stmt 0 view .LVU221
 1090              	.LBE69:
 1091 00c0 0BE0     		b	.L55		@
 1092              	.LVL26:
 1093              	.L52:
 648:../../kernel/FreeRTOS/Source/portable/GCC/ARM_CM4F/port.c **** 
 1094              		.loc 1 648 5 is_stmt 1 view .LVU222
 1095              	@ ../../kernel/FreeRTOS/Source/portable/GCC/ARM_CM4F/port.c:648: 				ulCompletedSysTickDecrements =
 648:../../kernel/FreeRTOS/Source/portable/GCC/ARM_CM4F/port.c **** 
 1096              		.loc 1 648 86 is_stmt 0 view .LVU223
 1097 00c2 1968     		ldr	r1, [r3]	@ _27, MEM[(volatile uint32_t *)3758153752B]
 1098              	@ ../../kernel/FreeRTOS/Source/portable/GCC/ARM_CM4F/port.c:656: 				portNVIC_SYSTICK_LOAD_REG = ( 
 656:../../kernel/FreeRTOS/Source/portable/GCC/ARM_CM4F/port.c **** 			}
 1099              		.loc 1 656 31 view .LVU224
 1100 00c4 1448     		ldr	r0, .L61+20	@ tmp188,
 1101              	@ ../../kernel/FreeRTOS/Source/portable/GCC/ARM_CM4F/port.c:648: 				ulCompletedSysTickDecrements =
 648:../../kernel/FreeRTOS/Source/portable/GCC/ARM_CM4F/port.c **** 
 1102              		.loc 1 648 56 view .LVU225
 1103 00c6 08FB02F3 		mul	r3, r8, r2	@ _26, xExpectedIdleTime, ulTimerCountsForOneTick.28_25
 1104              	.LVL27:
 652:../../kernel/FreeRTOS/Source/portable/GCC/ARM_CM4F/port.c **** 
 1105              		.loc 1 652 5 is_stmt 1 view .LVU226
 1106              	@ ../../kernel/FreeRTOS/Source/portable/GCC/ARM_CM4F/port.c:648: 				ulCompletedSysTickDecrements =
 648:../../kernel/FreeRTOS/Source/portable/GCC/ARM_CM4F/port.c **** 
 1107              		.loc 1 648 34 is_stmt 0 view .LVU227
 1108 00ca 5E1A     		subs	r6, r3, r1	@ ulCompletedSysTickDecrements, _26, _27
 1109              	.LVL28:
 1110              	@ ../../kernel/FreeRTOS/Source/portable/GCC/ARM_CM4F/port.c:656: 				portNVIC_SYSTICK_LOAD_REG = ( 
 656:../../kernel/FreeRTOS/Source/portable/GCC/ARM_CM4F/port.c **** 			}
 1111              		.loc 1 656 95 view .LVU228
 1112 00cc CB1A     		subs	r3, r1, r3	@ tmp187, _27, _26
 1113              	@ ../../kernel/FreeRTOS/Source/portable/GCC/ARM_CM4F/port.c:652: 				ulCompleteTickPeriods = ulComp
 652:../../kernel/FreeRTOS/Source/portable/GCC/ARM_CM4F/port.c **** 
 1114              		.loc 1 652 27 view .LVU229
 1115 00ce B6FBF2F6 		udiv	r6, r6, r2	@ ulCompleteTickPeriods, ulCompletedSysTickDecrements, ulTimerCountsForOneTick.28_
 1116              	.LVL29:
 656:../../kernel/FreeRTOS/Source/portable/GCC/ARM_CM4F/port.c **** 			}
 1117              		.loc 1 656 5 is_stmt 1 view .LVU230
 1118              	@ ../../kernel/FreeRTOS/Source/portable/GCC/ARM_CM4F/port.c:656: 				portNVIC_SYSTICK_LOAD_REG = ( 
 656:../../kernel/FreeRTOS/Source/portable/GCC/ARM_CM4F/port.c **** 			}
 1119              		.loc 1 656 67 is_stmt 0 view .LVU231
 1120 00d2 06FB0222 		mla	r2, r6, r2, r2	@ tmp186, ulCompleteTickPeriods, ulTimerCountsForOneTick.28_25, ulTimerCountsFo
 1121              	.LVL30:
 1122              	@ ../../kernel/FreeRTOS/Source/portable/GCC/ARM_CM4F/port.c:656: 				portNVIC_SYSTICK_LOAD_REG = ( 
 656:../../kernel/FreeRTOS/Source/portable/GCC/ARM_CM4F/port.c **** 			}
 1123              		.loc 1 656 95 view .LVU232
 1124 00d6 1A44     		add	r2, r2, r3	@ _30, tmp187
 1125              	@ ../../kernel/FreeRTOS/Source/portable/GCC/ARM_CM4F/port.c:656: 				portNVIC_SYSTICK_LOAD_REG = ( 
 656:../../kernel/FreeRTOS/Source/portable/GCC/ARM_CM4F/port.c **** 			}
 1126              		.loc 1 656 31 view .LVU233
 1127 00d8 0260     		str	r2, [r0]	@ _30, MEM[(volatile uint32_t *)3758153748B]
 1128              	.LVL31:
ARM GAS  /tmp/cc5qDK7o.s 			page 41


 1129              	.L55:
 662:../../kernel/FreeRTOS/Source/portable/GCC/ARM_CM4F/port.c **** 			portNVIC_SYSTICK_CTRL_REG |= portNVIC_SYSTICK_ENABLE_BIT;
 1130              		.loc 1 662 4 is_stmt 1 view .LVU234
 1131              	@ ../../kernel/FreeRTOS/Source/portable/GCC/ARM_CM4F/port.c:662: 			portNVIC_SYSTICK_CURRENT_VALUE_
 662:../../kernel/FreeRTOS/Source/portable/GCC/ARM_CM4F/port.c **** 			portNVIC_SYSTICK_CTRL_REG |= portNVIC_SYSTICK_ENABLE_BIT;
 1132              		.loc 1 662 39 is_stmt 0 view .LVU235
 1133 00da 0D4B     		ldr	r3, .L61+12	@ tmp189,
 1134              	@ ../../kernel/FreeRTOS/Source/portable/GCC/ARM_CM4F/port.c:663: 			portNVIC_SYSTICK_CTRL_REG |= po
 663:../../kernel/FreeRTOS/Source/portable/GCC/ARM_CM4F/port.c **** 			vTaskStepTick( ulCompleteTickPeriods );
 1135              		.loc 1 663 30 view .LVU236
 1136 00dc 094A     		ldr	r2, .L61	@ tmp191,
 1137              	@ ../../kernel/FreeRTOS/Source/portable/GCC/ARM_CM4F/port.c:662: 			portNVIC_SYSTICK_CURRENT_VALUE_
 662:../../kernel/FreeRTOS/Source/portable/GCC/ARM_CM4F/port.c **** 			portNVIC_SYSTICK_CTRL_REG |= portNVIC_SYSTICK_ENABLE_BIT;
 1138              		.loc 1 662 39 view .LVU237
 1139 00de 0021     		movs	r1, #0	@ tmp190,
 1140 00e0 1960     		str	r1, [r3]	@ tmp190, MEM[(volatile uint32_t *)3758153752B]
 663:../../kernel/FreeRTOS/Source/portable/GCC/ARM_CM4F/port.c **** 			vTaskStepTick( ulCompleteTickPeriods );
 1141              		.loc 1 663 4 is_stmt 1 view .LVU238
 1142              	@ ../../kernel/FreeRTOS/Source/portable/GCC/ARM_CM4F/port.c:663: 			portNVIC_SYSTICK_CTRL_REG |= po
 663:../../kernel/FreeRTOS/Source/portable/GCC/ARM_CM4F/port.c **** 			vTaskStepTick( ulCompleteTickPeriods );
 1143              		.loc 1 663 30 is_stmt 0 view .LVU239
 1144 00e2 1368     		ldr	r3, [r2]	@ _31, MEM[(volatile uint32_t *)3758153744B]
 1145 00e4 43F00103 		orr	r3, r3, #1	@ _32, _31,
 1146 00e8 1360     		str	r3, [r2]	@ _32, MEM[(volatile uint32_t *)3758153744B]
 664:../../kernel/FreeRTOS/Source/portable/GCC/ARM_CM4F/port.c **** 			portNVIC_SYSTICK_LOAD_REG = ulTimerCountsForOneTick - 1UL;
 1147              		.loc 1 664 4 is_stmt 1 view .LVU240
 1148 00ea 3046     		mov	r0, r6	@, ulCompleteTickPeriods
 1149 00ec FFF7FEFF 		bl	vTaskStepTick		@
 1150              	.LVL32:
 665:../../kernel/FreeRTOS/Source/portable/GCC/ARM_CM4F/port.c **** 
 1151              		.loc 1 665 4 view .LVU241
 1152              	@ ../../kernel/FreeRTOS/Source/portable/GCC/ARM_CM4F/port.c:665: 			portNVIC_SYSTICK_LOAD_REG = ulT
 665:../../kernel/FreeRTOS/Source/portable/GCC/ARM_CM4F/port.c **** 
 1153              		.loc 1 665 56 is_stmt 0 view .LVU242
 1154 00f0 2B68     		ldr	r3, [r5]	@ ulTimerCountsForOneTick, ulTimerCountsForOneTick
 1155              	@ ../../kernel/FreeRTOS/Source/portable/GCC/ARM_CM4F/port.c:665: 			portNVIC_SYSTICK_LOAD_REG = ulT
 665:../../kernel/FreeRTOS/Source/portable/GCC/ARM_CM4F/port.c **** 
 1156              		.loc 1 665 30 view .LVU243
 1157 00f2 094A     		ldr	r2, .L61+20	@ tmp195,
 1158              	@ ../../kernel/FreeRTOS/Source/portable/GCC/ARM_CM4F/port.c:665: 			portNVIC_SYSTICK_LOAD_REG = ulT
 665:../../kernel/FreeRTOS/Source/portable/GCC/ARM_CM4F/port.c **** 
 1159              		.loc 1 665 56 view .LVU244
 1160 00f4 013B     		subs	r3, r3, #1	@ _34, ulTimerCountsForOneTick,
 1161              	@ ../../kernel/FreeRTOS/Source/portable/GCC/ARM_CM4F/port.c:665: 			portNVIC_SYSTICK_LOAD_REG = ulT
 665:../../kernel/FreeRTOS/Source/portable/GCC/ARM_CM4F/port.c **** 
 1162              		.loc 1 665 30 view .LVU245
 1163 00f6 1360     		str	r3, [r2]	@ _34,
 668:../../kernel/FreeRTOS/Source/portable/GCC/ARM_CM4F/port.c **** 		}
 1164              		.loc 1 668 4 is_stmt 1 view .LVU246
 1165              		.syntax unified
 1166              	@ 668 "../../kernel/FreeRTOS/Source/portable/GCC/ARM_CM4F/port.c" 1
 1167 00f8 62B6     		cpsie i	
 1168              	@ 0 "" 2
 1169              	@ ../../kernel/FreeRTOS/Source/portable/GCC/ARM_CM4F/port.c:670: 	}
 670:../../kernel/FreeRTOS/Source/portable/GCC/ARM_CM4F/port.c **** 
 1170              		.loc 1 670 2 is_stmt 0 view .LVU247
 1171              		.thumb
ARM GAS  /tmp/cc5qDK7o.s 			page 42


 1172              		.syntax unified
 1173 00fa BDE8F081 		pop	{r4, r5, r6, r7, r8, pc}	@
 1174              	.LVL33:
 1175              	.L60:
 1176              	.LBB70:
 1177              	@ ../../kernel/FreeRTOS/Source/portable/GCC/ARM_CM4F/port.c:630: 				if( ( ulCalculatedLoadValue < 
 630:../../kernel/FreeRTOS/Source/portable/GCC/ARM_CM4F/port.c **** 				{
 1178              		.loc 1 630 64 discriminator 1 view .LVU248
 1179 00fe A242     		cmp	r2, r4	@ ulTimerCountsForOneTick.24_20, ulCalculatedLoadValue
 1180 0100 DCD2     		bcs	.L54		@,
 1181 0102 DAE7     		b	.L53		@
 1182              	.L62:
 1183              		.align	2
 1184              	.L61:
 1185 0104 10E000E0 		.word	-536813552
 1186 0108 00000000 		.word	.LANCHOR1
 1187 010c 00000000 		.word	.LANCHOR2
 1188 0110 18E000E0 		.word	-536813544
 1189 0114 00000000 		.word	.LANCHOR3
 1190 0118 14E000E0 		.word	-536813548
 1191              	.LBE70:
 1192              		.cfi_endproc
 1193              	.LFE14:
 1194              		.size	vPortSuppressTicksAndSleep, .-vPortSuppressTicksAndSleep
 1195              		.section	.text.vPortSetupTimerInterrupt,"ax",%progbits
 1196              		.align	1
 1197              		.p2align 2,,3
 1198              		.weak	vPortSetupTimerInterrupt
 1199              		.syntax unified
 1200              		.thumb
 1201              		.thumb_func
 1202              		.fpu fpv4-sp-d16
 1203              		.type	vPortSetupTimerInterrupt, %function
 1204              	vPortSetupTimerInterrupt:
 1205              	.LFB15:
 680:../../kernel/FreeRTOS/Source/portable/GCC/ARM_CM4F/port.c **** 	/* Calculate the constants required to configure the tick interrupt. */
 1206              		.loc 1 680 1 is_stmt 1 view -0
 1207              		.cfi_startproc
 1208              		@ args = 0, pretend = 0, frame = 0
 1209              		@ frame_needed = 0, uses_anonymous_args = 0
 1210              		@ link register save eliminated.
 684:../../kernel/FreeRTOS/Source/portable/GCC/ARM_CM4F/port.c **** 		xMaximumPossibleSuppressedTicks = portMAX_24_BIT_NUMBER / ulTimerCountsForOneTick;
 1211              		.loc 1 684 3 view .LVU250
 1212              	@ ../../kernel/FreeRTOS/Source/portable/GCC/ARM_CM4F/port.c:680: {
 680:../../kernel/FreeRTOS/Source/portable/GCC/ARM_CM4F/port.c **** 	/* Calculate the constants required to configure the tick interrupt. */
 1213              		.loc 1 680 1 is_stmt 0 view .LVU251
 1214 0000 70B4     		push	{r4, r5, r6}	@
 1215              		.cfi_def_cfa_offset 12
 1216              		.cfi_offset 4, -12
 1217              		.cfi_offset 5, -8
 1218              		.cfi_offset 6, -4
 1219              	@ ../../kernel/FreeRTOS/Source/portable/GCC/ARM_CM4F/port.c:684: 		ulTimerCountsForOneTick = ( conf
 684:../../kernel/FreeRTOS/Source/portable/GCC/ARM_CM4F/port.c **** 		xMaximumPossibleSuppressedTicks = portMAX_24_BIT_NUMBER / ulTimerCountsForOneTick;
 1220              		.loc 1 684 27 view .LVU252
 1221 0002 0A48     		ldr	r0, .L65	@ tmp110,
 1222              	@ ../../kernel/FreeRTOS/Source/portable/GCC/ARM_CM4F/port.c:685: 		xMaximumPossibleSuppressedTicks 
 685:../../kernel/FreeRTOS/Source/portable/GCC/ARM_CM4F/port.c **** 		ulStoppedTimerCompensation = portMISSED_COUNTS_FACTOR / ( configCPU_CLOCK_HZ / configSYSTICK_CLOC
ARM GAS  /tmp/cc5qDK7o.s 			page 43


 1223              		.loc 1 685 35 view .LVU253
 1224 0004 0A49     		ldr	r1, .L65+4	@ tmp112,
 1225              	@ ../../kernel/FreeRTOS/Source/portable/GCC/ARM_CM4F/port.c:686: 		ulStoppedTimerCompensation = por
 686:../../kernel/FreeRTOS/Source/portable/GCC/ARM_CM4F/port.c **** 	}
 1226              		.loc 1 686 30 view .LVU254
 1227 0006 0B4A     		ldr	r2, .L65+8	@ tmp114,
 1228              	@ ../../kernel/FreeRTOS/Source/portable/GCC/ARM_CM4F/port.c:684: 		ulTimerCountsForOneTick = ( conf
 684:../../kernel/FreeRTOS/Source/portable/GCC/ARM_CM4F/port.c **** 		xMaximumPossibleSuppressedTicks = portMAX_24_BIT_NUMBER / ulTimerCountsForOneTick;
 1229              		.loc 1 684 27 view .LVU255
 1230 0008 0B4C     		ldr	r4, .L65+12	@ tmp111,
 1231 000a 0460     		str	r4, [r0]	@ tmp111, ulTimerCountsForOneTick
 685:../../kernel/FreeRTOS/Source/portable/GCC/ARM_CM4F/port.c **** 		ulStoppedTimerCompensation = portMISSED_COUNTS_FACTOR / ( configCPU_CLOCK_HZ / configSYSTICK_CLOC
 1232              		.loc 1 685 3 is_stmt 1 view .LVU256
 1233              	@ ../../kernel/FreeRTOS/Source/portable/GCC/ARM_CM4F/port.c:685: 		xMaximumPossibleSuppressedTicks 
 685:../../kernel/FreeRTOS/Source/portable/GCC/ARM_CM4F/port.c **** 		ulStoppedTimerCompensation = portMISSED_COUNTS_FACTOR / ( configCPU_CLOCK_HZ / configSYSTICK_CLOC
 1234              		.loc 1 685 35 is_stmt 0 view .LVU257
 1235 000c 2A26     		movs	r6, #42	@ tmp113,
 1236 000e 0E60     		str	r6, [r1]	@ tmp113, xMaximumPossibleSuppressedTicks
 686:../../kernel/FreeRTOS/Source/portable/GCC/ARM_CM4F/port.c **** 	}
 1237              		.loc 1 686 3 is_stmt 1 view .LVU258
 1238              	@ ../../kernel/FreeRTOS/Source/portable/GCC/ARM_CM4F/port.c:691: 	portNVIC_SYSTICK_CTRL_REG = 0UL;
 691:../../kernel/FreeRTOS/Source/portable/GCC/ARM_CM4F/port.c **** 	portNVIC_SYSTICK_CURRENT_VALUE_REG = 0UL;
 1239              		.loc 1 691 28 is_stmt 0 view .LVU259
 1240 0010 0A4B     		ldr	r3, .L65+16	@ tmp116,
 1241              	@ ../../kernel/FreeRTOS/Source/portable/GCC/ARM_CM4F/port.c:692: 	portNVIC_SYSTICK_CURRENT_VALUE_RE
 692:../../kernel/FreeRTOS/Source/portable/GCC/ARM_CM4F/port.c **** 
 1242              		.loc 1 692 37 view .LVU260
 1243 0012 0B4D     		ldr	r5, .L65+20	@ tmp118,
 1244              	@ ../../kernel/FreeRTOS/Source/portable/GCC/ARM_CM4F/port.c:695: 	portNVIC_SYSTICK_LOAD_REG = ( con
 695:../../kernel/FreeRTOS/Source/portable/GCC/ARM_CM4F/port.c **** 	portNVIC_SYSTICK_CTRL_REG = ( portNVIC_SYSTICK_CLK_BIT | portNVIC_SYSTICK_INT_BIT | portNVIC_SYSTI
 1245              		.loc 1 695 28 view .LVU261
 1246 0014 0B48     		ldr	r0, .L65+24	@ tmp120,
 1247              	@ ../../kernel/FreeRTOS/Source/portable/GCC/ARM_CM4F/port.c:686: 		ulStoppedTimerCompensation = por
 686:../../kernel/FreeRTOS/Source/portable/GCC/ARM_CM4F/port.c **** 	}
 1248              		.loc 1 686 30 view .LVU262
 1249 0016 2D21     		movs	r1, #45	@ tmp115,
 1250 0018 1160     		str	r1, [r2]	@ tmp115, ulStoppedTimerCompensation
 691:../../kernel/FreeRTOS/Source/portable/GCC/ARM_CM4F/port.c **** 	portNVIC_SYSTICK_CURRENT_VALUE_REG = 0UL;
 1251              		.loc 1 691 2 is_stmt 1 view .LVU263
 1252              	@ ../../kernel/FreeRTOS/Source/portable/GCC/ARM_CM4F/port.c:695: 	portNVIC_SYSTICK_LOAD_REG = ( con
 695:../../kernel/FreeRTOS/Source/portable/GCC/ARM_CM4F/port.c **** 	portNVIC_SYSTICK_CTRL_REG = ( portNVIC_SYSTICK_CLK_BIT | portNVIC_SYSTICK_INT_BIT | portNVIC_SYSTI
 1253              		.loc 1 695 28 is_stmt 0 view .LVU264
 1254 001a 013C     		subs	r4, r4, #1	@ tmp121, tmp121,
 1255              	@ ../../kernel/FreeRTOS/Source/portable/GCC/ARM_CM4F/port.c:691: 	portNVIC_SYSTICK_CTRL_REG = 0UL;
 691:../../kernel/FreeRTOS/Source/portable/GCC/ARM_CM4F/port.c **** 	portNVIC_SYSTICK_CURRENT_VALUE_REG = 0UL;
 1256              		.loc 1 691 28 view .LVU265
 1257 001c 0022     		movs	r2, #0	@ tmp117,
 1258              	@ ../../kernel/FreeRTOS/Source/portable/GCC/ARM_CM4F/port.c:696: 	portNVIC_SYSTICK_CTRL_REG = ( por
 696:../../kernel/FreeRTOS/Source/portable/GCC/ARM_CM4F/port.c **** }
 1259              		.loc 1 696 28 view .LVU266
 1260 001e 0721     		movs	r1, #7	@ tmp123,
 1261              	@ ../../kernel/FreeRTOS/Source/portable/GCC/ARM_CM4F/port.c:691: 	portNVIC_SYSTICK_CTRL_REG = 0UL;
 691:../../kernel/FreeRTOS/Source/portable/GCC/ARM_CM4F/port.c **** 	portNVIC_SYSTICK_CURRENT_VALUE_REG = 0UL;
 1262              		.loc 1 691 28 view .LVU267
 1263 0020 1A60     		str	r2, [r3]	@ tmp117, MEM[(volatile uint32_t *)3758153744B]
 692:../../kernel/FreeRTOS/Source/portable/GCC/ARM_CM4F/port.c **** 
 1264              		.loc 1 692 2 is_stmt 1 view .LVU268
ARM GAS  /tmp/cc5qDK7o.s 			page 44


 1265              	@ ../../kernel/FreeRTOS/Source/portable/GCC/ARM_CM4F/port.c:692: 	portNVIC_SYSTICK_CURRENT_VALUE_RE
 692:../../kernel/FreeRTOS/Source/portable/GCC/ARM_CM4F/port.c **** 
 1266              		.loc 1 692 37 is_stmt 0 view .LVU269
 1267 0022 2A60     		str	r2, [r5]	@ tmp117, MEM[(volatile uint32_t *)3758153752B]
 695:../../kernel/FreeRTOS/Source/portable/GCC/ARM_CM4F/port.c **** 	portNVIC_SYSTICK_CTRL_REG = ( portNVIC_SYSTICK_CLK_BIT | portNVIC_SYSTICK_INT_BIT | portNVIC_SYSTI
 1268              		.loc 1 695 2 is_stmt 1 view .LVU270
 1269              	@ ../../kernel/FreeRTOS/Source/portable/GCC/ARM_CM4F/port.c:695: 	portNVIC_SYSTICK_LOAD_REG = ( con
 695:../../kernel/FreeRTOS/Source/portable/GCC/ARM_CM4F/port.c **** 	portNVIC_SYSTICK_CTRL_REG = ( portNVIC_SYSTICK_CLK_BIT | portNVIC_SYSTICK_INT_BIT | portNVIC_SYSTI
 1270              		.loc 1 695 28 is_stmt 0 view .LVU271
 1271 0024 0460     		str	r4, [r0]	@ tmp121, MEM[(volatile uint32_t *)3758153748B]
 696:../../kernel/FreeRTOS/Source/portable/GCC/ARM_CM4F/port.c **** }
 1272              		.loc 1 696 2 is_stmt 1 view .LVU272
 1273              	@ ../../kernel/FreeRTOS/Source/portable/GCC/ARM_CM4F/port.c:696: 	portNVIC_SYSTICK_CTRL_REG = ( por
 696:../../kernel/FreeRTOS/Source/portable/GCC/ARM_CM4F/port.c **** }
 1274              		.loc 1 696 28 is_stmt 0 view .LVU273
 1275 0026 1960     		str	r1, [r3]	@ tmp123, MEM[(volatile uint32_t *)3758153744B]
 1276              	@ ../../kernel/FreeRTOS/Source/portable/GCC/ARM_CM4F/port.c:697: }
 697:../../kernel/FreeRTOS/Source/portable/GCC/ARM_CM4F/port.c **** /*-----------------------------------------------------------*/
 1277              		.loc 1 697 1 view .LVU274
 1278 0028 70BC     		pop	{r4, r5, r6}	@
 1279              		.cfi_restore 6
 1280              		.cfi_restore 5
 1281              		.cfi_restore 4
 1282              		.cfi_def_cfa_offset 0
 1283 002a 7047     		bx	lr	@
 1284              	.L66:
 1285              		.align	2
 1286              	.L65:
 1287 002c 00000000 		.word	.LANCHOR2
 1288 0030 00000000 		.word	.LANCHOR1
 1289 0034 00000000 		.word	.LANCHOR3
 1290 0038 E00A0600 		.word	396000
 1291 003c 10E000E0 		.word	-536813552
 1292 0040 18E000E0 		.word	-536813544
 1293 0044 14E000E0 		.word	-536813548
 1294              		.cfi_endproc
 1295              	.LFE15:
 1296              		.size	vPortSetupTimerInterrupt, .-vPortSetupTimerInterrupt
 1297              		.section	.text.xPortStartScheduler,"ax",%progbits
 1298              		.align	1
 1299              		.p2align 2,,3
 1300              		.global	xPortStartScheduler
 1301              		.syntax unified
 1302              		.thumb
 1303              		.thumb_func
 1304              		.fpu fpv4-sp-d16
 1305              		.type	xPortStartScheduler, %function
 1306              	xPortStartScheduler:
 1307              	.LFB8:
 288:../../kernel/FreeRTOS/Source/portable/GCC/ARM_CM4F/port.c **** 	/* configMAX_SYSCALL_INTERRUPT_PRIORITY must not be set to 0.
 1308              		.loc 1 288 1 is_stmt 1 view -0
 1309              		.cfi_startproc
 1310              		@ args = 0, pretend = 0, frame = 16
 1311              		@ frame_needed = 0, uses_anonymous_args = 0
 291:../../kernel/FreeRTOS/Source/portable/GCC/ARM_CM4F/port.c **** 
 1312              		.loc 1 291 2 view .LVU276
 291:../../kernel/FreeRTOS/Source/portable/GCC/ARM_CM4F/port.c **** 
ARM GAS  /tmp/cc5qDK7o.s 			page 45


 1313              		.loc 1 291 54 view .LVU277
 296:../../kernel/FreeRTOS/Source/portable/GCC/ARM_CM4F/port.c **** 	configASSERT( portCPUID != portCORTEX_M7_r0p0_ID );
 1314              		.loc 1 296 2 view .LVU278
 1315 0000 454B     		ldr	r3, .L87	@ tmp142,
 1316 0002 464A     		ldr	r2, .L87+4	@ tmp143,
 1317 0004 1968     		ldr	r1, [r3]	@ _1, MEM[(volatile uint32_t *)3758157056B]
 1318 0006 9142     		cmp	r1, r2	@ _1, tmp143
 1319 0008 41D0     		beq	.L85		@,
 296:../../kernel/FreeRTOS/Source/portable/GCC/ARM_CM4F/port.c **** 	configASSERT( portCPUID != portCORTEX_M7_r0p0_ID );
 1320              		.loc 1 296 52 discriminator 2 view .LVU279
 297:../../kernel/FreeRTOS/Source/portable/GCC/ARM_CM4F/port.c **** 
 1321              		.loc 1 297 2 discriminator 2 view .LVU280
 1322 000a 1A68     		ldr	r2, [r3]	@ _3, MEM[(volatile uint32_t *)3758157056B]
 1323 000c 444B     		ldr	r3, .L87+8	@ tmp146,
 1324 000e 9A42     		cmp	r2, r3	@ _3, tmp146
 1325 0010 34D0     		beq	.L86		@,
 297:../../kernel/FreeRTOS/Source/portable/GCC/ARM_CM4F/port.c **** 
 1326              		.loc 1 297 52 discriminator 2 view .LVU281
 1327              	.LBB88:
 301:../../kernel/FreeRTOS/Source/portable/GCC/ARM_CM4F/port.c **** 		volatile uint8_t * const pucFirstUserPriorityRegister = ( volatile uint8_t * const ) ( portNVIC_I
 1328              		.loc 1 301 3 discriminator 2 view .LVU282
 302:../../kernel/FreeRTOS/Source/portable/GCC/ARM_CM4F/port.c **** 		volatile uint8_t ucMaxPriorityValue;
 1329              		.loc 1 302 3 discriminator 2 view .LVU283
 1330              	.LVL34:
 303:../../kernel/FreeRTOS/Source/portable/GCC/ARM_CM4F/port.c **** 
 1331              		.loc 1 303 3 discriminator 2 view .LVU284
 311:../../kernel/FreeRTOS/Source/portable/GCC/ARM_CM4F/port.c **** 
 1332              		.loc 1 311 3 discriminator 2 view .LVU285
 1333              	.LBE88:
 1334              	@ ../../kernel/FreeRTOS/Source/portable/GCC/ARM_CM4F/port.c:288: {
 288:../../kernel/FreeRTOS/Source/portable/GCC/ARM_CM4F/port.c **** 	/* configMAX_SYSCALL_INTERRUPT_PRIORITY must not be set to 0.
 1335              		.loc 1 288 1 is_stmt 0 discriminator 2 view .LVU286
 1336 0012 30B5     		push	{r4, r5, lr}	@
 1337              		.cfi_def_cfa_offset 12
 1338              		.cfi_offset 4, -12
 1339              		.cfi_offset 5, -8
 1340              		.cfi_offset 14, -4
 1341              	.LBB91:
 1342              	@ ../../kernel/FreeRTOS/Source/portable/GCC/ARM_CM4F/port.c:311: 		ulOriginalPriority = *pucFirstUs
 311:../../kernel/FreeRTOS/Source/portable/GCC/ARM_CM4F/port.c **** 
 1343              		.loc 1 311 24 discriminator 2 view .LVU287
 1344 0014 434B     		ldr	r3, .L87+12	@ tmp148,
 1345              	@ ../../kernel/FreeRTOS/Source/portable/GCC/ARM_CM4F/port.c:321: 		ucMaxSysCallPriority = configMAX
 321:../../kernel/FreeRTOS/Source/portable/GCC/ARM_CM4F/port.c **** 
 1346              		.loc 1 321 24 discriminator 2 view .LVU288
 1347 0016 444C     		ldr	r4, .L87+16	@ tmp161,
 1348              	@ ../../kernel/FreeRTOS/Source/portable/GCC/ARM_CM4F/port.c:311: 		ulOriginalPriority = *pucFirstUs
 311:../../kernel/FreeRTOS/Source/portable/GCC/ARM_CM4F/port.c **** 
 1349              		.loc 1 311 24 discriminator 2 view .LVU289
 1350 0018 1A78     		ldrb	r2, [r3]	@ zero_extendqisi2	@ MEM[(volatile uint8_t *)3758154752B], MEM[(volatile uint8_t *)3
 1351              	@ ../../kernel/FreeRTOS/Source/portable/GCC/ARM_CM4F/port.c:325: 		ulMaxPRIGROUPValue = portMAX_PRI
 325:../../kernel/FreeRTOS/Source/portable/GCC/ARM_CM4F/port.c **** 		while( ( ucMaxPriorityValue & portTOP_BIT_OF_BYTE ) == portTOP_BIT_OF_BYTE )
 1352              		.loc 1 325 22 discriminator 2 view .LVU290
 1353 001a 4449     		ldr	r1, .L87+20	@ tmp200,
 1354              	.LBE91:
 1355              	@ ../../kernel/FreeRTOS/Source/portable/GCC/ARM_CM4F/port.c:288: {
 288:../../kernel/FreeRTOS/Source/portable/GCC/ARM_CM4F/port.c **** 	/* configMAX_SYSCALL_INTERRUPT_PRIORITY must not be set to 0.
ARM GAS  /tmp/cc5qDK7o.s 			page 46


 1356              		.loc 1 288 1 discriminator 2 view .LVU291
 1357 001c 85B0     		sub	sp, sp, #20	@,,
 1358              		.cfi_def_cfa_offset 32
 1359              	.LBB92:
 1360              	@ ../../kernel/FreeRTOS/Source/portable/GCC/ARM_CM4F/port.c:311: 		ulOriginalPriority = *pucFirstUs
 311:../../kernel/FreeRTOS/Source/portable/GCC/ARM_CM4F/port.c **** 
 1361              		.loc 1 311 24 discriminator 2 view .LVU292
 1362 001e D2B2     		uxtb	r2, r2	@ _4, MEM[(volatile uint8_t *)3758154752B]
 1363              	@ ../../kernel/FreeRTOS/Source/portable/GCC/ARM_CM4F/port.c:315: 		*pucFirstUserPriorityRegister = 
 315:../../kernel/FreeRTOS/Source/portable/GCC/ARM_CM4F/port.c **** 
 1364              		.loc 1 315 33 discriminator 2 view .LVU293
 1365 0020 FF20     		movs	r0, #255	@ tmp152,
 1366              	@ ../../kernel/FreeRTOS/Source/portable/GCC/ARM_CM4F/port.c:311: 		ulOriginalPriority = *pucFirstUs
 311:../../kernel/FreeRTOS/Source/portable/GCC/ARM_CM4F/port.c **** 
 1367              		.loc 1 311 22 discriminator 2 view .LVU294
 1368 0022 0292     		str	r2, [sp, #8]	@ _4, ulOriginalPriority
 315:../../kernel/FreeRTOS/Source/portable/GCC/ARM_CM4F/port.c **** 
 1369              		.loc 1 315 3 is_stmt 1 discriminator 2 view .LVU295
 1370              	@ ../../kernel/FreeRTOS/Source/portable/GCC/ARM_CM4F/port.c:315: 		*pucFirstUserPriorityRegister = 
 315:../../kernel/FreeRTOS/Source/portable/GCC/ARM_CM4F/port.c **** 
 1371              		.loc 1 315 33 is_stmt 0 discriminator 2 view .LVU296
 1372 0024 1870     		strb	r0, [r3]	@ tmp152, MEM[(volatile uint8_t *)3758154752B]
 318:../../kernel/FreeRTOS/Source/portable/GCC/ARM_CM4F/port.c **** 
 1373              		.loc 1 318 3 is_stmt 1 discriminator 2 view .LVU297
 1374              	@ ../../kernel/FreeRTOS/Source/portable/GCC/ARM_CM4F/port.c:318: 		ucMaxPriorityValue = *pucFirstUs
 318:../../kernel/FreeRTOS/Source/portable/GCC/ARM_CM4F/port.c **** 
 1375              		.loc 1 318 24 is_stmt 0 discriminator 2 view .LVU298
 1376 0026 1B78     		ldrb	r3, [r3]	@ zero_extendqisi2	@ MEM[(volatile uint8_t *)3758154752B], MEM[(volatile uint8_t *)3
 1377 0028 DBB2     		uxtb	r3, r3	@ _6, MEM[(volatile uint8_t *)3758154752B]
 1378              	@ ../../kernel/FreeRTOS/Source/portable/GCC/ARM_CM4F/port.c:318: 		ucMaxPriorityValue = *pucFirstUs
 318:../../kernel/FreeRTOS/Source/portable/GCC/ARM_CM4F/port.c **** 
 1379              		.loc 1 318 22 discriminator 2 view .LVU299
 1380 002a 8DF80730 		strb	r3, [sp, #7]	@ _6, ucMaxPriorityValue
 321:../../kernel/FreeRTOS/Source/portable/GCC/ARM_CM4F/port.c **** 
 1381              		.loc 1 321 3 is_stmt 1 discriminator 2 view .LVU300
 1382              	@ ../../kernel/FreeRTOS/Source/portable/GCC/ARM_CM4F/port.c:321: 		ucMaxSysCallPriority = configMAX
 321:../../kernel/FreeRTOS/Source/portable/GCC/ARM_CM4F/port.c **** 
 1383              		.loc 1 321 63 is_stmt 0 discriminator 2 view .LVU301
 1384 002e 9DF80730 		ldrb	r3, [sp, #7]	@ zero_extendqisi2	@ ucMaxPriorityValue, ucMaxPriorityValue
 1385              	@ ../../kernel/FreeRTOS/Source/portable/GCC/ARM_CM4F/port.c:326: 		while( ( ucMaxPriorityValue & po
 326:../../kernel/FreeRTOS/Source/portable/GCC/ARM_CM4F/port.c **** 		{
 1386              		.loc 1 326 31 discriminator 2 view .LVU302
 1387 0032 9DF80720 		ldrb	r2, [sp, #7]	@ zero_extendqisi2	@ ucMaxPriorityValue, ucMaxPriorityValue
 1388              	@ ../../kernel/FreeRTOS/Source/portable/GCC/ARM_CM4F/port.c:321: 		ucMaxSysCallPriority = configMAX
 321:../../kernel/FreeRTOS/Source/portable/GCC/ARM_CM4F/port.c **** 
 1389              		.loc 1 321 63 discriminator 2 view .LVU303
 1390 0036 03F0A003 		and	r3, r3, #160	@ tmp162, ucMaxPriorityValue,
 1391              	@ ../../kernel/FreeRTOS/Source/portable/GCC/ARM_CM4F/port.c:325: 		ulMaxPRIGROUPValue = portMAX_PRI
 325:../../kernel/FreeRTOS/Source/portable/GCC/ARM_CM4F/port.c **** 		while( ( ucMaxPriorityValue & portTOP_BIT_OF_BYTE ) == portTOP_BIT_OF_BYTE )
 1392              		.loc 1 325 22 discriminator 2 view .LVU304
 1393 003a 0720     		movs	r0, #7	@ tmp165,
 1394              	@ ../../kernel/FreeRTOS/Source/portable/GCC/ARM_CM4F/port.c:326: 		while( ( ucMaxPriorityValue & po
 326:../../kernel/FreeRTOS/Source/portable/GCC/ARM_CM4F/port.c **** 		{
 1395              		.loc 1 326 8 discriminator 2 view .LVU305
 1396 003c 1206     		lsls	r2, r2, #24	@, ucMaxPriorityValue,
 1397              	@ ../../kernel/FreeRTOS/Source/portable/GCC/ARM_CM4F/port.c:321: 		ucMaxSysCallPriority = configMAX
 321:../../kernel/FreeRTOS/Source/portable/GCC/ARM_CM4F/port.c **** 
ARM GAS  /tmp/cc5qDK7o.s 			page 47


 1398              		.loc 1 321 24 discriminator 2 view .LVU306
 1399 003e 2370     		strb	r3, [r4]	@ tmp162, ucMaxSysCallPriority
 325:../../kernel/FreeRTOS/Source/portable/GCC/ARM_CM4F/port.c **** 		while( ( ucMaxPriorityValue & portTOP_BIT_OF_BYTE ) == portTOP_BIT_OF_BYTE )
 1400              		.loc 1 325 3 is_stmt 1 discriminator 2 view .LVU307
 1401              	@ ../../kernel/FreeRTOS/Source/portable/GCC/ARM_CM4F/port.c:325: 		ulMaxPRIGROUPValue = portMAX_PRI
 325:../../kernel/FreeRTOS/Source/portable/GCC/ARM_CM4F/port.c **** 		while( ( ucMaxPriorityValue & portTOP_BIT_OF_BYTE ) == portTOP_BIT_OF_BYTE )
 1402              		.loc 1 325 22 is_stmt 0 discriminator 2 view .LVU308
 1403 0040 0860     		str	r0, [r1]	@ tmp165, ulMaxPRIGROUPValue
 326:../../kernel/FreeRTOS/Source/portable/GCC/ARM_CM4F/port.c **** 		{
 1404              		.loc 1 326 3 is_stmt 1 discriminator 2 view .LVU309
 1405              	@ ../../kernel/FreeRTOS/Source/portable/GCC/ARM_CM4F/port.c:326: 		while( ( ucMaxPriorityValue & po
 326:../../kernel/FreeRTOS/Source/portable/GCC/ARM_CM4F/port.c **** 		{
 1406              		.loc 1 326 8 is_stmt 0 discriminator 2 view .LVU310
 1407 0042 48BF     		it	mi
 1408 0044 0622     		movmi	r2, #6	@ ivtmp.37,
 1409 0046 01D4     		bmi	.L72		@,
 1410 0048 0FE0     		b	.L75		@
 1411              	.L80:
 1412 004a 0246     		mov	r2, r0	@ ivtmp.37, ivtmp.37
 1413              	.L72:
 328:../../kernel/FreeRTOS/Source/portable/GCC/ARM_CM4F/port.c **** 			ucMaxPriorityValue <<= ( uint8_t ) 0x01;
 1414              		.loc 1 328 4 is_stmt 1 view .LVU311
 329:../../kernel/FreeRTOS/Source/portable/GCC/ARM_CM4F/port.c **** 		}
 1415              		.loc 1 329 4 view .LVU312
 1416              	@ ../../kernel/FreeRTOS/Source/portable/GCC/ARM_CM4F/port.c:329: 			ucMaxPriorityValue <<= ( uint8_
 329:../../kernel/FreeRTOS/Source/portable/GCC/ARM_CM4F/port.c **** 		}
 1417              		.loc 1 329 23 is_stmt 0 view .LVU313
 1418 004c 9DF80730 		ldrb	r3, [sp, #7]	@ zero_extendqisi2	@ ucMaxPriorityValue, ucMaxPriorityValue
 1419 0050 5B00     		lsls	r3, r3, #1	@ tmp174, ucMaxPriorityValue,
 1420 0052 DBB2     		uxtb	r3, r3	@ _12, tmp174
 1421 0054 8DF80730 		strb	r3, [sp, #7]	@ _12, ucMaxPriorityValue
 1422              	@ ../../kernel/FreeRTOS/Source/portable/GCC/ARM_CM4F/port.c:326: 		while( ( ucMaxPriorityValue & po
 326:../../kernel/FreeRTOS/Source/portable/GCC/ARM_CM4F/port.c **** 		{
 1423              		.loc 1 326 31 view .LVU314
 1424 0058 9DF80730 		ldrb	r3, [sp, #7]	@ zero_extendqisi2	@ ucMaxPriorityValue, ucMaxPriorityValue
 1425              	@ ../../kernel/FreeRTOS/Source/portable/GCC/ARM_CM4F/port.c:326: 		while( ( ucMaxPriorityValue & po
 326:../../kernel/FreeRTOS/Source/portable/GCC/ARM_CM4F/port.c **** 		{
 1426              		.loc 1 326 8 view .LVU315
 1427 005c 1B06     		lsls	r3, r3, #24	@, ucMaxPriorityValue,
 1428 005e 02F1FF30 		add	r0, r2, #-1	@ ivtmp.37, ivtmp.37,
 1429 0062 F2D4     		bmi	.L80		@,
 346:../../kernel/FreeRTOS/Source/portable/GCC/ARM_CM4F/port.c **** 		}
 1430              		.loc 1 346 4 is_stmt 1 view .LVU316
 1431 0064 042A     		cmp	r2, #4	@ ivtmp.37,
 1432 0066 1BD0     		beq	.L74		@,
 1433 0068 0A60     		str	r2, [r1]	@ ivtmp.37, ulMaxPRIGROUPValue
 1434              	.L75:
 346:../../kernel/FreeRTOS/Source/portable/GCC/ARM_CM4F/port.c **** 		}
 1435              		.loc 1 346 4 view .LVU317
 1436              	.LBB89:
 1437              	.LBI89:
 191:../../kernel/FreeRTOS/Source/portable/GCC/ARM_CM4F/portmacro.h **** {
 1438              		.loc 2 191 30 view .LVU318
 1439              	.LBB90:
 193:../../kernel/FreeRTOS/Source/portable/GCC/ARM_CM4F/portmacro.h **** 
 1440              		.loc 2 193 1 view .LVU319
 195:../../kernel/FreeRTOS/Source/portable/GCC/ARM_CM4F/portmacro.h **** 	(
ARM GAS  /tmp/cc5qDK7o.s 			page 48


 1441              		.loc 2 195 2 view .LVU320
 1442              		.syntax unified
 1443              	@ 195 "../../kernel/FreeRTOS/Source/portable/GCC/ARM_CM4F/portmacro.h" 1
 1444 006a 4FF0A003 			mov r3, #160													@ ulNewBASEPRI,
 1445 006e 83F31188 		msr basepri, r3												@ ulNewBASEPRI
 1446 0072 BFF36F8F 		isb														
 1447 0076 BFF34F8F 		dsb														
 1448              	
 1449              	@ 0 "" 2
 1450              	.LVL35:
 1451              		.thumb
 1452              		.syntax unified
 1453              	.L73:
 195:../../kernel/FreeRTOS/Source/portable/GCC/ARM_CM4F/portmacro.h **** 	(
 1454              		.loc 2 195 2 is_stmt 0 view .LVU321
 1455              	.LBE90:
 1456              	.LBE89:
 346:../../kernel/FreeRTOS/Source/portable/GCC/ARM_CM4F/port.c **** 		}
 1457              		.loc 1 346 4 is_stmt 1 discriminator 4 view .LVU322
 346:../../kernel/FreeRTOS/Source/portable/GCC/ARM_CM4F/port.c **** 		}
 1458              		.loc 1 346 4 discriminator 4 view .LVU323
 346:../../kernel/FreeRTOS/Source/portable/GCC/ARM_CM4F/port.c **** 		}
 1459              		.loc 1 346 4 discriminator 4 view .LVU324
 346:../../kernel/FreeRTOS/Source/portable/GCC/ARM_CM4F/port.c **** 		}
 1460              		.loc 1 346 4 discriminator 4 view .LVU325
 1461 007a FEE7     		b	.L73		@
 1462              	.LVL36:
 1463              	.L86:
 1464              		.cfi_def_cfa_offset 0
 1465              		.cfi_restore 4
 1466              		.cfi_restore 5
 1467              		.cfi_restore 14
 346:../../kernel/FreeRTOS/Source/portable/GCC/ARM_CM4F/port.c **** 		}
 1468              		.loc 1 346 4 is_stmt 0 discriminator 4 view .LVU326
 1469              	.LBE92:
 297:../../kernel/FreeRTOS/Source/portable/GCC/ARM_CM4F/port.c **** 
 1470              		.loc 1 297 2 is_stmt 1 view .LVU327
 1471              	.LBB93:
 1472              	.LBI93:
 191:../../kernel/FreeRTOS/Source/portable/GCC/ARM_CM4F/portmacro.h **** {
 1473              		.loc 2 191 30 view .LVU328
 1474              	.LBB94:
 193:../../kernel/FreeRTOS/Source/portable/GCC/ARM_CM4F/portmacro.h **** 
 1475              		.loc 2 193 1 view .LVU329
 195:../../kernel/FreeRTOS/Source/portable/GCC/ARM_CM4F/portmacro.h **** 	(
 1476              		.loc 2 195 2 view .LVU330
 1477              		.syntax unified
 1478              	@ 195 "../../kernel/FreeRTOS/Source/portable/GCC/ARM_CM4F/portmacro.h" 1
 1479 007c 4FF0A003 			mov r3, #160													@ ulNewBASEPRI,
 1480 0080 83F31188 		msr basepri, r3												@ ulNewBASEPRI
 1481 0084 BFF36F8F 		isb														
 1482 0088 BFF34F8F 		dsb														
 1483              	
 1484              	@ 0 "" 2
 1485              	.LVL37:
 1486              		.thumb
 1487              		.syntax unified
ARM GAS  /tmp/cc5qDK7o.s 			page 49


 1488              	.L71:
 195:../../kernel/FreeRTOS/Source/portable/GCC/ARM_CM4F/portmacro.h **** 	(
 1489              		.loc 2 195 2 is_stmt 0 view .LVU331
 1490              	.LBE94:
 1491              	.LBE93:
 297:../../kernel/FreeRTOS/Source/portable/GCC/ARM_CM4F/port.c **** 
 1492              		.loc 1 297 2 is_stmt 1 discriminator 3 view .LVU332
 297:../../kernel/FreeRTOS/Source/portable/GCC/ARM_CM4F/port.c **** 
 1493              		.loc 1 297 2 discriminator 3 view .LVU333
 297:../../kernel/FreeRTOS/Source/portable/GCC/ARM_CM4F/port.c **** 
 1494              		.loc 1 297 2 discriminator 3 view .LVU334
 297:../../kernel/FreeRTOS/Source/portable/GCC/ARM_CM4F/port.c **** 
 1495              		.loc 1 297 2 discriminator 3 view .LVU335
 1496 008c FEE7     		b	.L71		@
 1497              	.L85:
 296:../../kernel/FreeRTOS/Source/portable/GCC/ARM_CM4F/port.c **** 	configASSERT( portCPUID != portCORTEX_M7_r0p0_ID );
 1498              		.loc 1 296 2 view .LVU336
 1499              	.LBB95:
 1500              	.LBI95:
 191:../../kernel/FreeRTOS/Source/portable/GCC/ARM_CM4F/portmacro.h **** {
 1501              		.loc 2 191 30 view .LVU337
 1502              	.LBB96:
 193:../../kernel/FreeRTOS/Source/portable/GCC/ARM_CM4F/portmacro.h **** 
 1503              		.loc 2 193 1 view .LVU338
 195:../../kernel/FreeRTOS/Source/portable/GCC/ARM_CM4F/portmacro.h **** 	(
 1504              		.loc 2 195 2 view .LVU339
 1505              		.syntax unified
 1506              	@ 195 "../../kernel/FreeRTOS/Source/portable/GCC/ARM_CM4F/portmacro.h" 1
 1507 008e 4FF0A003 			mov r3, #160													@ ulNewBASEPRI,
 1508 0092 83F31188 		msr basepri, r3												@ ulNewBASEPRI
 1509 0096 BFF36F8F 		isb														
 1510 009a BFF34F8F 		dsb														
 1511              	
 1512              	@ 0 "" 2
 1513              	.LVL38:
 1514              		.thumb
 1515              		.syntax unified
 1516              	.L69:
 195:../../kernel/FreeRTOS/Source/portable/GCC/ARM_CM4F/portmacro.h **** 	(
 1517              		.loc 2 195 2 is_stmt 0 view .LVU340
 1518              	.LBE96:
 1519              	.LBE95:
 296:../../kernel/FreeRTOS/Source/portable/GCC/ARM_CM4F/port.c **** 	configASSERT( portCPUID != portCORTEX_M7_r0p0_ID );
 1520              		.loc 1 296 2 is_stmt 1 discriminator 2 view .LVU341
 296:../../kernel/FreeRTOS/Source/portable/GCC/ARM_CM4F/port.c **** 	configASSERT( portCPUID != portCORTEX_M7_r0p0_ID );
 1521              		.loc 1 296 2 discriminator 2 view .LVU342
 296:../../kernel/FreeRTOS/Source/portable/GCC/ARM_CM4F/port.c **** 	configASSERT( portCPUID != portCORTEX_M7_r0p0_ID );
 1522              		.loc 1 296 2 discriminator 2 view .LVU343
 296:../../kernel/FreeRTOS/Source/portable/GCC/ARM_CM4F/port.c **** 	configASSERT( portCPUID != portCORTEX_M7_r0p0_ID );
 1523              		.loc 1 296 2 discriminator 2 view .LVU344
 1524 009e FEE7     		b	.L69		@
 1525              	.LVL39:
 1526              	.L74:
 1527              		.cfi_def_cfa_offset 32
 1528              		.cfi_offset 4, -12
 1529              		.cfi_offset 5, -8
 1530              		.cfi_offset 14, -4
ARM GAS  /tmp/cc5qDK7o.s 			page 50


 1531              	.LBB97:
 346:../../kernel/FreeRTOS/Source/portable/GCC/ARM_CM4F/port.c **** 		}
 1532              		.loc 1 346 85 discriminator 2 view .LVU345
 352:../../kernel/FreeRTOS/Source/portable/GCC/ARM_CM4F/port.c **** 		ulMaxPRIGROUPValue &= portPRIORITY_GROUP_MASK;
 1533              		.loc 1 352 3 discriminator 2 view .LVU346
 353:../../kernel/FreeRTOS/Source/portable/GCC/ARM_CM4F/port.c **** 
 1534              		.loc 1 353 3 discriminator 2 view .LVU347
 1535              	@ ../../kernel/FreeRTOS/Source/portable/GCC/ARM_CM4F/port.c:357: 		*pucFirstUserPriorityRegister = 
 357:../../kernel/FreeRTOS/Source/portable/GCC/ARM_CM4F/port.c **** 	}
 1536              		.loc 1 357 33 is_stmt 0 discriminator 2 view .LVU348
 1537 00a0 029A     		ldr	r2, [sp, #8]	@ ulOriginalPriority.12_18, ulOriginalPriority
 1538 00a2 2048     		ldr	r0, .L87+12	@ tmp184,
 1539              	.LBE97:
 1540              	@ ../../kernel/FreeRTOS/Source/portable/GCC/ARM_CM4F/port.c:362: 	portNVIC_SYSPRI2_REG |= portNVIC_
 362:../../kernel/FreeRTOS/Source/portable/GCC/ARM_CM4F/port.c **** 	portNVIC_SYSPRI2_REG |= portNVIC_SYSTICK_PRI;
 1541              		.loc 1 362 23 discriminator 2 view .LVU349
 1542 00a4 224B     		ldr	r3, .L87+24	@ tmp186,
 1543              	@ ../../kernel/FreeRTOS/Source/portable/GCC/ARM_CM4F/port.c:370: 	uxCriticalNesting = 0;
 370:../../kernel/FreeRTOS/Source/portable/GCC/ARM_CM4F/port.c **** 
 1544              		.loc 1 370 20 discriminator 2 view .LVU350
 1545 00a6 234C     		ldr	r4, .L87+28	@ tmp190,
 1546              	.LBB98:
 1547              	@ ../../kernel/FreeRTOS/Source/portable/GCC/ARM_CM4F/port.c:357: 		*pucFirstUserPriorityRegister = 
 357:../../kernel/FreeRTOS/Source/portable/GCC/ARM_CM4F/port.c **** 	}
 1548              		.loc 1 357 33 discriminator 2 view .LVU351
 1549 00a8 D2B2     		uxtb	r2, r2	@ _19, ulOriginalPriority.12_18
 1550              	@ ../../kernel/FreeRTOS/Source/portable/GCC/ARM_CM4F/port.c:353: 		ulMaxPRIGROUPValue &= portPRIORI
 353:../../kernel/FreeRTOS/Source/portable/GCC/ARM_CM4F/port.c **** 
 1551              		.loc 1 353 22 discriminator 2 view .LVU352
 1552 00aa 4FF48065 		mov	r5, #1024	@ tmp183,
 1553 00ae 0D60     		str	r5, [r1]	@ tmp183, ulMaxPRIGROUPValue
 357:../../kernel/FreeRTOS/Source/portable/GCC/ARM_CM4F/port.c **** 	}
 1554              		.loc 1 357 3 is_stmt 1 discriminator 2 view .LVU353
 1555              	@ ../../kernel/FreeRTOS/Source/portable/GCC/ARM_CM4F/port.c:357: 		*pucFirstUserPriorityRegister = 
 357:../../kernel/FreeRTOS/Source/portable/GCC/ARM_CM4F/port.c **** 	}
 1556              		.loc 1 357 33 is_stmt 0 discriminator 2 view .LVU354
 1557 00b0 0270     		strb	r2, [r0]	@ _19, MEM[(volatile uint8_t *)3758154752B]
 1558              	.LBE98:
 362:../../kernel/FreeRTOS/Source/portable/GCC/ARM_CM4F/port.c **** 	portNVIC_SYSPRI2_REG |= portNVIC_SYSTICK_PRI;
 1559              		.loc 1 362 2 is_stmt 1 discriminator 2 view .LVU355
 1560              	@ ../../kernel/FreeRTOS/Source/portable/GCC/ARM_CM4F/port.c:362: 	portNVIC_SYSPRI2_REG |= portNVIC_
 362:../../kernel/FreeRTOS/Source/portable/GCC/ARM_CM4F/port.c **** 	portNVIC_SYSPRI2_REG |= portNVIC_SYSTICK_PRI;
 1561              		.loc 1 362 23 is_stmt 0 discriminator 2 view .LVU356
 1562 00b2 1A68     		ldr	r2, [r3]	@ _20, MEM[(volatile uint32_t *)3758157088B]
 1563 00b4 42F46002 		orr	r2, r2, #14680064	@ _21, _20,
 1564 00b8 1A60     		str	r2, [r3]	@ _21, MEM[(volatile uint32_t *)3758157088B]
 363:../../kernel/FreeRTOS/Source/portable/GCC/ARM_CM4F/port.c **** 
 1565              		.loc 1 363 2 is_stmt 1 discriminator 2 view .LVU357
 1566              	@ ../../kernel/FreeRTOS/Source/portable/GCC/ARM_CM4F/port.c:363: 	portNVIC_SYSPRI2_REG |= portNVIC_
 363:../../kernel/FreeRTOS/Source/portable/GCC/ARM_CM4F/port.c **** 
 1567              		.loc 1 363 23 is_stmt 0 discriminator 2 view .LVU358
 1568 00ba 1A68     		ldr	r2, [r3]	@ _22, MEM[(volatile uint32_t *)3758157088B]
 1569 00bc 42F06042 		orr	r2, r2, #-536870912	@ _23, _22,
 1570 00c0 1A60     		str	r2, [r3]	@ _23, MEM[(volatile uint32_t *)3758157088B]
 367:../../kernel/FreeRTOS/Source/portable/GCC/ARM_CM4F/port.c **** 
 1571              		.loc 1 367 2 is_stmt 1 discriminator 2 view .LVU359
 1572              	@ ../../kernel/FreeRTOS/Source/portable/GCC/ARM_CM4F/port.c:370: 	uxCriticalNesting = 0;
ARM GAS  /tmp/cc5qDK7o.s 			page 51


 370:../../kernel/FreeRTOS/Source/portable/GCC/ARM_CM4F/port.c **** 
 1573              		.loc 1 370 20 is_stmt 0 discriminator 2 view .LVU360
 1574 00c2 0025     		movs	r5, #0	@ tmp191,
 1575              	@ ../../kernel/FreeRTOS/Source/portable/GCC/ARM_CM4F/port.c:367: 	vPortSetupTimerInterrupt();
 367:../../kernel/FreeRTOS/Source/portable/GCC/ARM_CM4F/port.c **** 
 1576              		.loc 1 367 2 discriminator 2 view .LVU361
 1577 00c4 FFF7FEFF 		bl	vPortSetupTimerInterrupt		@
 1578              	.LVL40:
 370:../../kernel/FreeRTOS/Source/portable/GCC/ARM_CM4F/port.c **** 
 1579              		.loc 1 370 2 is_stmt 1 discriminator 2 view .LVU362
 1580              	@ ../../kernel/FreeRTOS/Source/portable/GCC/ARM_CM4F/port.c:370: 	uxCriticalNesting = 0;
 370:../../kernel/FreeRTOS/Source/portable/GCC/ARM_CM4F/port.c **** 
 1581              		.loc 1 370 20 is_stmt 0 discriminator 2 view .LVU363
 1582 00c8 2560     		str	r5, [r4]	@ tmp191, uxCriticalNesting
 373:../../kernel/FreeRTOS/Source/portable/GCC/ARM_CM4F/port.c **** 
 1583              		.loc 1 373 2 is_stmt 1 discriminator 2 view .LVU364
 1584 00ca FFF7FEFF 		bl	vPortEnableVFP		@
 1585              	.LVL41:
 376:../../kernel/FreeRTOS/Source/portable/GCC/ARM_CM4F/port.c **** 
 1586              		.loc 1 376 2 discriminator 2 view .LVU365
 1587              	@ ../../kernel/FreeRTOS/Source/portable/GCC/ARM_CM4F/port.c:376: 	*( portFPCCR ) |= portASPEN_AND_L
 376:../../kernel/FreeRTOS/Source/portable/GCC/ARM_CM4F/port.c **** 
 1588              		.loc 1 376 17 is_stmt 0 discriminator 2 view .LVU366
 1589 00ce 1A4A     		ldr	r2, .L87+32	@ tmp192,
 1590 00d0 1368     		ldr	r3, [r2]	@ _24, MEM[(volatile uint32_t *)3758157620B]
 1591 00d2 43F04043 		orr	r3, r3, #-1073741824	@ _25, _24,
 1592 00d6 1360     		str	r3, [r2]	@ _25, MEM[(volatile uint32_t *)3758157620B]
 379:../../kernel/FreeRTOS/Source/portable/GCC/ARM_CM4F/port.c **** 
 1593              		.loc 1 379 2 is_stmt 1 discriminator 2 view .LVU367
 1594 00d8 FFF7FEFF 		bl	prvPortStartFirstTask		@
 1595              	.LVL42:
 387:../../kernel/FreeRTOS/Source/portable/GCC/ARM_CM4F/port.c **** 	prvTaskExitError();
 1596              		.loc 1 387 2 discriminator 2 view .LVU368
 1597 00dc FFF7FEFF 		bl	vTaskSwitchContext		@
 1598              	.LVL43:
 388:../../kernel/FreeRTOS/Source/portable/GCC/ARM_CM4F/port.c **** 
 1599              		.loc 1 388 2 discriminator 2 view .LVU369
 1600              	.LBB99:
 1601              	.LBI99:
 217:../../kernel/FreeRTOS/Source/portable/GCC/ARM_CM4F/port.c **** {
 1602              		.loc 1 217 13 discriminator 2 view .LVU370
 1603              	.LBB100:
 219:../../kernel/FreeRTOS/Source/portable/GCC/ARM_CM4F/port.c **** 
 1604              		.loc 1 219 1 discriminator 2 view .LVU371
 1605              	@ ../../kernel/FreeRTOS/Source/portable/GCC/ARM_CM4F/port.c:227: 	configASSERT( uxCriticalNesting =
 227:../../kernel/FreeRTOS/Source/portable/GCC/ARM_CM4F/port.c **** 	portDISABLE_INTERRUPTS();
 1606              		.loc 1 227 2 is_stmt 0 discriminator 2 view .LVU372
 1607 00e0 2368     		ldr	r3, [r4]	@ uxCriticalNesting, uxCriticalNesting
 1608              	@ ../../kernel/FreeRTOS/Source/portable/GCC/ARM_CM4F/port.c:219: volatile uint32_t ulDummy = 0;
 219:../../kernel/FreeRTOS/Source/portable/GCC/ARM_CM4F/port.c **** 
 1609              		.loc 1 219 19 discriminator 2 view .LVU373
 1610 00e2 0395     		str	r5, [sp, #12]	@ tmp191, ulDummy
 227:../../kernel/FreeRTOS/Source/portable/GCC/ARM_CM4F/port.c **** 	portDISABLE_INTERRUPTS();
 1611              		.loc 1 227 2 is_stmt 1 discriminator 2 view .LVU374
 1612 00e4 0133     		adds	r3, r3, #1	@ uxCriticalNesting, uxCriticalNesting,
 1613 00e6 08D0     		beq	.L76		@,
 1614              	.LBB101:
ARM GAS  /tmp/cc5qDK7o.s 			page 52


 1615              	.LBI101:
 217:../../kernel/FreeRTOS/Source/portable/GCC/ARM_CM4F/port.c **** {
 1616              		.loc 1 217 13 view .LVU375
 1617              	.LBB102:
 227:../../kernel/FreeRTOS/Source/portable/GCC/ARM_CM4F/port.c **** 	portDISABLE_INTERRUPTS();
 1618              		.loc 1 227 2 view .LVU376
 1619              	.LBB103:
 1620              	.LBI103:
 191:../../kernel/FreeRTOS/Source/portable/GCC/ARM_CM4F/portmacro.h **** {
 1621              		.loc 2 191 30 view .LVU377
 1622              	.LBB104:
 193:../../kernel/FreeRTOS/Source/portable/GCC/ARM_CM4F/portmacro.h **** 
 1623              		.loc 2 193 1 view .LVU378
 195:../../kernel/FreeRTOS/Source/portable/GCC/ARM_CM4F/portmacro.h **** 	(
 1624              		.loc 2 195 2 view .LVU379
 1625              		.syntax unified
 1626              	@ 195 "../../kernel/FreeRTOS/Source/portable/GCC/ARM_CM4F/portmacro.h" 1
 1627 00e8 4FF0A003 			mov r3, #160													@ ulNewBASEPRI,
 1628 00ec 83F31188 		msr basepri, r3												@ ulNewBASEPRI
 1629 00f0 BFF36F8F 		isb														
 1630 00f4 BFF34F8F 		dsb														
 1631              	
 1632              	@ 0 "" 2
 1633              	.LVL44:
 1634              		.thumb
 1635              		.syntax unified
 1636              	.L77:
 195:../../kernel/FreeRTOS/Source/portable/GCC/ARM_CM4F/portmacro.h **** 	(
 1637              		.loc 2 195 2 is_stmt 0 view .LVU380
 1638              	.LBE104:
 1639              	.LBE103:
 227:../../kernel/FreeRTOS/Source/portable/GCC/ARM_CM4F/port.c **** 	portDISABLE_INTERRUPTS();
 1640              		.loc 1 227 2 is_stmt 1 view .LVU381
 227:../../kernel/FreeRTOS/Source/portable/GCC/ARM_CM4F/port.c **** 	portDISABLE_INTERRUPTS();
 1641              		.loc 1 227 2 view .LVU382
 227:../../kernel/FreeRTOS/Source/portable/GCC/ARM_CM4F/port.c **** 	portDISABLE_INTERRUPTS();
 1642              		.loc 1 227 2 view .LVU383
 227:../../kernel/FreeRTOS/Source/portable/GCC/ARM_CM4F/port.c **** 	portDISABLE_INTERRUPTS();
 1643              		.loc 1 227 2 view .LVU384
 1644 00f8 FEE7     		b	.L77		@
 1645              	.L76:
 227:../../kernel/FreeRTOS/Source/portable/GCC/ARM_CM4F/port.c **** 	portDISABLE_INTERRUPTS();
 1646              		.loc 1 227 2 is_stmt 0 view .LVU385
 1647              	.LBE102:
 1648              	.LBE101:
 227:../../kernel/FreeRTOS/Source/portable/GCC/ARM_CM4F/port.c **** 	portDISABLE_INTERRUPTS();
 1649              		.loc 1 227 43 is_stmt 1 view .LVU386
 228:../../kernel/FreeRTOS/Source/portable/GCC/ARM_CM4F/port.c **** 	while( ulDummy == 0 )
 1650              		.loc 1 228 2 view .LVU387
 1651              	.LBB105:
 1652              	.LBI105:
 191:../../kernel/FreeRTOS/Source/portable/GCC/ARM_CM4F/portmacro.h **** {
 1653              		.loc 2 191 30 view .LVU388
 1654              	.LBB106:
 193:../../kernel/FreeRTOS/Source/portable/GCC/ARM_CM4F/portmacro.h **** 
 1655              		.loc 2 193 1 view .LVU389
 195:../../kernel/FreeRTOS/Source/portable/GCC/ARM_CM4F/portmacro.h **** 	(
ARM GAS  /tmp/cc5qDK7o.s 			page 53


 1656              		.loc 2 195 2 view .LVU390
 1657              		.syntax unified
 1658              	@ 195 "../../kernel/FreeRTOS/Source/portable/GCC/ARM_CM4F/portmacro.h" 1
 1659 00fa 4FF0A003 			mov r3, #160													@ ulNewBASEPRI,
 1660 00fe 83F31188 		msr basepri, r3												@ ulNewBASEPRI
 1661 0102 BFF36F8F 		isb														
 1662 0106 BFF34F8F 		dsb														
 1663              	
 1664              	@ 0 "" 2
 1665              	.LVL45:
 1666              		.thumb
 1667              		.syntax unified
 1668              	.L78:
 195:../../kernel/FreeRTOS/Source/portable/GCC/ARM_CM4F/portmacro.h **** 	(
 1669              		.loc 2 195 2 is_stmt 0 view .LVU391
 1670              	.LBE106:
 1671              	.LBE105:
 238:../../kernel/FreeRTOS/Source/portable/GCC/ARM_CM4F/port.c **** }
 1672              		.loc 1 238 2 is_stmt 1 view .LVU392
 1673              	@ ../../kernel/FreeRTOS/Source/portable/GCC/ARM_CM4F/port.c:229: 	while( ulDummy == 0 )
 229:../../kernel/FreeRTOS/Source/portable/GCC/ARM_CM4F/port.c **** 	{
 1674              		.loc 1 229 17 is_stmt 0 view .LVU393
 1675 010a 039B     		ldr	r3, [sp, #12]	@ ulDummy.4_54, ulDummy
 1676              	@ ../../kernel/FreeRTOS/Source/portable/GCC/ARM_CM4F/port.c:229: 	while( ulDummy == 0 )
 229:../../kernel/FreeRTOS/Source/portable/GCC/ARM_CM4F/port.c **** 	{
 1677              		.loc 1 229 7 view .LVU394
 1678 010c 002B     		cmp	r3, #0	@ ulDummy.4_54
 1679 010e FCD0     		beq	.L78	@
 229:../../kernel/FreeRTOS/Source/portable/GCC/ARM_CM4F/port.c **** 	{
 1680              		.loc 1 229 7 view .LVU395
 1681              	.LBE100:
 1682              	.LBE99:
 391:../../kernel/FreeRTOS/Source/portable/GCC/ARM_CM4F/port.c **** }
 1683              		.loc 1 391 2 is_stmt 1 discriminator 2 view .LVU396
 1684              	@ ../../kernel/FreeRTOS/Source/portable/GCC/ARM_CM4F/port.c:392: }
 392:../../kernel/FreeRTOS/Source/portable/GCC/ARM_CM4F/port.c **** /*-----------------------------------------------------------*/
 1685              		.loc 1 392 1 is_stmt 0 discriminator 2 view .LVU397
 1686 0110 0020     		movs	r0, #0	@,
 1687 0112 05B0     		add	sp, sp, #20	@,,
 1688              		.cfi_def_cfa_offset 12
 1689              		@ sp needed	@
 1690 0114 30BD     		pop	{r4, r5, pc}	@
 1691              	.L88:
 1692 0116 00BF     		.align	2
 1693              	.L87:
 1694 0118 00ED00E0 		.word	-536810240
 1695 011c 71C20F41 		.word	1091551857
 1696 0120 70C20F41 		.word	1091551856
 1697 0124 00E400E0 		.word	-536812544
 1698 0128 00000000 		.word	.LANCHOR4
 1699 012c 00000000 		.word	.LANCHOR5
 1700 0130 20ED00E0 		.word	-536810208
 1701 0134 00000000 		.word	.LANCHOR0
 1702 0138 34EF00E0 		.word	-536809676
 1703              		.cfi_endproc
 1704              	.LFE8:
 1705              		.size	xPortStartScheduler, .-xPortStartScheduler
ARM GAS  /tmp/cc5qDK7o.s 			page 54


 1706              		.section	.text.vPortValidateInterruptPriority,"ax",%progbits
 1707              		.align	1
 1708              		.p2align 2,,3
 1709              		.global	vPortValidateInterruptPriority
 1710              		.syntax unified
 1711              		.thumb
 1712              		.thumb_func
 1713              		.fpu fpv4-sp-d16
 1714              		.type	vPortValidateInterruptPriority, %function
 1715              	vPortValidateInterruptPriority:
 1716              	.LFB17:
 713:../../kernel/FreeRTOS/Source/portable/GCC/ARM_CM4F/port.c **** /*-----------------------------------------------------------*/
 714:../../kernel/FreeRTOS/Source/portable/GCC/ARM_CM4F/port.c **** 
 715:../../kernel/FreeRTOS/Source/portable/GCC/ARM_CM4F/port.c **** #if( configASSERT_DEFINED == 1 )
 716:../../kernel/FreeRTOS/Source/portable/GCC/ARM_CM4F/port.c **** 
 717:../../kernel/FreeRTOS/Source/portable/GCC/ARM_CM4F/port.c **** 	void vPortValidateInterruptPriority( void )
 718:../../kernel/FreeRTOS/Source/portable/GCC/ARM_CM4F/port.c **** 	{
 1717              		.loc 1 718 2 is_stmt 1 view -0
 1718              		.cfi_startproc
 1719              		@ args = 0, pretend = 0, frame = 0
 1720              		@ frame_needed = 0, uses_anonymous_args = 0
 1721              		@ link register save eliminated.
 719:../../kernel/FreeRTOS/Source/portable/GCC/ARM_CM4F/port.c **** 	uint32_t ulCurrentInterrupt;
 1722              		.loc 1 719 2 view .LVU399
 720:../../kernel/FreeRTOS/Source/portable/GCC/ARM_CM4F/port.c **** 	uint8_t ucCurrentPriority;
 1723              		.loc 1 720 2 view .LVU400
 721:../../kernel/FreeRTOS/Source/portable/GCC/ARM_CM4F/port.c **** 
 722:../../kernel/FreeRTOS/Source/portable/GCC/ARM_CM4F/port.c **** 		/* Obtain the number of the currently executing interrupt. */
 723:../../kernel/FreeRTOS/Source/portable/GCC/ARM_CM4F/port.c **** 		__asm volatile( "mrs %0, ipsr" : "=r"( ulCurrentInterrupt ) :: "memory" );
 1724              		.loc 1 723 3 view .LVU401
 1725              		.syntax unified
 1726              	@ 723 "../../kernel/FreeRTOS/Source/portable/GCC/ARM_CM4F/port.c" 1
 1727 0000 EFF30583 		mrs r3, ipsr	@ ulCurrentInterrupt
 1728              	@ 0 "" 2
 1729              	.LVL46:
 724:../../kernel/FreeRTOS/Source/portable/GCC/ARM_CM4F/port.c **** 
 725:../../kernel/FreeRTOS/Source/portable/GCC/ARM_CM4F/port.c **** 		/* Is the interrupt number a user defined interrupt? */
 726:../../kernel/FreeRTOS/Source/portable/GCC/ARM_CM4F/port.c **** 		if( ulCurrentInterrupt >= portFIRST_USER_INTERRUPT_NUMBER )
 1730              		.loc 1 726 3 view .LVU402
 1731              	@ ../../kernel/FreeRTOS/Source/portable/GCC/ARM_CM4F/port.c:726: 		if( ulCurrentInterrupt >= portFI
 1732              		.loc 1 726 5 is_stmt 0 view .LVU403
 1733              		.thumb
 1734              		.syntax unified
 1735 0004 0F2B     		cmp	r3, #15	@ ulCurrentInterrupt,
 1736 0006 0ED9     		bls	.L90		@,
 727:../../kernel/FreeRTOS/Source/portable/GCC/ARM_CM4F/port.c **** 		{
 728:../../kernel/FreeRTOS/Source/portable/GCC/ARM_CM4F/port.c **** 			/* Look up the interrupt's priority. */
 729:../../kernel/FreeRTOS/Source/portable/GCC/ARM_CM4F/port.c **** 			ucCurrentPriority = pcInterruptPriorityRegisters[ ulCurrentInterrupt ];
 1737              		.loc 1 729 4 is_stmt 1 view .LVU404
 1738              	@ ../../kernel/FreeRTOS/Source/portable/GCC/ARM_CM4F/port.c:729: 			ucCurrentPriority = pcInterrupt
 1739              		.loc 1 729 52 is_stmt 0 view .LVU405
 1740 0008 1049     		ldr	r1, .L94	@ tmp120,
 1741              	@ ../../kernel/FreeRTOS/Source/portable/GCC/ARM_CM4F/port.c:754: 			configASSERT( ucCurrentPriority
 730:../../kernel/FreeRTOS/Source/portable/GCC/ARM_CM4F/port.c **** 
 731:../../kernel/FreeRTOS/Source/portable/GCC/ARM_CM4F/port.c **** 			/* The following assertion will fail if a service routine (ISR) for
 732:../../kernel/FreeRTOS/Source/portable/GCC/ARM_CM4F/port.c **** 			an interrupt that has been assigned a priority above
 733:../../kernel/FreeRTOS/Source/portable/GCC/ARM_CM4F/port.c **** 			configMAX_SYSCALL_INTERRUPT_PRIORITY calls an ISR safe FreeRTOS API
ARM GAS  /tmp/cc5qDK7o.s 			page 55


 734:../../kernel/FreeRTOS/Source/portable/GCC/ARM_CM4F/port.c **** 			function.  ISR safe FreeRTOS API functions must *only* be called
 735:../../kernel/FreeRTOS/Source/portable/GCC/ARM_CM4F/port.c **** 			from interrupts that have been assigned a priority at or below
 736:../../kernel/FreeRTOS/Source/portable/GCC/ARM_CM4F/port.c **** 			configMAX_SYSCALL_INTERRUPT_PRIORITY.
 737:../../kernel/FreeRTOS/Source/portable/GCC/ARM_CM4F/port.c **** 
 738:../../kernel/FreeRTOS/Source/portable/GCC/ARM_CM4F/port.c **** 			Numerically low interrupt priority numbers represent logically high
 739:../../kernel/FreeRTOS/Source/portable/GCC/ARM_CM4F/port.c **** 			interrupt priorities, therefore the priority of the interrupt must
 740:../../kernel/FreeRTOS/Source/portable/GCC/ARM_CM4F/port.c **** 			be set to a value equal to or numerically *higher* than
 741:../../kernel/FreeRTOS/Source/portable/GCC/ARM_CM4F/port.c **** 			configMAX_SYSCALL_INTERRUPT_PRIORITY.
 742:../../kernel/FreeRTOS/Source/portable/GCC/ARM_CM4F/port.c **** 
 743:../../kernel/FreeRTOS/Source/portable/GCC/ARM_CM4F/port.c **** 			Interrupts that	use the FreeRTOS API must not be left at their
 744:../../kernel/FreeRTOS/Source/portable/GCC/ARM_CM4F/port.c **** 			default priority of	zero as that is the highest possible priority,
 745:../../kernel/FreeRTOS/Source/portable/GCC/ARM_CM4F/port.c **** 			which is guaranteed to be above configMAX_SYSCALL_INTERRUPT_PRIORITY,
 746:../../kernel/FreeRTOS/Source/portable/GCC/ARM_CM4F/port.c **** 			and	therefore also guaranteed to be invalid.
 747:../../kernel/FreeRTOS/Source/portable/GCC/ARM_CM4F/port.c **** 
 748:../../kernel/FreeRTOS/Source/portable/GCC/ARM_CM4F/port.c **** 			FreeRTOS maintains separate thread and ISR API functions to ensure
 749:../../kernel/FreeRTOS/Source/portable/GCC/ARM_CM4F/port.c **** 			interrupt entry is as fast and simple as possible.
 750:../../kernel/FreeRTOS/Source/portable/GCC/ARM_CM4F/port.c **** 
 751:../../kernel/FreeRTOS/Source/portable/GCC/ARM_CM4F/port.c **** 			The following links provide detailed information:
 752:../../kernel/FreeRTOS/Source/portable/GCC/ARM_CM4F/port.c **** 			http://www.freertos.org/RTOS-Cortex-M3-M4.html
 753:../../kernel/FreeRTOS/Source/portable/GCC/ARM_CM4F/port.c **** 			http://www.freertos.org/FAQHelp.html */
 754:../../kernel/FreeRTOS/Source/portable/GCC/ARM_CM4F/port.c **** 			configASSERT( ucCurrentPriority >= ucMaxSysCallPriority );
 1742              		.loc 1 754 4 view .LVU406
 1743 000a 114A     		ldr	r2, .L94+4	@ tmp123,
 1744              	@ ../../kernel/FreeRTOS/Source/portable/GCC/ARM_CM4F/port.c:729: 			ucCurrentPriority = pcInterrupt
 729:../../kernel/FreeRTOS/Source/portable/GCC/ARM_CM4F/port.c **** 
 1745              		.loc 1 729 22 view .LVU407
 1746 000c 5B5C     		ldrb	r3, [r3, r1]	@ zero_extendqisi2	@ *_1, *_1
 1747              	.LVL47:
 1748              		.loc 1 754 4 is_stmt 1 view .LVU408
 1749 000e 1278     		ldrb	r2, [r2]	@ zero_extendqisi2	@ ucMaxSysCallPriority, ucMaxSysCallPriority
 1750 0010 9A42     		cmp	r2, r3	@ ucMaxSysCallPriority, *_1
 1751 0012 08D9     		bls	.L90		@,
 1752              		.loc 1 754 4 view .LVU409
 1753              	.LBB107:
 1754              	.LBI107:
 191:../../kernel/FreeRTOS/Source/portable/GCC/ARM_CM4F/portmacro.h **** {
 1755              		.loc 2 191 30 view .LVU410
 1756              	.LBB108:
 193:../../kernel/FreeRTOS/Source/portable/GCC/ARM_CM4F/portmacro.h **** 
 1757              		.loc 2 193 1 view .LVU411
 195:../../kernel/FreeRTOS/Source/portable/GCC/ARM_CM4F/portmacro.h **** 	(
 1758              		.loc 2 195 2 view .LVU412
 1759              		.syntax unified
 1760              	@ 195 "../../kernel/FreeRTOS/Source/portable/GCC/ARM_CM4F/portmacro.h" 1
 1761 0014 4FF0A003 			mov r3, #160													@ ulNewBASEPRI,
 1762 0018 83F31188 		msr basepri, r3												@ ulNewBASEPRI
 1763 001c BFF36F8F 		isb														
 1764 0020 BFF34F8F 		dsb														
 1765              	
 1766              	@ 0 "" 2
 1767              	.LVL48:
 1768              		.thumb
 1769              		.syntax unified
 1770              	.L91:
 195:../../kernel/FreeRTOS/Source/portable/GCC/ARM_CM4F/portmacro.h **** 	(
 1771              		.loc 2 195 2 is_stmt 0 view .LVU413
 1772              	.LBE108:
ARM GAS  /tmp/cc5qDK7o.s 			page 56


 1773              	.LBE107:
 1774              		.loc 1 754 4 is_stmt 1 discriminator 1 view .LVU414
 1775              		.loc 1 754 4 discriminator 1 view .LVU415
 1776              		.loc 1 754 4 discriminator 1 view .LVU416
 1777              		.loc 1 754 4 discriminator 1 view .LVU417
 1778 0024 FEE7     		b	.L91		@
 1779              	.L90:
 1780              		.loc 1 754 61 discriminator 2 view .LVU418
 755:../../kernel/FreeRTOS/Source/portable/GCC/ARM_CM4F/port.c **** 		}
 756:../../kernel/FreeRTOS/Source/portable/GCC/ARM_CM4F/port.c **** 
 757:../../kernel/FreeRTOS/Source/portable/GCC/ARM_CM4F/port.c **** 		/* Priority grouping:  The interrupt controller (NVIC) allows the bits
 758:../../kernel/FreeRTOS/Source/portable/GCC/ARM_CM4F/port.c **** 		that define each interrupt's priority to be split between bits that
 759:../../kernel/FreeRTOS/Source/portable/GCC/ARM_CM4F/port.c **** 		define the interrupt's pre-emption priority bits and bits that define
 760:../../kernel/FreeRTOS/Source/portable/GCC/ARM_CM4F/port.c **** 		the interrupt's sub-priority.  For simplicity all bits must be defined
 761:../../kernel/FreeRTOS/Source/portable/GCC/ARM_CM4F/port.c **** 		to be pre-emption priority bits.  The following assertion will fail if
 762:../../kernel/FreeRTOS/Source/portable/GCC/ARM_CM4F/port.c **** 		this is not the case (if some bits represent a sub-priority).
 763:../../kernel/FreeRTOS/Source/portable/GCC/ARM_CM4F/port.c **** 
 764:../../kernel/FreeRTOS/Source/portable/GCC/ARM_CM4F/port.c **** 		If the application only uses CMSIS libraries for interrupt
 765:../../kernel/FreeRTOS/Source/portable/GCC/ARM_CM4F/port.c **** 		configuration then the correct setting can be achieved on all Cortex-M
 766:../../kernel/FreeRTOS/Source/portable/GCC/ARM_CM4F/port.c **** 		devices by calling NVIC_SetPriorityGrouping( 0 ); before starting the
 767:../../kernel/FreeRTOS/Source/portable/GCC/ARM_CM4F/port.c **** 		scheduler.  Note however that some vendor specific peripheral libraries
 768:../../kernel/FreeRTOS/Source/portable/GCC/ARM_CM4F/port.c **** 		assume a non-zero priority group setting, in which cases using a value
 769:../../kernel/FreeRTOS/Source/portable/GCC/ARM_CM4F/port.c **** 		of zero will result in unpredictable behaviour. */
 770:../../kernel/FreeRTOS/Source/portable/GCC/ARM_CM4F/port.c **** 		configASSERT( ( portAIRCR_REG & portPRIORITY_GROUP_MASK ) <= ulMaxPRIGROUPValue );
 1781              		.loc 1 770 3 discriminator 2 view .LVU419
 1782 0026 0B4B     		ldr	r3, .L94+8	@ tmp126,
 1783 0028 0B4A     		ldr	r2, .L94+12	@ tmp128,
 1784 002a 1B68     		ldr	r3, [r3]	@ _3, MEM[(volatile uint32_t *)3758157068B]
 1785 002c 1268     		ldr	r2, [r2]	@ ulMaxPRIGROUPValue, ulMaxPRIGROUPValue
 1786 002e 03F4E063 		and	r3, r3, #1792	@ tmp127, _3,
 1787 0032 9342     		cmp	r3, r2	@ tmp127, ulMaxPRIGROUPValue
 1788 0034 08D9     		bls	.L89		@,
 1789              		.loc 1 770 3 view .LVU420
 1790              	.LBB109:
 1791              	.LBI109:
 191:../../kernel/FreeRTOS/Source/portable/GCC/ARM_CM4F/portmacro.h **** {
 1792              		.loc 2 191 30 view .LVU421
 1793              	.LBB110:
 193:../../kernel/FreeRTOS/Source/portable/GCC/ARM_CM4F/portmacro.h **** 
 1794              		.loc 2 193 1 view .LVU422
 195:../../kernel/FreeRTOS/Source/portable/GCC/ARM_CM4F/portmacro.h **** 	(
 1795              		.loc 2 195 2 view .LVU423
 1796              		.syntax unified
 1797              	@ 195 "../../kernel/FreeRTOS/Source/portable/GCC/ARM_CM4F/portmacro.h" 1
 1798 0036 4FF0A003 			mov r3, #160													@ ulNewBASEPRI,
 1799 003a 83F31188 		msr basepri, r3												@ ulNewBASEPRI
 1800 003e BFF36F8F 		isb														
 1801 0042 BFF34F8F 		dsb														
 1802              	
 1803              	@ 0 "" 2
 1804              	.LVL49:
 1805              		.thumb
 1806              		.syntax unified
 1807              	.L93:
 195:../../kernel/FreeRTOS/Source/portable/GCC/ARM_CM4F/portmacro.h **** 	(
 1808              		.loc 2 195 2 is_stmt 0 view .LVU424
 1809              	.LBE110:
ARM GAS  /tmp/cc5qDK7o.s 			page 57


 1810              	.LBE109:
 1811              		.loc 1 770 3 is_stmt 1 discriminator 2 view .LVU425
 1812              		.loc 1 770 3 discriminator 2 view .LVU426
 1813              		.loc 1 770 3 discriminator 2 view .LVU427
 1814              		.loc 1 770 3 discriminator 2 view .LVU428
 1815 0046 FEE7     		b	.L93		@
 1816              	.L89:
 1817              	@ ../../kernel/FreeRTOS/Source/portable/GCC/ARM_CM4F/port.c:771: 	}
 771:../../kernel/FreeRTOS/Source/portable/GCC/ARM_CM4F/port.c **** 	}
 1818              		.loc 1 771 2 is_stmt 0 view .LVU429
 1819 0048 7047     		bx	lr	@
 1820              	.L95:
 1821 004a 00BF     		.align	2
 1822              	.L94:
 1823 004c F0E300E0 		.word	-536812560
 1824 0050 00000000 		.word	.LANCHOR4
 1825 0054 0CED00E0 		.word	-536810228
 1826 0058 00000000 		.word	.LANCHOR5
 1827              		.cfi_endproc
 1828              	.LFE17:
 1829              		.size	vPortValidateInterruptPriority, .-vPortValidateInterruptPriority
 1830              		.section	.bss.ucMaxSysCallPriority,"aw",%nobits
 1831              		.set	.LANCHOR4,. + 0
 1832              		.type	ucMaxSysCallPriority, %object
 1833              		.size	ucMaxSysCallPriority, 1
 1834              	ucMaxSysCallPriority:
 1835 0000 00       		.space	1
 1836              		.section	.bss.ulMaxPRIGROUPValue,"aw",%nobits
 1837              		.align	2
 1838              		.set	.LANCHOR5,. + 0
 1839              		.type	ulMaxPRIGROUPValue, %object
 1840              		.size	ulMaxPRIGROUPValue, 4
 1841              	ulMaxPRIGROUPValue:
 1842 0000 00000000 		.space	4
 1843              		.section	.bss.ulStoppedTimerCompensation,"aw",%nobits
 1844              		.align	2
 1845              		.set	.LANCHOR3,. + 0
 1846              		.type	ulStoppedTimerCompensation, %object
 1847              		.size	ulStoppedTimerCompensation, 4
 1848              	ulStoppedTimerCompensation:
 1849 0000 00000000 		.space	4
 1850              		.section	.bss.ulTimerCountsForOneTick,"aw",%nobits
 1851              		.align	2
 1852              		.set	.LANCHOR2,. + 0
 1853              		.type	ulTimerCountsForOneTick, %object
 1854              		.size	ulTimerCountsForOneTick, 4
 1855              	ulTimerCountsForOneTick:
 1856 0000 00000000 		.space	4
 1857              		.section	.bss.xMaximumPossibleSuppressedTicks,"aw",%nobits
 1858              		.align	2
 1859              		.set	.LANCHOR1,. + 0
 1860              		.type	xMaximumPossibleSuppressedTicks, %object
 1861              		.size	xMaximumPossibleSuppressedTicks, 4
 1862              	xMaximumPossibleSuppressedTicks:
 1863 0000 00000000 		.space	4
 1864              		.section	.data.uxCriticalNesting,"aw"
 1865              		.align	2
ARM GAS  /tmp/cc5qDK7o.s 			page 58


 1866              		.set	.LANCHOR0,. + 0
 1867              		.type	uxCriticalNesting, %object
 1868              		.size	uxCriticalNesting, 4
 1869              	uxCriticalNesting:
 1870 0000 AAAAAAAA 		.word	-1431655766
 1871              		.text
 1872              	.Letext0:
 1873              		.file 3 "/home/gu/code/freeRTOS10/vendor/mstar/CM4/tools/gcc-arm-none-eabi-8-2018-q4-major/arm-non
 1874              		.file 4 "/home/gu/code/freeRTOS10/vendor/mstar/CM4/tools/gcc-arm-none-eabi-8-2018-q4-major/arm-non
 1875              		.file 5 "../../kernel/FreeRTOS/Source/include/projdefs.h"
 1876              		.file 6 "../../kernel/FreeRTOS/Source/include/task.h"