ARM GAS  /tmp/cc5qDK7o.s 			page 1


   1              		.cpu cortex-m4
   2              		.eabi_attribute 27, 1	@ Tag_ABI_HardFP_use
   3              		.eabi_attribute 20, 1	@ Tag_ABI_FP_denormal
   4              		.eabi_attribute 21, 1	@ Tag_ABI_FP_exceptions
   5              		.eabi_attribute 23, 3	@ Tag_ABI_FP_number_model
   6              		.eabi_attribute 24, 1	@ Tag_ABI_align8_needed
   7              		.eabi_attribute 25, 1	@ Tag_ABI_align8_preserved
   8              		.eabi_attribute 26, 1	@ Tag_ABI_enum_size
   9              		.eabi_attribute 30, 2	@ Tag_ABI_optimization_goals
  10              		.eabi_attribute 34, 1	@ Tag_CPU_unaligned_access
  11              		.eabi_attribute 18, 4	@ Tag_ABI_PCS_wchar_t
  12              		.file	"port.c"
  13              	@ GNU C89 (GNU Tools for Arm Embedded Processors 8-2018-q4-major) version 8.2.1 20181213 (release) 
  14              	@	compiled by GNU C version 4.8.4, GMP version 6.1.0, MPFR version 3.1.4, MPC version 1.0.3, isl ve
  15              	
  16              	@ GGC heuristics: --param ggc-min-expand=96 --param ggc-min-heapsize=125422
  17              	@ options passed:  -isystem =/include/newlib-nano -I . -I .
  18              	@ -I ../../kernel/FreeRTOS/Source/include
  19              	@ -I ../../kernel/FreeRTOS/Source/portable/GCC/ARM_CM4F
  20              	@ -I ../../kernel/FreeRTOS/Demo/Common/include
  21              	@ -I ../../kernel/FreeRTOS-Plus/Source/FreeRTOS-Plus-CLI
  22              	@ -I ../../peripheral_library/inc -I ../../peripheral_library/hal/m7221/inc
  23              	@ -I ../../CMSIS -I ../../main_full -I ../../3rd/rokid/./ -I /.
  24              	@ -I /../../kernel/FreeRTOS/Source/include
  25              	@ -I /../../kernel/FreeRTOS/Source/portable/GCC/ARM_CM4F
  26              	@ -I /../../kernel/FreeRTOS/Demo/Common/include
  27              	@ -I /../../kernel/FreeRTOS-Plus/Source/FreeRTOS-Plus-CLI
  28              	@ -I /../../peripheral_library/inc
  29              	@ -I /../../peripheral_library/hal/m7221/inc -I /../../CMSIS
  30              	@ -I /../../main_full -I /../../3rd/rokid/./
  31              	@ -imultilib thumb/v7e-m+fp/softfp
  32              	@ -iprefix /home/gu/code/freeRTOS10/vendor/mstar/CM4/tools/gcc-arm-none-eabi-8-2018-q4-major/bin/..
  33              	@ -isysroot /home/gu/code/freeRTOS10/vendor/mstar/CM4/tools/gcc-arm-none-eabi-8-2018-q4-major/bin/.
  34              	@ -MD out/port.d -MF out/port.d -MP -MQ out/port.o -D__USES_INITFINI__
  35              	@ -D CONFIG_BENCH=0 -D CONFIG_SYS_DBG_LEVEL=0xFFFFFFFF -D CONFIG_VOC_MIC=6
  36              	@ -D CONFIG_AUD_I2S -D CONFIG_AUD_AEC -D CONFIG_VOC_MIC_MAPPING
  37              	@ -D CONFIG_VOC_SWHPF -D CONFIG_VOC_SW_SRC48K -D ARM_MATH_CM4
  38              	@ -D BOOTROM_VERSION_ASIC
  39              	@ ../../kernel/FreeRTOS/Source/portable/GCC/ARM_CM4F/port.c -mcpu=cortex-m4
  40              	@ -mthumb -mthumb-interwork -mfloat-abi=softfp -mfpu=fpv4-sp-d16
  41              	@ -march=armv7e-m+fp -auxbase-strip out/port.o -g -ggdb3 -O3 -Wall
  42              	@ -Wstrict-prototypes -Wextra -std=gnu90 -ffunction-sections
  43              	@ -fdata-sections -fno-builtin-printf -fverbose-asm
  44              	@ options enabled:  -faggressive-loop-optimizations -falign-jumps
  45              	@ -falign-labels -falign-loops -fauto-inc-dec -fbranch-count-reg
  46              	@ -fcaller-saves -fchkp-check-incomplete-type -fchkp-check-read
  47              	@ -fchkp-check-write -fchkp-instrument-calls -fchkp-narrow-bounds
  48              	@ -fchkp-optimize -fchkp-store-bounds -fchkp-use-static-bounds
  49              	@ -fchkp-use-static-const-bounds -fchkp-use-wrappers -fcode-hoisting
  50              	@ -fcombine-stack-adjustments -fcommon -fcompare-elim -fcprop-registers
  51              	@ -fcrossjumping -fcse-follow-jumps -fdata-sections -fdefer-pop
  52              	@ -fdelete-null-pointer-checks -fdevirtualize -fdevirtualize-speculatively
  53              	@ -fdwarf2-cfi-asm -fearly-inlining -feliminate-unused-debug-types
  54              	@ -fexpensive-optimizations -fforward-propagate -ffp-int-builtin-inexact
  55              	@ -ffunction-cse -ffunction-sections -fgcse -fgcse-after-reload -fgcse-lm
  56              	@ -fgnu-runtime -fgnu-unique -fguess-branch-probability
  57              	@ -fhoist-adjacent-loads -fident -fif-conversion -fif-conversion2
ARM GAS  /tmp/cc5qDK7o.s 			page 2


  58              	@ -findirect-inlining -finline -finline-atomics -finline-functions
  59              	@ -finline-functions-called-once -finline-small-functions -fipa-bit-cp
  60              	@ -fipa-cp -fipa-cp-clone -fipa-icf -fipa-icf-functions -fipa-icf-variables
  61              	@ -fipa-profile -fipa-pure-const -fipa-ra -fipa-reference -fipa-sra
  62              	@ -fipa-vrp -fira-hoist-pressure -fira-share-save-slots
  63              	@ -fira-share-spill-slots -fisolate-erroneous-paths-dereference -fivopts
  64              	@ -fkeep-static-consts -fleading-underscore -flifetime-dse
  65              	@ -floop-interchange -floop-unroll-and-jam -flra-remat
  66              	@ -flto-odr-type-merging -fmath-errno -fmerge-constants
  67              	@ -fmerge-debug-strings -fmove-loop-invariants -fomit-frame-pointer
  68              	@ -foptimize-sibling-calls -foptimize-strlen -fpartial-inlining
  69              	@ -fpeel-loops -fpeephole -fpeephole2 -fplt -fpredictive-commoning
  70              	@ -fprefetch-loop-arrays -freg-struct-return -freorder-blocks
  71              	@ -freorder-functions -frerun-cse-after-loop
  72              	@ -fsched-critical-path-heuristic -fsched-dep-count-heuristic
  73              	@ -fsched-group-heuristic -fsched-interblock -fsched-last-insn-heuristic
  74              	@ -fsched-pressure -fsched-rank-heuristic -fsched-spec
  75              	@ -fsched-spec-insn-heuristic -fsched-stalled-insns-dep -fschedule-insns
  76              	@ -fschedule-insns2 -fsection-anchors -fsemantic-interposition
  77              	@ -fshow-column -fshrink-wrap -fshrink-wrap-separate -fsigned-zeros
  78              	@ -fsplit-ivs-in-unroller -fsplit-loops -fsplit-paths -fsplit-wide-types
  79              	@ -fssa-backprop -fssa-phiopt -fstdarg-opt -fstore-merging
  80              	@ -fstrict-aliasing -fstrict-volatile-bitfields -fsync-libcalls
  81              	@ -fthread-jumps -ftoplevel-reorder -ftrapping-math -ftree-bit-ccp
  82              	@ -ftree-builtin-call-dce -ftree-ccp -ftree-ch -ftree-coalesce-vars
  83              	@ -ftree-copy-prop -ftree-cselim -ftree-dce -ftree-dominator-opts
  84              	@ -ftree-dse -ftree-forwprop -ftree-fre -ftree-loop-distribute-patterns
  85              	@ -ftree-loop-distribution -ftree-loop-if-convert -ftree-loop-im
  86              	@ -ftree-loop-ivcanon -ftree-loop-optimize -ftree-loop-vectorize
  87              	@ -ftree-parallelize-loops= -ftree-partial-pre -ftree-phiprop -ftree-pre
  88              	@ -ftree-pta -ftree-reassoc -ftree-scev-cprop -ftree-sink
  89              	@ -ftree-slp-vectorize -ftree-slsr -ftree-sra -ftree-switch-conversion
  90              	@ -ftree-tail-merge -ftree-ter -ftree-vrp -funit-at-a-time -funswitch-loops
  91              	@ -fvar-tracking -fvar-tracking-assignments -fverbose-asm
  92              	@ -fzero-initialized-in-bss -masm-syntax-unified -mbe32 -mlittle-endian
  93              	@ -mpic-data-is-text-relative -msched-prolog -mthumb -munaligned-access
  94              	@ -mvectorize-with-neon-quad
  95              	
  96              		.text
  97              	.Ltext0:
  98              		.cfi_sections	.debug_frame
  99              		.section	.text.prvPortStartFirstTask,"ax",%progbits
 100              		.align	1
 101              		.p2align 2,,3
 102              		.arch armv7e-m
 103              		.syntax unified
 104              		.thumb
 105              		.thumb_func
 106              		.fpu fpv4-sp-d16
 107              		.type	prvPortStartFirstTask, %function
 108              	prvPortStartFirstTask:
 109              	.LFB7:
 110              		.file 1 "../../kernel/FreeRTOS/Source/portable/GCC/ARM_CM4F/port.c"
   1:../../kernel/FreeRTOS/Source/portable/GCC/ARM_CM4F/port.c **** /*
   2:../../kernel/FreeRTOS/Source/portable/GCC/ARM_CM4F/port.c ****  * FreeRTOS Kernel V10.0.1
   3:../../kernel/FreeRTOS/Source/portable/GCC/ARM_CM4F/port.c ****  * Copyright (C) 2017 Amazon.com, Inc. or its affiliates.  All Rights Reserved.
   4:../../kernel/FreeRTOS/Source/portable/GCC/ARM_CM4F/port.c ****  *
ARM GAS  /tmp/cc5qDK7o.s 			page 3


   5:../../kernel/FreeRTOS/Source/portable/GCC/ARM_CM4F/port.c ****  * Permission is hereby granted, free of charge, to any person obtaining a copy of
   6:../../kernel/FreeRTOS/Source/portable/GCC/ARM_CM4F/port.c ****  * this software and associated documentation files (the "Software"), to deal in
   7:../../kernel/FreeRTOS/Source/portable/GCC/ARM_CM4F/port.c ****  * the Software without restriction, including without limitation the rights to
   8:../../kernel/FreeRTOS/Source/portable/GCC/ARM_CM4F/port.c ****  * use, copy, modify, merge, publish, distribute, sublicense, and/or sell copies of
   9:../../kernel/FreeRTOS/Source/portable/GCC/ARM_CM4F/port.c ****  * the Software, and to permit persons to whom the Software is furnished to do so,
  10:../../kernel/FreeRTOS/Source/portable/GCC/ARM_CM4F/port.c ****  * subject to the following conditions:
  11:../../kernel/FreeRTOS/Source/portable/GCC/ARM_CM4F/port.c ****  *
  12:../../kernel/FreeRTOS/Source/portable/GCC/ARM_CM4F/port.c ****  * The above copyright notice and this permission notice shall be included in all
  13:../../kernel/FreeRTOS/Source/portable/GCC/ARM_CM4F/port.c ****  * copies or substantial portions of the Software.
  14:../../kernel/FreeRTOS/Source/portable/GCC/ARM_CM4F/port.c ****  *
  15:../../kernel/FreeRTOS/Source/portable/GCC/ARM_CM4F/port.c ****  * THE SOFTWARE IS PROVIDED "AS IS", WITHOUT WARRANTY OF ANY KIND, EXPRESS OR
  16:../../kernel/FreeRTOS/Source/portable/GCC/ARM_CM4F/port.c ****  * IMPLIED, INCLUDING BUT NOT LIMITED TO THE WARRANTIES OF MERCHANTABILITY, FITNESS
  17:../../kernel/FreeRTOS/Source/portable/GCC/ARM_CM4F/port.c ****  * FOR A PARTICULAR PURPOSE AND NONINFRINGEMENT. IN NO EVENT SHALL THE AUTHORS OR
  18:../../kernel/FreeRTOS/Source/portable/GCC/ARM_CM4F/port.c ****  * COPYRIGHT HOLDERS BE LIABLE FOR ANY CLAIM, DAMAGES OR OTHER LIABILITY, WHETHER
  19:../../kernel/FreeRTOS/Source/portable/GCC/ARM_CM4F/port.c ****  * IN AN ACTION OF CONTRACT, TORT OR OTHERWISE, ARISING FROM, OUT OF OR IN
  20:../../kernel/FreeRTOS/Source/portable/GCC/ARM_CM4F/port.c ****  * CONNECTION WITH THE SOFTWARE OR THE USE OR OTHER DEALINGS IN THE SOFTWARE.
  21:../../kernel/FreeRTOS/Source/portable/GCC/ARM_CM4F/port.c ****  *
  22:../../kernel/FreeRTOS/Source/portable/GCC/ARM_CM4F/port.c ****  * http://www.FreeRTOS.org
  23:../../kernel/FreeRTOS/Source/portable/GCC/ARM_CM4F/port.c ****  * http://aws.amazon.com/freertos
  24:../../kernel/FreeRTOS/Source/portable/GCC/ARM_CM4F/port.c ****  *
  25:../../kernel/FreeRTOS/Source/portable/GCC/ARM_CM4F/port.c ****  * 1 tab == 4 spaces!
  26:../../kernel/FreeRTOS/Source/portable/GCC/ARM_CM4F/port.c ****  */
  27:../../kernel/FreeRTOS/Source/portable/GCC/ARM_CM4F/port.c **** 
  28:../../kernel/FreeRTOS/Source/portable/GCC/ARM_CM4F/port.c **** /*-----------------------------------------------------------
  29:../../kernel/FreeRTOS/Source/portable/GCC/ARM_CM4F/port.c ****  * Implementation of functions defined in portable.h for the ARM CM4F port.
  30:../../kernel/FreeRTOS/Source/portable/GCC/ARM_CM4F/port.c ****  *----------------------------------------------------------*/
  31:../../kernel/FreeRTOS/Source/portable/GCC/ARM_CM4F/port.c **** 
  32:../../kernel/FreeRTOS/Source/portable/GCC/ARM_CM4F/port.c **** /* Scheduler includes. */
  33:../../kernel/FreeRTOS/Source/portable/GCC/ARM_CM4F/port.c **** #include "FreeRTOS.h"
  34:../../kernel/FreeRTOS/Source/portable/GCC/ARM_CM4F/port.c **** #include "task.h"
  35:../../kernel/FreeRTOS/Source/portable/GCC/ARM_CM4F/port.c **** 
  36:../../kernel/FreeRTOS/Source/portable/GCC/ARM_CM4F/port.c **** #ifndef __VFP_FP__
  37:../../kernel/FreeRTOS/Source/portable/GCC/ARM_CM4F/port.c **** 	#error This port can only be used when the project options are configured to enable hardware float
  38:../../kernel/FreeRTOS/Source/portable/GCC/ARM_CM4F/port.c **** #endif
  39:../../kernel/FreeRTOS/Source/portable/GCC/ARM_CM4F/port.c **** 
  40:../../kernel/FreeRTOS/Source/portable/GCC/ARM_CM4F/port.c **** #ifndef configSYSTICK_CLOCK_HZ
  41:../../kernel/FreeRTOS/Source/portable/GCC/ARM_CM4F/port.c **** 	#define configSYSTICK_CLOCK_HZ configCPU_CLOCK_HZ
  42:../../kernel/FreeRTOS/Source/portable/GCC/ARM_CM4F/port.c **** 	/* Ensure the SysTick is clocked at the same frequency as the core. */
  43:../../kernel/FreeRTOS/Source/portable/GCC/ARM_CM4F/port.c **** 	#define portNVIC_SYSTICK_CLK_BIT	( 1UL << 2UL )
  44:../../kernel/FreeRTOS/Source/portable/GCC/ARM_CM4F/port.c **** #else
  45:../../kernel/FreeRTOS/Source/portable/GCC/ARM_CM4F/port.c **** 	/* The way the SysTick is clocked is not modified in case it is not the same
  46:../../kernel/FreeRTOS/Source/portable/GCC/ARM_CM4F/port.c **** 	as the core. */
  47:../../kernel/FreeRTOS/Source/portable/GCC/ARM_CM4F/port.c **** 	#define portNVIC_SYSTICK_CLK_BIT	( 0 )
  48:../../kernel/FreeRTOS/Source/portable/GCC/ARM_CM4F/port.c **** #endif
  49:../../kernel/FreeRTOS/Source/portable/GCC/ARM_CM4F/port.c **** 
  50:../../kernel/FreeRTOS/Source/portable/GCC/ARM_CM4F/port.c **** /* Constants required to manipulate the core.  Registers first... */
  51:../../kernel/FreeRTOS/Source/portable/GCC/ARM_CM4F/port.c **** #define portNVIC_SYSTICK_CTRL_REG			( * ( ( volatile uint32_t * ) 0xe000e010 ) )
  52:../../kernel/FreeRTOS/Source/portable/GCC/ARM_CM4F/port.c **** #define portNVIC_SYSTICK_LOAD_REG			( * ( ( volatile uint32_t * ) 0xe000e014 ) )
  53:../../kernel/FreeRTOS/Source/portable/GCC/ARM_CM4F/port.c **** #define portNVIC_SYSTICK_CURRENT_VALUE_REG	( * ( ( volatile uint32_t * ) 0xe000e018 ) )
  54:../../kernel/FreeRTOS/Source/portable/GCC/ARM_CM4F/port.c **** #define portNVIC_SYSPRI2_REG				( * ( ( volatile uint32_t * ) 0xe000ed20 ) )
  55:../../kernel/FreeRTOS/Source/portable/GCC/ARM_CM4F/port.c **** /* ...then bits in the registers. */
  56:../../kernel/FreeRTOS/Source/portable/GCC/ARM_CM4F/port.c **** #define portNVIC_SYSTICK_INT_BIT			( 1UL << 1UL )
  57:../../kernel/FreeRTOS/Source/portable/GCC/ARM_CM4F/port.c **** #define portNVIC_SYSTICK_ENABLE_BIT			( 1UL << 0UL )
  58:../../kernel/FreeRTOS/Source/portable/GCC/ARM_CM4F/port.c **** #define portNVIC_SYSTICK_COUNT_FLAG_BIT		( 1UL << 16UL )
  59:../../kernel/FreeRTOS/Source/portable/GCC/ARM_CM4F/port.c **** #define portNVIC_PENDSVCLEAR_BIT 			( 1UL << 27UL )
  60:../../kernel/FreeRTOS/Source/portable/GCC/ARM_CM4F/port.c **** #define portNVIC_PEND_SYSTICK_CLEAR_BIT		( 1UL << 25UL )
  61:../../kernel/FreeRTOS/Source/portable/GCC/ARM_CM4F/port.c **** 
ARM GAS  /tmp/cc5qDK7o.s 			page 4


  62:../../kernel/FreeRTOS/Source/portable/GCC/ARM_CM4F/port.c **** /* Constants used to detect a Cortex-M7 r0p1 core, which should use the ARM_CM7
  63:../../kernel/FreeRTOS/Source/portable/GCC/ARM_CM4F/port.c **** r0p1 port. */
  64:../../kernel/FreeRTOS/Source/portable/GCC/ARM_CM4F/port.c **** #define portCPUID							( * ( ( volatile uint32_t * ) 0xE000ed00 ) )
  65:../../kernel/FreeRTOS/Source/portable/GCC/ARM_CM4F/port.c **** #define portCORTEX_M7_r0p1_ID				( 0x410FC271UL )
  66:../../kernel/FreeRTOS/Source/portable/GCC/ARM_CM4F/port.c **** #define portCORTEX_M7_r0p0_ID				( 0x410FC270UL )
  67:../../kernel/FreeRTOS/Source/portable/GCC/ARM_CM4F/port.c **** 
  68:../../kernel/FreeRTOS/Source/portable/GCC/ARM_CM4F/port.c **** #define portNVIC_PENDSV_PRI					( ( ( uint32_t ) configKERNEL_INTERRUPT_PRIORITY ) << 16UL )
  69:../../kernel/FreeRTOS/Source/portable/GCC/ARM_CM4F/port.c **** #define portNVIC_SYSTICK_PRI				( ( ( uint32_t ) configKERNEL_INTERRUPT_PRIORITY ) << 24UL )
  70:../../kernel/FreeRTOS/Source/portable/GCC/ARM_CM4F/port.c **** 
  71:../../kernel/FreeRTOS/Source/portable/GCC/ARM_CM4F/port.c **** /* Constants required to check the validity of an interrupt priority. */
  72:../../kernel/FreeRTOS/Source/portable/GCC/ARM_CM4F/port.c **** #define portFIRST_USER_INTERRUPT_NUMBER		( 16 )
  73:../../kernel/FreeRTOS/Source/portable/GCC/ARM_CM4F/port.c **** #define portNVIC_IP_REGISTERS_OFFSET_16 	( 0xE000E3F0 )
  74:../../kernel/FreeRTOS/Source/portable/GCC/ARM_CM4F/port.c **** #define portAIRCR_REG						( * ( ( volatile uint32_t * ) 0xE000ED0C ) )
  75:../../kernel/FreeRTOS/Source/portable/GCC/ARM_CM4F/port.c **** #define portMAX_8_BIT_VALUE					( ( uint8_t ) 0xff )
  76:../../kernel/FreeRTOS/Source/portable/GCC/ARM_CM4F/port.c **** #define portTOP_BIT_OF_BYTE					( ( uint8_t ) 0x80 )
  77:../../kernel/FreeRTOS/Source/portable/GCC/ARM_CM4F/port.c **** #define portMAX_PRIGROUP_BITS				( ( uint8_t ) 7 )
  78:../../kernel/FreeRTOS/Source/portable/GCC/ARM_CM4F/port.c **** #define portPRIORITY_GROUP_MASK				( 0x07UL << 8UL )
  79:../../kernel/FreeRTOS/Source/portable/GCC/ARM_CM4F/port.c **** #define portPRIGROUP_SHIFT					( 8UL )
  80:../../kernel/FreeRTOS/Source/portable/GCC/ARM_CM4F/port.c **** 
  81:../../kernel/FreeRTOS/Source/portable/GCC/ARM_CM4F/port.c **** /* Masks off all bits but the VECTACTIVE bits in the ICSR register. */
  82:../../kernel/FreeRTOS/Source/portable/GCC/ARM_CM4F/port.c **** #define portVECTACTIVE_MASK					( 0xFFUL )
  83:../../kernel/FreeRTOS/Source/portable/GCC/ARM_CM4F/port.c **** 
  84:../../kernel/FreeRTOS/Source/portable/GCC/ARM_CM4F/port.c **** /* Constants required to manipulate the VFP. */
  85:../../kernel/FreeRTOS/Source/portable/GCC/ARM_CM4F/port.c **** #define portFPCCR							( ( volatile uint32_t * ) 0xe000ef34 ) /* Floating point context control re
  86:../../kernel/FreeRTOS/Source/portable/GCC/ARM_CM4F/port.c **** #define portASPEN_AND_LSPEN_BITS			( 0x3UL << 30UL )
  87:../../kernel/FreeRTOS/Source/portable/GCC/ARM_CM4F/port.c **** 
  88:../../kernel/FreeRTOS/Source/portable/GCC/ARM_CM4F/port.c **** /* Constants required to set up the initial stack. */
  89:../../kernel/FreeRTOS/Source/portable/GCC/ARM_CM4F/port.c **** #define portINITIAL_XPSR					( 0x01000000 )
  90:../../kernel/FreeRTOS/Source/portable/GCC/ARM_CM4F/port.c **** #define portINITIAL_EXC_RETURN				( 0xfffffffd )
  91:../../kernel/FreeRTOS/Source/portable/GCC/ARM_CM4F/port.c **** 
  92:../../kernel/FreeRTOS/Source/portable/GCC/ARM_CM4F/port.c **** /* The systick is a 24-bit counter. */
  93:../../kernel/FreeRTOS/Source/portable/GCC/ARM_CM4F/port.c **** #define portMAX_24_BIT_NUMBER				( 0xffffffUL )
  94:../../kernel/FreeRTOS/Source/portable/GCC/ARM_CM4F/port.c **** 
  95:../../kernel/FreeRTOS/Source/portable/GCC/ARM_CM4F/port.c **** /* For strict compliance with the Cortex-M spec the task start address should
  96:../../kernel/FreeRTOS/Source/portable/GCC/ARM_CM4F/port.c **** have bit-0 clear, as it is loaded into the PC on exit from an ISR. */
  97:../../kernel/FreeRTOS/Source/portable/GCC/ARM_CM4F/port.c **** #define portSTART_ADDRESS_MASK		( ( StackType_t ) 0xfffffffeUL )
  98:../../kernel/FreeRTOS/Source/portable/GCC/ARM_CM4F/port.c **** 
  99:../../kernel/FreeRTOS/Source/portable/GCC/ARM_CM4F/port.c **** /* A fiddle factor to estimate the number of SysTick counts that would have
 100:../../kernel/FreeRTOS/Source/portable/GCC/ARM_CM4F/port.c **** occurred while the SysTick counter is stopped during tickless idle
 101:../../kernel/FreeRTOS/Source/portable/GCC/ARM_CM4F/port.c **** calculations. */
 102:../../kernel/FreeRTOS/Source/portable/GCC/ARM_CM4F/port.c **** #define portMISSED_COUNTS_FACTOR			( 45UL )
 103:../../kernel/FreeRTOS/Source/portable/GCC/ARM_CM4F/port.c **** 
 104:../../kernel/FreeRTOS/Source/portable/GCC/ARM_CM4F/port.c **** /* Let the user override the pre-loading of the initial LR with the address of
 105:../../kernel/FreeRTOS/Source/portable/GCC/ARM_CM4F/port.c **** prvTaskExitError() in case it messes up unwinding of the stack in the
 106:../../kernel/FreeRTOS/Source/portable/GCC/ARM_CM4F/port.c **** debugger. */
 107:../../kernel/FreeRTOS/Source/portable/GCC/ARM_CM4F/port.c **** #ifdef configTASK_RETURN_ADDRESS
 108:../../kernel/FreeRTOS/Source/portable/GCC/ARM_CM4F/port.c **** 	#define portTASK_RETURN_ADDRESS	configTASK_RETURN_ADDRESS
 109:../../kernel/FreeRTOS/Source/portable/GCC/ARM_CM4F/port.c **** #else
 110:../../kernel/FreeRTOS/Source/portable/GCC/ARM_CM4F/port.c **** 	#define portTASK_RETURN_ADDRESS	prvTaskExitError
 111:../../kernel/FreeRTOS/Source/portable/GCC/ARM_CM4F/port.c **** #endif
 112:../../kernel/FreeRTOS/Source/portable/GCC/ARM_CM4F/port.c **** 
 113:../../kernel/FreeRTOS/Source/portable/GCC/ARM_CM4F/port.c **** /*
 114:../../kernel/FreeRTOS/Source/portable/GCC/ARM_CM4F/port.c ****  * Setup the timer to generate the tick interrupts.  The implementation in this
 115:../../kernel/FreeRTOS/Source/portable/GCC/ARM_CM4F/port.c ****  * file is weak to allow application writers to change the timer used to
 116:../../kernel/FreeRTOS/Source/portable/GCC/ARM_CM4F/port.c ****  * generate the tick interrupt.
 117:../../kernel/FreeRTOS/Source/portable/GCC/ARM_CM4F/port.c ****  */
 118:../../kernel/FreeRTOS/Source/portable/GCC/ARM_CM4F/port.c **** void vPortSetupTimerInterrupt( void );
ARM GAS  /tmp/cc5qDK7o.s 			page 5


 119:../../kernel/FreeRTOS/Source/portable/GCC/ARM_CM4F/port.c **** 
 120:../../kernel/FreeRTOS/Source/portable/GCC/ARM_CM4F/port.c **** /*
 121:../../kernel/FreeRTOS/Source/portable/GCC/ARM_CM4F/port.c ****  * Exception handlers.
 122:../../kernel/FreeRTOS/Source/portable/GCC/ARM_CM4F/port.c ****  */
 123:../../kernel/FreeRTOS/Source/portable/GCC/ARM_CM4F/port.c **** void xPortPendSVHandler( void ) __attribute__ (( naked ));
 124:../../kernel/FreeRTOS/Source/portable/GCC/ARM_CM4F/port.c **** void xPortSysTickHandler( void );
 125:../../kernel/FreeRTOS/Source/portable/GCC/ARM_CM4F/port.c **** void vPortSVCHandler( void ) __attribute__ (( naked ));
 126:../../kernel/FreeRTOS/Source/portable/GCC/ARM_CM4F/port.c **** 
 127:../../kernel/FreeRTOS/Source/portable/GCC/ARM_CM4F/port.c **** /*
 128:../../kernel/FreeRTOS/Source/portable/GCC/ARM_CM4F/port.c ****  * Start first task is a separate function so it can be tested in isolation.
 129:../../kernel/FreeRTOS/Source/portable/GCC/ARM_CM4F/port.c ****  */
 130:../../kernel/FreeRTOS/Source/portable/GCC/ARM_CM4F/port.c **** static void prvPortStartFirstTask( void ) __attribute__ (( naked ));
 131:../../kernel/FreeRTOS/Source/portable/GCC/ARM_CM4F/port.c **** 
 132:../../kernel/FreeRTOS/Source/portable/GCC/ARM_CM4F/port.c **** /*
 133:../../kernel/FreeRTOS/Source/portable/GCC/ARM_CM4F/port.c ****  * Function to enable the VFP.
 134:../../kernel/FreeRTOS/Source/portable/GCC/ARM_CM4F/port.c ****  */
 135:../../kernel/FreeRTOS/Source/portable/GCC/ARM_CM4F/port.c **** static void vPortEnableVFP( void ) __attribute__ (( naked ));
 136:../../kernel/FreeRTOS/Source/portable/GCC/ARM_CM4F/port.c **** 
 137:../../kernel/FreeRTOS/Source/portable/GCC/ARM_CM4F/port.c **** /*
 138:../../kernel/FreeRTOS/Source/portable/GCC/ARM_CM4F/port.c ****  * Used to catch tasks that attempt to return from their implementing function.
 139:../../kernel/FreeRTOS/Source/portable/GCC/ARM_CM4F/port.c ****  */
 140:../../kernel/FreeRTOS/Source/portable/GCC/ARM_CM4F/port.c **** static void prvTaskExitError( void );
 141:../../kernel/FreeRTOS/Source/portable/GCC/ARM_CM4F/port.c **** 
 142:../../kernel/FreeRTOS/Source/portable/GCC/ARM_CM4F/port.c **** /*-----------------------------------------------------------*/
 143:../../kernel/FreeRTOS/Source/portable/GCC/ARM_CM4F/port.c **** 
 144:../../kernel/FreeRTOS/Source/portable/GCC/ARM_CM4F/port.c **** /* Each task maintains its own interrupt status in the critical nesting
 145:../../kernel/FreeRTOS/Source/portable/GCC/ARM_CM4F/port.c **** variable. */
 146:../../kernel/FreeRTOS/Source/portable/GCC/ARM_CM4F/port.c **** static UBaseType_t uxCriticalNesting = 0xaaaaaaaa;
 147:../../kernel/FreeRTOS/Source/portable/GCC/ARM_CM4F/port.c **** 
 148:../../kernel/FreeRTOS/Source/portable/GCC/ARM_CM4F/port.c **** /*
 149:../../kernel/FreeRTOS/Source/portable/GCC/ARM_CM4F/port.c ****  * The number of SysTick increments that make up one tick period.
 150:../../kernel/FreeRTOS/Source/portable/GCC/ARM_CM4F/port.c ****  */
 151:../../kernel/FreeRTOS/Source/portable/GCC/ARM_CM4F/port.c **** #if( configUSE_TICKLESS_IDLE == 1 )
 152:../../kernel/FreeRTOS/Source/portable/GCC/ARM_CM4F/port.c **** 	static uint32_t ulTimerCountsForOneTick = 0;
 153:../../kernel/FreeRTOS/Source/portable/GCC/ARM_CM4F/port.c **** #endif /* configUSE_TICKLESS_IDLE */
 154:../../kernel/FreeRTOS/Source/portable/GCC/ARM_CM4F/port.c **** 
 155:../../kernel/FreeRTOS/Source/portable/GCC/ARM_CM4F/port.c **** /*
 156:../../kernel/FreeRTOS/Source/portable/GCC/ARM_CM4F/port.c ****  * The maximum number of tick periods that can be suppressed is limited by the
 157:../../kernel/FreeRTOS/Source/portable/GCC/ARM_CM4F/port.c ****  * 24 bit resolution of the SysTick timer.
 158:../../kernel/FreeRTOS/Source/portable/GCC/ARM_CM4F/port.c ****  */
 159:../../kernel/FreeRTOS/Source/portable/GCC/ARM_CM4F/port.c **** #if( configUSE_TICKLESS_IDLE == 1 )
 160:../../kernel/FreeRTOS/Source/portable/GCC/ARM_CM4F/port.c **** 	static uint32_t xMaximumPossibleSuppressedTicks = 0;
 161:../../kernel/FreeRTOS/Source/portable/GCC/ARM_CM4F/port.c **** #endif /* configUSE_TICKLESS_IDLE */
 162:../../kernel/FreeRTOS/Source/portable/GCC/ARM_CM4F/port.c **** 
 163:../../kernel/FreeRTOS/Source/portable/GCC/ARM_CM4F/port.c **** /*
 164:../../kernel/FreeRTOS/Source/portable/GCC/ARM_CM4F/port.c ****  * Compensate for the CPU cycles that pass while the SysTick is stopped (low
 165:../../kernel/FreeRTOS/Source/portable/GCC/ARM_CM4F/port.c ****  * power functionality only.
 166:../../kernel/FreeRTOS/Source/portable/GCC/ARM_CM4F/port.c ****  */
 167:../../kernel/FreeRTOS/Source/portable/GCC/ARM_CM4F/port.c **** #if( configUSE_TICKLESS_IDLE == 1 )
 168:../../kernel/FreeRTOS/Source/portable/GCC/ARM_CM4F/port.c **** 	static uint32_t ulStoppedTimerCompensation = 0;
 169:../../kernel/FreeRTOS/Source/portable/GCC/ARM_CM4F/port.c **** #endif /* configUSE_TICKLESS_IDLE */
 170:../../kernel/FreeRTOS/Source/portable/GCC/ARM_CM4F/port.c **** 
 171:../../kernel/FreeRTOS/Source/portable/GCC/ARM_CM4F/port.c **** /*
 172:../../kernel/FreeRTOS/Source/portable/GCC/ARM_CM4F/port.c ****  * Used by the portASSERT_IF_INTERRUPT_PRIORITY_INVALID() macro to ensure
 173:../../kernel/FreeRTOS/Source/portable/GCC/ARM_CM4F/port.c ****  * FreeRTOS API functions are not called from interrupts that have been assigned
 174:../../kernel/FreeRTOS/Source/portable/GCC/ARM_CM4F/port.c ****  * a priority above configMAX_SYSCALL_INTERRUPT_PRIORITY.
 175:../../kernel/FreeRTOS/Source/portable/GCC/ARM_CM4F/port.c ****  */
ARM GAS  /tmp/cc5qDK7o.s 			page 6


 176:../../kernel/FreeRTOS/Source/portable/GCC/ARM_CM4F/port.c **** #if( configASSERT_DEFINED == 1 )
 177:../../kernel/FreeRTOS/Source/portable/GCC/ARM_CM4F/port.c **** 	 static uint8_t ucMaxSysCallPriority = 0;
 178:../../kernel/FreeRTOS/Source/portable/GCC/ARM_CM4F/port.c **** 	 static uint32_t ulMaxPRIGROUPValue = 0;
 179:../../kernel/FreeRTOS/Source/portable/GCC/ARM_CM4F/port.c **** 	 static const volatile uint8_t * const pcInterruptPriorityRegisters = ( const volatile uint8_t * c
 180:../../kernel/FreeRTOS/Source/portable/GCC/ARM_CM4F/port.c **** #endif /* configASSERT_DEFINED */
 181:../../kernel/FreeRTOS/Source/portable/GCC/ARM_CM4F/port.c **** 
 182:../../kernel/FreeRTOS/Source/portable/GCC/ARM_CM4F/port.c **** /*-----------------------------------------------------------*/
 183:../../kernel/FreeRTOS/Source/portable/GCC/ARM_CM4F/port.c **** 
 184:../../kernel/FreeRTOS/Source/portable/GCC/ARM_CM4F/port.c **** /*
 185:../../kernel/FreeRTOS/Source/portable/GCC/ARM_CM4F/port.c ****  * See header file for description.
 186:../../kernel/FreeRTOS/Source/portable/GCC/ARM_CM4F/port.c ****  */
 187:../../kernel/FreeRTOS/Source/portable/GCC/ARM_CM4F/port.c **** StackType_t *pxPortInitialiseStack( StackType_t *pxTopOfStack, TaskFunction_t pxCode, void *pvParam
 188:../../kernel/FreeRTOS/Source/portable/GCC/ARM_CM4F/port.c **** {
 189:../../kernel/FreeRTOS/Source/portable/GCC/ARM_CM4F/port.c **** 	/* Simulate the stack frame as it would be created by a context switch
 190:../../kernel/FreeRTOS/Source/portable/GCC/ARM_CM4F/port.c **** 	interrupt. */
 191:../../kernel/FreeRTOS/Source/portable/GCC/ARM_CM4F/port.c **** 
 192:../../kernel/FreeRTOS/Source/portable/GCC/ARM_CM4F/port.c **** 	/* Offset added to account for the way the MCU uses the stack on entry/exit
 193:../../kernel/FreeRTOS/Source/portable/GCC/ARM_CM4F/port.c **** 	of interrupts, and to ensure alignment. */
 194:../../kernel/FreeRTOS/Source/portable/GCC/ARM_CM4F/port.c **** 	pxTopOfStack--;
 195:../../kernel/FreeRTOS/Source/portable/GCC/ARM_CM4F/port.c **** 
 196:../../kernel/FreeRTOS/Source/portable/GCC/ARM_CM4F/port.c **** 	*pxTopOfStack = portINITIAL_XPSR;	/* xPSR */
 197:../../kernel/FreeRTOS/Source/portable/GCC/ARM_CM4F/port.c **** 	pxTopOfStack--;
 198:../../kernel/FreeRTOS/Source/portable/GCC/ARM_CM4F/port.c **** 	*pxTopOfStack = ( ( StackType_t ) pxCode ) & portSTART_ADDRESS_MASK;	/* PC */
 199:../../kernel/FreeRTOS/Source/portable/GCC/ARM_CM4F/port.c **** 	pxTopOfStack--;
 200:../../kernel/FreeRTOS/Source/portable/GCC/ARM_CM4F/port.c **** 	*pxTopOfStack = ( StackType_t ) portTASK_RETURN_ADDRESS;	/* LR */
 201:../../kernel/FreeRTOS/Source/portable/GCC/ARM_CM4F/port.c **** 
 202:../../kernel/FreeRTOS/Source/portable/GCC/ARM_CM4F/port.c **** 	/* Save code space by skipping register initialisation. */
 203:../../kernel/FreeRTOS/Source/portable/GCC/ARM_CM4F/port.c **** 	pxTopOfStack -= 5;	/* R12, R3, R2 and R1. */
 204:../../kernel/FreeRTOS/Source/portable/GCC/ARM_CM4F/port.c **** 	*pxTopOfStack = ( StackType_t ) pvParameters;	/* R0 */
 205:../../kernel/FreeRTOS/Source/portable/GCC/ARM_CM4F/port.c **** 
 206:../../kernel/FreeRTOS/Source/portable/GCC/ARM_CM4F/port.c **** 	/* A save method is being used that requires each task to maintain its
 207:../../kernel/FreeRTOS/Source/portable/GCC/ARM_CM4F/port.c **** 	own exec return value. */
 208:../../kernel/FreeRTOS/Source/portable/GCC/ARM_CM4F/port.c **** 	pxTopOfStack--;
 209:../../kernel/FreeRTOS/Source/portable/GCC/ARM_CM4F/port.c **** 	*pxTopOfStack = portINITIAL_EXC_RETURN;
 210:../../kernel/FreeRTOS/Source/portable/GCC/ARM_CM4F/port.c **** 
 211:../../kernel/FreeRTOS/Source/portable/GCC/ARM_CM4F/port.c **** 	pxTopOfStack -= 8;	/* R11, R10, R9, R8, R7, R6, R5 and R4. */
 212:../../kernel/FreeRTOS/Source/portable/GCC/ARM_CM4F/port.c **** 
 213:../../kernel/FreeRTOS/Source/portable/GCC/ARM_CM4F/port.c **** 	return pxTopOfStack;
 214:../../kernel/FreeRTOS/Source/portable/GCC/ARM_CM4F/port.c **** }
 215:../../kernel/FreeRTOS/Source/portable/GCC/ARM_CM4F/port.c **** /*-----------------------------------------------------------*/
 216:../../kernel/FreeRTOS/Source/portable/GCC/ARM_CM4F/port.c **** 
 217:../../kernel/FreeRTOS/Source/portable/GCC/ARM_CM4F/port.c **** static void prvTaskExitError( void )
 218:../../kernel/FreeRTOS/Source/portable/GCC/ARM_CM4F/port.c **** {
 219:../../kernel/FreeRTOS/Source/portable/GCC/ARM_CM4F/port.c **** volatile uint32_t ulDummy = 0;
 220:../../kernel/FreeRTOS/Source/portable/GCC/ARM_CM4F/port.c **** 
 221:../../kernel/FreeRTOS/Source/portable/GCC/ARM_CM4F/port.c **** 	/* A function that implements a task must not exit or attempt to return to
 222:../../kernel/FreeRTOS/Source/portable/GCC/ARM_CM4F/port.c **** 	its caller as there is nothing to return to.  If a task wants to exit it
 223:../../kernel/FreeRTOS/Source/portable/GCC/ARM_CM4F/port.c **** 	should instead call vTaskDelete( NULL ).
 224:../../kernel/FreeRTOS/Source/portable/GCC/ARM_CM4F/port.c **** 
 225:../../kernel/FreeRTOS/Source/portable/GCC/ARM_CM4F/port.c **** 	Artificially force an assert() to be triggered if configASSERT() is
 226:../../kernel/FreeRTOS/Source/portable/GCC/ARM_CM4F/port.c **** 	defined, then stop here so application writers can catch the error. */
 227:../../kernel/FreeRTOS/Source/portable/GCC/ARM_CM4F/port.c **** 	configASSERT( uxCriticalNesting == ~0UL );
 228:../../kernel/FreeRTOS/Source/portable/GCC/ARM_CM4F/port.c **** 	portDISABLE_INTERRUPTS();
 229:../../kernel/FreeRTOS/Source/portable/GCC/ARM_CM4F/port.c **** 	while( ulDummy == 0 )
 230:../../kernel/FreeRTOS/Source/portable/GCC/ARM_CM4F/port.c **** 	{
 231:../../kernel/FreeRTOS/Source/portable/GCC/ARM_CM4F/port.c **** 		/* This file calls prvTaskExitError() after the scheduler has been
 232:../../kernel/FreeRTOS/Source/portable/GCC/ARM_CM4F/port.c **** 		started to remove a compiler warning about the function being defined
ARM GAS  /tmp/cc5qDK7o.s 			page 7


 233:../../kernel/FreeRTOS/Source/portable/GCC/ARM_CM4F/port.c **** 		but never called.  ulDummy is used purely to quieten other warnings
 234:../../kernel/FreeRTOS/Source/portable/GCC/ARM_CM4F/port.c **** 		about code appearing after this function is called - making ulDummy
 235:../../kernel/FreeRTOS/Source/portable/GCC/ARM_CM4F/port.c **** 		volatile makes the compiler think the function could return and
 236:../../kernel/FreeRTOS/Source/portable/GCC/ARM_CM4F/port.c **** 		therefore not output an 'unreachable code' warning for code that appears
 237:../../kernel/FreeRTOS/Source/portable/GCC/ARM_CM4F/port.c **** 		after it. */
 238:../../kernel/FreeRTOS/Source/portable/GCC/ARM_CM4F/port.c **** 	}
 239:../../kernel/FreeRTOS/Source/portable/GCC/ARM_CM4F/port.c **** }
 240:../../kernel/FreeRTOS/Source/portable/GCC/ARM_CM4F/port.c **** /*-----------------------------------------------------------*/
 241:../../kernel/FreeRTOS/Source/portable/GCC/ARM_CM4F/port.c **** 
 242:../../kernel/FreeRTOS/Source/portable/GCC/ARM_CM4F/port.c **** void vPortSVCHandler( void )
 243:../../kernel/FreeRTOS/Source/portable/GCC/ARM_CM4F/port.c **** {
 244:../../kernel/FreeRTOS/Source/portable/GCC/ARM_CM4F/port.c **** 	__asm volatile (
 245:../../kernel/FreeRTOS/Source/portable/GCC/ARM_CM4F/port.c **** 					"	ldr	r3, pxCurrentTCBConst2		\n" /* Restore the context. */
 246:../../kernel/FreeRTOS/Source/portable/GCC/ARM_CM4F/port.c **** 					"	ldr r1, [r3]					\n" /* Use pxCurrentTCBConst to get the pxCurrentTCB address. */
 247:../../kernel/FreeRTOS/Source/portable/GCC/ARM_CM4F/port.c **** 					"	ldr r0, [r1]					\n" /* The first item in pxCurrentTCB is the task top of stack. */
 248:../../kernel/FreeRTOS/Source/portable/GCC/ARM_CM4F/port.c **** 					"	ldmia r0!, {r4-r11, r14}		\n" /* Pop the registers that are not automatically saved on excep
 249:../../kernel/FreeRTOS/Source/portable/GCC/ARM_CM4F/port.c **** 					"	msr psp, r0						\n" /* Restore the task stack pointer. */
 250:../../kernel/FreeRTOS/Source/portable/GCC/ARM_CM4F/port.c **** 					"	isb								\n"
 251:../../kernel/FreeRTOS/Source/portable/GCC/ARM_CM4F/port.c **** 					"	mov r0, #0 						\n"
 252:../../kernel/FreeRTOS/Source/portable/GCC/ARM_CM4F/port.c **** 					"	msr	basepri, r0					\n"
 253:../../kernel/FreeRTOS/Source/portable/GCC/ARM_CM4F/port.c **** 					"	bx r14							\n"
 254:../../kernel/FreeRTOS/Source/portable/GCC/ARM_CM4F/port.c **** 					"									\n"
 255:../../kernel/FreeRTOS/Source/portable/GCC/ARM_CM4F/port.c **** 					"	.align 4						\n"
 256:../../kernel/FreeRTOS/Source/portable/GCC/ARM_CM4F/port.c **** 					"pxCurrentTCBConst2: .word pxCurrentTCB				\n"
 257:../../kernel/FreeRTOS/Source/portable/GCC/ARM_CM4F/port.c **** 				);
 258:../../kernel/FreeRTOS/Source/portable/GCC/ARM_CM4F/port.c **** }
 259:../../kernel/FreeRTOS/Source/portable/GCC/ARM_CM4F/port.c **** /*-----------------------------------------------------------*/
 260:../../kernel/FreeRTOS/Source/portable/GCC/ARM_CM4F/port.c **** 
 261:../../kernel/FreeRTOS/Source/portable/GCC/ARM_CM4F/port.c **** static void prvPortStartFirstTask( void )
 262:../../kernel/FreeRTOS/Source/portable/GCC/ARM_CM4F/port.c **** {
 111              		.loc 1 262 1 view -0
 112              		.cfi_startproc
 113              		@ Naked Function: prologue and epilogue provided by programmer.
 114              		@ args = 0, pretend = 0, frame = 0
 115              		@ frame_needed = 0, uses_anonymous_args = 0
 263:../../kernel/FreeRTOS/Source/portable/GCC/ARM_CM4F/port.c **** 	/* Start the first task.  This also clears the bit that indicates the FPU is
 264:../../kernel/FreeRTOS/Source/portable/GCC/ARM_CM4F/port.c **** 	in use in case the FPU was used before the scheduler was started - which
 265:../../kernel/FreeRTOS/Source/portable/GCC/ARM_CM4F/port.c **** 	would otherwise result in the unnecessary leaving of space in the SVC stack
 266:../../kernel/FreeRTOS/Source/portable/GCC/ARM_CM4F/port.c **** 	for lazy saving of FPU registers. */
 267:../../kernel/FreeRTOS/Source/portable/GCC/ARM_CM4F/port.c **** 	__asm volatile(
 116              		.loc 1 267 2 view .LVU1
 117              		.syntax unified
 118              	@ 267 "../../kernel/FreeRTOS/Source/portable/GCC/ARM_CM4F/port.c" 1
 119 0000 0848     		 ldr r0, =0xE000ED08 	
 120 0002 0068     	 ldr r0, [r0] 			
 121 0004 0068     	 ldr r0, [r0] 			
 122 0006 80F30888 	 msr msp, r0			
 123 000a 4FF00000 	 mov r0, #0			
 124 000e 80F31488 	 msr control, r0		
 125 0012 62B6     	 cpsie i				
 126 0014 61B6     	 cpsie f				
 127 0016 BFF34F8F 	 dsb					
 128 001a BFF36F8F 	 isb					
 129 001e 00DF     	 svc 0					
 130 0020 00BF     	 nop					
 131              	
 132              	@ 0 "" 2
ARM GAS  /tmp/cc5qDK7o.s 			page 8


 133              	@ ../../kernel/FreeRTOS/Source/portable/GCC/ARM_CM4F/port.c:281: }
 268:../../kernel/FreeRTOS/Source/portable/GCC/ARM_CM4F/port.c **** 					" ldr r0, =0xE000ED08 	\n" /* Use the NVIC offset register to locate the stack. */
 269:../../kernel/FreeRTOS/Source/portable/GCC/ARM_CM4F/port.c **** 					" ldr r0, [r0] 			\n"
 270:../../kernel/FreeRTOS/Source/portable/GCC/ARM_CM4F/port.c **** 					" ldr r0, [r0] 			\n"
 271:../../kernel/FreeRTOS/Source/portable/GCC/ARM_CM4F/port.c **** 					" msr msp, r0			\n" /* Set the msp back to the start of the stack. */
 272:../../kernel/FreeRTOS/Source/portable/GCC/ARM_CM4F/port.c **** 					" mov r0, #0			\n" /* Clear the bit that indicates the FPU is in use, see comment above. */
 273:../../kernel/FreeRTOS/Source/portable/GCC/ARM_CM4F/port.c **** 					" msr control, r0		\n"
 274:../../kernel/FreeRTOS/Source/portable/GCC/ARM_CM4F/port.c **** 					" cpsie i				\n" /* Globally enable interrupts. */
 275:../../kernel/FreeRTOS/Source/portable/GCC/ARM_CM4F/port.c **** 					" cpsie f				\n"
 276:../../kernel/FreeRTOS/Source/portable/GCC/ARM_CM4F/port.c **** 					" dsb					\n"
 277:../../kernel/FreeRTOS/Source/portable/GCC/ARM_CM4F/port.c **** 					" isb					\n"
 278:../../kernel/FreeRTOS/Source/portable/GCC/ARM_CM4F/port.c **** 					" svc 0					\n" /* System call to start first task. */
 279:../../kernel/FreeRTOS/Source/portable/GCC/ARM_CM4F/port.c **** 					" nop					\n"
 280:../../kernel/FreeRTOS/Source/portable/GCC/ARM_CM4F/port.c **** 				);
 281:../../kernel/FreeRTOS/Source/portable/GCC/ARM_CM4F/port.c **** }
 134              		.loc 1 281 1 is_stmt 0 view .LVU2
 135              		.thumb
 136              		.syntax unified
 137              		.cfi_endproc
 138              	.LFE7:
 139              		.size	prvPortStartFirstTask, .-prvPortStartFirstTask
 140 0022 0000     		.section	.text.vPortEnableVFP,"ax",%progbits
 141              		.align	1
 142              		.p2align 2,,3
 143              		.syntax unified
 144              		.thumb
 145              		.thumb_func
 146              		.fpu fpv4-sp-d16
 147              		.type	vPortEnableVFP, %function
 148              	vPortEnableVFP:
 149              	.LFB16:
 282:../../kernel/FreeRTOS/Source/portable/GCC/ARM_CM4F/port.c **** /*-----------------------------------------------------------*/
 283:../../kernel/FreeRTOS/Source/portable/GCC/ARM_CM4F/port.c **** 
 284:../../kernel/FreeRTOS/Source/portable/GCC/ARM_CM4F/port.c **** /*
 285:../../kernel/FreeRTOS/Source/portable/GCC/ARM_CM4F/port.c ****  * See header file for description.
 286:../../kernel/FreeRTOS/Source/portable/GCC/ARM_CM4F/port.c ****  */
 287:../../kernel/FreeRTOS/Source/portable/GCC/ARM_CM4F/port.c **** BaseType_t xPortStartScheduler( void )
 288:../../kernel/FreeRTOS/Source/portable/GCC/ARM_CM4F/port.c **** {
 289:../../kernel/FreeRTOS/Source/portable/GCC/ARM_CM4F/port.c **** 	/* configMAX_SYSCALL_INTERRUPT_PRIORITY must not be set to 0.
 290:../../kernel/FreeRTOS/Source/portable/GCC/ARM_CM4F/port.c **** 	See http://www.FreeRTOS.org/RTOS-Cortex-M3-M4.html */
 291:../../kernel/FreeRTOS/Source/portable/GCC/ARM_CM4F/port.c **** 	configASSERT( configMAX_SYSCALL_INTERRUPT_PRIORITY );
 292:../../kernel/FreeRTOS/Source/portable/GCC/ARM_CM4F/port.c **** 
 293:../../kernel/FreeRTOS/Source/portable/GCC/ARM_CM4F/port.c **** 	/* This port can be used on all revisions of the Cortex-M7 core other than
 294:../../kernel/FreeRTOS/Source/portable/GCC/ARM_CM4F/port.c **** 	the r0p1 parts.  r0p1 parts should use the port from the
 295:../../kernel/FreeRTOS/Source/portable/GCC/ARM_CM4F/port.c **** 	/source/portable/GCC/ARM_CM7/r0p1 directory. */
 296:../../kernel/FreeRTOS/Source/portable/GCC/ARM_CM4F/port.c **** 	configASSERT( portCPUID != portCORTEX_M7_r0p1_ID );
 297:../../kernel/FreeRTOS/Source/portable/GCC/ARM_CM4F/port.c **** 	configASSERT( portCPUID != portCORTEX_M7_r0p0_ID );
 298:../../kernel/FreeRTOS/Source/portable/GCC/ARM_CM4F/port.c **** 
 299:../../kernel/FreeRTOS/Source/portable/GCC/ARM_CM4F/port.c **** 	#if( configASSERT_DEFINED == 1 )
 300:../../kernel/FreeRTOS/Source/portable/GCC/ARM_CM4F/port.c **** 	{
 301:../../kernel/FreeRTOS/Source/portable/GCC/ARM_CM4F/port.c **** 		volatile uint32_t ulOriginalPriority;
 302:../../kernel/FreeRTOS/Source/portable/GCC/ARM_CM4F/port.c **** 		volatile uint8_t * const pucFirstUserPriorityRegister = ( volatile uint8_t * const ) ( portNVIC_I
 303:../../kernel/FreeRTOS/Source/portable/GCC/ARM_CM4F/port.c **** 		volatile uint8_t ucMaxPriorityValue;
 304:../../kernel/FreeRTOS/Source/portable/GCC/ARM_CM4F/port.c **** 
 305:../../kernel/FreeRTOS/Source/portable/GCC/ARM_CM4F/port.c **** 		/* Determine the maximum priority from which ISR safe FreeRTOS API
 306:../../kernel/FreeRTOS/Source/portable/GCC/ARM_CM4F/port.c **** 		functions can be called.  ISR safe functions are those that end in
 307:../../kernel/FreeRTOS/Source/portable/GCC/ARM_CM4F/port.c **** 		"FromISR".  FreeRTOS maintains separate thread and ISR API functions to
ARM GAS  /tmp/cc5qDK7o.s 			page 9


 308:../../kernel/FreeRTOS/Source/portable/GCC/ARM_CM4F/port.c **** 		ensure interrupt entry is as fast and simple as possible.
 309:../../kernel/FreeRTOS/Source/portable/GCC/ARM_CM4F/port.c **** 
 310:../../kernel/FreeRTOS/Source/portable/GCC/ARM_CM4F/port.c **** 		Save the interrupt priority value that is about to be clobbered. */
 311:../../kernel/FreeRTOS/Source/portable/GCC/ARM_CM4F/port.c **** 		ulOriginalPriority = *pucFirstUserPriorityRegister;
 312:../../kernel/FreeRTOS/Source/portable/GCC/ARM_CM4F/port.c **** 
 313:../../kernel/FreeRTOS/Source/portable/GCC/ARM_CM4F/port.c **** 		/* Determine the number of priority bits available.  First write to all
 314:../../kernel/FreeRTOS/Source/portable/GCC/ARM_CM4F/port.c **** 		possible bits. */
 315:../../kernel/FreeRTOS/Source/portable/GCC/ARM_CM4F/port.c **** 		*pucFirstUserPriorityRegister = portMAX_8_BIT_VALUE;
 316:../../kernel/FreeRTOS/Source/portable/GCC/ARM_CM4F/port.c **** 
 317:../../kernel/FreeRTOS/Source/portable/GCC/ARM_CM4F/port.c **** 		/* Read the value back to see how many bits stuck. */
 318:../../kernel/FreeRTOS/Source/portable/GCC/ARM_CM4F/port.c **** 		ucMaxPriorityValue = *pucFirstUserPriorityRegister;
 319:../../kernel/FreeRTOS/Source/portable/GCC/ARM_CM4F/port.c **** 
 320:../../kernel/FreeRTOS/Source/portable/GCC/ARM_CM4F/port.c **** 		/* Use the same mask on the maximum system call priority. */
 321:../../kernel/FreeRTOS/Source/portable/GCC/ARM_CM4F/port.c **** 		ucMaxSysCallPriority = configMAX_SYSCALL_INTERRUPT_PRIORITY & ucMaxPriorityValue;
 322:../../kernel/FreeRTOS/Source/portable/GCC/ARM_CM4F/port.c **** 
 323:../../kernel/FreeRTOS/Source/portable/GCC/ARM_CM4F/port.c **** 		/* Calculate the maximum acceptable priority group value for the number
 324:../../kernel/FreeRTOS/Source/portable/GCC/ARM_CM4F/port.c **** 		of bits read back. */
 325:../../kernel/FreeRTOS/Source/portable/GCC/ARM_CM4F/port.c **** 		ulMaxPRIGROUPValue = portMAX_PRIGROUP_BITS;
 326:../../kernel/FreeRTOS/Source/portable/GCC/ARM_CM4F/port.c **** 		while( ( ucMaxPriorityValue & portTOP_BIT_OF_BYTE ) == portTOP_BIT_OF_BYTE )
 327:../../kernel/FreeRTOS/Source/portable/GCC/ARM_CM4F/port.c **** 		{
 328:../../kernel/FreeRTOS/Source/portable/GCC/ARM_CM4F/port.c **** 			ulMaxPRIGROUPValue--;
 329:../../kernel/FreeRTOS/Source/portable/GCC/ARM_CM4F/port.c **** 			ucMaxPriorityValue <<= ( uint8_t ) 0x01;
 330:../../kernel/FreeRTOS/Source/portable/GCC/ARM_CM4F/port.c **** 		}
 331:../../kernel/FreeRTOS/Source/portable/GCC/ARM_CM4F/port.c **** 
 332:../../kernel/FreeRTOS/Source/portable/GCC/ARM_CM4F/port.c **** 		#ifdef __NVIC_PRIO_BITS
 333:../../kernel/FreeRTOS/Source/portable/GCC/ARM_CM4F/port.c **** 		{
 334:../../kernel/FreeRTOS/Source/portable/GCC/ARM_CM4F/port.c **** 			/* Check the CMSIS configuration that defines the number of
 335:../../kernel/FreeRTOS/Source/portable/GCC/ARM_CM4F/port.c **** 			priority bits matches the number of priority bits actually queried
 336:../../kernel/FreeRTOS/Source/portable/GCC/ARM_CM4F/port.c **** 			from the hardware. */
 337:../../kernel/FreeRTOS/Source/portable/GCC/ARM_CM4F/port.c **** 			configASSERT( ( portMAX_PRIGROUP_BITS - ulMaxPRIGROUPValue ) == __NVIC_PRIO_BITS );
 338:../../kernel/FreeRTOS/Source/portable/GCC/ARM_CM4F/port.c **** 		}
 339:../../kernel/FreeRTOS/Source/portable/GCC/ARM_CM4F/port.c **** 		#endif
 340:../../kernel/FreeRTOS/Source/portable/GCC/ARM_CM4F/port.c **** 
 341:../../kernel/FreeRTOS/Source/portable/GCC/ARM_CM4F/port.c **** 		#ifdef configPRIO_BITS
 342:../../kernel/FreeRTOS/Source/portable/GCC/ARM_CM4F/port.c **** 		{
 343:../../kernel/FreeRTOS/Source/portable/GCC/ARM_CM4F/port.c **** 			/* Check the FreeRTOS configuration that defines the number of
 344:../../kernel/FreeRTOS/Source/portable/GCC/ARM_CM4F/port.c **** 			priority bits matches the number of priority bits actually queried
 345:../../kernel/FreeRTOS/Source/portable/GCC/ARM_CM4F/port.c **** 			from the hardware. */
 346:../../kernel/FreeRTOS/Source/portable/GCC/ARM_CM4F/port.c **** 			configASSERT( ( portMAX_PRIGROUP_BITS - ulMaxPRIGROUPValue ) == configPRIO_BITS );
 347:../../kernel/FreeRTOS/Source/portable/GCC/ARM_CM4F/port.c **** 		}
 348:../../kernel/FreeRTOS/Source/portable/GCC/ARM_CM4F/port.c **** 		#endif
 349:../../kernel/FreeRTOS/Source/portable/GCC/ARM_CM4F/port.c **** 
 350:../../kernel/FreeRTOS/Source/portable/GCC/ARM_CM4F/port.c **** 		/* Shift the priority group value back to its position within the AIRCR
 351:../../kernel/FreeRTOS/Source/portable/GCC/ARM_CM4F/port.c **** 		register. */
 352:../../kernel/FreeRTOS/Source/portable/GCC/ARM_CM4F/port.c **** 		ulMaxPRIGROUPValue <<= portPRIGROUP_SHIFT;
 353:../../kernel/FreeRTOS/Source/portable/GCC/ARM_CM4F/port.c **** 		ulMaxPRIGROUPValue &= portPRIORITY_GROUP_MASK;
 354:../../kernel/FreeRTOS/Source/portable/GCC/ARM_CM4F/port.c **** 
 355:../../kernel/FreeRTOS/Source/portable/GCC/ARM_CM4F/port.c **** 		/* Restore the clobbered interrupt priority register to its original
 356:../../kernel/FreeRTOS/Source/portable/GCC/ARM_CM4F/port.c **** 		value. */
 357:../../kernel/FreeRTOS/Source/portable/GCC/ARM_CM4F/port.c **** 		*pucFirstUserPriorityRegister = ulOriginalPriority;
 358:../../kernel/FreeRTOS/Source/portable/GCC/ARM_CM4F/port.c **** 	}
 359:../../kernel/FreeRTOS/Source/portable/GCC/ARM_CM4F/port.c **** 	#endif /* conifgASSERT_DEFINED */
 360:../../kernel/FreeRTOS/Source/portable/GCC/ARM_CM4F/port.c **** 
 361:../../kernel/FreeRTOS/Source/portable/GCC/ARM_CM4F/port.c **** 	/* Make PendSV and SysTick the lowest priority interrupts. */
 362:../../kernel/FreeRTOS/Source/portable/GCC/ARM_CM4F/port.c **** 	portNVIC_SYSPRI2_REG |= portNVIC_PENDSV_PRI;
 363:../../kernel/FreeRTOS/Source/portable/GCC/ARM_CM4F/port.c **** 	portNVIC_SYSPRI2_REG |= portNVIC_SYSTICK_PRI;
 364:../../kernel/FreeRTOS/Source/portable/GCC/ARM_CM4F/port.c **** 
ARM GAS  /tmp/cc5qDK7o.s 			page 10


 365:../../kernel/FreeRTOS/Source/portable/GCC/ARM_CM4F/port.c **** 	/* Start the timer that generates the tick ISR.  Interrupts are disabled
 366:../../kernel/FreeRTOS/Source/portable/GCC/ARM_CM4F/port.c **** 	here already. */
 367:../../kernel/FreeRTOS/Source/portable/GCC/ARM_CM4F/port.c **** 	vPortSetupTimerInterrupt();
 368:../../kernel/FreeRTOS/Source/portable/GCC/ARM_CM4F/port.c **** 
 369:../../kernel/FreeRTOS/Source/portable/GCC/ARM_CM4F/port.c **** 	/* Initialise the critical nesting count ready for the first task. */
 370:../../kernel/FreeRTOS/Source/portable/GCC/ARM_CM4F/port.c **** 	uxCriticalNesting = 0;
 371:../../kernel/FreeRTOS/Source/portable/GCC/ARM_CM4F/port.c **** 
 372:../../kernel/FreeRTOS/Source/portable/GCC/ARM_CM4F/port.c **** 	/* Ensure the VFP is enabled - it should be anyway. */
 373:../../kernel/FreeRTOS/Source/portable/GCC/ARM_CM4F/port.c **** 	vPortEnableVFP();
 374:../../kernel/FreeRTOS/Source/portable/GCC/ARM_CM4F/port.c **** 
 375:../../kernel/FreeRTOS/Source/portable/GCC/ARM_CM4F/port.c **** 	/* Lazy save always. */
 376:../../kernel/FreeRTOS/Source/portable/GCC/ARM_CM4F/port.c **** 	*( portFPCCR ) |= portASPEN_AND_LSPEN_BITS;
 377:../../kernel/FreeRTOS/Source/portable/GCC/ARM_CM4F/port.c **** 
 378:../../kernel/FreeRTOS/Source/portable/GCC/ARM_CM4F/port.c **** 	/* Start the first task. */
 379:../../kernel/FreeRTOS/Source/portable/GCC/ARM_CM4F/port.c **** 	prvPortStartFirstTask();
 380:../../kernel/FreeRTOS/Source/portable/GCC/ARM_CM4F/port.c **** 
 381:../../kernel/FreeRTOS/Source/portable/GCC/ARM_CM4F/port.c **** 	/* Should never get here as the tasks will now be executing!  Call the task
 382:../../kernel/FreeRTOS/Source/portable/GCC/ARM_CM4F/port.c **** 	exit error function to prevent compiler warnings about a static function
 383:../../kernel/FreeRTOS/Source/portable/GCC/ARM_CM4F/port.c **** 	not being called in the case that the application writer overrides this
 384:../../kernel/FreeRTOS/Source/portable/GCC/ARM_CM4F/port.c **** 	functionality by defining configTASK_RETURN_ADDRESS.  Call
 385:../../kernel/FreeRTOS/Source/portable/GCC/ARM_CM4F/port.c **** 	vTaskSwitchContext() so link time optimisation does not remove the
 386:../../kernel/FreeRTOS/Source/portable/GCC/ARM_CM4F/port.c **** 	symbol. */
 387:../../kernel/FreeRTOS/Source/portable/GCC/ARM_CM4F/port.c **** 	vTaskSwitchContext();
 388:../../kernel/FreeRTOS/Source/portable/GCC/ARM_CM4F/port.c **** 	prvTaskExitError();
 389:../../kernel/FreeRTOS/Source/portable/GCC/ARM_CM4F/port.c **** 
 390:../../kernel/FreeRTOS/Source/portable/GCC/ARM_CM4F/port.c **** 	/* Should not get here! */
 391:../../kernel/FreeRTOS/Source/portable/GCC/ARM_CM4F/port.c **** 	return 0;
 392:../../kernel/FreeRTOS/Source/portable/GCC/ARM_CM4F/port.c **** }
 393:../../kernel/FreeRTOS/Source/portable/GCC/ARM_CM4F/port.c **** /*-----------------------------------------------------------*/
 394:../../kernel/FreeRTOS/Source/portable/GCC/ARM_CM4F/port.c **** 
 395:../../kernel/FreeRTOS/Source/portable/GCC/ARM_CM4F/port.c **** void vPortEndScheduler( void )
 396:../../kernel/FreeRTOS/Source/portable/GCC/ARM_CM4F/port.c **** {
 397:../../kernel/FreeRTOS/Source/portable/GCC/ARM_CM4F/port.c **** 	/* Not implemented in ports where there is nothing to return to.
 398:../../kernel/FreeRTOS/Source/portable/GCC/ARM_CM4F/port.c **** 	Artificially force an assert. */
 399:../../kernel/FreeRTOS/Source/portable/GCC/ARM_CM4F/port.c **** 	configASSERT( uxCriticalNesting == 1000UL );
 400:../../kernel/FreeRTOS/Source/portable/GCC/ARM_CM4F/port.c **** }
 401:../../kernel/FreeRTOS/Source/portable/GCC/ARM_CM4F/port.c **** /*-----------------------------------------------------------*/
 402:../../kernel/FreeRTOS/Source/portable/GCC/ARM_CM4F/port.c **** 
 403:../../kernel/FreeRTOS/Source/portable/GCC/ARM_CM4F/port.c **** void vPortEnterCritical( void )
 404:../../kernel/FreeRTOS/Source/portable/GCC/ARM_CM4F/port.c **** {
 405:../../kernel/FreeRTOS/Source/portable/GCC/ARM_CM4F/port.c **** 	portDISABLE_INTERRUPTS();
 406:../../kernel/FreeRTOS/Source/portable/GCC/ARM_CM4F/port.c **** 	uxCriticalNesting++;
 407:../../kernel/FreeRTOS/Source/portable/GCC/ARM_CM4F/port.c **** 
 408:../../kernel/FreeRTOS/Source/portable/GCC/ARM_CM4F/port.c **** 	/* This is not the interrupt safe version of the enter critical function so
 409:../../kernel/FreeRTOS/Source/portable/GCC/ARM_CM4F/port.c **** 	assert() if it is being called from an interrupt context.  Only API
 410:../../kernel/FreeRTOS/Source/portable/GCC/ARM_CM4F/port.c **** 	functions that end in "FromISR" can be used in an interrupt.  Only assert if
 411:../../kernel/FreeRTOS/Source/portable/GCC/ARM_CM4F/port.c **** 	the critical nesting count is 1 to protect against recursive calls if the
 412:../../kernel/FreeRTOS/Source/portable/GCC/ARM_CM4F/port.c **** 	assert function also uses a critical section. */
 413:../../kernel/FreeRTOS/Source/portable/GCC/ARM_CM4F/port.c **** 	if( uxCriticalNesting == 1 )
 414:../../kernel/FreeRTOS/Source/portable/GCC/ARM_CM4F/port.c **** 	{
 415:../../kernel/FreeRTOS/Source/portable/GCC/ARM_CM4F/port.c **** 		configASSERT( ( portNVIC_INT_CTRL_REG & portVECTACTIVE_MASK ) == 0 );
 416:../../kernel/FreeRTOS/Source/portable/GCC/ARM_CM4F/port.c **** 	}
 417:../../kernel/FreeRTOS/Source/portable/GCC/ARM_CM4F/port.c **** }
 418:../../kernel/FreeRTOS/Source/portable/GCC/ARM_CM4F/port.c **** /*-----------------------------------------------------------*/
 419:../../kernel/FreeRTOS/Source/portable/GCC/ARM_CM4F/port.c **** 
 420:../../kernel/FreeRTOS/Source/portable/GCC/ARM_CM4F/port.c **** void vPortExitCritical( void )
 421:../../kernel/FreeRTOS/Source/portable/GCC/ARM_CM4F/port.c **** {
ARM GAS  /tmp/cc5qDK7o.s 			page 11


 422:../../kernel/FreeRTOS/Source/portable/GCC/ARM_CM4F/port.c **** 	configASSERT( uxCriticalNesting );
 423:../../kernel/FreeRTOS/Source/portable/GCC/ARM_CM4F/port.c **** 	uxCriticalNesting--;
 424:../../kernel/FreeRTOS/Source/portable/GCC/ARM_CM4F/port.c **** 	if( uxCriticalNesting == 0 )
 425:../../kernel/FreeRTOS/Source/portable/GCC/ARM_CM4F/port.c **** 	{
 426:../../kernel/FreeRTOS/Source/portable/GCC/ARM_CM4F/port.c **** 		portENABLE_INTERRUPTS();
 427:../../kernel/FreeRTOS/Source/portable/GCC/ARM_CM4F/port.c **** 	}
 428:../../kernel/FreeRTOS/Source/portable/GCC/ARM_CM4F/port.c **** }
 429:../../kernel/FreeRTOS/Source/portable/GCC/ARM_CM4F/port.c **** /*-----------------------------------------------------------*/
 430:../../kernel/FreeRTOS/Source/portable/GCC/ARM_CM4F/port.c **** 
 431:../../kernel/FreeRTOS/Source/portable/GCC/ARM_CM4F/port.c **** void xPortPendSVHandler( void )
 432:../../kernel/FreeRTOS/Source/portable/GCC/ARM_CM4F/port.c **** {
 433:../../kernel/FreeRTOS/Source/portable/GCC/ARM_CM4F/port.c **** 	/* This is a naked function. */
 434:../../kernel/FreeRTOS/Source/portable/GCC/ARM_CM4F/port.c **** 
 435:../../kernel/FreeRTOS/Source/portable/GCC/ARM_CM4F/port.c **** 	__asm volatile
 436:../../kernel/FreeRTOS/Source/portable/GCC/ARM_CM4F/port.c **** 	(
 437:../../kernel/FreeRTOS/Source/portable/GCC/ARM_CM4F/port.c **** 	"	mrs r0, psp							\n"
 438:../../kernel/FreeRTOS/Source/portable/GCC/ARM_CM4F/port.c **** 	"	isb									\n"
 439:../../kernel/FreeRTOS/Source/portable/GCC/ARM_CM4F/port.c **** 	"										\n"
 440:../../kernel/FreeRTOS/Source/portable/GCC/ARM_CM4F/port.c **** 	"	ldr	r3, pxCurrentTCBConst			\n" /* Get the location of the current TCB. */
 441:../../kernel/FreeRTOS/Source/portable/GCC/ARM_CM4F/port.c **** 	"	ldr	r2, [r3]						\n"
 442:../../kernel/FreeRTOS/Source/portable/GCC/ARM_CM4F/port.c **** 	"										\n"
 443:../../kernel/FreeRTOS/Source/portable/GCC/ARM_CM4F/port.c **** 	"	tst r14, #0x10						\n" /* Is the task using the FPU context?  If so, push high vfp registers. *
 444:../../kernel/FreeRTOS/Source/portable/GCC/ARM_CM4F/port.c **** 	"	it eq								\n"
 445:../../kernel/FreeRTOS/Source/portable/GCC/ARM_CM4F/port.c **** 	"	vstmdbeq r0!, {s16-s31}				\n"
 446:../../kernel/FreeRTOS/Source/portable/GCC/ARM_CM4F/port.c **** 	"										\n"
 447:../../kernel/FreeRTOS/Source/portable/GCC/ARM_CM4F/port.c **** 	"	stmdb r0!, {r4-r11, r14}			\n" /* Save the core registers. */
 448:../../kernel/FreeRTOS/Source/portable/GCC/ARM_CM4F/port.c **** 	"	str r0, [r2]						\n" /* Save the new top of stack into the first member of the TCB. */
 449:../../kernel/FreeRTOS/Source/portable/GCC/ARM_CM4F/port.c **** 	"										\n"
 450:../../kernel/FreeRTOS/Source/portable/GCC/ARM_CM4F/port.c **** 	"	stmdb sp!, {r0, r3}					\n"
 451:../../kernel/FreeRTOS/Source/portable/GCC/ARM_CM4F/port.c **** 	"	mov r0, %0 							\n"
 452:../../kernel/FreeRTOS/Source/portable/GCC/ARM_CM4F/port.c **** 	"	msr basepri, r0						\n"
 453:../../kernel/FreeRTOS/Source/portable/GCC/ARM_CM4F/port.c **** 	"	dsb									\n"
 454:../../kernel/FreeRTOS/Source/portable/GCC/ARM_CM4F/port.c **** 	"	isb									\n"
 455:../../kernel/FreeRTOS/Source/portable/GCC/ARM_CM4F/port.c **** 	"	bl vTaskSwitchContext				\n"
 456:../../kernel/FreeRTOS/Source/portable/GCC/ARM_CM4F/port.c **** 	"	mov r0, #0							\n"
 457:../../kernel/FreeRTOS/Source/portable/GCC/ARM_CM4F/port.c **** 	"	msr basepri, r0						\n"
 458:../../kernel/FreeRTOS/Source/portable/GCC/ARM_CM4F/port.c **** 	"	ldmia sp!, {r0, r3}					\n"
 459:../../kernel/FreeRTOS/Source/portable/GCC/ARM_CM4F/port.c **** 	"										\n"
 460:../../kernel/FreeRTOS/Source/portable/GCC/ARM_CM4F/port.c **** 	"	ldr r1, [r3]						\n" /* The first item in pxCurrentTCB is the task top of stack. */
 461:../../kernel/FreeRTOS/Source/portable/GCC/ARM_CM4F/port.c **** 	"	ldr r0, [r1]						\n"
 462:../../kernel/FreeRTOS/Source/portable/GCC/ARM_CM4F/port.c **** 	"										\n"
 463:../../kernel/FreeRTOS/Source/portable/GCC/ARM_CM4F/port.c **** 	"	ldmia r0!, {r4-r11, r14}			\n" /* Pop the core registers. */
 464:../../kernel/FreeRTOS/Source/portable/GCC/ARM_CM4F/port.c **** 	"										\n"
 465:../../kernel/FreeRTOS/Source/portable/GCC/ARM_CM4F/port.c **** 	"	tst r14, #0x10						\n" /* Is the task using the FPU context?  If so, pop the high vfp registers
 466:../../kernel/FreeRTOS/Source/portable/GCC/ARM_CM4F/port.c **** 	"	it eq								\n"
 467:../../kernel/FreeRTOS/Source/portable/GCC/ARM_CM4F/port.c **** 	"	vldmiaeq r0!, {s16-s31}				\n"
 468:../../kernel/FreeRTOS/Source/portable/GCC/ARM_CM4F/port.c **** 	"										\n"
 469:../../kernel/FreeRTOS/Source/portable/GCC/ARM_CM4F/port.c **** 	"	msr psp, r0							\n"
 470:../../kernel/FreeRTOS/Source/portable/GCC/ARM_CM4F/port.c **** 	"	isb									\n"
 471:../../kernel/FreeRTOS/Source/portable/GCC/ARM_CM4F/port.c **** 	"										\n"
 472:../../kernel/FreeRTOS/Source/portable/GCC/ARM_CM4F/port.c **** 	#ifdef WORKAROUND_PMU_CM001 /* XMC4000 specific errata workaround. */
 473:../../kernel/FreeRTOS/Source/portable/GCC/ARM_CM4F/port.c **** 		#if WORKAROUND_PMU_CM001 == 1
 474:../../kernel/FreeRTOS/Source/portable/GCC/ARM_CM4F/port.c **** 	"			push { r14 }				\n"
 475:../../kernel/FreeRTOS/Source/portable/GCC/ARM_CM4F/port.c **** 	"			pop { pc }					\n"
 476:../../kernel/FreeRTOS/Source/portable/GCC/ARM_CM4F/port.c **** 		#endif
 477:../../kernel/FreeRTOS/Source/portable/GCC/ARM_CM4F/port.c **** 	#endif
 478:../../kernel/FreeRTOS/Source/portable/GCC/ARM_CM4F/port.c **** 	"										\n"
ARM GAS  /tmp/cc5qDK7o.s 			page 12


 479:../../kernel/FreeRTOS/Source/portable/GCC/ARM_CM4F/port.c **** 	"	bx r14								\n"
 480:../../kernel/FreeRTOS/Source/portable/GCC/ARM_CM4F/port.c **** 	"										\n"
 481:../../kernel/FreeRTOS/Source/portable/GCC/ARM_CM4F/port.c **** 	"	.align 4							\n"
 482:../../kernel/FreeRTOS/Source/portable/GCC/ARM_CM4F/port.c **** 	"pxCurrentTCBConst: .word pxCurrentTCB	\n"
 483:../../kernel/FreeRTOS/Source/portable/GCC/ARM_CM4F/port.c **** 	::"i"(configMAX_SYSCALL_INTERRUPT_PRIORITY)
 484:../../kernel/FreeRTOS/Source/portable/GCC/ARM_CM4F/port.c **** 	);
 485:../../kernel/FreeRTOS/Source/portable/GCC/ARM_CM4F/port.c **** }
 486:../../kernel/FreeRTOS/Source/portable/GCC/ARM_CM4F/port.c **** /*-----------------------------------------------------------*/
 487:../../kernel/FreeRTOS/Source/portable/GCC/ARM_CM4F/port.c **** 
 488:../../kernel/FreeRTOS/Source/portable/GCC/ARM_CM4F/port.c **** void xPortSysTickHandler( void )
 489:../../kernel/FreeRTOS/Source/portable/GCC/ARM_CM4F/port.c **** {
 490:../../kernel/FreeRTOS/Source/portable/GCC/ARM_CM4F/port.c **** 	/* The SysTick runs at the lowest interrupt priority, so when this interrupt
 491:../../kernel/FreeRTOS/Source/portable/GCC/ARM_CM4F/port.c **** 	executes all interrupts must be unmasked.  There is therefore no need to
 492:../../kernel/FreeRTOS/Source/portable/GCC/ARM_CM4F/port.c **** 	save and then restore the interrupt mask value as its value is already
 493:../../kernel/FreeRTOS/Source/portable/GCC/ARM_CM4F/port.c **** 	known. */
 494:../../kernel/FreeRTOS/Source/portable/GCC/ARM_CM4F/port.c **** 	portDISABLE_INTERRUPTS();
 495:../../kernel/FreeRTOS/Source/portable/GCC/ARM_CM4F/port.c **** 	{
 496:../../kernel/FreeRTOS/Source/portable/GCC/ARM_CM4F/port.c **** 		/* Increment the RTOS tick. */
 497:../../kernel/FreeRTOS/Source/portable/GCC/ARM_CM4F/port.c **** 		if( xTaskIncrementTick() != pdFALSE )
 498:../../kernel/FreeRTOS/Source/portable/GCC/ARM_CM4F/port.c **** 		{
 499:../../kernel/FreeRTOS/Source/portable/GCC/ARM_CM4F/port.c **** 			/* A context switch is required.  Context switching is performed in
 500:../../kernel/FreeRTOS/Source/portable/GCC/ARM_CM4F/port.c **** 			the PendSV interrupt.  Pend the PendSV interrupt. */
 501:../../kernel/FreeRTOS/Source/portable/GCC/ARM_CM4F/port.c **** 			portNVIC_INT_CTRL_REG = portNVIC_PENDSVSET_BIT;
 502:../../kernel/FreeRTOS/Source/portable/GCC/ARM_CM4F/port.c **** 		}
 503:../../kernel/FreeRTOS/Source/portable/GCC/ARM_CM4F/port.c **** 	}
 504:../../kernel/FreeRTOS/Source/portable/GCC/ARM_CM4F/port.c **** 	portENABLE_INTERRUPTS();
 505:../../kernel/FreeRTOS/Source/portable/GCC/ARM_CM4F/port.c **** }
 506:../../kernel/FreeRTOS/Source/portable/GCC/ARM_CM4F/port.c **** /*-----------------------------------------------------------*/
 507:../../kernel/FreeRTOS/Source/portable/GCC/ARM_CM4F/port.c **** 
 508:../../kernel/FreeRTOS/Source/portable/GCC/ARM_CM4F/port.c **** #if( configUSE_TICKLESS_IDLE == 1 )
 509:../../kernel/FreeRTOS/Source/portable/GCC/ARM_CM4F/port.c **** 
 510:../../kernel/FreeRTOS/Source/portable/GCC/ARM_CM4F/port.c **** 	__attribute__((weak)) void vPortSuppressTicksAndSleep( TickType_t xExpectedIdleTime )
 511:../../kernel/FreeRTOS/Source/portable/GCC/ARM_CM4F/port.c **** 	{
 512:../../kernel/FreeRTOS/Source/portable/GCC/ARM_CM4F/port.c **** 	uint32_t ulReloadValue, ulCompleteTickPeriods, ulCompletedSysTickDecrements;
 513:../../kernel/FreeRTOS/Source/portable/GCC/ARM_CM4F/port.c **** 	TickType_t xModifiableIdleTime;
 514:../../kernel/FreeRTOS/Source/portable/GCC/ARM_CM4F/port.c **** 
 515:../../kernel/FreeRTOS/Source/portable/GCC/ARM_CM4F/port.c **** 		/* Make sure the SysTick reload value does not overflow the counter. */
 516:../../kernel/FreeRTOS/Source/portable/GCC/ARM_CM4F/port.c **** 		if( xExpectedIdleTime > xMaximumPossibleSuppressedTicks )
 517:../../kernel/FreeRTOS/Source/portable/GCC/ARM_CM4F/port.c **** 		{
 518:../../kernel/FreeRTOS/Source/portable/GCC/ARM_CM4F/port.c **** 			xExpectedIdleTime = xMaximumPossibleSuppressedTicks;
 519:../../kernel/FreeRTOS/Source/portable/GCC/ARM_CM4F/port.c **** 		}
 520:../../kernel/FreeRTOS/Source/portable/GCC/ARM_CM4F/port.c **** 
 521:../../kernel/FreeRTOS/Source/portable/GCC/ARM_CM4F/port.c **** 		/* Stop the SysTick momentarily.  The time the SysTick is stopped for
 522:../../kernel/FreeRTOS/Source/portable/GCC/ARM_CM4F/port.c **** 		is accounted for as best it can be, but using the tickless mode will
 523:../../kernel/FreeRTOS/Source/portable/GCC/ARM_CM4F/port.c **** 		inevitably result in some tiny drift of the time maintained by the
 524:../../kernel/FreeRTOS/Source/portable/GCC/ARM_CM4F/port.c **** 		kernel with respect to calendar time. */
 525:../../kernel/FreeRTOS/Source/portable/GCC/ARM_CM4F/port.c **** 		portNVIC_SYSTICK_CTRL_REG &= ~portNVIC_SYSTICK_ENABLE_BIT;
 526:../../kernel/FreeRTOS/Source/portable/GCC/ARM_CM4F/port.c **** 
 527:../../kernel/FreeRTOS/Source/portable/GCC/ARM_CM4F/port.c **** 		/* Calculate the reload value required to wait xExpectedIdleTime
 528:../../kernel/FreeRTOS/Source/portable/GCC/ARM_CM4F/port.c **** 		tick periods.  -1 is used because this code will execute part way
 529:../../kernel/FreeRTOS/Source/portable/GCC/ARM_CM4F/port.c **** 		through one of the tick periods. */
 530:../../kernel/FreeRTOS/Source/portable/GCC/ARM_CM4F/port.c **** 		ulReloadValue = portNVIC_SYSTICK_CURRENT_VALUE_REG + ( ulTimerCountsForOneTick * ( xExpectedIdleT
 531:../../kernel/FreeRTOS/Source/portable/GCC/ARM_CM4F/port.c **** 		if( ulReloadValue > ulStoppedTimerCompensation )
 532:../../kernel/FreeRTOS/Source/portable/GCC/ARM_CM4F/port.c **** 		{
 533:../../kernel/FreeRTOS/Source/portable/GCC/ARM_CM4F/port.c **** 			ulReloadValue -= ulStoppedTimerCompensation;
 534:../../kernel/FreeRTOS/Source/portable/GCC/ARM_CM4F/port.c **** 		}
 535:../../kernel/FreeRTOS/Source/portable/GCC/ARM_CM4F/port.c **** 
ARM GAS  /tmp/cc5qDK7o.s 			page 13


 536:../../kernel/FreeRTOS/Source/portable/GCC/ARM_CM4F/port.c **** 		/* Enter a critical section but don't use the taskENTER_CRITICAL()
 537:../../kernel/FreeRTOS/Source/portable/GCC/ARM_CM4F/port.c **** 		method as that will mask interrupts that should exit sleep mode. */
 538:../../kernel/FreeRTOS/Source/portable/GCC/ARM_CM4F/port.c **** 		__asm volatile( "cpsid i" ::: "memory" );
 539:../../kernel/FreeRTOS/Source/portable/GCC/ARM_CM4F/port.c **** 		__asm volatile( "dsb" );
 540:../../kernel/FreeRTOS/Source/portable/GCC/ARM_CM4F/port.c **** 		__asm volatile( "isb" );
 541:../../kernel/FreeRTOS/Source/portable/GCC/ARM_CM4F/port.c **** 
 542:../../kernel/FreeRTOS/Source/portable/GCC/ARM_CM4F/port.c **** 		/* If a context switch is pending or a task is waiting for the scheduler
 543:../../kernel/FreeRTOS/Source/portable/GCC/ARM_CM4F/port.c **** 		to be unsuspended then abandon the low power entry. */
 544:../../kernel/FreeRTOS/Source/portable/GCC/ARM_CM4F/port.c **** 		if( eTaskConfirmSleepModeStatus() == eAbortSleep )
 545:../../kernel/FreeRTOS/Source/portable/GCC/ARM_CM4F/port.c **** 		{
 546:../../kernel/FreeRTOS/Source/portable/GCC/ARM_CM4F/port.c **** 			/* Restart from whatever is left in the count register to complete
 547:../../kernel/FreeRTOS/Source/portable/GCC/ARM_CM4F/port.c **** 			this tick period. */
 548:../../kernel/FreeRTOS/Source/portable/GCC/ARM_CM4F/port.c **** 			portNVIC_SYSTICK_LOAD_REG = portNVIC_SYSTICK_CURRENT_VALUE_REG;
 549:../../kernel/FreeRTOS/Source/portable/GCC/ARM_CM4F/port.c **** 
 550:../../kernel/FreeRTOS/Source/portable/GCC/ARM_CM4F/port.c **** 			/* Restart SysTick. */
 551:../../kernel/FreeRTOS/Source/portable/GCC/ARM_CM4F/port.c **** 			portNVIC_SYSTICK_CTRL_REG |= portNVIC_SYSTICK_ENABLE_BIT;
 552:../../kernel/FreeRTOS/Source/portable/GCC/ARM_CM4F/port.c **** 
 553:../../kernel/FreeRTOS/Source/portable/GCC/ARM_CM4F/port.c **** 			/* Reset the reload register to the value required for normal tick
 554:../../kernel/FreeRTOS/Source/portable/GCC/ARM_CM4F/port.c **** 			periods. */
 555:../../kernel/FreeRTOS/Source/portable/GCC/ARM_CM4F/port.c **** 			portNVIC_SYSTICK_LOAD_REG = ulTimerCountsForOneTick - 1UL;
 556:../../kernel/FreeRTOS/Source/portable/GCC/ARM_CM4F/port.c **** 
 557:../../kernel/FreeRTOS/Source/portable/GCC/ARM_CM4F/port.c **** 			/* Re-enable interrupts - see comments above the cpsid instruction()
 558:../../kernel/FreeRTOS/Source/portable/GCC/ARM_CM4F/port.c **** 			above. */
 559:../../kernel/FreeRTOS/Source/portable/GCC/ARM_CM4F/port.c **** 			__asm volatile( "cpsie i" ::: "memory" );
 560:../../kernel/FreeRTOS/Source/portable/GCC/ARM_CM4F/port.c **** 		}
 561:../../kernel/FreeRTOS/Source/portable/GCC/ARM_CM4F/port.c **** 		else
 562:../../kernel/FreeRTOS/Source/portable/GCC/ARM_CM4F/port.c **** 		{
 563:../../kernel/FreeRTOS/Source/portable/GCC/ARM_CM4F/port.c **** 			/* Set the new reload value. */
 564:../../kernel/FreeRTOS/Source/portable/GCC/ARM_CM4F/port.c **** 			portNVIC_SYSTICK_LOAD_REG = ulReloadValue;
 565:../../kernel/FreeRTOS/Source/portable/GCC/ARM_CM4F/port.c **** 
 566:../../kernel/FreeRTOS/Source/portable/GCC/ARM_CM4F/port.c **** 			/* Clear the SysTick count flag and set the count value back to
 567:../../kernel/FreeRTOS/Source/portable/GCC/ARM_CM4F/port.c **** 			zero. */
 568:../../kernel/FreeRTOS/Source/portable/GCC/ARM_CM4F/port.c **** 			portNVIC_SYSTICK_CURRENT_VALUE_REG = 0UL;
 569:../../kernel/FreeRTOS/Source/portable/GCC/ARM_CM4F/port.c **** 
 570:../../kernel/FreeRTOS/Source/portable/GCC/ARM_CM4F/port.c **** 			/* Restart SysTick. */
 571:../../kernel/FreeRTOS/Source/portable/GCC/ARM_CM4F/port.c **** 			portNVIC_SYSTICK_CTRL_REG |= portNVIC_SYSTICK_ENABLE_BIT;
 572:../../kernel/FreeRTOS/Source/portable/GCC/ARM_CM4F/port.c **** 
 573:../../kernel/FreeRTOS/Source/portable/GCC/ARM_CM4F/port.c **** 			/* Sleep until something happens.  configPRE_SLEEP_PROCESSING() can
 574:../../kernel/FreeRTOS/Source/portable/GCC/ARM_CM4F/port.c **** 			set its parameter to 0 to indicate that its implementation contains
 575:../../kernel/FreeRTOS/Source/portable/GCC/ARM_CM4F/port.c **** 			its own wait for interrupt or wait for event instruction, and so wfi
 576:../../kernel/FreeRTOS/Source/portable/GCC/ARM_CM4F/port.c **** 			should not be executed again.  However, the original expected idle
 577:../../kernel/FreeRTOS/Source/portable/GCC/ARM_CM4F/port.c **** 			time variable must remain unmodified, so a copy is taken. */
 578:../../kernel/FreeRTOS/Source/portable/GCC/ARM_CM4F/port.c **** 			xModifiableIdleTime = xExpectedIdleTime;
 579:../../kernel/FreeRTOS/Source/portable/GCC/ARM_CM4F/port.c **** 			configPRE_SLEEP_PROCESSING( xModifiableIdleTime );
 580:../../kernel/FreeRTOS/Source/portable/GCC/ARM_CM4F/port.c **** 			if( xModifiableIdleTime > 0 )
 581:../../kernel/FreeRTOS/Source/portable/GCC/ARM_CM4F/port.c **** 			{
 582:../../kernel/FreeRTOS/Source/portable/GCC/ARM_CM4F/port.c **** 				__asm volatile( "dsb" ::: "memory" );
 583:../../kernel/FreeRTOS/Source/portable/GCC/ARM_CM4F/port.c **** 				__asm volatile( "wfi" );
 584:../../kernel/FreeRTOS/Source/portable/GCC/ARM_CM4F/port.c **** 				__asm volatile( "isb" );
 585:../../kernel/FreeRTOS/Source/portable/GCC/ARM_CM4F/port.c **** 			}
 586:../../kernel/FreeRTOS/Source/portable/GCC/ARM_CM4F/port.c **** 			configPOST_SLEEP_PROCESSING( xExpectedIdleTime );
 587:../../kernel/FreeRTOS/Source/portable/GCC/ARM_CM4F/port.c **** 
 588:../../kernel/FreeRTOS/Source/portable/GCC/ARM_CM4F/port.c **** 			/* Re-enable interrupts to allow the interrupt that brought the MCU
 589:../../kernel/FreeRTOS/Source/portable/GCC/ARM_CM4F/port.c **** 			out of sleep mode to execute immediately.  see comments above
 590:../../kernel/FreeRTOS/Source/portable/GCC/ARM_CM4F/port.c **** 			__disable_interrupt() call above. */
 591:../../kernel/FreeRTOS/Source/portable/GCC/ARM_CM4F/port.c **** 			__asm volatile( "cpsie i" ::: "memory" );
 592:../../kernel/FreeRTOS/Source/portable/GCC/ARM_CM4F/port.c **** 			__asm volatile( "dsb" );
ARM GAS  /tmp/cc5qDK7o.s 			page 14


 593:../../kernel/FreeRTOS/Source/portable/GCC/ARM_CM4F/port.c **** 			__asm volatile( "isb" );
 594:../../kernel/FreeRTOS/Source/portable/GCC/ARM_CM4F/port.c **** 
 595:../../kernel/FreeRTOS/Source/portable/GCC/ARM_CM4F/port.c **** 			/* Disable interrupts again because the clock is about to be stopped
 596:../../kernel/FreeRTOS/Source/portable/GCC/ARM_CM4F/port.c **** 			and interrupts that execute while the clock is stopped will increase
 597:../../kernel/FreeRTOS/Source/portable/GCC/ARM_CM4F/port.c **** 			any slippage between the time maintained by the RTOS and calendar
 598:../../kernel/FreeRTOS/Source/portable/GCC/ARM_CM4F/port.c **** 			time. */
 599:../../kernel/FreeRTOS/Source/portable/GCC/ARM_CM4F/port.c **** 			__asm volatile( "cpsid i" ::: "memory" );
 600:../../kernel/FreeRTOS/Source/portable/GCC/ARM_CM4F/port.c **** 			__asm volatile( "dsb" );
 601:../../kernel/FreeRTOS/Source/portable/GCC/ARM_CM4F/port.c **** 			__asm volatile( "isb" );
 602:../../kernel/FreeRTOS/Source/portable/GCC/ARM_CM4F/port.c **** 
 603:../../kernel/FreeRTOS/Source/portable/GCC/ARM_CM4F/port.c **** 			/* Disable the SysTick clock without reading the
 604:../../kernel/FreeRTOS/Source/portable/GCC/ARM_CM4F/port.c **** 			portNVIC_SYSTICK_CTRL_REG register to ensure the
 605:../../kernel/FreeRTOS/Source/portable/GCC/ARM_CM4F/port.c **** 			portNVIC_SYSTICK_COUNT_FLAG_BIT is not cleared if it is set.  Again,
 606:../../kernel/FreeRTOS/Source/portable/GCC/ARM_CM4F/port.c **** 			the time the SysTick is stopped for is accounted for as best it can
 607:../../kernel/FreeRTOS/Source/portable/GCC/ARM_CM4F/port.c **** 			be, but using the tickless mode will inevitably result in some tiny
 608:../../kernel/FreeRTOS/Source/portable/GCC/ARM_CM4F/port.c **** 			drift of the time maintained by the kernel with respect to calendar
 609:../../kernel/FreeRTOS/Source/portable/GCC/ARM_CM4F/port.c **** 			time*/
 610:../../kernel/FreeRTOS/Source/portable/GCC/ARM_CM4F/port.c **** 			portNVIC_SYSTICK_CTRL_REG = ( portNVIC_SYSTICK_CLK_BIT | portNVIC_SYSTICK_INT_BIT );
 611:../../kernel/FreeRTOS/Source/portable/GCC/ARM_CM4F/port.c **** 
 612:../../kernel/FreeRTOS/Source/portable/GCC/ARM_CM4F/port.c **** 			/* Determine if the SysTick clock has already counted to zero and
 613:../../kernel/FreeRTOS/Source/portable/GCC/ARM_CM4F/port.c **** 			been set back to the current reload value (the reload back being
 614:../../kernel/FreeRTOS/Source/portable/GCC/ARM_CM4F/port.c **** 			correct for the entire expected idle time) or if the SysTick is yet
 615:../../kernel/FreeRTOS/Source/portable/GCC/ARM_CM4F/port.c **** 			to count to zero (in which case an interrupt other than the SysTick
 616:../../kernel/FreeRTOS/Source/portable/GCC/ARM_CM4F/port.c **** 			must have brought the system out of sleep mode). */
 617:../../kernel/FreeRTOS/Source/portable/GCC/ARM_CM4F/port.c **** 			if( ( portNVIC_SYSTICK_CTRL_REG & portNVIC_SYSTICK_COUNT_FLAG_BIT ) != 0 )
 618:../../kernel/FreeRTOS/Source/portable/GCC/ARM_CM4F/port.c **** 			{
 619:../../kernel/FreeRTOS/Source/portable/GCC/ARM_CM4F/port.c **** 				uint32_t ulCalculatedLoadValue;
 620:../../kernel/FreeRTOS/Source/portable/GCC/ARM_CM4F/port.c **** 
 621:../../kernel/FreeRTOS/Source/portable/GCC/ARM_CM4F/port.c **** 				/* The tick interrupt is already pending, and the SysTick count
 622:../../kernel/FreeRTOS/Source/portable/GCC/ARM_CM4F/port.c **** 				reloaded with ulReloadValue.  Reset the
 623:../../kernel/FreeRTOS/Source/portable/GCC/ARM_CM4F/port.c **** 				portNVIC_SYSTICK_LOAD_REG with whatever remains of this tick
 624:../../kernel/FreeRTOS/Source/portable/GCC/ARM_CM4F/port.c **** 				period. */
 625:../../kernel/FreeRTOS/Source/portable/GCC/ARM_CM4F/port.c **** 				ulCalculatedLoadValue = ( ulTimerCountsForOneTick - 1UL ) - ( ulReloadValue - portNVIC_SYSTICK_
 626:../../kernel/FreeRTOS/Source/portable/GCC/ARM_CM4F/port.c **** 
 627:../../kernel/FreeRTOS/Source/portable/GCC/ARM_CM4F/port.c **** 				/* Don't allow a tiny value, or values that have somehow
 628:../../kernel/FreeRTOS/Source/portable/GCC/ARM_CM4F/port.c **** 				underflowed because the post sleep hook did something
 629:../../kernel/FreeRTOS/Source/portable/GCC/ARM_CM4F/port.c **** 				that took too long. */
 630:../../kernel/FreeRTOS/Source/portable/GCC/ARM_CM4F/port.c **** 				if( ( ulCalculatedLoadValue < ulStoppedTimerCompensation ) || ( ulCalculatedLoadValue > ulTimer
 631:../../kernel/FreeRTOS/Source/portable/GCC/ARM_CM4F/port.c **** 				{
 632:../../kernel/FreeRTOS/Source/portable/GCC/ARM_CM4F/port.c **** 					ulCalculatedLoadValue = ( ulTimerCountsForOneTick - 1UL );
 633:../../kernel/FreeRTOS/Source/portable/GCC/ARM_CM4F/port.c **** 				}
 634:../../kernel/FreeRTOS/Source/portable/GCC/ARM_CM4F/port.c **** 
 635:../../kernel/FreeRTOS/Source/portable/GCC/ARM_CM4F/port.c **** 				portNVIC_SYSTICK_LOAD_REG = ulCalculatedLoadValue;
 636:../../kernel/FreeRTOS/Source/portable/GCC/ARM_CM4F/port.c **** 
 637:../../kernel/FreeRTOS/Source/portable/GCC/ARM_CM4F/port.c **** 				/* As the pending tick will be processed as soon as this
 638:../../kernel/FreeRTOS/Source/portable/GCC/ARM_CM4F/port.c **** 				function exits, the tick value maintained by the tick is stepped
 639:../../kernel/FreeRTOS/Source/portable/GCC/ARM_CM4F/port.c **** 				forward by one less than the time spent waiting. */
 640:../../kernel/FreeRTOS/Source/portable/GCC/ARM_CM4F/port.c **** 				ulCompleteTickPeriods = xExpectedIdleTime - 1UL;
 641:../../kernel/FreeRTOS/Source/portable/GCC/ARM_CM4F/port.c **** 			}
 642:../../kernel/FreeRTOS/Source/portable/GCC/ARM_CM4F/port.c **** 			else
 643:../../kernel/FreeRTOS/Source/portable/GCC/ARM_CM4F/port.c **** 			{
 644:../../kernel/FreeRTOS/Source/portable/GCC/ARM_CM4F/port.c **** 				/* Something other than the tick interrupt ended the sleep.
 645:../../kernel/FreeRTOS/Source/portable/GCC/ARM_CM4F/port.c **** 				Work out how long the sleep lasted rounded to complete tick
 646:../../kernel/FreeRTOS/Source/portable/GCC/ARM_CM4F/port.c **** 				periods (not the ulReload value which accounted for part
 647:../../kernel/FreeRTOS/Source/portable/GCC/ARM_CM4F/port.c **** 				ticks). */
 648:../../kernel/FreeRTOS/Source/portable/GCC/ARM_CM4F/port.c **** 				ulCompletedSysTickDecrements = ( xExpectedIdleTime * ulTimerCountsForOneTick ) - portNVIC_SYSTI
 649:../../kernel/FreeRTOS/Source/portable/GCC/ARM_CM4F/port.c **** 
ARM GAS  /tmp/cc5qDK7o.s 			page 15


 650:../../kernel/FreeRTOS/Source/portable/GCC/ARM_CM4F/port.c **** 				/* How many complete tick periods passed while the processor
 651:../../kernel/FreeRTOS/Source/portable/GCC/ARM_CM4F/port.c **** 				was waiting? */
 652:../../kernel/FreeRTOS/Source/portable/GCC/ARM_CM4F/port.c **** 				ulCompleteTickPeriods = ulCompletedSysTickDecrements / ulTimerCountsForOneTick;
 653:../../kernel/FreeRTOS/Source/portable/GCC/ARM_CM4F/port.c **** 
 654:../../kernel/FreeRTOS/Source/portable/GCC/ARM_CM4F/port.c **** 				/* The reload value is set to whatever fraction of a single tick
 655:../../kernel/FreeRTOS/Source/portable/GCC/ARM_CM4F/port.c **** 				period remains. */
 656:../../kernel/FreeRTOS/Source/portable/GCC/ARM_CM4F/port.c **** 				portNVIC_SYSTICK_LOAD_REG = ( ( ulCompleteTickPeriods + 1UL ) * ulTimerCountsForOneTick ) - ulC
 657:../../kernel/FreeRTOS/Source/portable/GCC/ARM_CM4F/port.c **** 			}
 658:../../kernel/FreeRTOS/Source/portable/GCC/ARM_CM4F/port.c **** 
 659:../../kernel/FreeRTOS/Source/portable/GCC/ARM_CM4F/port.c **** 			/* Restart SysTick so it runs from portNVIC_SYSTICK_LOAD_REG
 660:../../kernel/FreeRTOS/Source/portable/GCC/ARM_CM4F/port.c **** 			again, then set portNVIC_SYSTICK_LOAD_REG back to its standard
 661:../../kernel/FreeRTOS/Source/portable/GCC/ARM_CM4F/port.c **** 			value. */
 662:../../kernel/FreeRTOS/Source/portable/GCC/ARM_CM4F/port.c **** 			portNVIC_SYSTICK_CURRENT_VALUE_REG = 0UL;
 663:../../kernel/FreeRTOS/Source/portable/GCC/ARM_CM4F/port.c **** 			portNVIC_SYSTICK_CTRL_REG |= portNVIC_SYSTICK_ENABLE_BIT;
 664:../../kernel/FreeRTOS/Source/portable/GCC/ARM_CM4F/port.c **** 			vTaskStepTick( ulCompleteTickPeriods );
 665:../../kernel/FreeRTOS/Source/portable/GCC/ARM_CM4F/port.c **** 			portNVIC_SYSTICK_LOAD_REG = ulTimerCountsForOneTick - 1UL;
 666:../../kernel/FreeRTOS/Source/portable/GCC/ARM_CM4F/port.c **** 
 667:../../kernel/FreeRTOS/Source/portable/GCC/ARM_CM4F/port.c **** 			/* Exit with interrpts enabled. */
 668:../../kernel/FreeRTOS/Source/portable/GCC/ARM_CM4F/port.c **** 			__asm volatile( "cpsie i" ::: "memory" );
 669:../../kernel/FreeRTOS/Source/portable/GCC/ARM_CM4F/port.c **** 		}
 670:../../kernel/FreeRTOS/Source/portable/GCC/ARM_CM4F/port.c **** 	}
 671:../../kernel/FreeRTOS/Source/portable/GCC/ARM_CM4F/port.c **** 
 672:../../kernel/FreeRTOS/Source/portable/GCC/ARM_CM4F/port.c **** #endif /* #if configUSE_TICKLESS_IDLE */
 673:../../kernel/FreeRTOS/Source/portable/GCC/ARM_CM4F/port.c **** /*-----------------------------------------------------------*/
 674:../../kernel/FreeRTOS/Source/portable/GCC/ARM_CM4F/port.c **** 
 675:../../kernel/FreeRTOS/Source/portable/GCC/ARM_CM4F/port.c **** /*
 676:../../kernel/FreeRTOS/Source/portable/GCC/ARM_CM4F/port.c ****  * Setup the systick timer to generate the tick interrupts at the required
 677:../../kernel/FreeRTOS/Source/portable/GCC/ARM_CM4F/port.c ****  * frequency.
 678:../../kernel/FreeRTOS/Source/portable/GCC/ARM_CM4F/port.c ****  */
 679:../../kernel/FreeRTOS/Source/portable/GCC/ARM_CM4F/port.c **** __attribute__(( weak )) void vPortSetupTimerInterrupt( void )
 680:../../kernel/FreeRTOS/Source/portable/GCC/ARM_CM4F/port.c **** {
 681:../../kernel/FreeRTOS/Source/portable/GCC/ARM_CM4F/port.c **** 	/* Calculate the constants required to configure the tick interrupt. */
 682:../../kernel/FreeRTOS/Source/portable/GCC/ARM_CM4F/port.c **** 	#if( configUSE_TICKLESS_IDLE == 1 )
 683:../../kernel/FreeRTOS/Source/portable/GCC/ARM_CM4F/port.c **** 	{
 684:../../kernel/FreeRTOS/Source/portable/GCC/ARM_CM4F/port.c **** 		ulTimerCountsForOneTick = ( configSYSTICK_CLOCK_HZ / configTICK_RATE_HZ );
 685:../../kernel/FreeRTOS/Source/portable/GCC/ARM_CM4F/port.c **** 		xMaximumPossibleSuppressedTicks = portMAX_24_BIT_NUMBER / ulTimerCountsForOneTick;
 686:../../kernel/FreeRTOS/Source/portable/GCC/ARM_CM4F/port.c **** 		ulStoppedTimerCompensation = portMISSED_COUNTS_FACTOR / ( configCPU_CLOCK_HZ / configSYSTICK_CLOC
 687:../../kernel/FreeRTOS/Source/portable/GCC/ARM_CM4F/port.c **** 	}
 688:../../kernel/FreeRTOS/Source/portable/GCC/ARM_CM4F/port.c **** 	#endif /* configUSE_TICKLESS_IDLE */
 689:../../kernel/FreeRTOS/Source/portable/GCC/ARM_CM4F/port.c **** 
 690:../../kernel/FreeRTOS/Source/portable/GCC/ARM_CM4F/port.c **** 	/* Stop and clear the SysTick. */
 691:../../kernel/FreeRTOS/Source/portable/GCC/ARM_CM4F/port.c **** 	portNVIC_SYSTICK_CTRL_REG = 0UL;
 692:../../kernel/FreeRTOS/Source/portable/GCC/ARM_CM4F/port.c **** 	portNVIC_SYSTICK_CURRENT_VALUE_REG = 0UL;
 693:../../kernel/FreeRTOS/Source/portable/GCC/ARM_CM4F/port.c **** 
 694:../../kernel/FreeRTOS/Source/portable/GCC/ARM_CM4F/port.c **** 	/* Configure SysTick to interrupt at the requested rate. */
 695:../../kernel/FreeRTOS/Source/portable/GCC/ARM_CM4F/port.c **** 	portNVIC_SYSTICK_LOAD_REG = ( configSYSTICK_CLOCK_HZ / configTICK_RATE_HZ ) - 1UL;
 696:../../kernel/FreeRTOS/Source/portable/GCC/ARM_CM4F/port.c **** 	portNVIC_SYSTICK_CTRL_REG = ( portNVIC_SYSTICK_CLK_BIT | portNVIC_SYSTICK_INT_BIT | portNVIC_SYSTI
 697:../../kernel/FreeRTOS/Source/portable/GCC/ARM_CM4F/port.c **** }
 698:../../kernel/FreeRTOS/Source/portable/GCC/ARM_CM4F/port.c **** /*-----------------------------------------------------------*/
 699:../../kernel/FreeRTOS/Source/portable/GCC/ARM_CM4F/port.c **** 
 700:../../kernel/FreeRTOS/Source/portable/GCC/ARM_CM4F/port.c **** /* This is a naked function. */
 701:../../kernel/FreeRTOS/Source/portable/GCC/ARM_CM4F/port.c **** static void vPortEnableVFP( void )
 702:../../kernel/FreeRTOS/Source/portable/GCC/ARM_CM4F/port.c **** {
 150              		.loc 1 702 1 is_stmt 1 view -0
 151              		.cfi_startproc
 152              		@ Naked Function: prologue and epilogue provided by programmer.
 153              		@ args = 0, pretend = 0, frame = 0
ARM GAS  /tmp/cc5qDK7o.s 			page 16


 154              		@ frame_needed = 0, uses_anonymous_args = 0
 703:../../kernel/FreeRTOS/Source/portable/GCC/ARM_CM4F/port.c **** 	__asm volatile
 155              		.loc 1 703 2 view .LVU4
 156              		.syntax unified
 157              	@ 703 "../../kernel/FreeRTOS/Source/portable/GCC/ARM_CM4F/port.c" 1
 158 0000 DFF80C00 			ldr.w r0, =0xE000ED88		
 159 0004 0168     		ldr r1, [r0]				
 160              									
 161 0006 41F47001 		orr r1, r1, #( 0xf << 20 )	
 162 000a 0160     		str r1, [r0]				
 163 000c 7047     		bx r14						
 164              	@ 0 "" 2
 165              	@ ../../kernel/FreeRTOS/Source/portable/GCC/ARM_CM4F/port.c:712: }
 704:../../kernel/FreeRTOS/Source/portable/GCC/ARM_CM4F/port.c **** 	(
 705:../../kernel/FreeRTOS/Source/portable/GCC/ARM_CM4F/port.c **** 		"	ldr.w r0, =0xE000ED88		\n" /* The FPU enable bits are in the CPACR. */
 706:../../kernel/FreeRTOS/Source/portable/GCC/ARM_CM4F/port.c **** 		"	ldr r1, [r0]				\n"
 707:../../kernel/FreeRTOS/Source/portable/GCC/ARM_CM4F/port.c **** 		"								\n"
 708:../../kernel/FreeRTOS/Source/portable/GCC/ARM_CM4F/port.c **** 		"	orr r1, r1, #( 0xf << 20 )	\n" /* Enable CP10 and CP11 coprocessors, then save back. */
 709:../../kernel/FreeRTOS/Source/portable/GCC/ARM_CM4F/port.c **** 		"	str r1, [r0]				\n"
 710:../../kernel/FreeRTOS/Source/portable/GCC/ARM_CM4F/port.c **** 		"	bx r14						"
 711:../../kernel/FreeRTOS/Source/portable/GCC/ARM_CM4F/port.c **** 	);
 712:../../kernel/FreeRTOS/Source/portable/GCC/ARM_CM4F/port.c **** }
 166              		.loc 1 712 1 is_stmt 0 view .LVU5
 167              		.thumb
 168              		.syntax unified
 169              		.cfi_endproc
 170              	.LFE16:
 171              		.size	vPortEnableVFP, .-vPortEnableVFP
 172 000e 0000     		.section	.text.prvTaskExitError,"ax",%progbits
 173              		.align	1
 174              		.p2align 2,,3
 175              		.syntax unified
 176              		.thumb
 177              		.thumb_func
 178              		.fpu fpv4-sp-d16
 179              		.type	prvTaskExitError, %function
 180              	prvTaskExitError:
 181              	.LFB5:
 218:../../kernel/FreeRTOS/Source/portable/GCC/ARM_CM4F/port.c **** volatile uint32_t ulDummy = 0;
 182              		.loc 1 218 1 is_stmt 1 view -0
 183              		.cfi_startproc
 184              		@ args = 0, pretend = 0, frame = 8
 185              		@ frame_needed = 0, uses_anonymous_args = 0
 186              		@ link register save eliminated.
 219:../../kernel/FreeRTOS/Source/portable/GCC/ARM_CM4F/port.c **** 
 187              		.loc 1 219 1 view .LVU7
 188              	@ ../../kernel/FreeRTOS/Source/portable/GCC/ARM_CM4F/port.c:227: 	configASSERT( uxCriticalNesting =
 227:../../kernel/FreeRTOS/Source/portable/GCC/ARM_CM4F/port.c **** 	portDISABLE_INTERRUPTS();
 189              		.loc 1 227 2 is_stmt 0 view .LVU8
 190 0000 0E4B     		ldr	r3, .L11	@ tmp115,
 191 0002 1B68     		ldr	r3, [r3]	@ uxCriticalNesting, uxCriticalNesting
 192              	@ ../../kernel/FreeRTOS/Source/portable/GCC/ARM_CM4F/port.c:218: {
 218:../../kernel/FreeRTOS/Source/portable/GCC/ARM_CM4F/port.c **** volatile uint32_t ulDummy = 0;
 193              		.loc 1 218 1 view .LVU9
 194 0004 82B0     		sub	sp, sp, #8	@,,
 195              		.cfi_def_cfa_offset 8
 196              	@ ../../kernel/FreeRTOS/Source/portable/GCC/ARM_CM4F/port.c:219: volatile uint32_t ulDummy = 0;
ARM GAS  /tmp/cc5qDK7o.s 			page 17


 219:../../kernel/FreeRTOS/Source/portable/GCC/ARM_CM4F/port.c **** 
 197              		.loc 1 219 19 view .LVU10
 198 0006 0022     		movs	r2, #0	@ tmp114,
 199              	@ ../../kernel/FreeRTOS/Source/portable/GCC/ARM_CM4F/port.c:227: 	configASSERT( uxCriticalNesting =
 227:../../kernel/FreeRTOS/Source/portable/GCC/ARM_CM4F/port.c **** 	portDISABLE_INTERRUPTS();
 200              		.loc 1 227 2 view .LVU11
 201 0008 0133     		adds	r3, r3, #1	@ uxCriticalNesting, uxCriticalNesting,
 202              	@ ../../kernel/FreeRTOS/Source/portable/GCC/ARM_CM4F/port.c:219: volatile uint32_t ulDummy = 0;
 219:../../kernel/FreeRTOS/Source/portable/GCC/ARM_CM4F/port.c **** 
 203              		.loc 1 219 19 view .LVU12
 204 000a 0192     		str	r2, [sp, #4]	@ tmp114, ulDummy
 227:../../kernel/FreeRTOS/Source/portable/GCC/ARM_CM4F/port.c **** 	portDISABLE_INTERRUPTS();
 205              		.loc 1 227 2 is_stmt 1 view .LVU13
 206 000c 08D0     		beq	.L5		@,
 207              	.LBB45:
 208              	.LBI45:
 217:../../kernel/FreeRTOS/Source/portable/GCC/ARM_CM4F/port.c **** {
 209              		.loc 1 217 13 view .LVU14
 210              	.LBB46:
 227:../../kernel/FreeRTOS/Source/portable/GCC/ARM_CM4F/port.c **** 	portDISABLE_INTERRUPTS();
 211              		.loc 1 227 2 view .LVU15
 212              	.LBB47:
 213              	.LBI47:
 214              		.file 2 "../../kernel/FreeRTOS/Source/portable/GCC/ARM_CM4F/portmacro.h"
   1:../../kernel/FreeRTOS/Source/portable/GCC/ARM_CM4F/portmacro.h **** /*
   2:../../kernel/FreeRTOS/Source/portable/GCC/ARM_CM4F/portmacro.h ****  * FreeRTOS Kernel V10.0.1
   3:../../kernel/FreeRTOS/Source/portable/GCC/ARM_CM4F/portmacro.h ****  * Copyright (C) 2017 Amazon.com, Inc. or its affiliates.  All Rights Reserved.
   4:../../kernel/FreeRTOS/Source/portable/GCC/ARM_CM4F/portmacro.h ****  *
   5:../../kernel/FreeRTOS/Source/portable/GCC/ARM_CM4F/portmacro.h ****  * Permission is hereby granted, free of charge, to any person obtaining a copy of
   6:../../kernel/FreeRTOS/Source/portable/GCC/ARM_CM4F/portmacro.h ****  * this software and associated documentation files (the "Software"), to deal in
   7:../../kernel/FreeRTOS/Source/portable/GCC/ARM_CM4F/portmacro.h ****  * the Software without restriction, including without limitation the rights to
   8:../../kernel/FreeRTOS/Source/portable/GCC/ARM_CM4F/portmacro.h ****  * use, copy, modify, merge, publish, distribute, sublicense, and/or sell copies of
   9:../../kernel/FreeRTOS/Source/portable/GCC/ARM_CM4F/portmacro.h ****  * the Software, and to permit persons to whom the Software is furnished to do so,
  10:../../kernel/FreeRTOS/Source/portable/GCC/ARM_CM4F/portmacro.h ****  * subject to the following conditions:
  11:../../kernel/FreeRTOS/Source/portable/GCC/ARM_CM4F/portmacro.h ****  *
  12:../../kernel/FreeRTOS/Source/portable/GCC/ARM_CM4F/portmacro.h ****  * The above copyright notice and this permission notice shall be included in all
  13:../../kernel/FreeRTOS/Source/portable/GCC/ARM_CM4F/portmacro.h ****  * copies or substantial portions of the Software.
  14:../../kernel/FreeRTOS/Source/portable/GCC/ARM_CM4F/portmacro.h ****  *
  15:../../kernel/FreeRTOS/Source/portable/GCC/ARM_CM4F/portmacro.h ****  * THE SOFTWARE IS PROVIDED "AS IS", WITHOUT WARRANTY OF ANY KIND, EXPRESS OR
  16:../../kernel/FreeRTOS/Source/portable/GCC/ARM_CM4F/portmacro.h ****  * IMPLIED, INCLUDING BUT NOT LIMITED TO THE WARRANTIES OF MERCHANTABILITY, FITNESS
  17:../../kernel/FreeRTOS/Source/portable/GCC/ARM_CM4F/portmacro.h ****  * FOR A PARTICULAR PURPOSE AND NONINFRINGEMENT. IN NO EVENT SHALL THE AUTHORS OR
  18:../../kernel/FreeRTOS/Source/portable/GCC/ARM_CM4F/portmacro.h ****  * COPYRIGHT HOLDERS BE LIABLE FOR ANY CLAIM, DAMAGES OR OTHER LIABILITY, WHETHER
  19:../../kernel/FreeRTOS/Source/portable/GCC/ARM_CM4F/portmacro.h ****  * IN AN ACTION OF CONTRACT, TORT OR OTHERWISE, ARISING FROM, OUT OF OR IN
  20:../../kernel/FreeRTOS/Source/portable/GCC/ARM_CM4F/portmacro.h ****  * CONNECTION WITH THE SOFTWARE OR THE USE OR OTHER DEALINGS IN THE SOFTWARE.
  21:../../kernel/FreeRTOS/Source/portable/GCC/ARM_CM4F/portmacro.h ****  *
  22:../../kernel/FreeRTOS/Source/portable/GCC/ARM_CM4F/portmacro.h ****  * http://www.FreeRTOS.org
  23:../../kernel/FreeRTOS/Source/portable/GCC/ARM_CM4F/portmacro.h ****  * http://aws.amazon.com/freertos
  24:../../kernel/FreeRTOS/Source/portable/GCC/ARM_CM4F/portmacro.h ****  *
  25:../../kernel/FreeRTOS/Source/portable/GCC/ARM_CM4F/portmacro.h ****  * 1 tab == 4 spaces!
  26:../../kernel/FreeRTOS/Source/portable/GCC/ARM_CM4F/portmacro.h ****  */
  27:../../kernel/FreeRTOS/Source/portable/GCC/ARM_CM4F/portmacro.h **** 
  28:../../kernel/FreeRTOS/Source/portable/GCC/ARM_CM4F/portmacro.h **** 
  29:../../kernel/FreeRTOS/Source/portable/GCC/ARM_CM4F/portmacro.h **** #ifndef PORTMACRO_H
  30:../../kernel/FreeRTOS/Source/portable/GCC/ARM_CM4F/portmacro.h **** #define PORTMACRO_H
  31:../../kernel/FreeRTOS/Source/portable/GCC/ARM_CM4F/portmacro.h **** 
  32:../../kernel/FreeRTOS/Source/portable/GCC/ARM_CM4F/portmacro.h **** #ifdef __cplusplus
  33:../../kernel/FreeRTOS/Source/portable/GCC/ARM_CM4F/portmacro.h **** extern "C" {
ARM GAS  /tmp/cc5qDK7o.s 			page 18


  34:../../kernel/FreeRTOS/Source/portable/GCC/ARM_CM4F/portmacro.h **** #endif
  35:../../kernel/FreeRTOS/Source/portable/GCC/ARM_CM4F/portmacro.h **** 
  36:../../kernel/FreeRTOS/Source/portable/GCC/ARM_CM4F/portmacro.h **** /*-----------------------------------------------------------
  37:../../kernel/FreeRTOS/Source/portable/GCC/ARM_CM4F/portmacro.h ****  * Port specific definitions.
  38:../../kernel/FreeRTOS/Source/portable/GCC/ARM_CM4F/portmacro.h ****  *
  39:../../kernel/FreeRTOS/Source/portable/GCC/ARM_CM4F/portmacro.h ****  * The settings in this file configure FreeRTOS correctly for the
  40:../../kernel/FreeRTOS/Source/portable/GCC/ARM_CM4F/portmacro.h ****  * given hardware and compiler.
  41:../../kernel/FreeRTOS/Source/portable/GCC/ARM_CM4F/portmacro.h ****  *
  42:../../kernel/FreeRTOS/Source/portable/GCC/ARM_CM4F/portmacro.h ****  * These settings should not be altered.
  43:../../kernel/FreeRTOS/Source/portable/GCC/ARM_CM4F/portmacro.h ****  *-----------------------------------------------------------
  44:../../kernel/FreeRTOS/Source/portable/GCC/ARM_CM4F/portmacro.h ****  */
  45:../../kernel/FreeRTOS/Source/portable/GCC/ARM_CM4F/portmacro.h **** 
  46:../../kernel/FreeRTOS/Source/portable/GCC/ARM_CM4F/portmacro.h **** /* Type definitions. */
  47:../../kernel/FreeRTOS/Source/portable/GCC/ARM_CM4F/portmacro.h **** #define portCHAR		char
  48:../../kernel/FreeRTOS/Source/portable/GCC/ARM_CM4F/portmacro.h **** #define portFLOAT		float
  49:../../kernel/FreeRTOS/Source/portable/GCC/ARM_CM4F/portmacro.h **** #define portDOUBLE		double
  50:../../kernel/FreeRTOS/Source/portable/GCC/ARM_CM4F/portmacro.h **** #define portLONG		long
  51:../../kernel/FreeRTOS/Source/portable/GCC/ARM_CM4F/portmacro.h **** #define portSHORT		short
  52:../../kernel/FreeRTOS/Source/portable/GCC/ARM_CM4F/portmacro.h **** #define portSTACK_TYPE	uint32_t
  53:../../kernel/FreeRTOS/Source/portable/GCC/ARM_CM4F/portmacro.h **** #define portBASE_TYPE	long
  54:../../kernel/FreeRTOS/Source/portable/GCC/ARM_CM4F/portmacro.h **** 
  55:../../kernel/FreeRTOS/Source/portable/GCC/ARM_CM4F/portmacro.h **** typedef portSTACK_TYPE StackType_t;
  56:../../kernel/FreeRTOS/Source/portable/GCC/ARM_CM4F/portmacro.h **** typedef long BaseType_t;
  57:../../kernel/FreeRTOS/Source/portable/GCC/ARM_CM4F/portmacro.h **** typedef unsigned long UBaseType_t;
  58:../../kernel/FreeRTOS/Source/portable/GCC/ARM_CM4F/portmacro.h **** 
  59:../../kernel/FreeRTOS/Source/portable/GCC/ARM_CM4F/portmacro.h **** #if( configUSE_16_BIT_TICKS == 1 )
  60:../../kernel/FreeRTOS/Source/portable/GCC/ARM_CM4F/portmacro.h **** 	typedef uint16_t TickType_t;
  61:../../kernel/FreeRTOS/Source/portable/GCC/ARM_CM4F/portmacro.h **** 	#define portMAX_DELAY ( TickType_t ) 0xffff
  62:../../kernel/FreeRTOS/Source/portable/GCC/ARM_CM4F/portmacro.h **** #else
  63:../../kernel/FreeRTOS/Source/portable/GCC/ARM_CM4F/portmacro.h **** 	typedef uint32_t TickType_t;
  64:../../kernel/FreeRTOS/Source/portable/GCC/ARM_CM4F/portmacro.h **** 	#define portMAX_DELAY ( TickType_t ) 0xffffffffUL
  65:../../kernel/FreeRTOS/Source/portable/GCC/ARM_CM4F/portmacro.h **** 
  66:../../kernel/FreeRTOS/Source/portable/GCC/ARM_CM4F/portmacro.h **** 	/* 32-bit tick type on a 32-bit architecture, so reads of the tick count do
  67:../../kernel/FreeRTOS/Source/portable/GCC/ARM_CM4F/portmacro.h **** 	not need to be guarded with a critical section. */
  68:../../kernel/FreeRTOS/Source/portable/GCC/ARM_CM4F/portmacro.h **** 	#define portTICK_TYPE_IS_ATOMIC 1
  69:../../kernel/FreeRTOS/Source/portable/GCC/ARM_CM4F/portmacro.h **** #endif
  70:../../kernel/FreeRTOS/Source/portable/GCC/ARM_CM4F/portmacro.h **** /*-----------------------------------------------------------*/
  71:../../kernel/FreeRTOS/Source/portable/GCC/ARM_CM4F/portmacro.h **** 
  72:../../kernel/FreeRTOS/Source/portable/GCC/ARM_CM4F/portmacro.h **** /* Architecture specifics. */
  73:../../kernel/FreeRTOS/Source/portable/GCC/ARM_CM4F/portmacro.h **** #define portSTACK_GROWTH			( -1 )
  74:../../kernel/FreeRTOS/Source/portable/GCC/ARM_CM4F/portmacro.h **** #define portTICK_PERIOD_MS			( ( TickType_t ) 1000 / configTICK_RATE_HZ )
  75:../../kernel/FreeRTOS/Source/portable/GCC/ARM_CM4F/portmacro.h **** #define portBYTE_ALIGNMENT			8
  76:../../kernel/FreeRTOS/Source/portable/GCC/ARM_CM4F/portmacro.h **** /*-----------------------------------------------------------*/
  77:../../kernel/FreeRTOS/Source/portable/GCC/ARM_CM4F/portmacro.h **** 
  78:../../kernel/FreeRTOS/Source/portable/GCC/ARM_CM4F/portmacro.h **** /* Scheduler utilities. */
  79:../../kernel/FreeRTOS/Source/portable/GCC/ARM_CM4F/portmacro.h **** #define portYIELD() 															\
  80:../../kernel/FreeRTOS/Source/portable/GCC/ARM_CM4F/portmacro.h **** {																				\
  81:../../kernel/FreeRTOS/Source/portable/GCC/ARM_CM4F/portmacro.h **** 	/* Set a PendSV to request a context switch. */								\
  82:../../kernel/FreeRTOS/Source/portable/GCC/ARM_CM4F/portmacro.h **** 	portNVIC_INT_CTRL_REG = portNVIC_PENDSVSET_BIT;								\
  83:../../kernel/FreeRTOS/Source/portable/GCC/ARM_CM4F/portmacro.h **** 																				\
  84:../../kernel/FreeRTOS/Source/portable/GCC/ARM_CM4F/portmacro.h **** 	/* Barriers are normally not required but do ensure the code is completely	\
  85:../../kernel/FreeRTOS/Source/portable/GCC/ARM_CM4F/portmacro.h **** 	within the specified behaviour for the architecture. */						\
  86:../../kernel/FreeRTOS/Source/portable/GCC/ARM_CM4F/portmacro.h **** 	__asm volatile( "dsb" ::: "memory" );										\
  87:../../kernel/FreeRTOS/Source/portable/GCC/ARM_CM4F/portmacro.h **** 	__asm volatile( "isb" );													\
  88:../../kernel/FreeRTOS/Source/portable/GCC/ARM_CM4F/portmacro.h **** }
  89:../../kernel/FreeRTOS/Source/portable/GCC/ARM_CM4F/portmacro.h **** 
  90:../../kernel/FreeRTOS/Source/portable/GCC/ARM_CM4F/portmacro.h **** #define portNVIC_INT_CTRL_REG		( * ( ( volatile uint32_t * ) 0xe000ed04 ) )
ARM GAS  /tmp/cc5qDK7o.s 			page 19


  91:../../kernel/FreeRTOS/Source/portable/GCC/ARM_CM4F/portmacro.h **** #define portNVIC_PENDSVSET_BIT		( 1UL << 28UL )
  92:../../kernel/FreeRTOS/Source/portable/GCC/ARM_CM4F/portmacro.h **** #define portEND_SWITCHING_ISR( xSwitchRequired ) if( xSwitchRequired != pdFALSE ) portYIELD()
  93:../../kernel/FreeRTOS/Source/portable/GCC/ARM_CM4F/portmacro.h **** #define portYIELD_FROM_ISR( x ) portEND_SWITCHING_ISR( x )
  94:../../kernel/FreeRTOS/Source/portable/GCC/ARM_CM4F/portmacro.h **** /*-----------------------------------------------------------*/
  95:../../kernel/FreeRTOS/Source/portable/GCC/ARM_CM4F/portmacro.h **** 
  96:../../kernel/FreeRTOS/Source/portable/GCC/ARM_CM4F/portmacro.h **** /* Critical section management. */
  97:../../kernel/FreeRTOS/Source/portable/GCC/ARM_CM4F/portmacro.h **** extern void vPortEnterCritical( void );
  98:../../kernel/FreeRTOS/Source/portable/GCC/ARM_CM4F/portmacro.h **** extern void vPortExitCritical( void );
  99:../../kernel/FreeRTOS/Source/portable/GCC/ARM_CM4F/portmacro.h **** #define portSET_INTERRUPT_MASK_FROM_ISR()		ulPortRaiseBASEPRI()
 100:../../kernel/FreeRTOS/Source/portable/GCC/ARM_CM4F/portmacro.h **** #define portCLEAR_INTERRUPT_MASK_FROM_ISR(x)	vPortSetBASEPRI(x)
 101:../../kernel/FreeRTOS/Source/portable/GCC/ARM_CM4F/portmacro.h **** #define portDISABLE_INTERRUPTS()				vPortRaiseBASEPRI()
 102:../../kernel/FreeRTOS/Source/portable/GCC/ARM_CM4F/portmacro.h **** #define portENABLE_INTERRUPTS()					vPortSetBASEPRI(0)
 103:../../kernel/FreeRTOS/Source/portable/GCC/ARM_CM4F/portmacro.h **** #define portENTER_CRITICAL()					vPortEnterCritical()
 104:../../kernel/FreeRTOS/Source/portable/GCC/ARM_CM4F/portmacro.h **** #define portEXIT_CRITICAL()						vPortExitCritical()
 105:../../kernel/FreeRTOS/Source/portable/GCC/ARM_CM4F/portmacro.h **** 
 106:../../kernel/FreeRTOS/Source/portable/GCC/ARM_CM4F/portmacro.h **** /*-----------------------------------------------------------*/
 107:../../kernel/FreeRTOS/Source/portable/GCC/ARM_CM4F/portmacro.h **** 
 108:../../kernel/FreeRTOS/Source/portable/GCC/ARM_CM4F/portmacro.h **** /* Task function macros as described on the FreeRTOS.org WEB site.  These are
 109:../../kernel/FreeRTOS/Source/portable/GCC/ARM_CM4F/portmacro.h **** not necessary for to use this port.  They are defined so the common demo files
 110:../../kernel/FreeRTOS/Source/portable/GCC/ARM_CM4F/portmacro.h **** (which build with all the ports) will build. */
 111:../../kernel/FreeRTOS/Source/portable/GCC/ARM_CM4F/portmacro.h **** #define portTASK_FUNCTION_PROTO( vFunction, pvParameters ) void vFunction( void *pvParameters )
 112:../../kernel/FreeRTOS/Source/portable/GCC/ARM_CM4F/portmacro.h **** #define portTASK_FUNCTION( vFunction, pvParameters ) void vFunction( void *pvParameters )
 113:../../kernel/FreeRTOS/Source/portable/GCC/ARM_CM4F/portmacro.h **** /*-----------------------------------------------------------*/
 114:../../kernel/FreeRTOS/Source/portable/GCC/ARM_CM4F/portmacro.h **** 
 115:../../kernel/FreeRTOS/Source/portable/GCC/ARM_CM4F/portmacro.h **** /* Tickless idle/low power functionality. */
 116:../../kernel/FreeRTOS/Source/portable/GCC/ARM_CM4F/portmacro.h **** #ifndef portSUPPRESS_TICKS_AND_SLEEP
 117:../../kernel/FreeRTOS/Source/portable/GCC/ARM_CM4F/portmacro.h **** 	extern void vPortSuppressTicksAndSleep( TickType_t xExpectedIdleTime );
 118:../../kernel/FreeRTOS/Source/portable/GCC/ARM_CM4F/portmacro.h **** 	#define portSUPPRESS_TICKS_AND_SLEEP( xExpectedIdleTime ) vPortSuppressTicksAndSleep( xExpectedIdl
 119:../../kernel/FreeRTOS/Source/portable/GCC/ARM_CM4F/portmacro.h **** #endif
 120:../../kernel/FreeRTOS/Source/portable/GCC/ARM_CM4F/portmacro.h **** /*-----------------------------------------------------------*/
 121:../../kernel/FreeRTOS/Source/portable/GCC/ARM_CM4F/portmacro.h **** 
 122:../../kernel/FreeRTOS/Source/portable/GCC/ARM_CM4F/portmacro.h **** /* Architecture specific optimisations. */
 123:../../kernel/FreeRTOS/Source/portable/GCC/ARM_CM4F/portmacro.h **** #ifndef configUSE_PORT_OPTIMISED_TASK_SELECTION
 124:../../kernel/FreeRTOS/Source/portable/GCC/ARM_CM4F/portmacro.h **** 	#define configUSE_PORT_OPTIMISED_TASK_SELECTION 1
 125:../../kernel/FreeRTOS/Source/portable/GCC/ARM_CM4F/portmacro.h **** #endif
 126:../../kernel/FreeRTOS/Source/portable/GCC/ARM_CM4F/portmacro.h **** 
 127:../../kernel/FreeRTOS/Source/portable/GCC/ARM_CM4F/portmacro.h **** #if configUSE_PORT_OPTIMISED_TASK_SELECTION == 1
 128:../../kernel/FreeRTOS/Source/portable/GCC/ARM_CM4F/portmacro.h **** 
 129:../../kernel/FreeRTOS/Source/portable/GCC/ARM_CM4F/portmacro.h **** 	/* Generic helper function. */
 130:../../kernel/FreeRTOS/Source/portable/GCC/ARM_CM4F/portmacro.h **** 	__attribute__( ( always_inline ) ) static inline uint8_t ucPortCountLeadingZeros( uint32_t ulBitma
 131:../../kernel/FreeRTOS/Source/portable/GCC/ARM_CM4F/portmacro.h **** 	{
 132:../../kernel/FreeRTOS/Source/portable/GCC/ARM_CM4F/portmacro.h **** 	uint8_t ucReturn;
 133:../../kernel/FreeRTOS/Source/portable/GCC/ARM_CM4F/portmacro.h **** 
 134:../../kernel/FreeRTOS/Source/portable/GCC/ARM_CM4F/portmacro.h **** 		__asm volatile ( "clz %0, %1" : "=r" ( ucReturn ) : "r" ( ulBitmap ) : "memory" );
 135:../../kernel/FreeRTOS/Source/portable/GCC/ARM_CM4F/portmacro.h **** 		return ucReturn;
 136:../../kernel/FreeRTOS/Source/portable/GCC/ARM_CM4F/portmacro.h **** 	}
 137:../../kernel/FreeRTOS/Source/portable/GCC/ARM_CM4F/portmacro.h **** 
 138:../../kernel/FreeRTOS/Source/portable/GCC/ARM_CM4F/portmacro.h **** 	/* Check the configuration. */
 139:../../kernel/FreeRTOS/Source/portable/GCC/ARM_CM4F/portmacro.h **** 	#if( configMAX_PRIORITIES > 32 )
 140:../../kernel/FreeRTOS/Source/portable/GCC/ARM_CM4F/portmacro.h **** 		#error configUSE_PORT_OPTIMISED_TASK_SELECTION can only be set to 1 when configMAX_PRIORITIES is 
 141:../../kernel/FreeRTOS/Source/portable/GCC/ARM_CM4F/portmacro.h **** 	#endif
 142:../../kernel/FreeRTOS/Source/portable/GCC/ARM_CM4F/portmacro.h **** 
 143:../../kernel/FreeRTOS/Source/portable/GCC/ARM_CM4F/portmacro.h **** 	/* Store/clear the ready priorities in a bit map. */
 144:../../kernel/FreeRTOS/Source/portable/GCC/ARM_CM4F/portmacro.h **** 	#define portRECORD_READY_PRIORITY( uxPriority, uxReadyPriorities ) ( uxReadyPriorities ) |= ( 1UL 
 145:../../kernel/FreeRTOS/Source/portable/GCC/ARM_CM4F/portmacro.h **** 	#define portRESET_READY_PRIORITY( uxPriority, uxReadyPriorities ) ( uxReadyPriorities ) &= ~( 1UL 
 146:../../kernel/FreeRTOS/Source/portable/GCC/ARM_CM4F/portmacro.h **** 
 147:../../kernel/FreeRTOS/Source/portable/GCC/ARM_CM4F/portmacro.h **** 	/*-----------------------------------------------------------*/
ARM GAS  /tmp/cc5qDK7o.s 			page 20


 148:../../kernel/FreeRTOS/Source/portable/GCC/ARM_CM4F/portmacro.h **** 
 149:../../kernel/FreeRTOS/Source/portable/GCC/ARM_CM4F/portmacro.h **** 	#define portGET_HIGHEST_PRIORITY( uxTopPriority, uxReadyPriorities ) uxTopPriority = ( 31UL - ( ui
 150:../../kernel/FreeRTOS/Source/portable/GCC/ARM_CM4F/portmacro.h **** 
 151:../../kernel/FreeRTOS/Source/portable/GCC/ARM_CM4F/portmacro.h **** #endif /* configUSE_PORT_OPTIMISED_TASK_SELECTION */
 152:../../kernel/FreeRTOS/Source/portable/GCC/ARM_CM4F/portmacro.h **** 
 153:../../kernel/FreeRTOS/Source/portable/GCC/ARM_CM4F/portmacro.h **** /*-----------------------------------------------------------*/
 154:../../kernel/FreeRTOS/Source/portable/GCC/ARM_CM4F/portmacro.h **** 
 155:../../kernel/FreeRTOS/Source/portable/GCC/ARM_CM4F/portmacro.h **** #ifdef configASSERT
 156:../../kernel/FreeRTOS/Source/portable/GCC/ARM_CM4F/portmacro.h **** 	void vPortValidateInterruptPriority( void );
 157:../../kernel/FreeRTOS/Source/portable/GCC/ARM_CM4F/portmacro.h **** 	#define portASSERT_IF_INTERRUPT_PRIORITY_INVALID() 	vPortValidateInterruptPriority()
 158:../../kernel/FreeRTOS/Source/portable/GCC/ARM_CM4F/portmacro.h **** #endif
 159:../../kernel/FreeRTOS/Source/portable/GCC/ARM_CM4F/portmacro.h **** 
 160:../../kernel/FreeRTOS/Source/portable/GCC/ARM_CM4F/portmacro.h **** /* portNOP() is not required by this port. */
 161:../../kernel/FreeRTOS/Source/portable/GCC/ARM_CM4F/portmacro.h **** #define portNOP()
 162:../../kernel/FreeRTOS/Source/portable/GCC/ARM_CM4F/portmacro.h **** 
 163:../../kernel/FreeRTOS/Source/portable/GCC/ARM_CM4F/portmacro.h **** #define portINLINE	__inline
 164:../../kernel/FreeRTOS/Source/portable/GCC/ARM_CM4F/portmacro.h **** 
 165:../../kernel/FreeRTOS/Source/portable/GCC/ARM_CM4F/portmacro.h **** #ifndef portFORCE_INLINE
 166:../../kernel/FreeRTOS/Source/portable/GCC/ARM_CM4F/portmacro.h **** 	#define portFORCE_INLINE inline __attribute__(( always_inline))
 167:../../kernel/FreeRTOS/Source/portable/GCC/ARM_CM4F/portmacro.h **** #endif
 168:../../kernel/FreeRTOS/Source/portable/GCC/ARM_CM4F/portmacro.h **** 
 169:../../kernel/FreeRTOS/Source/portable/GCC/ARM_CM4F/portmacro.h **** portFORCE_INLINE static BaseType_t xPortIsInsideInterrupt( void )
 170:../../kernel/FreeRTOS/Source/portable/GCC/ARM_CM4F/portmacro.h **** {
 171:../../kernel/FreeRTOS/Source/portable/GCC/ARM_CM4F/portmacro.h **** uint32_t ulCurrentInterrupt;
 172:../../kernel/FreeRTOS/Source/portable/GCC/ARM_CM4F/portmacro.h **** BaseType_t xReturn;
 173:../../kernel/FreeRTOS/Source/portable/GCC/ARM_CM4F/portmacro.h **** 
 174:../../kernel/FreeRTOS/Source/portable/GCC/ARM_CM4F/portmacro.h **** 	/* Obtain the number of the currently executing interrupt. */
 175:../../kernel/FreeRTOS/Source/portable/GCC/ARM_CM4F/portmacro.h **** 	__asm volatile( "mrs %0, ipsr" : "=r"( ulCurrentInterrupt ) :: "memory" );
 176:../../kernel/FreeRTOS/Source/portable/GCC/ARM_CM4F/portmacro.h **** 
 177:../../kernel/FreeRTOS/Source/portable/GCC/ARM_CM4F/portmacro.h **** 	if( ulCurrentInterrupt == 0 )
 178:../../kernel/FreeRTOS/Source/portable/GCC/ARM_CM4F/portmacro.h **** 	{
 179:../../kernel/FreeRTOS/Source/portable/GCC/ARM_CM4F/portmacro.h **** 		xReturn = pdFALSE;
 180:../../kernel/FreeRTOS/Source/portable/GCC/ARM_CM4F/portmacro.h **** 	}
 181:../../kernel/FreeRTOS/Source/portable/GCC/ARM_CM4F/portmacro.h **** 	else
 182:../../kernel/FreeRTOS/Source/portable/GCC/ARM_CM4F/portmacro.h **** 	{
 183:../../kernel/FreeRTOS/Source/portable/GCC/ARM_CM4F/portmacro.h **** 		xReturn = pdTRUE;
 184:../../kernel/FreeRTOS/Source/portable/GCC/ARM_CM4F/portmacro.h **** 	}
 185:../../kernel/FreeRTOS/Source/portable/GCC/ARM_CM4F/portmacro.h **** 
 186:../../kernel/FreeRTOS/Source/portable/GCC/ARM_CM4F/portmacro.h **** 	return xReturn;
 187:../../kernel/FreeRTOS/Source/portable/GCC/ARM_CM4F/portmacro.h **** }
 188:../../kernel/FreeRTOS/Source/portable/GCC/ARM_CM4F/portmacro.h **** 
 189:../../kernel/FreeRTOS/Source/portable/GCC/ARM_CM4F/portmacro.h **** /*-----------------------------------------------------------*/
 190:../../kernel/FreeRTOS/Source/portable/GCC/ARM_CM4F/portmacro.h **** 
 191:../../kernel/FreeRTOS/Source/portable/GCC/ARM_CM4F/portmacro.h **** portFORCE_INLINE static void vPortRaiseBASEPRI( void )
 215              		.loc 2 191 30 view .LVU16
 216              	.LBB48:
 192:../../kernel/FreeRTOS/Source/portable/GCC/ARM_CM4F/portmacro.h **** {
 193:../../kernel/FreeRTOS/Source/portable/GCC/ARM_CM4F/portmacro.h **** uint32_t ulNewBASEPRI;
 217              		.loc 2 193 1 view .LVU17
 194:../../kernel/FreeRTOS/Source/portable/GCC/ARM_CM4F/portmacro.h **** 
 195:../../kernel/FreeRTOS/Source/portable/GCC/ARM_CM4F/portmacro.h **** 	__asm volatile
 218              		.loc 2 195 2 view .LVU18
 219              		.syntax unified
 220              	@ 195 "../../kernel/FreeRTOS/Source/portable/GCC/ARM_CM4F/portmacro.h" 1
 221 000e 4FF0A003 			mov r3, #160													@ ulNewBASEPRI,
 222 0012 83F31188 		msr basepri, r3												@ ulNewBASEPRI
 223 0016 BFF36F8F 		isb														
ARM GAS  /tmp/cc5qDK7o.s 			page 21


 224 001a BFF34F8F 		dsb														
 225              	
 226              	@ 0 "" 2
 227              	.LVL0:
 228              		.thumb
 229              		.syntax unified
 230              	.L6:
 231              		.loc 2 195 2 is_stmt 0 view .LVU19
 232              	.LBE48:
 233              	.LBE47:
 227:../../kernel/FreeRTOS/Source/portable/GCC/ARM_CM4F/port.c **** 	portDISABLE_INTERRUPTS();
 234              		.loc 1 227 2 is_stmt 1 view .LVU20
 227:../../kernel/FreeRTOS/Source/portable/GCC/ARM_CM4F/port.c **** 	portDISABLE_INTERRUPTS();
 235              		.loc 1 227 2 view .LVU21
 227:../../kernel/FreeRTOS/Source/portable/GCC/ARM_CM4F/port.c **** 	portDISABLE_INTERRUPTS();
 236              		.loc 1 227 2 view .LVU22
 227:../../kernel/FreeRTOS/Source/portable/GCC/ARM_CM4F/port.c **** 	portDISABLE_INTERRUPTS();
 237              		.loc 1 227 2 view .LVU23
 238 001e FEE7     		b	.L6		@
 239              	.L5:
 227:../../kernel/FreeRTOS/Source/portable/GCC/ARM_CM4F/port.c **** 	portDISABLE_INTERRUPTS();
 240              		.loc 1 227 2 is_stmt 0 view .LVU24
 241              	.LBE46:
 242              	.LBE45:
 227:../../kernel/FreeRTOS/Source/portable/GCC/ARM_CM4F/port.c **** 	portDISABLE_INTERRUPTS();
 243              		.loc 1 227 43 is_stmt 1 view .LVU25
 228:../../kernel/FreeRTOS/Source/portable/GCC/ARM_CM4F/port.c **** 	while( ulDummy == 0 )
 244              		.loc 1 228 2 view .LVU26
 245              	.LBB49:
 246              	.LBI49:
 191:../../kernel/FreeRTOS/Source/portable/GCC/ARM_CM4F/portmacro.h **** {
 247              		.loc 2 191 30 view .LVU27
 248              	.LBB50:
 193:../../kernel/FreeRTOS/Source/portable/GCC/ARM_CM4F/portmacro.h **** 
 249              		.loc 2 193 1 view .LVU28
 250              		.loc 2 195 2 view .LVU29
 251              		.syntax unified
 252              	@ 195 "../../kernel/FreeRTOS/Source/portable/GCC/ARM_CM4F/portmacro.h" 1
 253 0020 4FF0A003 			mov r3, #160													@ ulNewBASEPRI,
 254 0024 83F31188 		msr basepri, r3												@ ulNewBASEPRI
 255 0028 BFF36F8F 		isb														
 256 002c BFF34F8F 		dsb														
 257              	
 258              	@ 0 "" 2
 259              	.LVL1:
 260              		.thumb
 261              		.syntax unified
 262              	.L7:
 263              		.loc 2 195 2 is_stmt 0 view .LVU30
 264              	.LBE50:
 265              	.LBE49:
 238:../../kernel/FreeRTOS/Source/portable/GCC/ARM_CM4F/port.c **** }
 266              		.loc 1 238 2 is_stmt 1 discriminator 1 view .LVU31
 267              	@ ../../kernel/FreeRTOS/Source/portable/GCC/ARM_CM4F/port.c:229: 	while( ulDummy == 0 )
 229:../../kernel/FreeRTOS/Source/portable/GCC/ARM_CM4F/port.c **** 	{
 268              		.loc 1 229 17 is_stmt 0 discriminator 1 view .LVU32
 269 0030 019B     		ldr	r3, [sp, #4]	@ ulDummy.4_2, ulDummy
ARM GAS  /tmp/cc5qDK7o.s 			page 22


 270              	@ ../../kernel/FreeRTOS/Source/portable/GCC/ARM_CM4F/port.c:229: 	while( ulDummy == 0 )
 229:../../kernel/FreeRTOS/Source/portable/GCC/ARM_CM4F/port.c **** 	{
 271              		.loc 1 229 7 discriminator 1 view .LVU33
 272 0032 002B     		cmp	r3, #0	@ ulDummy.4_2
 273 0034 FCD0     		beq	.L7	@
 274              	@ ../../kernel/FreeRTOS/Source/portable/GCC/ARM_CM4F/port.c:239: }
 239:../../kernel/FreeRTOS/Source/portable/GCC/ARM_CM4F/port.c **** /*-----------------------------------------------------------*/
 275              		.loc 1 239 1 view .LVU34
 276 0036 02B0     		add	sp, sp, #8	@,,
 277              		.cfi_def_cfa_offset 0
 278              		@ sp needed	@
 279 0038 7047     		bx	lr	@
 280              	.L12:
 281 003a 00BF     		.align	2
 282              	.L11:
 283 003c 00000000 		.word	.LANCHOR0
 284              		.cfi_endproc
 285              	.LFE5:
 286              		.size	prvTaskExitError, .-prvTaskExitError
 287              		.section	.text.pxPortInitialiseStack,"ax",%progbits
 288              		.align	1
 289              		.p2align 2,,3
 290              		.global	pxPortInitialiseStack
 291              		.syntax unified
 292              		.thumb
 293              		.thumb_func
 294              		.fpu fpv4-sp-d16
 295              		.type	pxPortInitialiseStack, %function
 296              	pxPortInitialiseStack:
 297              	.LVL2:
 298              	.LFB4:
 188:../../kernel/FreeRTOS/Source/portable/GCC/ARM_CM4F/port.c **** 	/* Simulate the stack frame as it would be created by a context switch
 299              		.loc 1 188 1 is_stmt 1 view -0
 300              		.cfi_startproc
 301              		@ args = 0, pretend = 0, frame = 0
 302              		@ frame_needed = 0, uses_anonymous_args = 0
 303              		@ link register save eliminated.
 194:../../kernel/FreeRTOS/Source/portable/GCC/ARM_CM4F/port.c **** 
 304              		.loc 1 194 2 view .LVU36
 196:../../kernel/FreeRTOS/Source/portable/GCC/ARM_CM4F/port.c **** 	pxTopOfStack--;
 305              		.loc 1 196 2 view .LVU37
 306              	@ ../../kernel/FreeRTOS/Source/portable/GCC/ARM_CM4F/port.c:188: {
 188:../../kernel/FreeRTOS/Source/portable/GCC/ARM_CM4F/port.c **** 	/* Simulate the stack frame as it would be created by a context switch
 307              		.loc 1 188 1 is_stmt 0 view .LVU38
 308 0000 30B4     		push	{r4, r5}	@
 309              		.cfi_def_cfa_offset 8
 310              		.cfi_offset 4, -8
 311              		.cfi_offset 5, -4
 312              	@ ../../kernel/FreeRTOS/Source/portable/GCC/ARM_CM4F/port.c:198: 	*pxTopOfStack = ( ( StackType_t )
 198:../../kernel/FreeRTOS/Source/portable/GCC/ARM_CM4F/port.c **** 	pxTopOfStack--;
 313              		.loc 1 198 45 view .LVU39
 314 0002 21F00101 		bic	r1, r1, #1	@ tmp119, pxCode,
 315              	.LVL3:
 316              	@ ../../kernel/FreeRTOS/Source/portable/GCC/ARM_CM4F/port.c:196: 	*pxTopOfStack = portINITIAL_XPSR;
 196:../../kernel/FreeRTOS/Source/portable/GCC/ARM_CM4F/port.c **** 	pxTopOfStack--;
 317              		.loc 1 196 16 view .LVU40
 318 0006 4FF08075 		mov	r5, #16777216	@ tmp118,
ARM GAS  /tmp/cc5qDK7o.s 			page 23


 319              	@ ../../kernel/FreeRTOS/Source/portable/GCC/ARM_CM4F/port.c:200: 	*pxTopOfStack = ( StackType_t ) p
 200:../../kernel/FreeRTOS/Source/portable/GCC/ARM_CM4F/port.c **** 
 320              		.loc 1 200 16 view .LVU41
 321 000a 074C     		ldr	r4, .L15	@ tmp120,
 322 000c 40F80C4C 		str	r4, [r0, #-12]	@ tmp120, MEM[(StackType_t *)pxTopOfStack_5(D) + 4294967284B]
 323              	@ ../../kernel/FreeRTOS/Source/portable/GCC/ARM_CM4F/port.c:209: 	*pxTopOfStack = portINITIAL_EXC_R
 209:../../kernel/FreeRTOS/Source/portable/GCC/ARM_CM4F/port.c **** 
 324              		.loc 1 209 16 view .LVU42
 325 0010 6FF00203 		mvn	r3, #2	@ tmp121,
 326              	@ ../../kernel/FreeRTOS/Source/portable/GCC/ARM_CM4F/port.c:204: 	*pxTopOfStack = ( StackType_t ) p
 204:../../kernel/FreeRTOS/Source/portable/GCC/ARM_CM4F/port.c **** 
 327              		.loc 1 204 16 view .LVU43
 328 0014 40F8202C 		str	r2, [r0, #-32]	@ pvParameters, MEM[(StackType_t *)pxTopOfStack_5(D) + 4294967264B]
 329              	@ ../../kernel/FreeRTOS/Source/portable/GCC/ARM_CM4F/port.c:196: 	*pxTopOfStack = portINITIAL_XPSR;
 196:../../kernel/FreeRTOS/Source/portable/GCC/ARM_CM4F/port.c **** 	pxTopOfStack--;
 330              		.loc 1 196 16 view .LVU44
 331 0018 40E90215 		strd	r1, r5, [r0, #-8]	@ tmp119, tmp118, pxTopOfStack,
 197:../../kernel/FreeRTOS/Source/portable/GCC/ARM_CM4F/port.c **** 	*pxTopOfStack = ( ( StackType_t ) pxCode ) & portSTART_ADDRESS_MASK;	/* PC */
 332              		.loc 1 197 2 is_stmt 1 view .LVU45
 333              	.LVL4:
 198:../../kernel/FreeRTOS/Source/portable/GCC/ARM_CM4F/port.c **** 	pxTopOfStack--;
 334              		.loc 1 198 2 view .LVU46
 199:../../kernel/FreeRTOS/Source/portable/GCC/ARM_CM4F/port.c **** 	*pxTopOfStack = ( StackType_t ) portTASK_RETURN_ADDRESS;	/* LR */
 335              		.loc 1 199 2 view .LVU47
 200:../../kernel/FreeRTOS/Source/portable/GCC/ARM_CM4F/port.c **** 
 336              		.loc 1 200 2 view .LVU48
 203:../../kernel/FreeRTOS/Source/portable/GCC/ARM_CM4F/port.c **** 	*pxTopOfStack = ( StackType_t ) pvParameters;	/* R0 */
 337              		.loc 1 203 2 view .LVU49
 204:../../kernel/FreeRTOS/Source/portable/GCC/ARM_CM4F/port.c **** 
 338              		.loc 1 204 2 view .LVU50
 208:../../kernel/FreeRTOS/Source/portable/GCC/ARM_CM4F/port.c **** 	*pxTopOfStack = portINITIAL_EXC_RETURN;
 339              		.loc 1 208 2 view .LVU51
 209:../../kernel/FreeRTOS/Source/portable/GCC/ARM_CM4F/port.c **** 
 340              		.loc 1 209 2 view .LVU52
 341              	@ ../../kernel/FreeRTOS/Source/portable/GCC/ARM_CM4F/port.c:209: 	*pxTopOfStack = portINITIAL_EXC_R
 209:../../kernel/FreeRTOS/Source/portable/GCC/ARM_CM4F/port.c **** 
 342              		.loc 1 209 16 is_stmt 0 view .LVU53
 343 001c 40F8243C 		str	r3, [r0, #-36]	@ tmp121, MEM[(StackType_t *)pxTopOfStack_5(D) + 4294967260B]
 211:../../kernel/FreeRTOS/Source/portable/GCC/ARM_CM4F/port.c **** 
 344              		.loc 1 211 2 is_stmt 1 view .LVU54
 345              	.LVL5:
 213:../../kernel/FreeRTOS/Source/portable/GCC/ARM_CM4F/port.c **** }
 346              		.loc 1 213 2 view .LVU55
 347              	@ ../../kernel/FreeRTOS/Source/portable/GCC/ARM_CM4F/port.c:214: }
 214:../../kernel/FreeRTOS/Source/portable/GCC/ARM_CM4F/port.c **** /*-----------------------------------------------------------*/
 348              		.loc 1 214 1 is_stmt 0 view .LVU56
 349 0020 30BC     		pop	{r4, r5}	@
 350              		.cfi_restore 5
 351              		.cfi_restore 4
 352              		.cfi_def_cfa_offset 0
 353 0022 4438     		subs	r0, r0, #68	@, pxTopOfStack,
 354              	.LVL6:
 214:../../kernel/FreeRTOS/Source/portable/GCC/ARM_CM4F/port.c **** /*-----------------------------------------------------------*/
 355              		.loc 1 214 1 view .LVU57
 356 0024 7047     		bx	lr	@
 357              	.L16:
 358 0026 00BF     		.align	2
ARM GAS  /tmp/cc5qDK7o.s 			page 24


 359              	.L15:
 360 0028 00000000 		.word	prvTaskExitError
 361              		.cfi_endproc
 362              	.LFE4:
 363              		.size	pxPortInitialiseStack, .-pxPortInitialiseStack
 364              		.section	.text.SVC_Handler,"ax",%progbits
 365              		.align	1
 366              		.p2align 2,,3
 367              		.global	SVC_Handler
 368              		.syntax unified
 369              		.thumb
 370              		.thumb_func
 371              		.fpu fpv4-sp-d16
 372              		.type	SVC_Handler, %function
 373              	SVC_Handler:
 374              	.LFB6:
 243:../../kernel/FreeRTOS/Source/portable/GCC/ARM_CM4F/port.c **** 	__asm volatile (
 375              		.loc 1 243 1 is_stmt 1 view -0
 376              		.cfi_startproc
 377              		@ Naked Function: prologue and epilogue provided by programmer.
 378              		@ args = 0, pretend = 0, frame = 0
 379              		@ frame_needed = 0, uses_anonymous_args = 0
 244:../../kernel/FreeRTOS/Source/portable/GCC/ARM_CM4F/port.c **** 					"	ldr	r3, pxCurrentTCBConst2		\n" /* Restore the context. */
 380              		.loc 1 244 2 view .LVU59
 381              		.syntax unified
 382              	@ 244 "../../kernel/FreeRTOS/Source/portable/GCC/ARM_CM4F/port.c" 1
 383 0000 074B     			ldr	r3, pxCurrentTCBConst2		
 384 0002 1968     		ldr r1, [r3]					
 385 0004 0868     		ldr r0, [r1]					
 386 0006 B0E8F04F 		ldmia r0!, {r4-r11, r14}		
 387 000a 80F30988 		msr psp, r0						
 388 000e BFF36F8F 		isb								
 389 0012 4FF00000 		mov r0, #0 						
 390 0016 80F31188 		msr	basepri, r0					
 391 001a 7047     		bx r14							
 392              										
 393 001c AFF30080 		.align 4						
 394 0020 00000000 	pxCurrentTCBConst2: .word pxCurrentTCB				
 395              	
 396              	@ 0 "" 2
 397              	@ ../../kernel/FreeRTOS/Source/portable/GCC/ARM_CM4F/port.c:258: }
 258:../../kernel/FreeRTOS/Source/portable/GCC/ARM_CM4F/port.c **** /*-----------------------------------------------------------*/
 398              		.loc 1 258 1 is_stmt 0 view .LVU60
 399              		.thumb
 400              		.syntax unified
 401              		.cfi_endproc
 402              	.LFE6:
 403              		.size	SVC_Handler, .-SVC_Handler
 404              		.section	.text.vPortEndScheduler,"ax",%progbits
 405              		.align	1
 406              		.p2align 2,,3
 407              		.global	vPortEndScheduler
 408              		.syntax unified
 409              		.thumb
 410              		.thumb_func
 411              		.fpu fpv4-sp-d16
 412              		.type	vPortEndScheduler, %function
ARM GAS  /tmp/cc5qDK7o.s 			page 25


 413              	vPortEndScheduler:
 414              	.LFB9:
 396:../../kernel/FreeRTOS/Source/portable/GCC/ARM_CM4F/port.c **** 	/* Not implemented in ports where there is nothing to return to.
 415              		.loc 1 396 1 is_stmt 1 view -0
 416              		.cfi_startproc
 417              		@ args = 0, pretend = 0, frame = 0
 418              		@ frame_needed = 0, uses_anonymous_args = 0
 419              		@ link register save eliminated.
 399:../../kernel/FreeRTOS/Source/portable/GCC/ARM_CM4F/port.c **** }
 420              		.loc 1 399 2 view .LVU62
 421 0000 074B     		ldr	r3, .L21	@ tmp112,
 422 0002 1B68     		ldr	r3, [r3]	@ uxCriticalNesting, uxCriticalNesting
 423 0004 B3F57A7F 		cmp	r3, #1000	@ uxCriticalNesting,
 424 0008 08D0     		beq	.L18		@,
 399:../../kernel/FreeRTOS/Source/portable/GCC/ARM_CM4F/port.c **** }
 425              		.loc 1 399 2 view .LVU63
 426              	.LBB51:
 427              	.LBI51:
 191:../../kernel/FreeRTOS/Source/portable/GCC/ARM_CM4F/portmacro.h **** {
 428              		.loc 2 191 30 view .LVU64
 429              	.LBB52:
 193:../../kernel/FreeRTOS/Source/portable/GCC/ARM_CM4F/portmacro.h **** 
 430              		.loc 2 193 1 view .LVU65
 431              		.loc 2 195 2 view .LVU66
 432              		.syntax unified
 433              	@ 195 "../../kernel/FreeRTOS/Source/portable/GCC/ARM_CM4F/portmacro.h" 1
 434 000a 4FF0A003 			mov r3, #160													@ ulNewBASEPRI,
 435 000e 83F31188 		msr basepri, r3												@ ulNewBASEPRI
 436 0012 BFF36F8F 		isb														
 437 0016 BFF34F8F 		dsb														
 438              	
 439              	@ 0 "" 2
 440              	.LVL7:
 441              		.thumb
 442              		.syntax unified
 443              	.L20:
 444              		.loc 2 195 2 is_stmt 0 view .LVU67
 445              	.LBE52:
 446              	.LBE51:
 399:../../kernel/FreeRTOS/Source/portable/GCC/ARM_CM4F/port.c **** }
 447              		.loc 1 399 2 is_stmt 1 discriminator 1 view .LVU68
 399:../../kernel/FreeRTOS/Source/portable/GCC/ARM_CM4F/port.c **** }
 448              		.loc 1 399 2 discriminator 1 view .LVU69
 399:../../kernel/FreeRTOS/Source/portable/GCC/ARM_CM4F/port.c **** }
 449              		.loc 1 399 2 discriminator 1 view .LVU70
 399:../../kernel/FreeRTOS/Source/portable/GCC/ARM_CM4F/port.c **** }
 450              		.loc 1 399 2 discriminator 1 view .LVU71
 451 001a FEE7     		b	.L20		@
 452              	.L18:
 453              	@ ../../kernel/FreeRTOS/Source/portable/GCC/ARM_CM4F/port.c:400: }
 400:../../kernel/FreeRTOS/Source/portable/GCC/ARM_CM4F/port.c **** /*-----------------------------------------------------------*/
 454              		.loc 1 400 1 is_stmt 0 view .LVU72
 455 001c 7047     		bx	lr	@
 456              	.L22:
 457 001e 00BF     		.align	2
 458              	.L21:
 459 0020 00000000 		.word	.LANCHOR0
ARM GAS  /tmp/cc5qDK7o.s 			page 26


 460              		.cfi_endproc
 461              	.LFE9:
 462              		.size	vPortEndScheduler, .-vPortEndScheduler
 463              		.section	.text.vPortEnterCritical,"ax",%progbits
 464              		.align	1
 465              		.p2align 2,,3
 466              		.global	vPortEnterCritical
 467              		.syntax unified
 468              		.thumb
 469              		.thumb_func
 470              		.fpu fpv4-sp-d16
 471              		.type	vPortEnterCritical, %function
 472              	vPortEnterCritical:
 473              	.LFB10:
 404:../../kernel/FreeRTOS/Source/portable/GCC/ARM_CM4F/port.c **** 	portDISABLE_INTERRUPTS();
 474              		.loc 1 404 1 is_stmt 1 view -0
 475              		.cfi_startproc
 476              		@ args = 0, pretend = 0, frame = 0
 477              		@ frame_needed = 0, uses_anonymous_args = 0
 478              		@ link register save eliminated.
 405:../../kernel/FreeRTOS/Source/portable/GCC/ARM_CM4F/port.c **** 	uxCriticalNesting++;
 479              		.loc 1 405 2 view .LVU74
 480              	.LBB53:
 481              	.LBI53:
 191:../../kernel/FreeRTOS/Source/portable/GCC/ARM_CM4F/portmacro.h **** {
 482              		.loc 2 191 30 view .LVU75
 483              	.LBB54:
 193:../../kernel/FreeRTOS/Source/portable/GCC/ARM_CM4F/portmacro.h **** 
 484              		.loc 2 193 1 view .LVU76
 485              		.loc 2 195 2 view .LVU77
 486              		.syntax unified
 487              	@ 195 "../../kernel/FreeRTOS/Source/portable/GCC/ARM_CM4F/portmacro.h" 1
 488 0000 4FF0A003 			mov r3, #160													@ ulNewBASEPRI,
 489 0004 83F31188 		msr basepri, r3												@ ulNewBASEPRI
 490 0008 BFF36F8F 		isb														
 491 000c BFF34F8F 		dsb														
 492              	
 493              	@ 0 "" 2
 494              		.thumb
 495              		.syntax unified
 496              	.LBE54:
 497              	.LBE53:
 406:../../kernel/FreeRTOS/Source/portable/GCC/ARM_CM4F/port.c **** 
 498              		.loc 1 406 2 view .LVU78
 499              	@ ../../kernel/FreeRTOS/Source/portable/GCC/ARM_CM4F/port.c:406: 	uxCriticalNesting++;
 406:../../kernel/FreeRTOS/Source/portable/GCC/ARM_CM4F/port.c **** 
 500              		.loc 1 406 19 is_stmt 0 view .LVU79
 501 0010 0A4A     		ldr	r2, .L30	@ tmp117,
 502 0012 1368     		ldr	r3, [r2]	@ uxCriticalNesting, uxCriticalNesting
 503 0014 0133     		adds	r3, r3, #1	@ _2, uxCriticalNesting,
 504              	@ ../../kernel/FreeRTOS/Source/portable/GCC/ARM_CM4F/port.c:413: 	if( uxCriticalNesting == 1 )
 413:../../kernel/FreeRTOS/Source/portable/GCC/ARM_CM4F/port.c **** 	{
 505              		.loc 1 413 4 view .LVU80
 506 0016 012B     		cmp	r3, #1	@ _2,
 507              	@ ../../kernel/FreeRTOS/Source/portable/GCC/ARM_CM4F/port.c:406: 	uxCriticalNesting++;
 406:../../kernel/FreeRTOS/Source/portable/GCC/ARM_CM4F/port.c **** 
 508              		.loc 1 406 19 view .LVU81
ARM GAS  /tmp/cc5qDK7o.s 			page 27


 509 0018 1360     		str	r3, [r2]	@ _2, uxCriticalNesting
 413:../../kernel/FreeRTOS/Source/portable/GCC/ARM_CM4F/port.c **** 	{
 510              		.loc 1 413 2 is_stmt 1 view .LVU82
 511              	@ ../../kernel/FreeRTOS/Source/portable/GCC/ARM_CM4F/port.c:413: 	if( uxCriticalNesting == 1 )
 413:../../kernel/FreeRTOS/Source/portable/GCC/ARM_CM4F/port.c **** 	{
 512              		.loc 1 413 4 is_stmt 0 view .LVU83
 513 001a 00D0     		beq	.L29		@,
 514              	.L23:
 515              	@ ../../kernel/FreeRTOS/Source/portable/GCC/ARM_CM4F/port.c:417: }
 417:../../kernel/FreeRTOS/Source/portable/GCC/ARM_CM4F/port.c **** /*-----------------------------------------------------------*/
 516              		.loc 1 417 1 view .LVU84
 517 001c 7047     		bx	lr	@
 518              	.L29:
 415:../../kernel/FreeRTOS/Source/portable/GCC/ARM_CM4F/port.c **** 	}
 519              		.loc 1 415 3 is_stmt 1 view .LVU85
 520 001e 084B     		ldr	r3, .L30+4	@ tmp120,
 521 0020 1B68     		ldr	r3, [r3]	@ _3, MEM[(volatile uint32_t *)3758157060B]
 522 0022 13F0FF0F 		tst	r3, #255	@ _3
 523 0026 F9D0     		beq	.L23		@,
 415:../../kernel/FreeRTOS/Source/portable/GCC/ARM_CM4F/port.c **** 	}
 524              		.loc 1 415 3 view .LVU86
 525              	.LBB55:
 526              	.LBI55:
 191:../../kernel/FreeRTOS/Source/portable/GCC/ARM_CM4F/portmacro.h **** {
 527              		.loc 2 191 30 view .LVU87
 528              	.LBB56:
 193:../../kernel/FreeRTOS/Source/portable/GCC/ARM_CM4F/portmacro.h **** 
 529              		.loc 2 193 1 view .LVU88
 530              		.loc 2 195 2 view .LVU89
 531              		.syntax unified
 532              	@ 195 "../../kernel/FreeRTOS/Source/portable/GCC/ARM_CM4F/portmacro.h" 1
 533 0028 4FF0A003 			mov r3, #160													@ ulNewBASEPRI,
 534 002c 83F31188 		msr basepri, r3												@ ulNewBASEPRI
 535 0030 BFF36F8F 		isb														
 536 0034 BFF34F8F 		dsb														
 537              	
 538              	@ 0 "" 2
 539              	.LVL8:
 540              		.thumb
 541              		.syntax unified
 542              	.L25:
 543              		.loc 2 195 2 is_stmt 0 view .LVU90
 544              	.LBE56:
 545              	.LBE55:
 415:../../kernel/FreeRTOS/Source/portable/GCC/ARM_CM4F/port.c **** 	}
 546              		.loc 1 415 3 is_stmt 1 discriminator 1 view .LVU91
 415:../../kernel/FreeRTOS/Source/portable/GCC/ARM_CM4F/port.c **** 	}
 547              		.loc 1 415 3 discriminator 1 view .LVU92
 415:../../kernel/FreeRTOS/Source/portable/GCC/ARM_CM4F/port.c **** 	}
 548              		.loc 1 415 3 discriminator 1 view .LVU93
 415:../../kernel/FreeRTOS/Source/portable/GCC/ARM_CM4F/port.c **** 	}
 549              		.loc 1 415 3 discriminator 1 view .LVU94
 550 0038 FEE7     		b	.L25		@
 551              	.L31:
 552 003a 00BF     		.align	2
 553              	.L30:
 554 003c 00000000 		.word	.LANCHOR0
ARM GAS  /tmp/cc5qDK7o.s 			page 28


 555 0040 04ED00E0 		.word	-536810236
 556              		.cfi_endproc
 557              	.LFE10:
 558              		.size	vPortEnterCritical, .-vPortEnterCritical
 559              		.section	.text.vPortExitCritical,"ax",%progbits
 560              		.align	1
 561              		.p2align 2,,3
 562              		.global	vPortExitCritical
 563              		.syntax unified
 564              		.thumb
 565              		.thumb_func
 566              		.fpu fpv4-sp-d16
 567              		.type	vPortExitCritical, %function
 568              	vPortExitCritical:
 569              	.LFB11:
 421:../../kernel/FreeRTOS/Source/portable/GCC/ARM_CM4F/port.c **** 	configASSERT( uxCriticalNesting );
 570              		.loc 1 421 1 view -0
 571              		.cfi_startproc
 572              		@ args = 0, pretend = 0, frame = 0
 573              		@ frame_needed = 0, uses_anonymous_args = 0
 574              		@ link register save eliminated.
 422:../../kernel/FreeRTOS/Source/portable/GCC/ARM_CM4F/port.c **** 	uxCriticalNesting--;
 575              		.loc 1 422 2 view .LVU96
 576 0000 084A     		ldr	r2, .L36	@ tmp113,
 577 0002 1368     		ldr	r3, [r2]	@ uxCriticalNesting.16_1, uxCriticalNesting
 578 0004 43B9     		cbnz	r3, .L33	@ uxCriticalNesting.16_1,
 422:../../kernel/FreeRTOS/Source/portable/GCC/ARM_CM4F/port.c **** 	uxCriticalNesting--;
 579              		.loc 1 422 2 view .LVU97
 580              	.LBB57:
 581              	.LBI57:
 191:../../kernel/FreeRTOS/Source/portable/GCC/ARM_CM4F/portmacro.h **** {
 582              		.loc 2 191 30 view .LVU98
 583              	.LBB58:
 193:../../kernel/FreeRTOS/Source/portable/GCC/ARM_CM4F/portmacro.h **** 
 584              		.loc 2 193 1 view .LVU99
 585              		.loc 2 195 2 view .LVU100
 586              		.syntax unified
 587              	@ 195 "../../kernel/FreeRTOS/Source/portable/GCC/ARM_CM4F/portmacro.h" 1
 588 0006 4FF0A003 			mov r3, #160													@ ulNewBASEPRI,
 589 000a 83F31188 		msr basepri, r3												@ ulNewBASEPRI
 590 000e BFF36F8F 		isb														
 591 0012 BFF34F8F 		dsb														
 592              	
 593              	@ 0 "" 2
 594              	.LVL9:
 595              		.thumb
 596              		.syntax unified
 597              	.L34:
 598              		.loc 2 195 2 is_stmt 0 view .LVU101
 599              	.LBE58:
 600              	.LBE57:
 422:../../kernel/FreeRTOS/Source/portable/GCC/ARM_CM4F/port.c **** 	uxCriticalNesting--;
 601              		.loc 1 422 2 is_stmt 1 discriminator 1 view .LVU102
 422:../../kernel/FreeRTOS/Source/portable/GCC/ARM_CM4F/port.c **** 	uxCriticalNesting--;
 602              		.loc 1 422 2 discriminator 1 view .LVU103
 422:../../kernel/FreeRTOS/Source/portable/GCC/ARM_CM4F/port.c **** 	uxCriticalNesting--;
 603              		.loc 1 422 2 discriminator 1 view .LVU104
ARM GAS  /tmp/cc5qDK7o.s 			page 29


 422:../../kernel/FreeRTOS/Source/portable/GCC/ARM_CM4F/port.c **** 	uxCriticalNesting--;
 604              		.loc 1 422 2 discriminator 1 view .LVU105
 605 0016 FEE7     		b	.L34		@
 606              	.L33:
 422:../../kernel/FreeRTOS/Source/portable/GCC/ARM_CM4F/port.c **** 	uxCriticalNesting--;
 607              		.loc 1 422 35 discriminator 2 view .LVU106
 423:../../kernel/FreeRTOS/Source/portable/GCC/ARM_CM4F/port.c **** 	if( uxCriticalNesting == 0 )
 608              		.loc 1 423 2 discriminator 2 view .LVU107
 609              	@ ../../kernel/FreeRTOS/Source/portable/GCC/ARM_CM4F/port.c:423: 	uxCriticalNesting--;
 423:../../kernel/FreeRTOS/Source/portable/GCC/ARM_CM4F/port.c **** 	if( uxCriticalNesting == 0 )
 610              		.loc 1 423 19 is_stmt 0 discriminator 2 view .LVU108
 611 0018 013B     		subs	r3, r3, #1	@ _2, uxCriticalNesting.16_1,
 612 001a 1360     		str	r3, [r2]	@ _2, uxCriticalNesting
 424:../../kernel/FreeRTOS/Source/portable/GCC/ARM_CM4F/port.c **** 	{
 613              		.loc 1 424 2 is_stmt 1 discriminator 2 view .LVU109
 614              	@ ../../kernel/FreeRTOS/Source/portable/GCC/ARM_CM4F/port.c:424: 	if( uxCriticalNesting == 0 )
 424:../../kernel/FreeRTOS/Source/portable/GCC/ARM_CM4F/port.c **** 	{
 615              		.loc 1 424 4 is_stmt 0 discriminator 2 view .LVU110
 616 001c 0BB9     		cbnz	r3, .L32	@ _2,
 426:../../kernel/FreeRTOS/Source/portable/GCC/ARM_CM4F/port.c **** 	}
 617              		.loc 1 426 3 is_stmt 1 view .LVU111
 618              	.LVL10:
 619              	.LBB59:
 620              	.LBI59:
 196:../../kernel/FreeRTOS/Source/portable/GCC/ARM_CM4F/portmacro.h **** 	(
 197:../../kernel/FreeRTOS/Source/portable/GCC/ARM_CM4F/portmacro.h **** 		"	mov %0, %1												\n"	\
 198:../../kernel/FreeRTOS/Source/portable/GCC/ARM_CM4F/portmacro.h **** 		"	msr basepri, %0											\n" \
 199:../../kernel/FreeRTOS/Source/portable/GCC/ARM_CM4F/portmacro.h **** 		"	isb														\n" \
 200:../../kernel/FreeRTOS/Source/portable/GCC/ARM_CM4F/portmacro.h **** 		"	dsb														\n" \
 201:../../kernel/FreeRTOS/Source/portable/GCC/ARM_CM4F/portmacro.h **** 		:"=r" (ulNewBASEPRI) : "i" ( configMAX_SYSCALL_INTERRUPT_PRIORITY ) : "memory"
 202:../../kernel/FreeRTOS/Source/portable/GCC/ARM_CM4F/portmacro.h **** 	);
 203:../../kernel/FreeRTOS/Source/portable/GCC/ARM_CM4F/portmacro.h **** }
 204:../../kernel/FreeRTOS/Source/portable/GCC/ARM_CM4F/portmacro.h **** 
 205:../../kernel/FreeRTOS/Source/portable/GCC/ARM_CM4F/portmacro.h **** /*-----------------------------------------------------------*/
 206:../../kernel/FreeRTOS/Source/portable/GCC/ARM_CM4F/portmacro.h **** 
 207:../../kernel/FreeRTOS/Source/portable/GCC/ARM_CM4F/portmacro.h **** portFORCE_INLINE static uint32_t ulPortRaiseBASEPRI( void )
 208:../../kernel/FreeRTOS/Source/portable/GCC/ARM_CM4F/portmacro.h **** {
 209:../../kernel/FreeRTOS/Source/portable/GCC/ARM_CM4F/portmacro.h **** uint32_t ulOriginalBASEPRI, ulNewBASEPRI;
 210:../../kernel/FreeRTOS/Source/portable/GCC/ARM_CM4F/portmacro.h **** 
 211:../../kernel/FreeRTOS/Source/portable/GCC/ARM_CM4F/portmacro.h **** 	__asm volatile
 212:../../kernel/FreeRTOS/Source/portable/GCC/ARM_CM4F/portmacro.h **** 	(
 213:../../kernel/FreeRTOS/Source/portable/GCC/ARM_CM4F/portmacro.h **** 		"	mrs %0, basepri											\n" \
 214:../../kernel/FreeRTOS/Source/portable/GCC/ARM_CM4F/portmacro.h **** 		"	mov %1, %2												\n"	\
 215:../../kernel/FreeRTOS/Source/portable/GCC/ARM_CM4F/portmacro.h **** 		"	msr basepri, %1											\n" \
 216:../../kernel/FreeRTOS/Source/portable/GCC/ARM_CM4F/portmacro.h **** 		"	isb														\n" \
 217:../../kernel/FreeRTOS/Source/portable/GCC/ARM_CM4F/portmacro.h **** 		"	dsb														\n" \
 218:../../kernel/FreeRTOS/Source/portable/GCC/ARM_CM4F/portmacro.h **** 		:"=r" (ulOriginalBASEPRI), "=r" (ulNewBASEPRI) : "i" ( configMAX_SYSCALL_INTERRUPT_PRIORITY ) : "
 219:../../kernel/FreeRTOS/Source/portable/GCC/ARM_CM4F/portmacro.h **** 	);
 220:../../kernel/FreeRTOS/Source/portable/GCC/ARM_CM4F/portmacro.h **** 
 221:../../kernel/FreeRTOS/Source/portable/GCC/ARM_CM4F/portmacro.h **** 	/* This return will not be reached but is necessary to prevent compiler
 222:../../kernel/FreeRTOS/Source/portable/GCC/ARM_CM4F/portmacro.h **** 	warnings. */
 223:../../kernel/FreeRTOS/Source/portable/GCC/ARM_CM4F/portmacro.h **** 	return ulOriginalBASEPRI;
 224:../../kernel/FreeRTOS/Source/portable/GCC/ARM_CM4F/portmacro.h **** }
 225:../../kernel/FreeRTOS/Source/portable/GCC/ARM_CM4F/portmacro.h **** /*-----------------------------------------------------------*/
 226:../../kernel/FreeRTOS/Source/portable/GCC/ARM_CM4F/portmacro.h **** 
 227:../../kernel/FreeRTOS/Source/portable/GCC/ARM_CM4F/portmacro.h **** portFORCE_INLINE static void vPortSetBASEPRI( uint32_t ulNewMaskValue )
 621              		.loc 2 227 30 view .LVU112
ARM GAS  /tmp/cc5qDK7o.s 			page 30


 622              	.LBB60:
 228:../../kernel/FreeRTOS/Source/portable/GCC/ARM_CM4F/portmacro.h **** {
 229:../../kernel/FreeRTOS/Source/portable/GCC/ARM_CM4F/portmacro.h **** 	__asm volatile
 623              		.loc 2 229 2 view .LVU113
 624              		.syntax unified
 625              	@ 229 "../../kernel/FreeRTOS/Source/portable/GCC/ARM_CM4F/portmacro.h" 1
 626 001e 83F31188 			msr basepri, r3		@ _2
 627              	@ 0 "" 2
 628              	.LVL11:
 629              		.thumb
 630              		.syntax unified
 631              	.L32:
 632              		.loc 2 229 2 is_stmt 0 view .LVU114
 633              	.LBE60:
 634              	.LBE59:
 635              	@ ../../kernel/FreeRTOS/Source/portable/GCC/ARM_CM4F/port.c:428: }
 428:../../kernel/FreeRTOS/Source/portable/GCC/ARM_CM4F/port.c **** /*-----------------------------------------------------------*/
 636              		.loc 1 428 1 view .LVU115
 637 0022 7047     		bx	lr	@
 638              	.L37:
 639              		.align	2
 640              	.L36:
 641 0024 00000000 		.word	.LANCHOR0
 642              		.cfi_endproc
 643              	.LFE11:
 644              		.size	vPortExitCritical, .-vPortExitCritical
 645              		.section	.text.PendSV_Handler,"ax",%progbits
 646              		.align	1
 647              		.p2align 2,,3
 648              		.global	PendSV_Handler
 649              		.syntax unified
 650              		.thumb
 651              		.thumb_func
 652              		.fpu fpv4-sp-d16
 653              		.type	PendSV_Handler, %function
 654              	PendSV_Handler:
 655              	.LFB12:
 432:../../kernel/FreeRTOS/Source/portable/GCC/ARM_CM4F/port.c **** 	/* This is a naked function. */
 656              		.loc 1 432 1 is_stmt 1 view -0
 657              		.cfi_startproc
 658              		@ Naked Function: prologue and epilogue provided by programmer.
 659              		@ args = 0, pretend = 0, frame = 0
 660              		@ frame_needed = 0, uses_anonymous_args = 0
 435:../../kernel/FreeRTOS/Source/portable/GCC/ARM_CM4F/port.c **** 	(
 661              		.loc 1 435 2 view .LVU117
 662              		.syntax unified
 663              	@ 435 "../../kernel/FreeRTOS/Source/portable/GCC/ARM_CM4F/port.c" 1
 664 0000 EFF30980 			mrs r0, psp							
 665 0004 BFF36F8F 		isb									
 666              											
 667 0008 154B     		ldr	r3, pxCurrentTCBConst			
 668 000a 1A68     		ldr	r2, [r3]						
 669              											
 670 000c 1EF0100F 		tst r14, #0x10						
 671 0010 08BF     		it eq								
 672 0012 20ED108A 		vstmdbeq r0!, {s16-s31}				
 673              											
ARM GAS  /tmp/cc5qDK7o.s 			page 31


 674 0016 20E9F04F 		stmdb r0!, {r4-r11, r14}			
 675 001a 1060     		str r0, [r2]						
 676              											
 677 001c 2DE90900 		stmdb sp!, {r0, r3}					
 678 0020 4FF0A000 		mov r0, #160 								@
 679 0024 80F31188 		msr basepri, r0						
 680 0028 BFF34F8F 		dsb									
 681 002c BFF36F8F 		isb									
 682 0030 FFF7FEFF 		bl vTaskSwitchContext				
 683 0034 4FF00000 		mov r0, #0							
 684 0038 80F31188 		msr basepri, r0						
 685 003c 09BC     		ldmia sp!, {r0, r3}					
 686              											
 687 003e 1968     		ldr r1, [r3]						
 688 0040 0868     		ldr r0, [r1]						
 689              											
 690 0042 B0E8F04F 		ldmia r0!, {r4-r11, r14}			
 691              											
 692 0046 1EF0100F 		tst r14, #0x10						
 693 004a 08BF     		it eq								
 694 004c B0EC108A 		vldmiaeq r0!, {s16-s31}				
 695              											
 696 0050 80F30988 		msr psp, r0							
 697 0054 BFF36F8F 		isb									
 698              											
 699              											
 700 0058 7047     		bx r14								
 701              											
 702 005a 00BFAFF3 		.align 4							
 702      0080
 703 0060 00000000 	pxCurrentTCBConst: .word pxCurrentTCB	
 704              	
 705              	@ 0 "" 2
 706              	@ ../../kernel/FreeRTOS/Source/portable/GCC/ARM_CM4F/port.c:485: }
 485:../../kernel/FreeRTOS/Source/portable/GCC/ARM_CM4F/port.c **** /*-----------------------------------------------------------*/
 707              		.loc 1 485 1 is_stmt 0 view .LVU118
 708              		.thumb
 709              		.syntax unified
 710              		.cfi_endproc
 711              	.LFE12:
 712              		.size	PendSV_Handler, .-PendSV_Handler
 713              		.section	.text.SysTick_Handler,"ax",%progbits
 714              		.align	1
 715              		.p2align 2,,3
 716              		.global	SysTick_Handler
 717              		.syntax unified
 718              		.thumb
 719              		.thumb_func
 720              		.fpu fpv4-sp-d16
 721              		.type	SysTick_Handler, %function
 722              	SysTick_Handler:
 723              	.LFB13:
 489:../../kernel/FreeRTOS/Source/portable/GCC/ARM_CM4F/port.c **** 	/* The SysTick runs at the lowest interrupt priority, so when this interrupt
 724              		.loc 1 489 1 is_stmt 1 view -0
 725              		.cfi_startproc
 726              		@ args = 0, pretend = 0, frame = 0
 727              		@ frame_needed = 0, uses_anonymous_args = 0
ARM GAS  /tmp/cc5qDK7o.s 			page 32


 494:../../kernel/FreeRTOS/Source/portable/GCC/ARM_CM4F/port.c **** 	{
 728              		.loc 1 494 2 view .LVU120
 729              	.LBB61:
 730              	.LBI61:
 191:../../kernel/FreeRTOS/Source/portable/GCC/ARM_CM4F/portmacro.h **** {
 731              		.loc 2 191 30 view .LVU121
 732              	.LBB62:
 193:../../kernel/FreeRTOS/Source/portable/GCC/ARM_CM4F/portmacro.h **** 
 733              		.loc 2 193 1 view .LVU122
 195:../../kernel/FreeRTOS/Source/portable/GCC/ARM_CM4F/portmacro.h **** 	(
 734              		.loc 2 195 2 view .LVU123
 735              	.LBE62:
 736              	.LBE61:
 737              	@ ../../kernel/FreeRTOS/Source/portable/GCC/ARM_CM4F/port.c:489: {
 489:../../kernel/FreeRTOS/Source/portable/GCC/ARM_CM4F/port.c **** 	/* The SysTick runs at the lowest interrupt priority, so when this interrupt
 738              		.loc 1 489 1 is_stmt 0 view .LVU124
 739 0000 08B5     		push	{r3, lr}	@
 740              		.cfi_def_cfa_offset 8
 741              		.cfi_offset 3, -8
 742              		.cfi_offset 14, -4
 743              	.LBB64:
 744              	.LBB63:
 745              	@ ../../kernel/FreeRTOS/Source/portable/GCC/ARM_CM4F/portmacro.h:195: 	__asm volatile
 195:../../kernel/FreeRTOS/Source/portable/GCC/ARM_CM4F/portmacro.h **** 	(
 746              		.loc 2 195 2 view .LVU125
 747              		.syntax unified
 748              	@ 195 "../../kernel/FreeRTOS/Source/portable/GCC/ARM_CM4F/portmacro.h" 1
 749 0002 4FF0A003 			mov r3, #160													@ ulNewBASEPRI,
 750 0006 83F31188 		msr basepri, r3												@ ulNewBASEPRI
 751 000a BFF36F8F 		isb														
 752 000e BFF34F8F 		dsb														
 753              	
 754              	@ 0 "" 2
 755              		.thumb
 756              		.syntax unified
 757              	.LBE63:
 758              	.LBE64:
 497:../../kernel/FreeRTOS/Source/portable/GCC/ARM_CM4F/port.c **** 		{
 759              		.loc 1 497 3 is_stmt 1 view .LVU126
 760              	@ ../../kernel/FreeRTOS/Source/portable/GCC/ARM_CM4F/port.c:497: 		if( xTaskIncrementTick() != pdFA
 497:../../kernel/FreeRTOS/Source/portable/GCC/ARM_CM4F/port.c **** 		{
 761              		.loc 1 497 7 is_stmt 0 view .LVU127
 762 0012 FFF7FEFF 		bl	xTaskIncrementTick		@
 763              	.LVL12:
 764              	@ ../../kernel/FreeRTOS/Source/portable/GCC/ARM_CM4F/port.c:497: 		if( xTaskIncrementTick() != pdFA
 497:../../kernel/FreeRTOS/Source/portable/GCC/ARM_CM4F/port.c **** 		{
 765              		.loc 1 497 5 view .LVU128
 766 0016 18B1     		cbz	r0, .L40	@,
 501:../../kernel/FreeRTOS/Source/portable/GCC/ARM_CM4F/port.c **** 		}
 767              		.loc 1 501 4 is_stmt 1 view .LVU129
 768              	@ ../../kernel/FreeRTOS/Source/portable/GCC/ARM_CM4F/port.c:501: 			portNVIC_INT_CTRL_REG = portNVI
 501:../../kernel/FreeRTOS/Source/portable/GCC/ARM_CM4F/port.c **** 		}
 769              		.loc 1 501 26 is_stmt 0 view .LVU130
 770 0018 034B     		ldr	r3, .L45	@ tmp113,
 771 001a 4FF08052 		mov	r2, #268435456	@ tmp114,
 772 001e 1A60     		str	r2, [r3]	@ tmp114, MEM[(volatile uint32_t *)3758157060B]
 773              	.L40:
ARM GAS  /tmp/cc5qDK7o.s 			page 33


 504:../../kernel/FreeRTOS/Source/portable/GCC/ARM_CM4F/port.c **** }
 774              		.loc 1 504 2 is_stmt 1 view .LVU131
 775              	.LVL13:
 776              	.LBB65:
 777              	.LBI65:
 227:../../kernel/FreeRTOS/Source/portable/GCC/ARM_CM4F/portmacro.h **** {
 778              		.loc 2 227 30 view .LVU132
 779              	.LBB66:
 780              		.loc 2 229 2 view .LVU133
 781 0020 0023     		movs	r3, #0	@ tmp115,
 782              		.syntax unified
 783              	@ 229 "../../kernel/FreeRTOS/Source/portable/GCC/ARM_CM4F/portmacro.h" 1
 784 0022 83F31188 			msr basepri, r3		@ tmp115
 785              	@ 0 "" 2
 786              	.LVL14:
 787              		.loc 2 229 2 is_stmt 0 view .LVU134
 788              		.thumb
 789              		.syntax unified
 790              	.LBE66:
 791              	.LBE65:
 792              	@ ../../kernel/FreeRTOS/Source/portable/GCC/ARM_CM4F/port.c:505: }
 505:../../kernel/FreeRTOS/Source/portable/GCC/ARM_CM4F/port.c **** /*-----------------------------------------------------------*/
 793              		.loc 1 505 1 view .LVU135
 794 0026 08BD     		pop	{r3, pc}	@
 795              	.L46:
 796              		.align	2
 797              	.L45:
 798 0028 04ED00E0 		.word	-536810236
 799              		.cfi_endproc
 800              	.LFE13:
 801              		.size	SysTick_Handler, .-SysTick_Handler
 802              		.section	.text.vPortSuppressTicksAndSleep,"ax",%progbits
 803              		.align	1
 804              		.p2align 2,,3
 805              		.weak	vPortSuppressTicksAndSleep
 806              		.syntax unified
 807              		.thumb
 808              		.thumb_func
 809              		.fpu fpv4-sp-d16
 810              		.type	vPortSuppressTicksAndSleep, %function
 811              	vPortSuppressTicksAndSleep:
 812              	.LVL15:
 813              	.LFB14:
 511:../../kernel/FreeRTOS/Source/portable/GCC/ARM_CM4F/port.c **** 	uint32_t ulReloadValue, ulCompleteTickPeriods, ulCompletedSysTickDecrements;
 814              		.loc 1 511 2 is_stmt 1 view -0
 815              		.cfi_startproc
 816              		@ args = 0, pretend = 0, frame = 0
 817              		@ frame_needed = 0, uses_anonymous_args = 0
 512:../../kernel/FreeRTOS/Source/portable/GCC/ARM_CM4F/port.c **** 	TickType_t xModifiableIdleTime;
 818              		.loc 1 512 2 view .LVU137
 513:../../kernel/FreeRTOS/Source/portable/GCC/ARM_CM4F/port.c **** 
 819              		.loc 1 513 2 view .LVU138
 516:../../kernel/FreeRTOS/Source/portable/GCC/ARM_CM4F/port.c **** 		{
 820              		.loc 1 516 3 view .LVU139
 821              	@ ../../kernel/FreeRTOS/Source/portable/GCC/ARM_CM4F/port.c:525: 		portNVIC_SYSTICK_CTRL_REG &= ~po
 525:../../kernel/FreeRTOS/Source/portable/GCC/ARM_CM4F/port.c **** 
 822              		.loc 1 525 29 is_stmt 0 view .LVU140
ARM GAS  /tmp/cc5qDK7o.s 			page 34


 823 0000 404A     		ldr	r2, .L61	@ tmp151,
 824              	@ ../../kernel/FreeRTOS/Source/portable/GCC/ARM_CM4F/port.c:516: 		if( xExpectedIdleTime > xMaximum
 516:../../kernel/FreeRTOS/Source/portable/GCC/ARM_CM4F/port.c **** 		{
 825              		.loc 1 516 25 view .LVU141
 826 0002 4149     		ldr	r1, .L61+4	@ tmp149,
 827              	@ ../../kernel/FreeRTOS/Source/portable/GCC/ARM_CM4F/port.c:525: 		portNVIC_SYSTICK_CTRL_REG &= ~po
 525:../../kernel/FreeRTOS/Source/portable/GCC/ARM_CM4F/port.c **** 
 828              		.loc 1 525 29 view .LVU142
 829 0004 1368     		ldr	r3, [r2]	@ _3, MEM[(volatile uint32_t *)3758153744B]
 830              	@ ../../kernel/FreeRTOS/Source/portable/GCC/ARM_CM4F/port.c:511: 	{
 511:../../kernel/FreeRTOS/Source/portable/GCC/ARM_CM4F/port.c **** 	uint32_t ulReloadValue, ulCompleteTickPeriods, ulCompletedSysTickDecrements;
 831              		.loc 1 511 2 view .LVU143
 832 0006 2DE9F041 		push	{r4, r5, r6, r7, r8, lr}	@
 833              		.cfi_def_cfa_offset 24
 834              		.cfi_offset 4, -24
 835              		.cfi_offset 5, -20
 836              		.cfi_offset 6, -16
 837              		.cfi_offset 7, -12
 838              		.cfi_offset 8, -8
 839              		.cfi_offset 14, -4
 840 000a 0C68     		ldr	r4, [r1]	@ xMaximumPossibleSuppressedTicks, xMaximumPossibleSuppressedTicks
 841              	@ ../../kernel/FreeRTOS/Source/portable/GCC/ARM_CM4F/port.c:530: 		ulReloadValue = portNVIC_SYSTICK
 530:../../kernel/FreeRTOS/Source/portable/GCC/ARM_CM4F/port.c **** 		if( ulReloadValue > ulStoppedTimerCompensation )
 842              		.loc 1 530 82 view .LVU144
 843 000c 3F4D     		ldr	r5, .L61+8	@ tmp197,
 844              	@ ../../kernel/FreeRTOS/Source/portable/GCC/ARM_CM4F/port.c:530: 		ulReloadValue = portNVIC_SYSTICK
 530:../../kernel/FreeRTOS/Source/portable/GCC/ARM_CM4F/port.c **** 		if( ulReloadValue > ulStoppedTimerCompensation )
 845              		.loc 1 530 19 view .LVU145
 846 000e 4049     		ldr	r1, .L61+12	@ tmp153,
 847              	@ ../../kernel/FreeRTOS/Source/portable/GCC/ARM_CM4F/port.c:531: 		if( ulReloadValue > ulStoppedTim
 531:../../kernel/FreeRTOS/Source/portable/GCC/ARM_CM4F/port.c **** 		{
 848              		.loc 1 531 21 view .LVU146
 849 0010 404F     		ldr	r7, .L61+16	@ tmp196,
 850 0012 8442     		cmp	r4, r0	@ xMaximumPossibleSuppressedTicks, xExpectedIdleTime
 851              	@ ../../kernel/FreeRTOS/Source/portable/GCC/ARM_CM4F/port.c:525: 		portNVIC_SYSTICK_CTRL_REG &= ~po
 525:../../kernel/FreeRTOS/Source/portable/GCC/ARM_CM4F/port.c **** 
 852              		.loc 1 525 29 view .LVU147
 853 0014 23F00103 		bic	r3, r3, #1	@ _4, _3,
 854 0018 28BF     		it	cs
 855 001a 0446     		movcs	r4, r0	@ xMaximumPossibleSuppressedTicks, xExpectedIdleTime
 856 001c 1360     		str	r3, [r2]	@ _4, MEM[(volatile uint32_t *)3758153744B]
 857 001e A046     		mov	r8, r4	@ xExpectedIdleTime, xMaximumPossibleSuppressedTicks
 858              	.LVL16:
 525:../../kernel/FreeRTOS/Source/portable/GCC/ARM_CM4F/port.c **** 
 859              		.loc 1 525 3 is_stmt 1 view .LVU148
 530:../../kernel/FreeRTOS/Source/portable/GCC/ARM_CM4F/port.c **** 		if( ulReloadValue > ulStoppedTimerCompensation )
 860              		.loc 1 530 3 view .LVU149
 861              	@ ../../kernel/FreeRTOS/Source/portable/GCC/ARM_CM4F/port.c:530: 		ulReloadValue = portNVIC_SYSTICK
 530:../../kernel/FreeRTOS/Source/portable/GCC/ARM_CM4F/port.c **** 		if( ulReloadValue > ulStoppedTimerCompensation )
 862              		.loc 1 530 19 is_stmt 0 view .LVU150
 863 0020 0968     		ldr	r1, [r1]	@ _5, MEM[(volatile uint32_t *)3758153752B]
 864              	@ ../../kernel/FreeRTOS/Source/portable/GCC/ARM_CM4F/port.c:530: 		ulReloadValue = portNVIC_SYSTICK
 530:../../kernel/FreeRTOS/Source/portable/GCC/ARM_CM4F/port.c **** 		if( ulReloadValue > ulStoppedTimerCompensation )
 865              		.loc 1 530 82 view .LVU151
 866 0022 2C68     		ldr	r4, [r5]	@ ulTimerCountsForOneTick, ulTimerCountsForOneTick
 867              	.LVL17:
 868              	@ ../../kernel/FreeRTOS/Source/portable/GCC/ARM_CM4F/port.c:531: 		if( ulReloadValue > ulStoppedTim
ARM GAS  /tmp/cc5qDK7o.s 			page 35


 531:../../kernel/FreeRTOS/Source/portable/GCC/ARM_CM4F/port.c **** 		{
 869              		.loc 1 531 21 view .LVU152
 870 0024 3A68     		ldr	r2, [r7]	@ ulStoppedTimerCompensation.21_9, ulStoppedTimerCompensation
 871              	@ ../../kernel/FreeRTOS/Source/portable/GCC/ARM_CM4F/port.c:530: 		ulReloadValue = portNVIC_SYSTICK
 530:../../kernel/FreeRTOS/Source/portable/GCC/ARM_CM4F/port.c **** 		if( ulReloadValue > ulStoppedTimerCompensation )
 872              		.loc 1 530 104 view .LVU153
 873 0026 08F1FF36 		add	r6, r8, #-1	@ ulCompleteTickPeriods, xExpectedIdleTime,
 874              	@ ../../kernel/FreeRTOS/Source/portable/GCC/ARM_CM4F/port.c:530: 		ulReloadValue = portNVIC_SYSTICK
 530:../../kernel/FreeRTOS/Source/portable/GCC/ARM_CM4F/port.c **** 		if( ulReloadValue > ulStoppedTimerCompensation )
 875              		.loc 1 530 17 view .LVU154
 876 002a 04FB0614 		mla	r4, r4, r6, r1	@ ulReloadValue, ulTimerCountsForOneTick, ulCompleteTickPeriods, _5
 877              	.LVL18:
 531:../../kernel/FreeRTOS/Source/portable/GCC/ARM_CM4F/port.c **** 		{
 878              		.loc 1 531 3 is_stmt 1 view .LVU155
 879              	@ ../../kernel/FreeRTOS/Source/portable/GCC/ARM_CM4F/port.c:531: 		if( ulReloadValue > ulStoppedTim
 531:../../kernel/FreeRTOS/Source/portable/GCC/ARM_CM4F/port.c **** 		{
 880              		.loc 1 531 5 is_stmt 0 view .LVU156
 881 002e A242     		cmp	r2, r4	@ ulStoppedTimerCompensation.21_9, ulReloadValue
 533:../../kernel/FreeRTOS/Source/portable/GCC/ARM_CM4F/port.c **** 		}
 882              		.loc 1 533 4 is_stmt 1 view .LVU157
 883              	@ ../../kernel/FreeRTOS/Source/portable/GCC/ARM_CM4F/port.c:533: 			ulReloadValue -= ulStoppedTimer
 533:../../kernel/FreeRTOS/Source/portable/GCC/ARM_CM4F/port.c **** 		}
 884              		.loc 1 533 18 is_stmt 0 view .LVU158
 885 0030 38BF     		it	cc
 886 0032 A41A     		subcc	r4, r4, r2	@ ulReloadValue, ulReloadValue, ulStoppedTimerCompensation.21_9
 887              	.LVL19:
 538:../../kernel/FreeRTOS/Source/portable/GCC/ARM_CM4F/port.c **** 		__asm volatile( "dsb" );
 888              		.loc 1 538 3 is_stmt 1 view .LVU159
 889              		.syntax unified
 890              	@ 538 "../../kernel/FreeRTOS/Source/portable/GCC/ARM_CM4F/port.c" 1
 891 0034 72B6     		cpsid i	
 892              	@ 0 "" 2
 539:../../kernel/FreeRTOS/Source/portable/GCC/ARM_CM4F/port.c **** 		__asm volatile( "isb" );
 893              		.loc 1 539 3 view .LVU160
 894              	@ 539 "../../kernel/FreeRTOS/Source/portable/GCC/ARM_CM4F/port.c" 1
 895 0036 BFF34F8F 		dsb
 896              	@ 0 "" 2
 540:../../kernel/FreeRTOS/Source/portable/GCC/ARM_CM4F/port.c **** 
 897              		.loc 1 540 3 view .LVU161
 898              	@ 540 "../../kernel/FreeRTOS/Source/portable/GCC/ARM_CM4F/port.c" 1
 899 003a BFF36F8F 		isb
 900              	@ 0 "" 2
 544:../../kernel/FreeRTOS/Source/portable/GCC/ARM_CM4F/port.c **** 		{
 901              		.loc 1 544 3 view .LVU162
 902              	@ ../../kernel/FreeRTOS/Source/portable/GCC/ARM_CM4F/port.c:544: 		if( eTaskConfirmSleepModeStatus(
 544:../../kernel/FreeRTOS/Source/portable/GCC/ARM_CM4F/port.c **** 		{
 903              		.loc 1 544 7 is_stmt 0 view .LVU163
 904              		.thumb
 905              		.syntax unified
 906 003e FFF7FEFF 		bl	eTaskConfirmSleepModeStatus		@
 907              	.LVL20:
 908              	@ ../../kernel/FreeRTOS/Source/portable/GCC/ARM_CM4F/port.c:544: 		if( eTaskConfirmSleepModeStatus(
 544:../../kernel/FreeRTOS/Source/portable/GCC/ARM_CM4F/port.c **** 		{
 909              		.loc 1 544 5 view .LVU164
 910 0042 70B9     		cbnz	r0, .L49	@,
 548:../../kernel/FreeRTOS/Source/portable/GCC/ARM_CM4F/port.c **** 
 911              		.loc 1 548 4 is_stmt 1 view .LVU165
ARM GAS  /tmp/cc5qDK7o.s 			page 36


 912              	@ ../../kernel/FreeRTOS/Source/portable/GCC/ARM_CM4F/port.c:548: 			portNVIC_SYSTICK_LOAD_REG = por
 548:../../kernel/FreeRTOS/Source/portable/GCC/ARM_CM4F/port.c **** 
 913              		.loc 1 548 32 is_stmt 0 view .LVU166
 914 0044 324B     		ldr	r3, .L61+12	@ tmp159,
 915              	@ ../../kernel/FreeRTOS/Source/portable/GCC/ARM_CM4F/port.c:548: 			portNVIC_SYSTICK_LOAD_REG = por
 548:../../kernel/FreeRTOS/Source/portable/GCC/ARM_CM4F/port.c **** 
 916              		.loc 1 548 30 view .LVU167
 917 0046 344A     		ldr	r2, .L61+20	@ tmp160,
 918              	@ ../../kernel/FreeRTOS/Source/portable/GCC/ARM_CM4F/port.c:548: 			portNVIC_SYSTICK_LOAD_REG = por
 548:../../kernel/FreeRTOS/Source/portable/GCC/ARM_CM4F/port.c **** 
 919              		.loc 1 548 32 view .LVU168
 920 0048 1B68     		ldr	r3, [r3]	@ _11, MEM[(volatile uint32_t *)3758153752B]
 921              	@ ../../kernel/FreeRTOS/Source/portable/GCC/ARM_CM4F/port.c:551: 			portNVIC_SYSTICK_CTRL_REG |= po
 551:../../kernel/FreeRTOS/Source/portable/GCC/ARM_CM4F/port.c **** 
 922              		.loc 1 551 30 view .LVU169
 923 004a 2E49     		ldr	r1, .L61	@ tmp161,
 924              	@ ../../kernel/FreeRTOS/Source/portable/GCC/ARM_CM4F/port.c:548: 			portNVIC_SYSTICK_LOAD_REG = por
 548:../../kernel/FreeRTOS/Source/portable/GCC/ARM_CM4F/port.c **** 
 925              		.loc 1 548 30 view .LVU170
 926 004c 1360     		str	r3, [r2]	@ _11, MEM[(volatile uint32_t *)3758153748B]
 551:../../kernel/FreeRTOS/Source/portable/GCC/ARM_CM4F/port.c **** 
 927              		.loc 1 551 4 is_stmt 1 view .LVU171
 928              	@ ../../kernel/FreeRTOS/Source/portable/GCC/ARM_CM4F/port.c:551: 			portNVIC_SYSTICK_CTRL_REG |= po
 551:../../kernel/FreeRTOS/Source/portable/GCC/ARM_CM4F/port.c **** 
 929              		.loc 1 551 30 is_stmt 0 view .LVU172
 930 004e 0B68     		ldr	r3, [r1]	@ _12, MEM[(volatile uint32_t *)3758153744B]
 931 0050 43F00103 		orr	r3, r3, #1	@ _13, _12,
 932 0054 0B60     		str	r3, [r1]	@ _13, MEM[(volatile uint32_t *)3758153744B]
 555:../../kernel/FreeRTOS/Source/portable/GCC/ARM_CM4F/port.c **** 
 933              		.loc 1 555 4 is_stmt 1 view .LVU173
 934              	@ ../../kernel/FreeRTOS/Source/portable/GCC/ARM_CM4F/port.c:555: 			portNVIC_SYSTICK_LOAD_REG = ulT
 555:../../kernel/FreeRTOS/Source/portable/GCC/ARM_CM4F/port.c **** 
 935              		.loc 1 555 56 is_stmt 0 view .LVU174
 936 0056 2B68     		ldr	r3, [r5]	@ ulTimerCountsForOneTick, ulTimerCountsForOneTick
 937 0058 013B     		subs	r3, r3, #1	@ _15, ulTimerCountsForOneTick,
 938              	@ ../../kernel/FreeRTOS/Source/portable/GCC/ARM_CM4F/port.c:555: 			portNVIC_SYSTICK_LOAD_REG = ulT
 555:../../kernel/FreeRTOS/Source/portable/GCC/ARM_CM4F/port.c **** 
 939              		.loc 1 555 30 view .LVU175
 940 005a 1360     		str	r3, [r2]	@ _15,
 559:../../kernel/FreeRTOS/Source/portable/GCC/ARM_CM4F/port.c **** 		}
 941              		.loc 1 559 4 is_stmt 1 view .LVU176
 942              		.syntax unified
 943              	@ 559 "../../kernel/FreeRTOS/Source/portable/GCC/ARM_CM4F/port.c" 1
 944 005c 62B6     		cpsie i	
 945              	@ 0 "" 2
 946              	@ ../../kernel/FreeRTOS/Source/portable/GCC/ARM_CM4F/port.c:670: 	}
 670:../../kernel/FreeRTOS/Source/portable/GCC/ARM_CM4F/port.c **** 
 947              		.loc 1 670 2 is_stmt 0 view .LVU177
 948              		.thumb
 949              		.syntax unified
 950 005e BDE8F081 		pop	{r4, r5, r6, r7, r8, pc}	@
 951              	.LVL21:
 952              	.L49:
 564:../../kernel/FreeRTOS/Source/portable/GCC/ARM_CM4F/port.c **** 
 953              		.loc 1 564 4 is_stmt 1 view .LVU178
 954              	@ ../../kernel/FreeRTOS/Source/portable/GCC/ARM_CM4F/port.c:564: 			portNVIC_SYSTICK_LOAD_REG = ulR
 564:../../kernel/FreeRTOS/Source/portable/GCC/ARM_CM4F/port.c **** 
ARM GAS  /tmp/cc5qDK7o.s 			page 37


 955              		.loc 1 564 30 is_stmt 0 view .LVU179
 956 0062 2D49     		ldr	r1, .L61+20	@ tmp166,
 957              	@ ../../kernel/FreeRTOS/Source/portable/GCC/ARM_CM4F/port.c:568: 			portNVIC_SYSTICK_CURRENT_VALUE_
 568:../../kernel/FreeRTOS/Source/portable/GCC/ARM_CM4F/port.c **** 
 958              		.loc 1 568 39 view .LVU180
 959 0064 2A4A     		ldr	r2, .L61+12	@ tmp167,
 960              	@ ../../kernel/FreeRTOS/Source/portable/GCC/ARM_CM4F/port.c:564: 			portNVIC_SYSTICK_LOAD_REG = ulR
 564:../../kernel/FreeRTOS/Source/portable/GCC/ARM_CM4F/port.c **** 
 961              		.loc 1 564 30 view .LVU181
 962 0066 0C60     		str	r4, [r1]	@ ulReloadValue, MEM[(volatile uint32_t *)3758153748B]
 568:../../kernel/FreeRTOS/Source/portable/GCC/ARM_CM4F/port.c **** 
 963              		.loc 1 568 4 is_stmt 1 view .LVU182
 964              	@ ../../kernel/FreeRTOS/Source/portable/GCC/ARM_CM4F/port.c:571: 			portNVIC_SYSTICK_CTRL_REG |= po
 571:../../kernel/FreeRTOS/Source/portable/GCC/ARM_CM4F/port.c **** 
 965              		.loc 1 571 30 is_stmt 0 view .LVU183
 966 0068 264B     		ldr	r3, .L61	@ tmp169,
 967              	@ ../../kernel/FreeRTOS/Source/portable/GCC/ARM_CM4F/port.c:568: 			portNVIC_SYSTICK_CURRENT_VALUE_
 568:../../kernel/FreeRTOS/Source/portable/GCC/ARM_CM4F/port.c **** 
 968              		.loc 1 568 39 view .LVU184
 969 006a 0021     		movs	r1, #0	@ tmp168,
 970 006c 1160     		str	r1, [r2]	@ tmp168, MEM[(volatile uint32_t *)3758153752B]
 571:../../kernel/FreeRTOS/Source/portable/GCC/ARM_CM4F/port.c **** 
 971              		.loc 1 571 4 is_stmt 1 view .LVU185
 972              	@ ../../kernel/FreeRTOS/Source/portable/GCC/ARM_CM4F/port.c:571: 			portNVIC_SYSTICK_CTRL_REG |= po
 571:../../kernel/FreeRTOS/Source/portable/GCC/ARM_CM4F/port.c **** 
 973              		.loc 1 571 30 is_stmt 0 view .LVU186
 974 006e 1A68     		ldr	r2, [r3]	@ _16, MEM[(volatile uint32_t *)3758153744B]
 975 0070 42F00102 		orr	r2, r2, #1	@ _17, _16,
 976 0074 1A60     		str	r2, [r3]	@ _17, MEM[(volatile uint32_t *)3758153744B]
 578:../../kernel/FreeRTOS/Source/portable/GCC/ARM_CM4F/port.c **** 			configPRE_SLEEP_PROCESSING( xModifiableIdleTime );
 977              		.loc 1 578 4 is_stmt 1 view .LVU187
 978              	.LVL22:
 579:../../kernel/FreeRTOS/Source/portable/GCC/ARM_CM4F/port.c **** 			if( xModifiableIdleTime > 0 )
 979              		.loc 1 579 53 view .LVU188
 580:../../kernel/FreeRTOS/Source/portable/GCC/ARM_CM4F/port.c **** 			{
 980              		.loc 1 580 4 view .LVU189
 981              	@ ../../kernel/FreeRTOS/Source/portable/GCC/ARM_CM4F/port.c:580: 			if( xModifiableIdleTime > 0 )
 580:../../kernel/FreeRTOS/Source/portable/GCC/ARM_CM4F/port.c **** 			{
 982              		.loc 1 580 6 is_stmt 0 view .LVU190
 983 0076 B8F1000F 		cmp	r8, #0	@ xExpectedIdleTime
 984 007a 04D0     		beq	.L51	@
 582:../../kernel/FreeRTOS/Source/portable/GCC/ARM_CM4F/port.c **** 				__asm volatile( "wfi" );
 985              		.loc 1 582 5 is_stmt 1 view .LVU191
 986              		.syntax unified
 987              	@ 582 "../../kernel/FreeRTOS/Source/portable/GCC/ARM_CM4F/port.c" 1
 988 007c BFF34F8F 		dsb	
 989              	@ 0 "" 2
 583:../../kernel/FreeRTOS/Source/portable/GCC/ARM_CM4F/port.c **** 				__asm volatile( "isb" );
 990              		.loc 1 583 5 view .LVU192
 991              	@ 583 "../../kernel/FreeRTOS/Source/portable/GCC/ARM_CM4F/port.c" 1
 992 0080 30BF     		wfi
 993              	@ 0 "" 2
 584:../../kernel/FreeRTOS/Source/portable/GCC/ARM_CM4F/port.c **** 			}
 994              		.loc 1 584 5 view .LVU193
 995              	@ 584 "../../kernel/FreeRTOS/Source/portable/GCC/ARM_CM4F/port.c" 1
 996 0082 BFF36F8F 		isb
 997              	@ 0 "" 2
ARM GAS  /tmp/cc5qDK7o.s 			page 38


 998              		.thumb
 999              		.syntax unified
 1000              	.L51:
 586:../../kernel/FreeRTOS/Source/portable/GCC/ARM_CM4F/port.c **** 
 1001              		.loc 1 586 52 view .LVU194
 591:../../kernel/FreeRTOS/Source/portable/GCC/ARM_CM4F/port.c **** 			__asm volatile( "dsb" );
 1002              		.loc 1 591 4 view .LVU195
 1003              		.syntax unified
 1004              	@ 591 "../../kernel/FreeRTOS/Source/portable/GCC/ARM_CM4F/port.c" 1
 1005 0086 62B6     		cpsie i	
 1006              	@ 0 "" 2
 592:../../kernel/FreeRTOS/Source/portable/GCC/ARM_CM4F/port.c **** 			__asm volatile( "isb" );
 1007              		.loc 1 592 4 view .LVU196
 1008              	@ 592 "../../kernel/FreeRTOS/Source/portable/GCC/ARM_CM4F/port.c" 1
 1009 0088 BFF34F8F 		dsb
 1010              	@ 0 "" 2
 593:../../kernel/FreeRTOS/Source/portable/GCC/ARM_CM4F/port.c **** 
 1011              		.loc 1 593 4 view .LVU197
 1012              	@ 593 "../../kernel/FreeRTOS/Source/portable/GCC/ARM_CM4F/port.c" 1
 1013 008c BFF36F8F 		isb
 1014              	@ 0 "" 2
 599:../../kernel/FreeRTOS/Source/portable/GCC/ARM_CM4F/port.c **** 			__asm volatile( "dsb" );
 1015              		.loc 1 599 4 view .LVU198
 1016              	@ 599 "../../kernel/FreeRTOS/Source/portable/GCC/ARM_CM4F/port.c" 1
 1017 0090 72B6     		cpsid i	
 1018              	@ 0 "" 2
 600:../../kernel/FreeRTOS/Source/portable/GCC/ARM_CM4F/port.c **** 			__asm volatile( "isb" );
 1019              		.loc 1 600 4 view .LVU199
 1020              	@ 600 "../../kernel/FreeRTOS/Source/portable/GCC/ARM_CM4F/port.c" 1
 1021 0092 BFF34F8F 		dsb
 1022              	@ 0 "" 2
 601:../../kernel/FreeRTOS/Source/portable/GCC/ARM_CM4F/port.c **** 
 1023              		.loc 1 601 4 view .LVU200
 1024              	@ 601 "../../kernel/FreeRTOS/Source/portable/GCC/ARM_CM4F/port.c" 1
 1025 0096 BFF36F8F 		isb
 1026              	@ 0 "" 2
 610:../../kernel/FreeRTOS/Source/portable/GCC/ARM_CM4F/port.c **** 
 1027              		.loc 1 610 4 view .LVU201
 1028              	@ ../../kernel/FreeRTOS/Source/portable/GCC/ARM_CM4F/port.c:610: 			portNVIC_SYSTICK_CTRL_REG = ( p
 610:../../kernel/FreeRTOS/Source/portable/GCC/ARM_CM4F/port.c **** 
 1029              		.loc 1 610 30 is_stmt 0 view .LVU202
 1030              		.thumb
 1031              		.syntax unified
 1032 009a 1A4B     		ldr	r3, .L61	@ tmp171,
 1033 009c 0622     		movs	r2, #6	@ tmp172,
 1034 009e 1A60     		str	r2, [r3]	@ tmp172, MEM[(volatile uint32_t *)3758153744B]
 617:../../kernel/FreeRTOS/Source/portable/GCC/ARM_CM4F/port.c **** 			{
 1035              		.loc 1 617 4 is_stmt 1 view .LVU203
 1036              	@ ../../kernel/FreeRTOS/Source/portable/GCC/ARM_CM4F/port.c:617: 			if( ( portNVIC_SYSTICK_CTRL_REG
 617:../../kernel/FreeRTOS/Source/portable/GCC/ARM_CM4F/port.c **** 			{
 1037              		.loc 1 617 10 is_stmt 0 view .LVU204
 1038 00a0 1B68     		ldr	r3, [r3]	@ _18, MEM[(volatile uint32_t *)3758153744B]
 1039              	.LBB67:
 1040              	@ ../../kernel/FreeRTOS/Source/portable/GCC/ARM_CM4F/port.c:625: 				ulCalculatedLoadValue = ( ulTi
 625:../../kernel/FreeRTOS/Source/portable/GCC/ARM_CM4F/port.c **** 
 1041              		.loc 1 625 63 view .LVU205
 1042 00a2 2A68     		ldr	r2, [r5]	@ ulTimerCountsForOneTick.24_20, ulTimerCountsForOneTick
ARM GAS  /tmp/cc5qDK7o.s 			page 39


 1043              	.LBE67:
 1044              	@ ../../kernel/FreeRTOS/Source/portable/GCC/ARM_CM4F/port.c:617: 			if( ( portNVIC_SYSTICK_CTRL_REG
 617:../../kernel/FreeRTOS/Source/portable/GCC/ARM_CM4F/port.c **** 			{
 1045              		.loc 1 617 6 view .LVU206
 1046 00a4 13F4803F 		tst	r3, #65536	@ _18,
 1047              	.LBB68:
 1048              	@ ../../kernel/FreeRTOS/Source/portable/GCC/ARM_CM4F/port.c:625: 				ulCalculatedLoadValue = ( ulTi
 625:../../kernel/FreeRTOS/Source/portable/GCC/ARM_CM4F/port.c **** 
 1049              		.loc 1 625 83 view .LVU207
 1050 00a8 194B     		ldr	r3, .L61+12	@ tmp176,
 1051              	.LBE68:
 1052              	@ ../../kernel/FreeRTOS/Source/portable/GCC/ARM_CM4F/port.c:617: 			if( ( portNVIC_SYSTICK_CTRL_REG
 617:../../kernel/FreeRTOS/Source/portable/GCC/ARM_CM4F/port.c **** 			{
 1053              		.loc 1 617 6 view .LVU208
 1054 00aa 0AD0     		beq	.L52		@,
 1055              	.LBB69:
 619:../../kernel/FreeRTOS/Source/portable/GCC/ARM_CM4F/port.c **** 
 1056              		.loc 1 619 5 is_stmt 1 view .LVU209
 625:../../kernel/FreeRTOS/Source/portable/GCC/ARM_CM4F/port.c **** 
 1057              		.loc 1 625 5 view .LVU210
 1058              	@ ../../kernel/FreeRTOS/Source/portable/GCC/ARM_CM4F/port.c:625: 				ulCalculatedLoadValue = ( ulTi
 625:../../kernel/FreeRTOS/Source/portable/GCC/ARM_CM4F/port.c **** 
 1059              		.loc 1 625 83 is_stmt 0 view .LVU211
 1060 00ac 1B68     		ldr	r3, [r3]	@ _21, MEM[(volatile uint32_t *)3758153752B]
 1061              	@ ../../kernel/FreeRTOS/Source/portable/GCC/ARM_CM4F/port.c:630: 				if( ( ulCalculatedLoadValue < 
 630:../../kernel/FreeRTOS/Source/portable/GCC/ARM_CM4F/port.c **** 				{
 1062              		.loc 1 630 7 view .LVU212
 1063 00ae 3968     		ldr	r1, [r7]	@ ulStoppedTimerCompensation, ulStoppedTimerCompensation
 1064              	@ ../../kernel/FreeRTOS/Source/portable/GCC/ARM_CM4F/port.c:625: 				ulCalculatedLoadValue = ( ulTi
 625:../../kernel/FreeRTOS/Source/portable/GCC/ARM_CM4F/port.c **** 
 1065              		.loc 1 625 27 view .LVU213
 1066 00b0 1344     		add	r3, r3, r2	@ tmp177, ulTimerCountsForOneTick.24_20
 1067 00b2 013B     		subs	r3, r3, #1	@ tmp178, tmp177,
 1068 00b4 1C1B     		subs	r4, r3, r4	@ ulCalculatedLoadValue, tmp178, ulReloadValue
 1069              	.LVL23:
 630:../../kernel/FreeRTOS/Source/portable/GCC/ARM_CM4F/port.c **** 				{
 1070              		.loc 1 630 5 is_stmt 1 view .LVU214
 1071              	@ ../../kernel/FreeRTOS/Source/portable/GCC/ARM_CM4F/port.c:630: 				if( ( ulCalculatedLoadValue < 
 630:../../kernel/FreeRTOS/Source/portable/GCC/ARM_CM4F/port.c **** 				{
 1072              		.loc 1 630 7 is_stmt 0 view .LVU215
 1073 00b6 A142     		cmp	r1, r4	@ ulStoppedTimerCompensation, ulCalculatedLoadValue
 1074 00b8 21D9     		bls	.L60		@,
 1075              	.L53:
 632:../../kernel/FreeRTOS/Source/portable/GCC/ARM_CM4F/port.c **** 				}
 1076              		.loc 1 632 6 is_stmt 1 view .LVU216
 1077              	@ ../../kernel/FreeRTOS/Source/portable/GCC/ARM_CM4F/port.c:632: 					ulCalculatedLoadValue = ( ulT
 632:../../kernel/FreeRTOS/Source/portable/GCC/ARM_CM4F/port.c **** 				}
 1078              		.loc 1 632 28 is_stmt 0 view .LVU217
 1079 00ba 541E     		subs	r4, r2, #1	@ ulCalculatedLoadValue, ulTimerCountsForOneTick.24_20,
 1080              	.LVL24:
 1081              	.L54:
 635:../../kernel/FreeRTOS/Source/portable/GCC/ARM_CM4F/port.c **** 
 1082              		.loc 1 635 5 is_stmt 1 view .LVU218
 1083              	@ ../../kernel/FreeRTOS/Source/portable/GCC/ARM_CM4F/port.c:635: 				portNVIC_SYSTICK_LOAD_REG = ul
 635:../../kernel/FreeRTOS/Source/portable/GCC/ARM_CM4F/port.c **** 
 1084              		.loc 1 635 31 is_stmt 0 view .LVU219
 1085 00bc 164B     		ldr	r3, .L61+20	@ tmp181,
ARM GAS  /tmp/cc5qDK7o.s 			page 40


 1086 00be 1C60     		str	r4, [r3]	@ ulCalculatedLoadValue, MEM[(volatile uint32_t *)3758153748B]
 640:../../kernel/FreeRTOS/Source/portable/GCC/ARM_CM4F/port.c **** 			}
 1087              		.loc 1 640 5 is_stmt 1 view .LVU220
 1088              	.LVL25:
 640:../../kernel/FreeRTOS/Source/portable/GCC/ARM_CM4F/port.c **** 			}
 1089              		.loc 1 640 5 is_stmt 0 view .LVU221
 1090              	.LBE69:
 1091 00c0 0BE0     		b	.L55		@
 1092              	.LVL26:
 1093              	.L52:
 648:../../kernel/FreeRTOS/Source/portable/GCC/ARM_CM4F/port.c **** 
 1094              		.loc 1 648 5 is_stmt 1 view .LVU222
 1095              	@ ../../kernel/FreeRTOS/Source/portable/GCC/ARM_CM4F/port.c:648: 				ulCompletedSysTickDecrements =
 648:../../kernel/FreeRTOS/Source/portable/GCC/ARM_CM4F/port.c **** 
 1096              		.loc 1 648 86 is_stmt 0 view .LVU223
 1097 00c2 1968     		ldr	r1, [r3]	@ _27, MEM[(volatile uint32_t *)3758153752B]
 1098              	@ ../../kernel/FreeRTOS/Source/portable/GCC/ARM_CM4F/port.c:656: 				portNVIC_SYSTICK_LOAD_REG = ( 
 656:../../kernel/FreeRTOS/Source/portable/GCC/ARM_CM4F/port.c **** 			}
 1099              		.loc 1 656 31 view .LVU224
 1100 00c4 1448     		ldr	r0, .L61+20	@ tmp188,
 1101              	@ ../../kernel/FreeRTOS/Source/portable/GCC/ARM_CM4F/port.c:648: 				ulCompletedSysTickDecrements =
 648:../../kernel/FreeRTOS/Source/portable/GCC/ARM_CM4F/port.c **** 
 1102              		.loc 1 648 56 view .LVU225
 1103 00c6 08FB02F3 		mul	r3, r8, r2	@ _26, xExpectedIdleTime, ulTimerCountsForOneTick.28_25
 1104              	.LVL27:
 652:../../kernel/FreeRTOS/Source/portable/GCC/ARM_CM4F/port.c **** 
 1105              		.loc 1 652 5 is_stmt 1 view .LVU226
 1106              	@ ../../kernel/FreeRTOS/Source/portable/GCC/ARM_CM4F/port.c:648: 				ulCompletedSysTickDecrements =
 648:../../kernel/FreeRTOS/Source/portable/GCC/ARM_CM4F/port.c **** 
 1107              		.loc 1 648 34 is_stmt 0 view .LVU227
 1108 00ca 5E1A     		subs	r6, r3, r1	@ ulCompletedSysTickDecrements, _26, _27
 1109              	.LVL28:
 1110              	@ ../../kernel/FreeRTOS/Source/portable/GCC/ARM_CM4F/port.c:656: 				portNVIC_SYSTICK_LOAD_REG = ( 
 656:../../kernel/FreeRTOS/Source/portable/GCC/ARM_CM4F/port.c **** 			}
 1111              		.loc 1 656 95 view .LVU228
 1112 00cc CB1A     		subs	r3, r1, r3	@ tmp187, _27, _26
 1113              	@ ../../kernel/FreeRTOS/Source/portable/GCC/ARM_CM4F/port.c:652: 				ulCompleteTickPeriods = ulComp
 652:../../kernel/FreeRTOS/Source/portable/GCC/ARM_CM4F/port.c **** 
 1114              		.loc 1 652 27 view .LVU229
 1115 00ce B6FBF2F6 		udiv	r6, r6, r2	@ ulCompleteTickPeriods, ulCompletedSysTickDecrements, ulTimerCountsForOneTick.28_
 1116              	.LVL29:
 656:../../kernel/FreeRTOS/Source/portable/GCC/ARM_CM4F/port.c **** 			}
 1117              		.loc 1 656 5 is_stmt 1 view .LVU230
 1118              	@ ../../kernel/FreeRTOS/Source/portable/GCC/ARM_CM4F/port.c:656: 				portNVIC_SYSTICK_LOAD_REG = ( 
 656:../../kernel/FreeRTOS/Source/portable/GCC/ARM_CM4F/port.c **** 			}
 1119              		.loc 1 656 67 is_stmt 0 view .LVU231
 1120 00d2 06FB0222 		mla	r2, r6, r2, r2	@ tmp186, ulCompleteTickPeriods, ulTimerCountsForOneTick.28_25, ulTimerCountsFo
 1121              	.LVL30:
 1122              	@ ../../kernel/FreeRTOS/Source/portable/GCC/ARM_CM4F/port.c:656: 				portNVIC_SYSTICK_LOAD_REG = ( 
 656:../../kernel/FreeRTOS/Source/portable/GCC/ARM_CM4F/port.c **** 			}
 1123              		.loc 1 656 95 view .LVU232
 1124 00d6 1A44     		add	r2, r2, r3	@ _30, tmp187
 1125              	@ ../../kernel/FreeRTOS/Source/portable/GCC/ARM_CM4F/port.c:656: 				portNVIC_SYSTICK_LOAD_REG = ( 
 656:../../kernel/FreeRTOS/Source/portable/GCC/ARM_CM4F/port.c **** 			}
 1126              		.loc 1 656 31 view .LVU233
 1127 00d8 0260     		str	r2, [r0]	@ _30, MEM[(volatile uint32_t *)3758153748B]
 1128              	.LVL31:
ARM GAS  /tmp/cc5qDK7o.s 			page 41


 1129              	.L55:
 662:../../kernel/FreeRTOS/Source/portable/GCC/ARM_CM4F/port.c **** 			portNVIC_SYSTICK_CTRL_REG |= portNVIC_SYSTICK_ENABLE_BIT;
 1130              		.loc 1 662 4 is_stmt 1 view .LVU234
 1131              	@ ../../kernel/FreeRTOS/Source/portable/GCC/ARM_CM4F/port.c:662: 			portNVIC_SYSTICK_CURRENT_VALUE_
 662:../../kernel/FreeRTOS/Source/portable/GCC/ARM_CM4F/port.c **** 			portNVIC_SYSTICK_CTRL_REG |= portNVIC_SYSTICK_ENABLE_BIT;
 1132              		.loc 1 662 39 is_stmt 0 view .LVU235
 1133 00da 0D4B     		ldr	r3, .L61+12	@ tmp189,
 1134              	@ ../../kernel/FreeRTOS/Source/portable/GCC/ARM_CM4F/port.c:663: 			portNVIC_SYSTICK_CTRL_REG |= po
 663:../../kernel/FreeRTOS/Source/portable/GCC/ARM_CM4F/port.c **** 			vTaskStepTick( ulCompleteTickPeriods );
 1135              		.loc 1 663 30 view .LVU236
 1136 00dc 094A     		ldr	r2, .L61	@ tmp191,
 1137              	@ ../../kernel/FreeRTOS/Source/portable/GCC/ARM_CM4F/port.c:662: 			portNVIC_SYSTICK_CURRENT_VALUE_
 662:../../kernel/FreeRTOS/Source/portable/GCC/ARM_CM4F/port.c **** 			portNVIC_SYSTICK_CTRL_REG |= portNVIC_SYSTICK_ENABLE_BIT;
 1138              		.loc 1 662 39 view .LVU237
 1139 00de 0021     		movs	r1, #0	@ tmp190,
 1140 00e0 1960     		str	r1, [r3]	@ tmp190, MEM[(volatile uint32_t *)3758153752B]
 663:../../kernel/FreeRTOS/Source/portable/GCC/ARM_CM4F/port.c **** 			vTaskStepTick( ulCompleteTickPeriods );
 1141              		.loc 1 663 4 is_stmt 1 view .LVU238
 1142              	@ ../../kernel/FreeRTOS/Source/portable/GCC/ARM_CM4F/port.c:663: 			portNVIC_SYSTICK_CTRL_REG |= po
 663:../../kernel/FreeRTOS/Source/portable/GCC/ARM_CM4F/port.c **** 			vTaskStepTick( ulCompleteTickPeriods );
 1143              		.loc 1 663 30 is_stmt 0 view .LVU239
 1144 00e2 1368     		ldr	r3, [r2]	@ _31, MEM[(volatile uint32_t *)3758153744B]
 1145 00e4 43F00103 		orr	r3, r3, #1	@ _32, _31,
 1146 00e8 1360     		str	r3, [r2]	@ _32, MEM[(volatile uint32_t *)3758153744B]
 664:../../kernel/FreeRTOS/Source/portable/GCC/ARM_CM4F/port.c **** 			portNVIC_SYSTICK_LOAD_REG = ulTimerCountsForOneTick - 1UL;
 1147              		.loc 1 664 4 is_stmt 1 view .LVU240
 1148 00ea 3046     		mov	r0, r6	@, ulCompleteTickPeriods
 1149 00ec FFF7FEFF 		bl	vTaskStepTick		@
 1150              	.LVL32:
 665:../../kernel/FreeRTOS/Source/portable/GCC/ARM_CM4F/port.c **** 
 1151              		.loc 1 665 4 view .LVU241
 1152              	@ ../../kernel/FreeRTOS/Source/portable/GCC/ARM_CM4F/port.c:665: 			portNVIC_SYSTICK_LOAD_REG = ulT
 665:../../kernel/FreeRTOS/Source/portable/GCC/ARM_CM4F/port.c **** 
 1153              		.loc 1 665 56 is_stmt 0 view .LVU242
 1154 00f0 2B68     		ldr	r3, [r5]	@ ulTimerCountsForOneTick, ulTimerCountsForOneTick
 1155              	@ ../../kernel/FreeRTOS/Source/portable/GCC/ARM_CM4F/port.c:665: 			portNVIC_SYSTICK_LOAD_REG = ulT
 665:../../kernel/FreeRTOS/Source/portable/GCC/ARM_CM4F/port.c **** 
 1156              		.loc 1 665 30 view .LVU243
 1157 00f2 094A     		ldr	r2, .L61+20	@ tmp195,
 1158              	@ ../../kernel/FreeRTOS/Source/portable/GCC/ARM_CM4F/port.c:665: 			portNVIC_SYSTICK_LOAD_REG = ulT
 665:../../kernel/FreeRTOS/Source/portable/GCC/ARM_CM4F/port.c **** 
 1159              		.loc 1 665 56 view .LVU244
 1160 00f4 013B     		subs	r3, r3, #1	@ _34, ulTimerCountsForOneTick,
 1161              	@ ../../kernel/FreeRTOS/Source/portable/GCC/ARM_CM4F/port.c:665: 			portNVIC_SYSTICK_LOAD_REG = ulT
 665:../../kernel/FreeRTOS/Source/portable/GCC/ARM_CM4F/port.c **** 
 1162              		.loc 1 665 30 view .LVU245
 1163 00f6 1360     		str	r3, [r2]	@ _34,
 668:../../kernel/FreeRTOS/Source/portable/GCC/ARM_CM4F/port.c **** 		}
 1164              		.loc 1 668 4 is_stmt 1 view .LVU246
 1165              		.syntax unified
 1166              	@ 668 "../../kernel/FreeRTOS/Source/portable/GCC/ARM_CM4F/port.c" 1
 1167 00f8 62B6     		cpsie i	
 1168              	@ 0 "" 2
 1169              	@ ../../kernel/FreeRTOS/Source/portable/GCC/ARM_CM4F/port.c:670: 	}
 670:../../kernel/FreeRTOS/Source/portable/GCC/ARM_CM4F/port.c **** 
 1170              		.loc 1 670 2 is_stmt 0 view .LVU247
 1171              		.thumb
ARM GAS  /tmp/cc5qDK7o.s 			page 42


 1172              		.syntax unified
 1173 00fa BDE8F081 		pop	{r4, r5, r6, r7, r8, pc}	@
 1174              	.LVL33:
 1175              	.L60:
 1176              	.LBB70:
 1177              	@ ../../kernel/FreeRTOS/Source/portable/GCC/ARM_CM4F/port.c:630: 				if( ( ulCalculatedLoadValue < 
 630:../../kernel/FreeRTOS/Source/portable/GCC/ARM_CM4F/port.c **** 				{
 1178              		.loc 1 630 64 discriminator 1 view .LVU248
 1179 00fe A242     		cmp	r2, r4	@ ulTimerCountsForOneTick.24_20, ulCalculatedLoadValue
 1180 0100 DCD2     		bcs	.L54		@,
 1181 0102 DAE7     		b	.L53		@
 1182              	.L62:
 1183              		.align	2
 1184              	.L61:
 1185 0104 10E000E0 		.word	-536813552
 1186 0108 00000000 		.word	.LANCHOR1
 1187 010c 00000000 		.word	.LANCHOR2
 1188 0110 18E000E0 		.word	-536813544
 1189 0114 00000000 		.word	.LANCHOR3
 1190 0118 14E000E0 		.word	-536813548
 1191              	.LBE70:
 1192              		.cfi_endproc
 1193              	.LFE14:
 1194              		.size	vPortSuppressTicksAndSleep, .-vPortSuppressTicksAndSleep
 1195              		.section	.text.vPortSetupTimerInterrupt,"ax",%progbits
 1196              		.align	1
 1197              		.p2align 2,,3
 1198              		.weak	vPortSetupTimerInterrupt
 1199              		.syntax unified
 1200              		.thumb
 1201              		.thumb_func
 1202              		.fpu fpv4-sp-d16
 1203              		.type	vPortSetupTimerInterrupt, %function
 1204              	vPortSetupTimerInterrupt:
 1205              	.LFB15:
 680:../../kernel/FreeRTOS/Source/portable/GCC/ARM_CM4F/port.c **** 	/* Calculate the constants required to configure the tick interrupt. */
 1206              		.loc 1 680 1 is_stmt 1 view -0
 1207              		.cfi_startproc
 1208              		@ args = 0, pretend = 0, frame = 0
 1209              		@ frame_needed = 0, uses_anonymous_args = 0
 1210              		@ link register save eliminated.
 684:../../kernel/FreeRTOS/Source/portable/GCC/ARM_CM4F/port.c **** 		xMaximumPossibleSuppressedTicks = portMAX_24_BIT_NUMBER / ulTimerCountsForOneTick;
 1211              		.loc 1 684 3 view .LVU250
 1212              	@ ../../kernel/FreeRTOS/Source/portable/GCC/ARM_CM4F/port.c:680: {
 680:../../kernel/FreeRTOS/Source/portable/GCC/ARM_CM4F/port.c **** 	/* Calculate the constants required to configure the tick interrupt. */
 1213              		.loc 1 680 1 is_stmt 0 view .LVU251
 1214 0000 70B4     		push	{r4, r5, r6}	@
 1215              		.cfi_def_cfa_offset 12
 1216              		.cfi_offset 4, -12
 1217              		.cfi_offset 5, -8
 1218              		.cfi_offset 6, -4
 1219              	@ ../../kernel/FreeRTOS/Source/portable/GCC/ARM_CM4F/port.c:684: 		ulTimerCountsForOneTick = ( conf
 684:../../kernel/FreeRTOS/Source/portable/GCC/ARM_CM4F/port.c **** 		xMaximumPossibleSuppressedTicks = portMAX_24_BIT_NUMBER / ulTimerCountsForOneTick;
 1220              		.loc 1 684 27 view .LVU252
 1221 0002 0A48     		ldr	r0, .L65	@ tmp110,
 1222              	@ ../../kernel/FreeRTOS/Source/portable/GCC/ARM_CM4F/port.c:685: 		xMaximumPossibleSuppressedTicks 
 685:../../kernel/FreeRTOS/Source/portable/GCC/ARM_CM4F/port.c **** 		ulStoppedTimerCompensation = portMISSED_COUNTS_FACTOR / ( configCPU_CLOCK_HZ / configSYSTICK_CLOC
ARM GAS  /tmp/cc5qDK7o.s 			page 43


 1223              		.loc 1 685 35 view .LVU253
 1224 0004 0A49     		ldr	r1, .L65+4	@ tmp112,
 1225              	@ ../../kernel/FreeRTOS/Source/portable/GCC/ARM_CM4F/port.c:686: 		ulStoppedTimerCompensation = por
 686:../../kernel/FreeRTOS/Source/portable/GCC/ARM_CM4F/port.c **** 	}
 1226              		.loc 1 686 30 view .LVU254
 1227 0006 0B4A     		ldr	r2, .L65+8	@ tmp114,
 1228              	@ ../../kernel/FreeRTOS/Source/portable/GCC/ARM_CM4F/port.c:684: 		ulTimerCountsForOneTick = ( conf
 684:../../kernel/FreeRTOS/Source/portable/GCC/ARM_CM4F/port.c **** 		xMaximumPossibleSuppressedTicks = portMAX_24_BIT_NUMBER / ulTimerCountsForOneTick;
 1229              		.loc 1 684 27 view .LVU255
 1230 0008 0B4C     		ldr	r4, .L65+12	@ tmp111,
 1231 000a 0460     		str	r4, [r0]	@ tmp111, ulTimerCountsForOneTick
 685:../../kernel/FreeRTOS/Source/portable/GCC/ARM_CM4F/port.c **** 		ulStoppedTimerCompensation = portMISSED_COUNTS_FACTOR / ( configCPU_CLOCK_HZ / configSYSTICK_CLOC
 1232              		.loc 1 685 3 is_stmt 1 view .LVU256
 1233              	@ ../../kernel/FreeRTOS/Source/portable/GCC/ARM_CM4F/port.c:685: 		xMaximumPossibleSuppressedTicks 
 685:../../kernel/FreeRTOS/Source/portable/GCC/ARM_CM4F/port.c **** 		ulStoppedTimerCompensation = portMISSED_COUNTS_FACTOR / ( configCPU_CLOCK_HZ / configSYSTICK_CLOC
 1234              		.loc 1 685 35 is_stmt 0 view .LVU257
 1235 000c 2A26     		movs	r6, #42	@ tmp113,
 1236 000e 0E60     		str	r6, [r1]	@ tmp113, xMaximumPossibleSuppressedTicks
 686:../../kernel/FreeRTOS/Source/portable/GCC/ARM_CM4F/port.c **** 	}
 1237              		.loc 1 686 3 is_stmt 1 view .LVU258
 1238              	@ ../../kernel/FreeRTOS/Source/portable/GCC/ARM_CM4F/port.c:691: 	portNVIC_SYSTICK_CTRL_REG = 0UL;
 691:../../kernel/FreeRTOS/Source/portable/GCC/ARM_CM4F/port.c **** 	portNVIC_SYSTICK_CURRENT_VALUE_REG = 0UL;
 1239              		.loc 1 691 28 is_stmt 0 view .LVU259
 1240 0010 0A4B     		ldr	r3, .L65+16	@ tmp116,
 1241              	@ ../../kernel/FreeRTOS/Source/portable/GCC/ARM_CM4F/port.c:692: 	portNVIC_SYSTICK_CURRENT_VALUE_RE
 692:../../kernel/FreeRTOS/Source/portable/GCC/ARM_CM4F/port.c **** 
 1242              		.loc 1 692 37 view .LVU260
 1243 0012 0B4D     		ldr	r5, .L65+20	@ tmp118,
 1244              	@ ../../kernel/FreeRTOS/Source/portable/GCC/ARM_CM4F/port.c:695: 	portNVIC_SYSTICK_LOAD_REG = ( con
 695:../../kernel/FreeRTOS/Source/portable/GCC/ARM_CM4F/port.c **** 	portNVIC_SYSTICK_CTRL_REG = ( portNVIC_SYSTICK_CLK_BIT | portNVIC_SYSTICK_INT_BIT | portNVIC_SYSTI
 1245              		.loc 1 695 28 view .LVU261
 1246 0014 0B48     		ldr	r0, .L65+24	@ tmp120,
 1247              	@ ../../kernel/FreeRTOS/Source/portable/GCC/ARM_CM4F/port.c:686: 		ulStoppedTimerCompensation = por
 686:../../kernel/FreeRTOS/Source/portable/GCC/ARM_CM4F/port.c **** 	}
 1248              		.loc 1 686 30 view .LVU262
 1249 0016 2D21     		movs	r1, #45	@ tmp115,
 1250 0018 1160     		str	r1, [r2]	@ tmp115, ulStoppedTimerCompensation
 691:../../kernel/FreeRTOS/Source/portable/GCC/ARM_CM4F/port.c **** 	portNVIC_SYSTICK_CURRENT_VALUE_REG = 0UL;
 1251              		.loc 1 691 2 is_stmt 1 view .LVU263
 1252              	@ ../../kernel/FreeRTOS/Source/portable/GCC/ARM_CM4F/port.c:695: 	portNVIC_SYSTICK_LOAD_REG = ( con
 695:../../kernel/FreeRTOS/Source/portable/GCC/ARM_CM4F/port.c **** 	portNVIC_SYSTICK_CTRL_REG = ( portNVIC_SYSTICK_CLK_BIT | portNVIC_SYSTICK_INT_BIT | portNVIC_SYSTI
 1253              		.loc 1 695 28 is_stmt 0 view .LVU264
 1254 001a 013C     		subs	r4, r4, #1	@ tmp121, tmp121,
 1255              	@ ../../kernel/FreeRTOS/Source/portable/GCC/ARM_CM4F/port.c:691: 	portNVIC_SYSTICK_CTRL_REG = 0UL;
 691:../../kernel/FreeRTOS/Source/portable/GCC/ARM_CM4F/port.c **** 	portNVIC_SYSTICK_CURRENT_VALUE_REG = 0UL;
 1256              		.loc 1 691 28 view .LVU265
 1257 001c 0022     		movs	r2, #0	@ tmp117,
 1258              	@ ../../kernel/FreeRTOS/Source/portable/GCC/ARM_CM4F/port.c:696: 	portNVIC_SYSTICK_CTRL_REG = ( por
 696:../../kernel/FreeRTOS/Source/portable/GCC/ARM_CM4F/port.c **** }
 1259              		.loc 1 696 28 view .LVU266
 1260 001e 0721     		movs	r1, #7	@ tmp123,
 1261              	@ ../../kernel/FreeRTOS/Source/portable/GCC/ARM_CM4F/port.c:691: 	portNVIC_SYSTICK_CTRL_REG = 0UL;
 691:../../kernel/FreeRTOS/Source/portable/GCC/ARM_CM4F/port.c **** 	portNVIC_SYSTICK_CURRENT_VALUE_REG = 0UL;
 1262              		.loc 1 691 28 view .LVU267
 1263 0020 1A60     		str	r2, [r3]	@ tmp117, MEM[(volatile uint32_t *)3758153744B]
 692:../../kernel/FreeRTOS/Source/portable/GCC/ARM_CM4F/port.c **** 
 1264              		.loc 1 692 2 is_stmt 1 view .LVU268
ARM GAS  /tmp/cc5qDK7o.s 			page 44


 1265              	@ ../../kernel/FreeRTOS/Source/portable/GCC/ARM_CM4F/port.c:692: 	portNVIC_SYSTICK_CURRENT_VALUE_RE
 692:../../kernel/FreeRTOS/Source/portable/GCC/ARM_CM4F/port.c **** 
 1266              		.loc 1 692 37 is_stmt 0 view .LVU269
 1267 0022 2A60     		str	r2, [r5]	@ tmp117, MEM[(volatile uint32_t *)3758153752B]
 695:../../kernel/FreeRTOS/Source/portable/GCC/ARM_CM4F/port.c **** 	portNVIC_SYSTICK_CTRL_REG = ( portNVIC_SYSTICK_CLK_BIT | portNVIC_SYSTICK_INT_BIT | portNVIC_SYSTI
 1268              		.loc 1 695 2 is_stmt 1 view .LVU270
 1269              	@ ../../kernel/FreeRTOS/Source/portable/GCC/ARM_CM4F/port.c:695: 	portNVIC_SYSTICK_LOAD_REG = ( con
 695:../../kernel/FreeRTOS/Source/portable/GCC/ARM_CM4F/port.c **** 	portNVIC_SYSTICK_CTRL_REG = ( portNVIC_SYSTICK_CLK_BIT | portNVIC_SYSTICK_INT_BIT | portNVIC_SYSTI
 1270              		.loc 1 695 28 is_stmt 0 view .LVU271
 1271 0024 0460     		str	r4, [r0]	@ tmp121, MEM[(volatile uint32_t *)3758153748B]
 696:../../kernel/FreeRTOS/Source/portable/GCC/ARM_CM4F/port.c **** }
 1272              		.loc 1 696 2 is_stmt 1 view .LVU272
 1273              	@ ../../kernel/FreeRTOS/Source/portable/GCC/ARM_CM4F/port.c:696: 	portNVIC_SYSTICK_CTRL_REG = ( por
 696:../../kernel/FreeRTOS/Source/portable/GCC/ARM_CM4F/port.c **** }
 1274              		.loc 1 696 28 is_stmt 0 view .LVU273
 1275 0026 1960     		str	r1, [r3]	@ tmp123, MEM[(volatile uint32_t *)3758153744B]
 1276              	@ ../../kernel/FreeRTOS/Source/portable/GCC/ARM_CM4F/port.c:697: }
 697:../../kernel/FreeRTOS/Source/portable/GCC/ARM_CM4F/port.c **** /*-----------------------------------------------------------*/
 1277              		.loc 1 697 1 view .LVU274
 1278 0028 70BC     		pop	{r4, r5, r6}	@
 1279              		.cfi_restore 6
 1280              		.cfi_restore 5
 1281              		.cfi_restore 4
 1282              		.cfi_def_cfa_offset 0
 1283 002a 7047     		bx	lr	@
 1284              	.L66:
 1285              		.align	2
 1286              	.L65:
 1287 002c 00000000 		.word	.LANCHOR2
 1288 0030 00000000 		.word	.LANCHOR1
 1289 0034 00000000 		.word	.LANCHOR3
 1290 0038 E00A0600 		.word	396000
 1291 003c 10E000E0 		.word	-536813552
 1292 0040 18E000E0 		.word	-536813544
 1293 0044 14E000E0 		.word	-536813548
 1294              		.cfi_endproc
 1295              	.LFE15:
 1296              		.size	vPortSetupTimerInterrupt, .-vPortSetupTimerInterrupt
 1297              		.section	.text.xPortStartScheduler,"ax",%progbits
 1298              		.align	1
 1299              		.p2align 2,,3
 1300              		.global	xPortStartScheduler
 1301              		.syntax unified
 1302              		.thumb
 1303              		.thumb_func
 1304              		.fpu fpv4-sp-d16
 1305              		.type	xPortStartScheduler, %function
 1306              	xPortStartScheduler:
 1307              	.LFB8:
 288:../../kernel/FreeRTOS/Source/portable/GCC/ARM_CM4F/port.c **** 	/* configMAX_SYSCALL_INTERRUPT_PRIORITY must not be set to 0.
 1308              		.loc 1 288 1 is_stmt 1 view -0
 1309              		.cfi_startproc
 1310              		@ args = 0, pretend = 0, frame = 16
 1311              		@ frame_needed = 0, uses_anonymous_args = 0
 291:../../kernel/FreeRTOS/Source/portable/GCC/ARM_CM4F/port.c **** 
 1312              		.loc 1 291 2 view .LVU276
 291:../../kernel/FreeRTOS/Source/portable/GCC/ARM_CM4F/port.c **** 
ARM GAS  /tmp/cc5qDK7o.s 			page 45


 1313              		.loc 1 291 54 view .LVU277
 296:../../kernel/FreeRTOS/Source/portable/GCC/ARM_CM4F/port.c **** 	configASSERT( portCPUID != portCORTEX_M7_r0p0_ID );
 1314              		.loc 1 296 2 view .LVU278
 1315 0000 454B     		ldr	r3, .L87	@ tmp142,
 1316 0002 464A     		ldr	r2, .L87+4	@ tmp143,
 1317 0004 1968     		ldr	r1, [r3]	@ _1, MEM[(volatile uint32_t *)3758157056B]
 1318 0006 9142     		cmp	r1, r2	@ _1, tmp143
 1319 0008 41D0     		beq	.L85		@,
 296:../../kernel/FreeRTOS/Source/portable/GCC/ARM_CM4F/port.c **** 	configASSERT( portCPUID != portCORTEX_M7_r0p0_ID );
 1320              		.loc 1 296 52 discriminator 2 view .LVU279
 297:../../kernel/FreeRTOS/Source/portable/GCC/ARM_CM4F/port.c **** 
 1321              		.loc 1 297 2 discriminator 2 view .LVU280
 1322 000a 1A68     		ldr	r2, [r3]	@ _3, MEM[(volatile uint32_t *)3758157056B]
 1323 000c 444B     		ldr	r3, .L87+8	@ tmp146,
 1324 000e 9A42     		cmp	r2, r3	@ _3, tmp146
 1325 0010 34D0     		beq	.L86		@,
 297:../../kernel/FreeRTOS/Source/portable/GCC/ARM_CM4F/port.c **** 
 1326              		.loc 1 297 52 discriminator 2 view .LVU281
 1327              	.LBB88:
 301:../../kernel/FreeRTOS/Source/portable/GCC/ARM_CM4F/port.c **** 		volatile uint8_t * const pucFirstUserPriorityRegister = ( volatile uint8_t * const ) ( portNVIC_I
 1328              		.loc 1 301 3 discriminator 2 view .LVU282
 302:../../kernel/FreeRTOS/Source/portable/GCC/ARM_CM4F/port.c **** 		volatile uint8_t ucMaxPriorityValue;
 1329              		.loc 1 302 3 discriminator 2 view .LVU283
 1330              	.LVL34:
 303:../../kernel/FreeRTOS/Source/portable/GCC/ARM_CM4F/port.c **** 
 1331              		.loc 1 303 3 discriminator 2 view .LVU284
 311:../../kernel/FreeRTOS/Source/portable/GCC/ARM_CM4F/port.c **** 
 1332              		.loc 1 311 3 discriminator 2 view .LVU285
 1333              	.LBE88:
 1334              	@ ../../kernel/FreeRTOS/Source/portable/GCC/ARM_CM4F/port.c:288: {
 288:../../kernel/FreeRTOS/Source/portable/GCC/ARM_CM4F/port.c **** 	/* configMAX_SYSCALL_INTERRUPT_PRIORITY must not be set to 0.
 1335              		.loc 1 288 1 is_stmt 0 discriminator 2 view .LVU286
 1336 0012 30B5     		push	{r4, r5, lr}	@
 1337              		.cfi_def_cfa_offset 12
 1338              		.cfi_offset 4, -12
 1339              		.cfi_offset 5, -8
 1340              		.cfi_offset 14, -4
 1341              	.LBB91:
 1342              	@ ../../kernel/FreeRTOS/Source/portable/GCC/ARM_CM4F/port.c:311: 		ulOriginalPriority = *pucFirstUs
 311:../../kernel/FreeRTOS/Source/portable/GCC/ARM_CM4F/port.c **** 
 1343              		.loc 1 311 24 discriminator 2 view .LVU287
 1344 0014 434B     		ldr	r3, .L87+12	@ tmp148,
 1345              	@ ../../kernel/FreeRTOS/Source/portable/GCC/ARM_CM4F/port.c:321: 		ucMaxSysCallPriority = configMAX
 321:../../kernel/FreeRTOS/Source/portable/GCC/ARM_CM4F/port.c **** 
 1346              		.loc 1 321 24 discriminator 2 view .LVU288
 1347 0016 444C     		ldr	r4, .L87+16	@ tmp161,
 1348              	@ ../../kernel/FreeRTOS/Source/portable/GCC/ARM_CM4F/port.c:311: 		ulOriginalPriority = *pucFirstUs
 311:../../kernel/FreeRTOS/Source/portable/GCC/ARM_CM4F/port.c **** 
 1349              		.loc 1 311 24 discriminator 2 view .LVU289
 1350 0018 1A78     		ldrb	r2, [r3]	@ zero_extendqisi2	@ MEM[(volatile uint8_t *)3758154752B], MEM[(volatile uint8_t *)3
 1351              	@ ../../kernel/FreeRTOS/Source/portable/GCC/ARM_CM4F/port.c:325: 		ulMaxPRIGROUPValue = portMAX_PRI
 325:../../kernel/FreeRTOS/Source/portable/GCC/ARM_CM4F/port.c **** 		while( ( ucMaxPriorityValue & portTOP_BIT_OF_BYTE ) == portTOP_BIT_OF_BYTE )
 1352              		.loc 1 325 22 discriminator 2 view .LVU290
 1353 001a 4449     		ldr	r1, .L87+20	@ tmp200,
 1354              	.LBE91:
 1355              	@ ../../kernel/FreeRTOS/Source/portable/GCC/ARM_CM4F/port.c:288: {
 288:../../kernel/FreeRTOS/Source/portable/GCC/ARM_CM4F/port.c **** 	/* configMAX_SYSCALL_INTERRUPT_PRIORITY must not be set to 0.
ARM GAS  /tmp/cc5qDK7o.s 			page 46


 1356              		.loc 1 288 1 discriminator 2 view .LVU291
 1357 001c 85B0     		sub	sp, sp, #20	@,,
 1358              		.cfi_def_cfa_offset 32
 1359              	.LBB92:
 1360              	@ ../../kernel/FreeRTOS/Source/portable/GCC/ARM_CM4F/port.c:311: 		ulOriginalPriority = *pucFirstUs
 311:../../kernel/FreeRTOS/Source/portable/GCC/ARM_CM4F/port.c **** 
 1361              		.loc 1 311 24 discriminator 2 view .LVU292
 1362 001e D2B2     		uxtb	r2, r2	@ _4, MEM[(volatile uint8_t *)3758154752B]
 1363              	@ ../../kernel/FreeRTOS/Source/portable/GCC/ARM_CM4F/port.c:315: 		*pucFirstUserPriorityRegister = 
 315:../../kernel/FreeRTOS/Source/portable/GCC/ARM_CM4F/port.c **** 
 1364              		.loc 1 315 33 discriminator 2 view .LVU293
 1365 0020 FF20     		movs	r0, #255	@ tmp152,
 1366              	@ ../../kernel/FreeRTOS/Source/portable/GCC/ARM_CM4F/port.c:311: 		ulOriginalPriority = *pucFirstUs
 311:../../kernel/FreeRTOS/Source/portable/GCC/ARM_CM4F/port.c **** 
 1367              		.loc 1 311 22 discriminator 2 view .LVU294
 1368 0022 0292     		str	r2, [sp, #8]	@ _4, ulOriginalPriority
 315:../../kernel/FreeRTOS/Source/portable/GCC/ARM_CM4F/port.c **** 
 1369              		.loc 1 315 3 is_stmt 1 discriminator 2 view .LVU295
 1370              	@ ../../kernel/FreeRTOS/Source/portable/GCC/ARM_CM4F/port.c:315: 		*pucFirstUserPriorityRegister = 
 315:../../kernel/FreeRTOS/Source/portable/GCC/ARM_CM4F/port.c **** 
 1371              		.loc 1 315 33 is_stmt 0 discriminator 2 view .LVU296
 1372 0024 1870     		strb	r0, [r3]	@ tmp152, MEM[(volatile uint8_t *)3758154752B]
 318:../../kernel/FreeRTOS/Source/portable/GCC/ARM_CM4F/port.c **** 
 1373              		.loc 1 318 3 is_stmt 1 discriminator 2 view .LVU297
 1374              	@ ../../kernel/FreeRTOS/Source/portable/GCC/ARM_CM4F/port.c:318: 		ucMaxPriorityValue = *pucFirstUs
 318:../../kernel/FreeRTOS/Source/portable/GCC/ARM_CM4F/port.c **** 
 1375              		.loc 1 318 24 is_stmt 0 discriminator 2 view .LVU298
 1376 0026 1B78     		ldrb	r3, [r3]	@ zero_extendqisi2	@ MEM[(volatile uint8_t *)3758154752B], MEM[(volatile uint8_t *)3
 1377 0028 DBB2     		uxtb	r3, r3	@ _6, MEM[(volatile uint8_t *)3758154752B]
 1378              	@ ../../kernel/FreeRTOS/Source/portable/GCC/ARM_CM4F/port.c:318: 		ucMaxPriorityValue = *pucFirstUs
 318:../../kernel/FreeRTOS/Source/portable/GCC/ARM_CM4F/port.c **** 
 1379              		.loc 1 318 22 discriminator 2 view .LVU299
 1380 002a 8DF80730 		strb	r3, [sp, #7]	@ _6, ucMaxPriorityValue
 321:../../kernel/FreeRTOS/Source/portable/GCC/ARM_CM4F/port.c **** 
 1381              		.loc 1 321 3 is_stmt 1 discriminator 2 view .LVU300
 1382              	@ ../../kernel/FreeRTOS/Source/portable/GCC/ARM_CM4F/port.c:321: 		ucMaxSysCallPriority = configMAX
 321:../../kernel/FreeRTOS/Source/portable/GCC/ARM_CM4F/port.c **** 
 1383              		.loc 1 321 63 is_stmt 0 discriminator 2 view .LVU301
 1384 002e 9DF80730 		ldrb	r3, [sp, #7]	@ zero_extendqisi2	@ ucMaxPriorityValue, ucMaxPriorityValue
 1385              	@ ../../kernel/FreeRTOS/Source/portable/GCC/ARM_CM4F/port.c:326: 		while( ( ucMaxPriorityValue & po
 326:../../kernel/FreeRTOS/Source/portable/GCC/ARM_CM4F/port.c **** 		{
 1386              		.loc 1 326 31 discriminator 2 view .LVU302
 1387 0032 9DF80720 		ldrb	r2, [sp, #7]	@ zero_extendqisi2	@ ucMaxPriorityValue, ucMaxPriorityValue
 1388              	@ ../../kernel/FreeRTOS/Source/portable/GCC/ARM_CM4F/port.c:321: 		ucMaxSysCallPriority = configMAX
 321:../../kernel/FreeRTOS/Source/portable/GCC/ARM_CM4F/port.c **** 
 1389              		.loc 1 321 63 discriminator 2 view .LVU303
 1390 0036 03F0A003 		and	r3, r3, #160	@ tmp162, ucMaxPriorityValue,
 1391              	@ ../../kernel/FreeRTOS/Source/portable/GCC/ARM_CM4F/port.c:325: 		ulMaxPRIGROUPValue = portMAX_PRI
 325:../../kernel/FreeRTOS/Source/portable/GCC/ARM_CM4F/port.c **** 		while( ( ucMaxPriorityValue & portTOP_BIT_OF_BYTE ) == portTOP_BIT_OF_BYTE )
 1392              		.loc 1 325 22 discriminator 2 view .LVU304
 1393 003a 0720     		movs	r0, #7	@ tmp165,
 1394              	@ ../../kernel/FreeRTOS/Source/portable/GCC/ARM_CM4F/port.c:326: 		while( ( ucMaxPriorityValue & po
 326:../../kernel/FreeRTOS/Source/portable/GCC/ARM_CM4F/port.c **** 		{
 1395              		.loc 1 326 8 discriminator 2 view .LVU305
 1396 003c 1206     		lsls	r2, r2, #24	@, ucMaxPriorityValue,
 1397              	@ ../../kernel/FreeRTOS/Source/portable/GCC/ARM_CM4F/port.c:321: 		ucMaxSysCallPriority = configMAX
 321:../../kernel/FreeRTOS/Source/portable/GCC/ARM_CM4F/port.c **** 
ARM GAS  /tmp/cc5qDK7o.s 			page 47


 1398              		.loc 1 321 24 discriminator 2 view .LVU306
 1399 003e 2370     		strb	r3, [r4]	@ tmp162, ucMaxSysCallPriority
 325:../../kernel/FreeRTOS/Source/portable/GCC/ARM_CM4F/port.c **** 		while( ( ucMaxPriorityValue & portTOP_BIT_OF_BYTE ) == portTOP_BIT_OF_BYTE )
 1400              		.loc 1 325 3 is_stmt 1 discriminator 2 view .LVU307
 1401              	@ ../../kernel/FreeRTOS/Source/portable/GCC/ARM_CM4F/port.c:325: 		ulMaxPRIGROUPValue = portMAX_PRI
 325:../../kernel/FreeRTOS/Source/portable/GCC/ARM_CM4F/port.c **** 		while( ( ucMaxPriorityValue & portTOP_BIT_OF_BYTE ) == portTOP_BIT_OF_BYTE )
 1402              		.loc 1 325 22 is_stmt 0 discriminator 2 view .LVU308
 1403 0040 0860     		str	r0, [r1]	@ tmp165, ulMaxPRIGROUPValue
 326:../../kernel/FreeRTOS/Source/portable/GCC/ARM_CM4F/port.c **** 		{
 1404              		.loc 1 326 3 is_stmt 1 discriminator 2 view .LVU309
 1405              	@ ../../kernel/FreeRTOS/Source/portable/GCC/ARM_CM4F/port.c:326: 		while( ( ucMaxPriorityValue & po
 326:../../kernel/FreeRTOS/Source/portable/GCC/ARM_CM4F/port.c **** 		{
 1406              		.loc 1 326 8 is_stmt 0 discriminator 2 view .LVU310
 1407 0042 48BF     		it	mi
 1408 0044 0622     		movmi	r2, #6	@ ivtmp.37,
 1409 0046 01D4     		bmi	.L72		@,
 1410 0048 0FE0     		b	.L75		@
 1411              	.L80:
 1412 004a 0246     		mov	r2, r0	@ ivtmp.37, ivtmp.37
 1413              	.L72:
 328:../../kernel/FreeRTOS/Source/portable/GCC/ARM_CM4F/port.c **** 			ucMaxPriorityValue <<= ( uint8_t ) 0x01;
 1414              		.loc 1 328 4 is_stmt 1 view .LVU311
 329:../../kernel/FreeRTOS/Source/portable/GCC/ARM_CM4F/port.c **** 		}
 1415              		.loc 1 329 4 view .LVU312
 1416              	@ ../../kernel/FreeRTOS/Source/portable/GCC/ARM_CM4F/port.c:329: 			ucMaxPriorityValue <<= ( uint8_
 329:../../kernel/FreeRTOS/Source/portable/GCC/ARM_CM4F/port.c **** 		}
 1417              		.loc 1 329 23 is_stmt 0 view .LVU313
 1418 004c 9DF80730 		ldrb	r3, [sp, #7]	@ zero_extendqisi2	@ ucMaxPriorityValue, ucMaxPriorityValue
 1419 0050 5B00     		lsls	r3, r3, #1	@ tmp174, ucMaxPriorityValue,
 1420 0052 DBB2     		uxtb	r3, r3	@ _12, tmp174
 1421 0054 8DF80730 		strb	r3, [sp, #7]	@ _12, ucMaxPriorityValue
 1422              	@ ../../kernel/FreeRTOS/Source/portable/GCC/ARM_CM4F/port.c:326: 		while( ( ucMaxPriorityValue & po
 326:../../kernel/FreeRTOS/Source/portable/GCC/ARM_CM4F/port.c **** 		{
 1423              		.loc 1 326 31 view .LVU314
 1424 0058 9DF80730 		ldrb	r3, [sp, #7]	@ zero_extendqisi2	@ ucMaxPriorityValue, ucMaxPriorityValue
 1425              	@ ../../kernel/FreeRTOS/Source/portable/GCC/ARM_CM4F/port.c:326: 		while( ( ucMaxPriorityValue & po
 326:../../kernel/FreeRTOS/Source/portable/GCC/ARM_CM4F/port.c **** 		{
 1426              		.loc 1 326 8 view .LVU315
 1427 005c 1B06     		lsls	r3, r3, #24	@, ucMaxPriorityValue,
 1428 005e 02F1FF30 		add	r0, r2, #-1	@ ivtmp.37, ivtmp.37,
 1429 0062 F2D4     		bmi	.L80		@,
 346:../../kernel/FreeRTOS/Source/portable/GCC/ARM_CM4F/port.c **** 		}
 1430              		.loc 1 346 4 is_stmt 1 view .LVU316
 1431 0064 042A     		cmp	r2, #4	@ ivtmp.37,
 1432 0066 1BD0     		beq	.L74		@,
 1433 0068 0A60     		str	r2, [r1]	@ ivtmp.37, ulMaxPRIGROUPValue
 1434              	.L75:
 346:../../kernel/FreeRTOS/Source/portable/GCC/ARM_CM4F/port.c **** 		}
 1435              		.loc 1 346 4 view .LVU317
 1436              	.LBB89:
 1437              	.LBI89:
 191:../../kernel/FreeRTOS/Source/portable/GCC/ARM_CM4F/portmacro.h **** {
 1438              		.loc 2 191 30 view .LVU318
 1439              	.LBB90:
 193:../../kernel/FreeRTOS/Source/portable/GCC/ARM_CM4F/portmacro.h **** 
 1440              		.loc 2 193 1 view .LVU319
 195:../../kernel/FreeRTOS/Source/portable/GCC/ARM_CM4F/portmacro.h **** 	(
ARM GAS  /tmp/cc5qDK7o.s 			page 48


 1441              		.loc 2 195 2 view .LVU320
 1442              		.syntax unified
 1443              	@ 195 "../../kernel/FreeRTOS/Source/portable/GCC/ARM_CM4F/portmacro.h" 1
 1444 006a 4FF0A003 			mov r3, #160													@ ulNewBASEPRI,
 1445 006e 83F31188 		msr basepri, r3												@ ulNewBASEPRI
 1446 0072 BFF36F8F 		isb														
 1447 0076 BFF34F8F 		dsb														
 1448              	
 1449              	@ 0 "" 2
 1450              	.LVL35:
 1451              		.thumb
 1452              		.syntax unified
 1453              	.L73:
 195:../../kernel/FreeRTOS/Source/portable/GCC/ARM_CM4F/portmacro.h **** 	(
 1454              		.loc 2 195 2 is_stmt 0 view .LVU321
 1455              	.LBE90:
 1456              	.LBE89:
 346:../../kernel/FreeRTOS/Source/portable/GCC/ARM_CM4F/port.c **** 		}
 1457              		.loc 1 346 4 is_stmt 1 discriminator 4 view .LVU322
 346:../../kernel/FreeRTOS/Source/portable/GCC/ARM_CM4F/port.c **** 		}
 1458              		.loc 1 346 4 discriminator 4 view .LVU323
 346:../../kernel/FreeRTOS/Source/portable/GCC/ARM_CM4F/port.c **** 		}
 1459              		.loc 1 346 4 discriminator 4 view .LVU324
 346:../../kernel/FreeRTOS/Source/portable/GCC/ARM_CM4F/port.c **** 		}
 1460              		.loc 1 346 4 discriminator 4 view .LVU325
 1461 007a FEE7     		b	.L73		@
 1462              	.LVL36:
 1463              	.L86:
 1464              		.cfi_def_cfa_offset 0
 1465              		.cfi_restore 4
 1466              		.cfi_restore 5
 1467              		.cfi_restore 14
 346:../../kernel/FreeRTOS/Source/portable/GCC/ARM_CM4F/port.c **** 		}
 1468              		.loc 1 346 4 is_stmt 0 discriminator 4 view .LVU326
 1469              	.LBE92:
 297:../../kernel/FreeRTOS/Source/portable/GCC/ARM_CM4F/port.c **** 
 1470              		.loc 1 297 2 is_stmt 1 view .LVU327
 1471              	.LBB93:
 1472              	.LBI93:
 191:../../kernel/FreeRTOS/Source/portable/GCC/ARM_CM4F/portmacro.h **** {
 1473              		.loc 2 191 30 view .LVU328
 1474              	.LBB94:
 193:../../kernel/FreeRTOS/Source/portable/GCC/ARM_CM4F/portmacro.h **** 
 1475              		.loc 2 193 1 view .LVU329
 195:../../kernel/FreeRTOS/Source/portable/GCC/ARM_CM4F/portmacro.h **** 	(
 1476              		.loc 2 195 2 view .LVU330
 1477              		.syntax unified
 1478              	@ 195 "../../kernel/FreeRTOS/Source/portable/GCC/ARM_CM4F/portmacro.h" 1
 1479 007c 4FF0A003 			mov r3, #160													@ ulNewBASEPRI,
 1480 0080 83F31188 		msr basepri, r3												@ ulNewBASEPRI
 1481 0084 BFF36F8F 		isb														
 1482 0088 BFF34F8F 		dsb														
 1483              	
 1484              	@ 0 "" 2
 1485              	.LVL37:
 1486              		.thumb
 1487              		.syntax unified
ARM GAS  /tmp/cc5qDK7o.s 			page 49


 1488              	.L71:
 195:../../kernel/FreeRTOS/Source/portable/GCC/ARM_CM4F/portmacro.h **** 	(
 1489              		.loc 2 195 2 is_stmt 0 view .LVU331
 1490              	.LBE94:
 1491              	.LBE93:
 297:../../kernel/FreeRTOS/Source/portable/GCC/ARM_CM4F/port.c **** 
 1492              		.loc 1 297 2 is_stmt 1 discriminator 3 view .LVU332
 297:../../kernel/FreeRTOS/Source/portable/GCC/ARM_CM4F/port.c **** 
 1493              		.loc 1 297 2 discriminator 3 view .LVU333
 297:../../kernel/FreeRTOS/Source/portable/GCC/ARM_CM4F/port.c **** 
 1494              		.loc 1 297 2 discriminator 3 view .LVU334
 297:../../kernel/FreeRTOS/Source/portable/GCC/ARM_CM4F/port.c **** 
 1495              		.loc 1 297 2 discriminator 3 view .LVU335
 1496 008c FEE7     		b	.L71		@
 1497              	.L85:
 296:../../kernel/FreeRTOS/Source/portable/GCC/ARM_CM4F/port.c **** 	configASSERT( portCPUID != portCORTEX_M7_r0p0_ID );
 1498              		.loc 1 296 2 view .LVU336
 1499              	.LBB95:
 1500              	.LBI95:
 191:../../kernel/FreeRTOS/Source/portable/GCC/ARM_CM4F/portmacro.h **** {
 1501              		.loc 2 191 30 view .LVU337
 1502              	.LBB96:
 193:../../kernel/FreeRTOS/Source/portable/GCC/ARM_CM4F/portmacro.h **** 
 1503              		.loc 2 193 1 view .LVU338
 195:../../kernel/FreeRTOS/Source/portable/GCC/ARM_CM4F/portmacro.h **** 	(
 1504              		.loc 2 195 2 view .LVU339
 1505              		.syntax unified
 1506              	@ 195 "../../kernel/FreeRTOS/Source/portable/GCC/ARM_CM4F/portmacro.h" 1
 1507 008e 4FF0A003 			mov r3, #160													@ ulNewBASEPRI,
 1508 0092 83F31188 		msr basepri, r3												@ ulNewBASEPRI
 1509 0096 BFF36F8F 		isb														
 1510 009a BFF34F8F 		dsb														
 1511              	
 1512              	@ 0 "" 2
 1513              	.LVL38:
 1514              		.thumb
 1515              		.syntax unified
 1516              	.L69:
 195:../../kernel/FreeRTOS/Source/portable/GCC/ARM_CM4F/portmacro.h **** 	(
 1517              		.loc 2 195 2 is_stmt 0 view .LVU340
 1518              	.LBE96:
 1519              	.LBE95:
 296:../../kernel/FreeRTOS/Source/portable/GCC/ARM_CM4F/port.c **** 	configASSERT( portCPUID != portCORTEX_M7_r0p0_ID );
 1520              		.loc 1 296 2 is_stmt 1 discriminator 2 view .LVU341
 296:../../kernel/FreeRTOS/Source/portable/GCC/ARM_CM4F/port.c **** 	configASSERT( portCPUID != portCORTEX_M7_r0p0_ID );
 1521              		.loc 1 296 2 discriminator 2 view .LVU342
 296:../../kernel/FreeRTOS/Source/portable/GCC/ARM_CM4F/port.c **** 	configASSERT( portCPUID != portCORTEX_M7_r0p0_ID );
 1522              		.loc 1 296 2 discriminator 2 view .LVU343
 296:../../kernel/FreeRTOS/Source/portable/GCC/ARM_CM4F/port.c **** 	configASSERT( portCPUID != portCORTEX_M7_r0p0_ID );
 1523              		.loc 1 296 2 discriminator 2 view .LVU344
 1524 009e FEE7     		b	.L69		@
 1525              	.LVL39:
 1526              	.L74:
 1527              		.cfi_def_cfa_offset 32
 1528              		.cfi_offset 4, -12
 1529              		.cfi_offset 5, -8
 1530              		.cfi_offset 14, -4
ARM GAS  /tmp/cc5qDK7o.s 			page 50


 1531              	.LBB97:
 346:../../kernel/FreeRTOS/Source/portable/GCC/ARM_CM4F/port.c **** 		}
 1532              		.loc 1 346 85 discriminator 2 view .LVU345
 352:../../kernel/FreeRTOS/Source/portable/GCC/ARM_CM4F/port.c **** 		ulMaxPRIGROUPValue &= portPRIORITY_GROUP_MASK;
 1533              		.loc 1 352 3 discriminator 2 view .LVU346
 353:../../kernel/FreeRTOS/Source/portable/GCC/ARM_CM4F/port.c **** 
 1534              		.loc 1 353 3 discriminator 2 view .LVU347
 1535              	@ ../../kernel/FreeRTOS/Source/portable/GCC/ARM_CM4F/port.c:357: 		*pucFirstUserPriorityRegister = 
 357:../../kernel/FreeRTOS/Source/portable/GCC/ARM_CM4F/port.c **** 	}
 1536              		.loc 1 357 33 is_stmt 0 discriminator 2 view .LVU348
 1537 00a0 029A     		ldr	r2, [sp, #8]	@ ulOriginalPriority.12_18, ulOriginalPriority
 1538 00a2 2048     		ldr	r0, .L87+12	@ tmp184,
 1539              	.LBE97:
 1540              	@ ../../kernel/FreeRTOS/Source/portable/GCC/ARM_CM4F/port.c:362: 	portNVIC_SYSPRI2_REG |= portNVIC_
 362:../../kernel/FreeRTOS/Source/portable/GCC/ARM_CM4F/port.c **** 	portNVIC_SYSPRI2_REG |= portNVIC_SYSTICK_PRI;
 1541              		.loc 1 362 23 discriminator 2 view .LVU349
 1542 00a4 224B     		ldr	r3, .L87+24	@ tmp186,
 1543              	@ ../../kernel/FreeRTOS/Source/portable/GCC/ARM_CM4F/port.c:370: 	uxCriticalNesting = 0;
 370:../../kernel/FreeRTOS/Source/portable/GCC/ARM_CM4F/port.c **** 
 1544              		.loc 1 370 20 discriminator 2 view .LVU350
 1545 00a6 234C     		ldr	r4, .L87+28	@ tmp190,
 1546              	.LBB98:
 1547              	@ ../../kernel/FreeRTOS/Source/portable/GCC/ARM_CM4F/port.c:357: 		*pucFirstUserPriorityRegister = 
 357:../../kernel/FreeRTOS/Source/portable/GCC/ARM_CM4F/port.c **** 	}
 1548              		.loc 1 357 33 discriminator 2 view .LVU351
 1549 00a8 D2B2     		uxtb	r2, r2	@ _19, ulOriginalPriority.12_18
 1550              	@ ../../kernel/FreeRTOS/Source/portable/GCC/ARM_CM4F/port.c:353: 		ulMaxPRIGROUPValue &= portPRIORI
 353:../../kernel/FreeRTOS/Source/portable/GCC/ARM_CM4F/port.c **** 
 1551              		.loc 1 353 22 discriminator 2 view .LVU352
 1552 00aa 4FF48065 		mov	r5, #1024	@ tmp183,
 1553 00ae 0D60     		str	r5, [r1]	@ tmp183, ulMaxPRIGROUPValue
 357:../../kernel/FreeRTOS/Source/portable/GCC/ARM_CM4F/port.c **** 	}
 1554              		.loc 1 357 3 is_stmt 1 discriminator 2 view .LVU353
 1555              	@ ../../kernel/FreeRTOS/Source/portable/GCC/ARM_CM4F/port.c:357: 		*pucFirstUserPriorityRegister = 
 357:../../kernel/FreeRTOS/Source/portable/GCC/ARM_CM4F/port.c **** 	}
 1556              		.loc 1 357 33 is_stmt 0 discriminator 2 view .LVU354
 1557 00b0 0270     		strb	r2, [r0]	@ _19, MEM[(volatile uint8_t *)3758154752B]
 1558              	.LBE98:
 362:../../kernel/FreeRTOS/Source/portable/GCC/ARM_CM4F/port.c **** 	portNVIC_SYSPRI2_REG |= portNVIC_SYSTICK_PRI;
 1559              		.loc 1 362 2 is_stmt 1 discriminator 2 view .LVU355
 1560              	@ ../../kernel/FreeRTOS/Source/portable/GCC/ARM_CM4F/port.c:362: 	portNVIC_SYSPRI2_REG |= portNVIC_
 362:../../kernel/FreeRTOS/Source/portable/GCC/ARM_CM4F/port.c **** 	portNVIC_SYSPRI2_REG |= portNVIC_SYSTICK_PRI;
 1561              		.loc 1 362 23 is_stmt 0 discriminator 2 view .LVU356
 1562 00b2 1A68     		ldr	r2, [r3]	@ _20, MEM[(volatile uint32_t *)3758157088B]
 1563 00b4 42F46002 		orr	r2, r2, #14680064	@ _21, _20,
 1564 00b8 1A60     		str	r2, [r3]	@ _21, MEM[(volatile uint32_t *)3758157088B]
 363:../../kernel/FreeRTOS/Source/portable/GCC/ARM_CM4F/port.c **** 
 1565              		.loc 1 363 2 is_stmt 1 discriminator 2 view .LVU357
 1566              	@ ../../kernel/FreeRTOS/Source/portable/GCC/ARM_CM4F/port.c:363: 	portNVIC_SYSPRI2_REG |= portNVIC_
 363:../../kernel/FreeRTOS/Source/portable/GCC/ARM_CM4F/port.c **** 
 1567              		.loc 1 363 23 is_stmt 0 discriminator 2 view .LVU358
 1568 00ba 1A68     		ldr	r2, [r3]	@ _22, MEM[(volatile uint32_t *)3758157088B]
 1569 00bc 42F06042 		orr	r2, r2, #-536870912	@ _23, _22,
 1570 00c0 1A60     		str	r2, [r3]	@ _23, MEM[(volatile uint32_t *)3758157088B]
 367:../../kernel/FreeRTOS/Source/portable/GCC/ARM_CM4F/port.c **** 
 1571              		.loc 1 367 2 is_stmt 1 discriminator 2 view .LVU359
 1572              	@ ../../kernel/FreeRTOS/Source/portable/GCC/ARM_CM4F/port.c:370: 	uxCriticalNesting = 0;
ARM GAS  /tmp/cc5qDK7o.s 			page 51


 370:../../kernel/FreeRTOS/Source/portable/GCC/ARM_CM4F/port.c **** 
 1573              		.loc 1 370 20 is_stmt 0 discriminator 2 view .LVU360
 1574 00c2 0025     		movs	r5, #0	@ tmp191,
 1575              	@ ../../kernel/FreeRTOS/Source/portable/GCC/ARM_CM4F/port.c:367: 	vPortSetupTimerInterrupt();
 367:../../kernel/FreeRTOS/Source/portable/GCC/ARM_CM4F/port.c **** 
 1576              		.loc 1 367 2 discriminator 2 view .LVU361
 1577 00c4 FFF7FEFF 		bl	vPortSetupTimerInterrupt		@
 1578              	.LVL40:
 370:../../kernel/FreeRTOS/Source/portable/GCC/ARM_CM4F/port.c **** 
 1579              		.loc 1 370 2 is_stmt 1 discriminator 2 view .LVU362
 1580              	@ ../../kernel/FreeRTOS/Source/portable/GCC/ARM_CM4F/port.c:370: 	uxCriticalNesting = 0;
 370:../../kernel/FreeRTOS/Source/portable/GCC/ARM_CM4F/port.c **** 
 1581              		.loc 1 370 20 is_stmt 0 discriminator 2 view .LVU363
 1582 00c8 2560     		str	r5, [r4]	@ tmp191, uxCriticalNesting
 373:../../kernel/FreeRTOS/Source/portable/GCC/ARM_CM4F/port.c **** 
 1583              		.loc 1 373 2 is_stmt 1 discriminator 2 view .LVU364
 1584 00ca FFF7FEFF 		bl	vPortEnableVFP		@
 1585              	.LVL41:
 376:../../kernel/FreeRTOS/Source/portable/GCC/ARM_CM4F/port.c **** 
 1586              		.loc 1 376 2 discriminator 2 view .LVU365
 1587              	@ ../../kernel/FreeRTOS/Source/portable/GCC/ARM_CM4F/port.c:376: 	*( portFPCCR ) |= portASPEN_AND_L
 376:../../kernel/FreeRTOS/Source/portable/GCC/ARM_CM4F/port.c **** 
 1588              		.loc 1 376 17 is_stmt 0 discriminator 2 view .LVU366
 1589 00ce 1A4A     		ldr	r2, .L87+32	@ tmp192,
 1590 00d0 1368     		ldr	r3, [r2]	@ _24, MEM[(volatile uint32_t *)3758157620B]
 1591 00d2 43F04043 		orr	r3, r3, #-1073741824	@ _25, _24,
 1592 00d6 1360     		str	r3, [r2]	@ _25, MEM[(volatile uint32_t *)3758157620B]
 379:../../kernel/FreeRTOS/Source/portable/GCC/ARM_CM4F/port.c **** 
 1593              		.loc 1 379 2 is_stmt 1 discriminator 2 view .LVU367
 1594 00d8 FFF7FEFF 		bl	prvPortStartFirstTask		@
 1595              	.LVL42:
 387:../../kernel/FreeRTOS/Source/portable/GCC/ARM_CM4F/port.c **** 	prvTaskExitError();
 1596              		.loc 1 387 2 discriminator 2 view .LVU368
 1597 00dc FFF7FEFF 		bl	vTaskSwitchContext		@
 1598              	.LVL43:
 388:../../kernel/FreeRTOS/Source/portable/GCC/ARM_CM4F/port.c **** 
 1599              		.loc 1 388 2 discriminator 2 view .LVU369
 1600              	.LBB99:
 1601              	.LBI99:
 217:../../kernel/FreeRTOS/Source/portable/GCC/ARM_CM4F/port.c **** {
 1602              		.loc 1 217 13 discriminator 2 view .LVU370
 1603              	.LBB100:
 219:../../kernel/FreeRTOS/Source/portable/GCC/ARM_CM4F/port.c **** 
 1604              		.loc 1 219 1 discriminator 2 view .LVU371
 1605              	@ ../../kernel/FreeRTOS/Source/portable/GCC/ARM_CM4F/port.c:227: 	configASSERT( uxCriticalNesting =
 227:../../kernel/FreeRTOS/Source/portable/GCC/ARM_CM4F/port.c **** 	portDISABLE_INTERRUPTS();
 1606              		.loc 1 227 2 is_stmt 0 discriminator 2 view .LVU372
 1607 00e0 2368     		ldr	r3, [r4]	@ uxCriticalNesting, uxCriticalNesting
 1608              	@ ../../kernel/FreeRTOS/Source/portable/GCC/ARM_CM4F/port.c:219: volatile uint32_t ulDummy = 0;
 219:../../kernel/FreeRTOS/Source/portable/GCC/ARM_CM4F/port.c **** 
 1609              		.loc 1 219 19 discriminator 2 view .LVU373
 1610 00e2 0395     		str	r5, [sp, #12]	@ tmp191, ulDummy
 227:../../kernel/FreeRTOS/Source/portable/GCC/ARM_CM4F/port.c **** 	portDISABLE_INTERRUPTS();
 1611              		.loc 1 227 2 is_stmt 1 discriminator 2 view .LVU374
 1612 00e4 0133     		adds	r3, r3, #1	@ uxCriticalNesting, uxCriticalNesting,
 1613 00e6 08D0     		beq	.L76		@,
 1614              	.LBB101:
ARM GAS  /tmp/cc5qDK7o.s 			page 52


 1615              	.LBI101:
 217:../../kernel/FreeRTOS/Source/portable/GCC/ARM_CM4F/port.c **** {
 1616              		.loc 1 217 13 view .LVU375
 1617              	.LBB102:
 227:../../kernel/FreeRTOS/Source/portable/GCC/ARM_CM4F/port.c **** 	portDISABLE_INTERRUPTS();
 1618              		.loc 1 227 2 view .LVU376
 1619              	.LBB103:
 1620              	.LBI103:
 191:../../kernel/FreeRTOS/Source/portable/GCC/ARM_CM4F/portmacro.h **** {
 1621              		.loc 2 191 30 view .LVU377
 1622              	.LBB104:
 193:../../kernel/FreeRTOS/Source/portable/GCC/ARM_CM4F/portmacro.h **** 
 1623              		.loc 2 193 1 view .LVU378
 195:../../kernel/FreeRTOS/Source/portable/GCC/ARM_CM4F/portmacro.h **** 	(
 1624              		.loc 2 195 2 view .LVU379
 1625              		.syntax unified
 1626              	@ 195 "../../kernel/FreeRTOS/Source/portable/GCC/ARM_CM4F/portmacro.h" 1
 1627 00e8 4FF0A003 			mov r3, #160													@ ulNewBASEPRI,
 1628 00ec 83F31188 		msr basepri, r3												@ ulNewBASEPRI
 1629 00f0 BFF36F8F 		isb														
 1630 00f4 BFF34F8F 		dsb														
 1631              	
 1632              	@ 0 "" 2
 1633              	.LVL44:
 1634              		.thumb
 1635              		.syntax unified
 1636              	.L77:
 195:../../kernel/FreeRTOS/Source/portable/GCC/ARM_CM4F/portmacro.h **** 	(
 1637              		.loc 2 195 2 is_stmt 0 view .LVU380
 1638              	.LBE104:
 1639              	.LBE103:
 227:../../kernel/FreeRTOS/Source/portable/GCC/ARM_CM4F/port.c **** 	portDISABLE_INTERRUPTS();
 1640              		.loc 1 227 2 is_stmt 1 view .LVU381
 227:../../kernel/FreeRTOS/Source/portable/GCC/ARM_CM4F/port.c **** 	portDISABLE_INTERRUPTS();
 1641              		.loc 1 227 2 view .LVU382
 227:../../kernel/FreeRTOS/Source/portable/GCC/ARM_CM4F/port.c **** 	portDISABLE_INTERRUPTS();
 1642              		.loc 1 227 2 view .LVU383
 227:../../kernel/FreeRTOS/Source/portable/GCC/ARM_CM4F/port.c **** 	portDISABLE_INTERRUPTS();
 1643              		.loc 1 227 2 view .LVU384
 1644 00f8 FEE7     		b	.L77		@
 1645              	.L76:
 227:../../kernel/FreeRTOS/Source/portable/GCC/ARM_CM4F/port.c **** 	portDISABLE_INTERRUPTS();
 1646              		.loc 1 227 2 is_stmt 0 view .LVU385
 1647              	.LBE102:
 1648              	.LBE101:
 227:../../kernel/FreeRTOS/Source/portable/GCC/ARM_CM4F/port.c **** 	portDISABLE_INTERRUPTS();
 1649              		.loc 1 227 43 is_stmt 1 view .LVU386
 228:../../kernel/FreeRTOS/Source/portable/GCC/ARM_CM4F/port.c **** 	while( ulDummy == 0 )
 1650              		.loc 1 228 2 view .LVU387
 1651              	.LBB105:
 1652              	.LBI105:
 191:../../kernel/FreeRTOS/Source/portable/GCC/ARM_CM4F/portmacro.h **** {
 1653              		.loc 2 191 30 view .LVU388
 1654              	.LBB106:
 193:../../kernel/FreeRTOS/Source/portable/GCC/ARM_CM4F/portmacro.h **** 
 1655              		.loc 2 193 1 view .LVU389
 195:../../kernel/FreeRTOS/Source/portable/GCC/ARM_CM4F/portmacro.h **** 	(
ARM GAS  /tmp/cc5qDK7o.s 			page 53


 1656              		.loc 2 195 2 view .LVU390
 1657              		.syntax unified
 1658              	@ 195 "../../kernel/FreeRTOS/Source/portable/GCC/ARM_CM4F/portmacro.h" 1
 1659 00fa 4FF0A003 			mov r3, #160													@ ulNewBASEPRI,
 1660 00fe 83F31188 		msr basepri, r3												@ ulNewBASEPRI
 1661 0102 BFF36F8F 		isb														
 1662 0106 BFF34F8F 		dsb														
 1663              	
 1664              	@ 0 "" 2
 1665              	.LVL45:
 1666              		.thumb
 1667              		.syntax unified
 1668              	.L78:
 195:../../kernel/FreeRTOS/Source/portable/GCC/ARM_CM4F/portmacro.h **** 	(
 1669              		.loc 2 195 2 is_stmt 0 view .LVU391
 1670              	.LBE106:
 1671              	.LBE105:
 238:../../kernel/FreeRTOS/Source/portable/GCC/ARM_CM4F/port.c **** }
 1672              		.loc 1 238 2 is_stmt 1 view .LVU392
 1673              	@ ../../kernel/FreeRTOS/Source/portable/GCC/ARM_CM4F/port.c:229: 	while( ulDummy == 0 )
 229:../../kernel/FreeRTOS/Source/portable/GCC/ARM_CM4F/port.c **** 	{
 1674              		.loc 1 229 17 is_stmt 0 view .LVU393
 1675 010a 039B     		ldr	r3, [sp, #12]	@ ulDummy.4_54, ulDummy
 1676              	@ ../../kernel/FreeRTOS/Source/portable/GCC/ARM_CM4F/port.c:229: 	while( ulDummy == 0 )
 229:../../kernel/FreeRTOS/Source/portable/GCC/ARM_CM4F/port.c **** 	{
 1677              		.loc 1 229 7 view .LVU394
 1678 010c 002B     		cmp	r3, #0	@ ulDummy.4_54
 1679 010e FCD0     		beq	.L78	@
 229:../../kernel/FreeRTOS/Source/portable/GCC/ARM_CM4F/port.c **** 	{
 1680              		.loc 1 229 7 view .LVU395
 1681              	.LBE100:
 1682              	.LBE99:
 391:../../kernel/FreeRTOS/Source/portable/GCC/ARM_CM4F/port.c **** }
 1683              		.loc 1 391 2 is_stmt 1 discriminator 2 view .LVU396
 1684              	@ ../../kernel/FreeRTOS/Source/portable/GCC/ARM_CM4F/port.c:392: }
 392:../../kernel/FreeRTOS/Source/portable/GCC/ARM_CM4F/port.c **** /*-----------------------------------------------------------*/
 1685              		.loc 1 392 1 is_stmt 0 discriminator 2 view .LVU397
 1686 0110 0020     		movs	r0, #0	@,
 1687 0112 05B0     		add	sp, sp, #20	@,,
 1688              		.cfi_def_cfa_offset 12
 1689              		@ sp needed	@
 1690 0114 30BD     		pop	{r4, r5, pc}	@
 1691              	.L88:
 1692 0116 00BF     		.align	2
 1693              	.L87:
 1694 0118 00ED00E0 		.word	-536810240
 1695 011c 71C20F41 		.word	1091551857
 1696 0120 70C20F41 		.word	1091551856
 1697 0124 00E400E0 		.word	-536812544
 1698 0128 00000000 		.word	.LANCHOR4
 1699 012c 00000000 		.word	.LANCHOR5
 1700 0130 20ED00E0 		.word	-536810208
 1701 0134 00000000 		.word	.LANCHOR0
 1702 0138 34EF00E0 		.word	-536809676
 1703              		.cfi_endproc
 1704              	.LFE8:
 1705              		.size	xPortStartScheduler, .-xPortStartScheduler
ARM GAS  /tmp/cc5qDK7o.s 			page 54


 1706              		.section	.text.vPortValidateInterruptPriority,"ax",%progbits
 1707              		.align	1
 1708              		.p2align 2,,3
 1709              		.global	vPortValidateInterruptPriority
 1710              		.syntax unified
 1711              		.thumb
 1712              		.thumb_func
 1713              		.fpu fpv4-sp-d16
 1714              		.type	vPortValidateInterruptPriority, %function
 1715              	vPortValidateInterruptPriority:
 1716              	.LFB17:
 713:../../kernel/FreeRTOS/Source/portable/GCC/ARM_CM4F/port.c **** /*-----------------------------------------------------------*/
 714:../../kernel/FreeRTOS/Source/portable/GCC/ARM_CM4F/port.c **** 
 715:../../kernel/FreeRTOS/Source/portable/GCC/ARM_CM4F/port.c **** #if( configASSERT_DEFINED == 1 )
 716:../../kernel/FreeRTOS/Source/portable/GCC/ARM_CM4F/port.c **** 
 717:../../kernel/FreeRTOS/Source/portable/GCC/ARM_CM4F/port.c **** 	void vPortValidateInterruptPriority( void )
 718:../../kernel/FreeRTOS/Source/portable/GCC/ARM_CM4F/port.c **** 	{
 1717              		.loc 1 718 2 is_stmt 1 view -0
 1718              		.cfi_startproc
 1719              		@ args = 0, pretend = 0, frame = 0
 1720              		@ frame_needed = 0, uses_anonymous_args = 0
 1721              		@ link register save eliminated.
 719:../../kernel/FreeRTOS/Source/portable/GCC/ARM_CM4F/port.c **** 	uint32_t ulCurrentInterrupt;
 1722              		.loc 1 719 2 view .LVU399
 720:../../kernel/FreeRTOS/Source/portable/GCC/ARM_CM4F/port.c **** 	uint8_t ucCurrentPriority;
 1723              		.loc 1 720 2 view .LVU400
 721:../../kernel/FreeRTOS/Source/portable/GCC/ARM_CM4F/port.c **** 
 722:../../kernel/FreeRTOS/Source/portable/GCC/ARM_CM4F/port.c **** 		/* Obtain the number of the currently executing interrupt. */
 723:../../kernel/FreeRTOS/Source/portable/GCC/ARM_CM4F/port.c **** 		__asm volatile( "mrs %0, ipsr" : "=r"( ulCurrentInterrupt ) :: "memory" );
 1724              		.loc 1 723 3 view .LVU401
 1725              		.syntax unified
 1726              	@ 723 "../../kernel/FreeRTOS/Source/portable/GCC/ARM_CM4F/port.c" 1
 1727 0000 EFF30583 		mrs r3, ipsr	@ ulCurrentInterrupt
 1728              	@ 0 "" 2
 1729              	.LVL46:
 724:../../kernel/FreeRTOS/Source/portable/GCC/ARM_CM4F/port.c **** 
 725:../../kernel/FreeRTOS/Source/portable/GCC/ARM_CM4F/port.c **** 		/* Is the interrupt number a user defined interrupt? */
 726:../../kernel/FreeRTOS/Source/portable/GCC/ARM_CM4F/port.c **** 		if( ulCurrentInterrupt >= portFIRST_USER_INTERRUPT_NUMBER )
 1730              		.loc 1 726 3 view .LVU402
 1731              	@ ../../kernel/FreeRTOS/Source/portable/GCC/ARM_CM4F/port.c:726: 		if( ulCurrentInterrupt >= portFI
 1732              		.loc 1 726 5 is_stmt 0 view .LVU403
 1733              		.thumb
 1734              		.syntax unified
 1735 0004 0F2B     		cmp	r3, #15	@ ulCurrentInterrupt,
 1736 0006 0ED9     		bls	.L90		@,
 727:../../kernel/FreeRTOS/Source/portable/GCC/ARM_CM4F/port.c **** 		{
 728:../../kernel/FreeRTOS/Source/portable/GCC/ARM_CM4F/port.c **** 			/* Look up the interrupt's priority. */
 729:../../kernel/FreeRTOS/Source/portable/GCC/ARM_CM4F/port.c **** 			ucCurrentPriority = pcInterruptPriorityRegisters[ ulCurrentInterrupt ];
 1737              		.loc 1 729 4 is_stmt 1 view .LVU404
 1738              	@ ../../kernel/FreeRTOS/Source/portable/GCC/ARM_CM4F/port.c:729: 			ucCurrentPriority = pcInterrupt
 1739              		.loc 1 729 52 is_stmt 0 view .LVU405
 1740 0008 1049     		ldr	r1, .L94	@ tmp120,
 1741              	@ ../../kernel/FreeRTOS/Source/portable/GCC/ARM_CM4F/port.c:754: 			configASSERT( ucCurrentPriority
 730:../../kernel/FreeRTOS/Source/portable/GCC/ARM_CM4F/port.c **** 
 731:../../kernel/FreeRTOS/Source/portable/GCC/ARM_CM4F/port.c **** 			/* The following assertion will fail if a service routine (ISR) for
 732:../../kernel/FreeRTOS/Source/portable/GCC/ARM_CM4F/port.c **** 			an interrupt that has been assigned a priority above
 733:../../kernel/FreeRTOS/Source/portable/GCC/ARM_CM4F/port.c **** 			configMAX_SYSCALL_INTERRUPT_PRIORITY calls an ISR safe FreeRTOS API
ARM GAS  /tmp/cc5qDK7o.s 			page 55


 734:../../kernel/FreeRTOS/Source/portable/GCC/ARM_CM4F/port.c **** 			function.  ISR safe FreeRTOS API functions must *only* be called
 735:../../kernel/FreeRTOS/Source/portable/GCC/ARM_CM4F/port.c **** 			from interrupts that have been assigned a priority at or below
 736:../../kernel/FreeRTOS/Source/portable/GCC/ARM_CM4F/port.c **** 			configMAX_SYSCALL_INTERRUPT_PRIORITY.
 737:../../kernel/FreeRTOS/Source/portable/GCC/ARM_CM4F/port.c **** 
 738:../../kernel/FreeRTOS/Source/portable/GCC/ARM_CM4F/port.c **** 			Numerically low interrupt priority numbers represent logically high
 739:../../kernel/FreeRTOS/Source/portable/GCC/ARM_CM4F/port.c **** 			interrupt priorities, therefore the priority of the interrupt must
 740:../../kernel/FreeRTOS/Source/portable/GCC/ARM_CM4F/port.c **** 			be set to a value equal to or numerically *higher* than
 741:../../kernel/FreeRTOS/Source/portable/GCC/ARM_CM4F/port.c **** 			configMAX_SYSCALL_INTERRUPT_PRIORITY.
 742:../../kernel/FreeRTOS/Source/portable/GCC/ARM_CM4F/port.c **** 
 743:../../kernel/FreeRTOS/Source/portable/GCC/ARM_CM4F/port.c **** 			Interrupts that	use the FreeRTOS API must not be left at their
 744:../../kernel/FreeRTOS/Source/portable/GCC/ARM_CM4F/port.c **** 			default priority of	zero as that is the highest possible priority,
 745:../../kernel/FreeRTOS/Source/portable/GCC/ARM_CM4F/port.c **** 			which is guaranteed to be above configMAX_SYSCALL_INTERRUPT_PRIORITY,
 746:../../kernel/FreeRTOS/Source/portable/GCC/ARM_CM4F/port.c **** 			and	therefore also guaranteed to be invalid.
 747:../../kernel/FreeRTOS/Source/portable/GCC/ARM_CM4F/port.c **** 
 748:../../kernel/FreeRTOS/Source/portable/GCC/ARM_CM4F/port.c **** 			FreeRTOS maintains separate thread and ISR API functions to ensure
 749:../../kernel/FreeRTOS/Source/portable/GCC/ARM_CM4F/port.c **** 			interrupt entry is as fast and simple as possible.
 750:../../kernel/FreeRTOS/Source/portable/GCC/ARM_CM4F/port.c **** 
 751:../../kernel/FreeRTOS/Source/portable/GCC/ARM_CM4F/port.c **** 			The following links provide detailed information:
 752:../../kernel/FreeRTOS/Source/portable/GCC/ARM_CM4F/port.c **** 			http://www.freertos.org/RTOS-Cortex-M3-M4.html
 753:../../kernel/FreeRTOS/Source/portable/GCC/ARM_CM4F/port.c **** 			http://www.freertos.org/FAQHelp.html */
 754:../../kernel/FreeRTOS/Source/portable/GCC/ARM_CM4F/port.c **** 			configASSERT( ucCurrentPriority >= ucMaxSysCallPriority );
 1742              		.loc 1 754 4 view .LVU406
 1743 000a 114A     		ldr	r2, .L94+4	@ tmp123,
 1744              	@ ../../kernel/FreeRTOS/Source/portable/GCC/ARM_CM4F/port.c:729: 			ucCurrentPriority = pcInterrupt
 729:../../kernel/FreeRTOS/Source/portable/GCC/ARM_CM4F/port.c **** 
 1745              		.loc 1 729 22 view .LVU407
 1746 000c 5B5C     		ldrb	r3, [r3, r1]	@ zero_extendqisi2	@ *_1, *_1
 1747              	.LVL47:
 1748              		.loc 1 754 4 is_stmt 1 view .LVU408
 1749 000e 1278     		ldrb	r2, [r2]	@ zero_extendqisi2	@ ucMaxSysCallPriority, ucMaxSysCallPriority
 1750 0010 9A42     		cmp	r2, r3	@ ucMaxSysCallPriority, *_1
 1751 0012 08D9     		bls	.L90		@,
 1752              		.loc 1 754 4 view .LVU409
 1753              	.LBB107:
 1754              	.LBI107:
 191:../../kernel/FreeRTOS/Source/portable/GCC/ARM_CM4F/portmacro.h **** {
 1755              		.loc 2 191 30 view .LVU410
 1756              	.LBB108:
 193:../../kernel/FreeRTOS/Source/portable/GCC/ARM_CM4F/portmacro.h **** 
 1757              		.loc 2 193 1 view .LVU411
 195:../../kernel/FreeRTOS/Source/portable/GCC/ARM_CM4F/portmacro.h **** 	(
 1758              		.loc 2 195 2 view .LVU412
 1759              		.syntax unified
 1760              	@ 195 "../../kernel/FreeRTOS/Source/portable/GCC/ARM_CM4F/portmacro.h" 1
 1761 0014 4FF0A003 			mov r3, #160													@ ulNewBASEPRI,
 1762 0018 83F31188 		msr basepri, r3												@ ulNewBASEPRI
 1763 001c BFF36F8F 		isb														
 1764 0020 BFF34F8F 		dsb														
 1765              	
 1766              	@ 0 "" 2
 1767              	.LVL48:
 1768              		.thumb
 1769              		.syntax unified
 1770              	.L91:
 195:../../kernel/FreeRTOS/Source/portable/GCC/ARM_CM4F/portmacro.h **** 	(
 1771              		.loc 2 195 2 is_stmt 0 view .LVU413
 1772              	.LBE108:
ARM GAS  /tmp/cc5qDK7o.s 			page 56


 1773              	.LBE107:
 1774              		.loc 1 754 4 is_stmt 1 discriminator 1 view .LVU414
 1775              		.loc 1 754 4 discriminator 1 view .LVU415
 1776              		.loc 1 754 4 discriminator 1 view .LVU416
 1777              		.loc 1 754 4 discriminator 1 view .LVU417
 1778 0024 FEE7     		b	.L91		@
 1779              	.L90:
 1780              		.loc 1 754 61 discriminator 2 view .LVU418
 755:../../kernel/FreeRTOS/Source/portable/GCC/ARM_CM4F/port.c **** 		}
 756:../../kernel/FreeRTOS/Source/portable/GCC/ARM_CM4F/port.c **** 
 757:../../kernel/FreeRTOS/Source/portable/GCC/ARM_CM4F/port.c **** 		/* Priority grouping:  The interrupt controller (NVIC) allows the bits
 758:../../kernel/FreeRTOS/Source/portable/GCC/ARM_CM4F/port.c **** 		that define each interrupt's priority to be split between bits that
 759:../../kernel/FreeRTOS/Source/portable/GCC/ARM_CM4F/port.c **** 		define the interrupt's pre-emption priority bits and bits that define
 760:../../kernel/FreeRTOS/Source/portable/GCC/ARM_CM4F/port.c **** 		the interrupt's sub-priority.  For simplicity all bits must be defined
 761:../../kernel/FreeRTOS/Source/portable/GCC/ARM_CM4F/port.c **** 		to be pre-emption priority bits.  The following assertion will fail if
 762:../../kernel/FreeRTOS/Source/portable/GCC/ARM_CM4F/port.c **** 		this is not the case (if some bits represent a sub-priority).
 763:../../kernel/FreeRTOS/Source/portable/GCC/ARM_CM4F/port.c **** 
 764:../../kernel/FreeRTOS/Source/portable/GCC/ARM_CM4F/port.c **** 		If the application only uses CMSIS libraries for interrupt
 765:../../kernel/FreeRTOS/Source/portable/GCC/ARM_CM4F/port.c **** 		configuration then the correct setting can be achieved on all Cortex-M
 766:../../kernel/FreeRTOS/Source/portable/GCC/ARM_CM4F/port.c **** 		devices by calling NVIC_SetPriorityGrouping( 0 ); before starting the
 767:../../kernel/FreeRTOS/Source/portable/GCC/ARM_CM4F/port.c **** 		scheduler.  Note however that some vendor specific peripheral libraries
 768:../../kernel/FreeRTOS/Source/portable/GCC/ARM_CM4F/port.c **** 		assume a non-zero priority group setting, in which cases using a value
 769:../../kernel/FreeRTOS/Source/portable/GCC/ARM_CM4F/port.c **** 		of zero will result in unpredictable behaviour. */
 770:../../kernel/FreeRTOS/Source/portable/GCC/ARM_CM4F/port.c **** 		configASSERT( ( portAIRCR_REG & portPRIORITY_GROUP_MASK ) <= ulMaxPRIGROUPValue );
 1781              		.loc 1 770 3 discriminator 2 view .LVU419
 1782 0026 0B4B     		ldr	r3, .L94+8	@ tmp126,
 1783 0028 0B4A     		ldr	r2, .L94+12	@ tmp128,
 1784 002a 1B68     		ldr	r3, [r3]	@ _3, MEM[(volatile uint32_t *)3758157068B]
 1785 002c 1268     		ldr	r2, [r2]	@ ulMaxPRIGROUPValue, ulMaxPRIGROUPValue
 1786 002e 03F4E063 		and	r3, r3, #1792	@ tmp127, _3,
 1787 0032 9342     		cmp	r3, r2	@ tmp127, ulMaxPRIGROUPValue
 1788 0034 08D9     		bls	.L89		@,
 1789              		.loc 1 770 3 view .LVU420
 1790              	.LBB109:
 1791              	.LBI109:
 191:../../kernel/FreeRTOS/Source/portable/GCC/ARM_CM4F/portmacro.h **** {
 1792              		.loc 2 191 30 view .LVU421
 1793              	.LBB110:
 193:../../kernel/FreeRTOS/Source/portable/GCC/ARM_CM4F/portmacro.h **** 
 1794              		.loc 2 193 1 view .LVU422
 195:../../kernel/FreeRTOS/Source/portable/GCC/ARM_CM4F/portmacro.h **** 	(
 1795              		.loc 2 195 2 view .LVU423
 1796              		.syntax unified
 1797              	@ 195 "../../kernel/FreeRTOS/Source/portable/GCC/ARM_CM4F/portmacro.h" 1
 1798 0036 4FF0A003 			mov r3, #160													@ ulNewBASEPRI,
 1799 003a 83F31188 		msr basepri, r3												@ ulNewBASEPRI
 1800 003e BFF36F8F 		isb														
 1801 0042 BFF34F8F 		dsb														
 1802              	
 1803              	@ 0 "" 2
 1804              	.LVL49:
 1805              		.thumb
 1806              		.syntax unified
 1807              	.L93:
 195:../../kernel/FreeRTOS/Source/portable/GCC/ARM_CM4F/portmacro.h **** 	(
 1808              		.loc 2 195 2 is_stmt 0 view .LVU424
 1809              	.LBE110:
ARM GAS  /tmp/cc5qDK7o.s 			page 57


 1810              	.LBE109:
 1811              		.loc 1 770 3 is_stmt 1 discriminator 2 view .LVU425
 1812              		.loc 1 770 3 discriminator 2 view .LVU426
 1813              		.loc 1 770 3 discriminator 2 view .LVU427
 1814              		.loc 1 770 3 discriminator 2 view .LVU428
 1815 0046 FEE7     		b	.L93		@
 1816              	.L89:
 1817              	@ ../../kernel/FreeRTOS/Source/portable/GCC/ARM_CM4F/port.c:771: 	}
 771:../../kernel/FreeRTOS/Source/portable/GCC/ARM_CM4F/port.c **** 	}
 1818              		.loc 1 771 2 is_stmt 0 view .LVU429
 1819 0048 7047     		bx	lr	@
 1820              	.L95:
 1821 004a 00BF     		.align	2
 1822              	.L94:
 1823 004c F0E300E0 		.word	-536812560
 1824 0050 00000000 		.word	.LANCHOR4
 1825 0054 0CED00E0 		.word	-536810228
 1826 0058 00000000 		.word	.LANCHOR5
 1827              		.cfi_endproc
 1828              	.LFE17:
 1829              		.size	vPortValidateInterruptPriority, .-vPortValidateInterruptPriority
 1830              		.section	.bss.ucMaxSysCallPriority,"aw",%nobits
 1831              		.set	.LANCHOR4,. + 0
 1832              		.type	ucMaxSysCallPriority, %object
 1833              		.size	ucMaxSysCallPriority, 1
 1834              	ucMaxSysCallPriority:
 1835 0000 00       		.space	1
 1836              		.section	.bss.ulMaxPRIGROUPValue,"aw",%nobits
 1837              		.align	2
 1838              		.set	.LANCHOR5,. + 0
 1839              		.type	ulMaxPRIGROUPValue, %object
 1840              		.size	ulMaxPRIGROUPValue, 4
 1841              	ulMaxPRIGROUPValue:
 1842 0000 00000000 		.space	4
 1843              		.section	.bss.ulStoppedTimerCompensation,"aw",%nobits
 1844              		.align	2
 1845              		.set	.LANCHOR3,. + 0
 1846              		.type	ulStoppedTimerCompensation, %object
 1847              		.size	ulStoppedTimerCompensation, 4
 1848              	ulStoppedTimerCompensation:
 1849 0000 00000000 		.space	4
 1850              		.section	.bss.ulTimerCountsForOneTick,"aw",%nobits
 1851              		.align	2
 1852              		.set	.LANCHOR2,. + 0
 1853              		.type	ulTimerCountsForOneTick, %object
 1854              		.size	ulTimerCountsForOneTick, 4
 1855              	ulTimerCountsForOneTick:
 1856 0000 00000000 		.space	4
 1857              		.section	.bss.xMaximumPossibleSuppressedTicks,"aw",%nobits
 1858              		.align	2
 1859              		.set	.LANCHOR1,. + 0
 1860              		.type	xMaximumPossibleSuppressedTicks, %object
 1861              		.size	xMaximumPossibleSuppressedTicks, 4
 1862              	xMaximumPossibleSuppressedTicks:
 1863 0000 00000000 		.space	4
 1864              		.section	.data.uxCriticalNesting,"aw"
 1865              		.align	2
ARM GAS  /tmp/cc5qDK7o.s 			page 58


 1866              		.set	.LANCHOR0,. + 0
 1867              		.type	uxCriticalNesting, %object
 1868              		.size	uxCriticalNesting, 4
 1869              	uxCriticalNesting:
 1870 0000 AAAAAAAA 		.word	-1431655766
 1871              		.text
 1872              	.Letext0:
 1873              		.file 3 "/home/gu/code/freeRTOS10/vendor/mstar/CM4/tools/gcc-arm-none-eabi-8-2018-q4-major/arm-non
 1874              		.file 4 "/home/gu/code/freeRTOS10/vendor/mstar/CM4/tools/gcc-arm-none-eabi-8-2018-q4-major/arm-non
 1875              		.file 5 "../../kernel/FreeRTOS/Source/include/projdefs.h"
 1876              		.file 6 "../../kernel/FreeRTOS/Source/include/task.h"
 1877              		.section	.debug_info,"",%progbits
 1878              	.Ldebug_info0:
 1879 0000 DA070000 		.4byte	0x7da
 1880 0004 0400     		.2byte	0x4
 1881 0006 00000000 		.4byte	.Ldebug_abbrev0
 1882 000a 04       		.byte	0x4
 1883 000b 01       		.uleb128 0x1
 1884 000c AC450000 		.4byte	.LASF1123
 1885 0010 01       		.byte	0x1
 1886 0011 C0410000 		.4byte	.LASF1124
 1887 0015 89780000 		.4byte	.LASF1125
 1888 0019 70000000 		.4byte	.Ldebug_ranges0+0x70
 1889 001d 00000000 		.4byte	0
 1890 0021 00000000 		.4byte	.Ldebug_line0
 1891 0025 00000000 		.4byte	.Ldebug_macro0
 1892 0029 02       		.uleb128 0x2
 1893 002a 04       		.byte	0x4
 1894 002b 05       		.byte	0x5
 1895 002c 696E7400 		.ascii	"int\000"
 1896 0030 03       		.uleb128 0x3
 1897 0031 04       		.byte	0x4
 1898 0032 07       		.byte	0x7
 1899 0033 A44C0000 		.4byte	.LASF1060
 1900 0037 03       		.uleb128 0x3
 1901 0038 01       		.byte	0x1
 1902 0039 06       		.byte	0x6
 1903 003a 7D1D0000 		.4byte	.LASF1061
 1904 003e 04       		.uleb128 0x4
 1905 003f 81120000 		.4byte	.LASF1066
 1906 0043 03       		.byte	0x3
 1907 0044 2B       		.byte	0x2b
 1908 0045 18       		.byte	0x18
 1909 0046 4A000000 		.4byte	0x4a
 1910 004a 03       		.uleb128 0x3
 1911 004b 01       		.byte	0x1
 1912 004c 08       		.byte	0x8
 1913 004d 50530000 		.4byte	.LASF1062
 1914 0051 03       		.uleb128 0x3
 1915 0052 02       		.byte	0x2
 1916 0053 05       		.byte	0x5
 1917 0054 856D0000 		.4byte	.LASF1063
 1918 0058 03       		.uleb128 0x3
 1919 0059 02       		.byte	0x2
 1920 005a 07       		.byte	0x7
 1921 005b B37C0000 		.4byte	.LASF1064
 1922 005f 03       		.uleb128 0x3
ARM GAS  /tmp/cc5qDK7o.s 			page 59


 1923 0060 04       		.byte	0x4
 1924 0061 05       		.byte	0x5
 1925 0062 17520000 		.4byte	.LASF1065
 1926 0066 04       		.uleb128 0x4
 1927 0067 FE3A0000 		.4byte	.LASF1067
 1928 006b 03       		.byte	0x3
 1929 006c 4F       		.byte	0x4f
 1930 006d 19       		.byte	0x19
 1931 006e 72000000 		.4byte	0x72
 1932 0072 03       		.uleb128 0x3
 1933 0073 04       		.byte	0x4
 1934 0074 07       		.byte	0x7
 1935 0075 2F3A0000 		.4byte	.LASF1068
 1936 0079 03       		.uleb128 0x3
 1937 007a 08       		.byte	0x8
 1938 007b 05       		.byte	0x5
 1939 007c B2430000 		.4byte	.LASF1069
 1940 0080 03       		.uleb128 0x3
 1941 0081 08       		.byte	0x8
 1942 0082 07       		.byte	0x7
 1943 0083 E45C0000 		.4byte	.LASF1070
 1944 0087 04       		.uleb128 0x4
 1945 0088 891D0000 		.4byte	.LASF1071
 1946 008c 04       		.byte	0x4
 1947 008d 18       		.byte	0x18
 1948 008e 13       		.byte	0x13
 1949 008f 3E000000 		.4byte	0x3e
 1950 0093 05       		.uleb128 0x5
 1951 0094 87000000 		.4byte	0x87
 1952 0098 06       		.uleb128 0x6
 1953 0099 93000000 		.4byte	0x93
 1954 009d 06       		.uleb128 0x6
 1955 009e 87000000 		.4byte	0x87
 1956 00a2 04       		.uleb128 0x4
 1957 00a3 D2780000 		.4byte	.LASF1072
 1958 00a7 04       		.byte	0x4
 1959 00a8 30       		.byte	0x30
 1960 00a9 14       		.byte	0x14
 1961 00aa 66000000 		.4byte	0x66
 1962 00ae 06       		.uleb128 0x6
 1963 00af A2000000 		.4byte	0xa2
 1964 00b3 04       		.uleb128 0x4
 1965 00b4 59150000 		.4byte	.LASF1073
 1966 00b8 05       		.byte	0x5
 1967 00b9 23       		.byte	0x23
 1968 00ba 10       		.byte	0x10
 1969 00bb BF000000 		.4byte	0xbf
 1970 00bf 07       		.uleb128 0x7
 1971 00c0 04       		.byte	0x4
 1972 00c1 C5000000 		.4byte	0xc5
 1973 00c5 08       		.uleb128 0x8
 1974 00c6 D0000000 		.4byte	0xd0
 1975 00ca 09       		.uleb128 0x9
 1976 00cb D0000000 		.4byte	0xd0
 1977 00cf 00       		.byte	0
 1978 00d0 0A       		.uleb128 0xa
 1979 00d1 04       		.byte	0x4
ARM GAS  /tmp/cc5qDK7o.s 			page 60


 1980 00d2 04       		.uleb128 0x4
 1981 00d3 437B0000 		.4byte	.LASF1074
 1982 00d7 02       		.byte	0x2
 1983 00d8 37       		.byte	0x37
 1984 00d9 18       		.byte	0x18
 1985 00da A2000000 		.4byte	0xa2
 1986 00de 04       		.uleb128 0x4
 1987 00df 231A0000 		.4byte	.LASF1075
 1988 00e3 02       		.byte	0x2
 1989 00e4 38       		.byte	0x38
 1990 00e5 0E       		.byte	0xe
 1991 00e6 5F000000 		.4byte	0x5f
 1992 00ea 04       		.uleb128 0x4
 1993 00eb 53600000 		.4byte	.LASF1076
 1994 00ef 02       		.byte	0x2
 1995 00f0 39       		.byte	0x39
 1996 00f1 17       		.byte	0x17
 1997 00f2 72000000 		.4byte	0x72
 1998 00f6 04       		.uleb128 0x4
 1999 00f7 FD610000 		.4byte	.LASF1077
 2000 00fb 02       		.byte	0x2
 2001 00fc 3F       		.byte	0x3f
 2002 00fd 13       		.byte	0x13
 2003 00fe A2000000 		.4byte	0xa2
 2004 0102 03       		.uleb128 0x3
 2005 0103 01       		.byte	0x1
 2006 0104 08       		.byte	0x8
 2007 0105 3D260000 		.4byte	.LASF553
 2008 0109 07       		.uleb128 0x7
 2009 010a 04       		.byte	0x4
 2010 010b D2000000 		.4byte	0xd2
 2011 010f 0B       		.uleb128 0xb
 2012 0110 07       		.byte	0x7
 2013 0111 01       		.byte	0x1
 2014 0112 4A000000 		.4byte	0x4a
 2015 0116 06       		.byte	0x6
 2016 0117 8F       		.byte	0x8f
 2017 0118 01       		.byte	0x1
 2018 0119 30010000 		.4byte	0x130
 2019 011d 0C       		.uleb128 0xc
 2020 011e E6460000 		.4byte	.LASF1078
 2021 0122 00       		.byte	0
 2022 0123 0C       		.uleb128 0xc
 2023 0124 7D1B0000 		.4byte	.LASF1079
 2024 0128 01       		.byte	0x1
 2025 0129 0C       		.uleb128 0xc
 2026 012a 6E040000 		.4byte	.LASF1080
 2027 012e 02       		.byte	0x2
 2028 012f 00       		.byte	0
 2029 0130 0D       		.uleb128 0xd
 2030 0131 B0620000 		.4byte	.LASF1081
 2031 0135 01       		.byte	0x1
 2032 0136 92       		.byte	0x92
 2033 0137 14       		.byte	0x14
 2034 0138 EA000000 		.4byte	0xea
 2035 013c 05       		.uleb128 0x5
 2036 013d 03       		.byte	0x3
ARM GAS  /tmp/cc5qDK7o.s 			page 61


 2037 013e 00000000 		.4byte	uxCriticalNesting
 2038 0142 0D       		.uleb128 0xd
 2039 0143 925E0000 		.4byte	.LASF1082
 2040 0147 01       		.byte	0x1
 2041 0148 98       		.byte	0x98
 2042 0149 12       		.byte	0x12
 2043 014a A2000000 		.4byte	0xa2
 2044 014e 05       		.uleb128 0x5
 2045 014f 03       		.byte	0x3
 2046 0150 00000000 		.4byte	ulTimerCountsForOneTick
 2047 0154 0D       		.uleb128 0xd
 2048 0155 870B0000 		.4byte	.LASF1083
 2049 0159 01       		.byte	0x1
 2050 015a A0       		.byte	0xa0
 2051 015b 12       		.byte	0x12
 2052 015c A2000000 		.4byte	0xa2
 2053 0160 05       		.uleb128 0x5
 2054 0161 03       		.byte	0x3
 2055 0162 00000000 		.4byte	xMaximumPossibleSuppressedTicks
 2056 0166 0D       		.uleb128 0xd
 2057 0167 0F7B0000 		.4byte	.LASF1084
 2058 016b 01       		.byte	0x1
 2059 016c A8       		.byte	0xa8
 2060 016d 12       		.byte	0x12
 2061 016e A2000000 		.4byte	0xa2
 2062 0172 05       		.uleb128 0x5
 2063 0173 03       		.byte	0x3
 2064 0174 00000000 		.4byte	ulStoppedTimerCompensation
 2065 0178 0D       		.uleb128 0xd
 2066 0179 FB1A0000 		.4byte	.LASF1085
 2067 017d 01       		.byte	0x1
 2068 017e B1       		.byte	0xb1
 2069 017f 12       		.byte	0x12
 2070 0180 87000000 		.4byte	0x87
 2071 0184 05       		.uleb128 0x5
 2072 0185 03       		.byte	0x3
 2073 0186 00000000 		.4byte	ucMaxSysCallPriority
 2074 018a 0D       		.uleb128 0xd
 2075 018b B1790000 		.4byte	.LASF1086
 2076 018f 01       		.byte	0x1
 2077 0190 B2       		.byte	0xb2
 2078 0191 13       		.byte	0x13
 2079 0192 A2000000 		.4byte	0xa2
 2080 0196 05       		.uleb128 0x5
 2081 0197 03       		.byte	0x3
 2082 0198 00000000 		.4byte	ulMaxPRIGROUPValue
 2083 019c 0E       		.uleb128 0xe
 2084 019d 6D050000 		.4byte	.LASF1087
 2085 01a1 01       		.byte	0x1
 2086 01a2 B3       		.byte	0xb3
 2087 01a3 29       		.byte	0x29
 2088 01a4 B2010000 		.4byte	0x1b2
 2089 01a8 F0E300E0 		.4byte	0xe000e3f0
 2090 01ac 07       		.uleb128 0x7
 2091 01ad 04       		.byte	0x4
 2092 01ae 98000000 		.4byte	0x98
 2093 01b2 05       		.uleb128 0x5
ARM GAS  /tmp/cc5qDK7o.s 			page 62


 2094 01b3 AC010000 		.4byte	0x1ac
 2095 01b7 0F       		.uleb128 0xf
 2096 01b8 5F7B0000 		.4byte	.LASF1090
 2097 01bc 01       		.byte	0x1
 2098 01bd CD02     		.2byte	0x2cd
 2099 01bf 07       		.byte	0x7
 2100 01c0 00000000 		.4byte	.LFB17
 2101 01c4 5C000000 		.4byte	.LFE17-.LFB17
 2102 01c8 01       		.uleb128 0x1
 2103 01c9 9C       		.byte	0x9c
 2104 01ca 49020000 		.4byte	0x249
 2105 01ce 10       		.uleb128 0x10
 2106 01cf 17570000 		.4byte	.LASF1088
 2107 01d3 01       		.byte	0x1
 2108 01d4 CF02     		.2byte	0x2cf
 2109 01d6 0B       		.byte	0xb
 2110 01d7 A2000000 		.4byte	0xa2
 2111 01db 02000000 		.4byte	.LLST11
 2112 01df 00000000 		.4byte	.LVUS11
 2113 01e3 10       		.uleb128 0x10
 2114 01e4 42060000 		.4byte	.LASF1089
 2115 01e8 01       		.byte	0x1
 2116 01e9 D002     		.2byte	0x2d0
 2117 01eb 0A       		.byte	0xa
 2118 01ec 87000000 		.4byte	0x87
 2119 01f0 17000000 		.4byte	.LLST12
 2120 01f4 15000000 		.4byte	.LVUS12
 2121 01f8 11       		.uleb128 0x11
 2122 01f9 00070000 		.4byte	0x700
 2123 01fd 14000000 		.4byte	.LBI107
 2124 0201 01       		.byte	.LVU410
 2125 0202 14000000 		.4byte	.LBB107
 2126 0206 10000000 		.4byte	.LBE107-.LBB107
 2127 020a 01       		.byte	0x1
 2128 020b F202     		.2byte	0x2f2
 2129 020d 04       		.byte	0x4
 2130 020e 22020000 		.4byte	0x222
 2131 0212 12       		.uleb128 0x12
 2132 0213 14000000 		.4byte	.LBB108
 2133 0217 10000000 		.4byte	.LBE108-.LBB108
 2134 021b 13       		.uleb128 0x13
 2135 021c 0D070000 		.4byte	0x70d
 2136 0220 00       		.byte	0
 2137 0221 00       		.byte	0
 2138 0222 14       		.uleb128 0x14
 2139 0223 00070000 		.4byte	0x700
 2140 0227 36000000 		.4byte	.LBI109
 2141 022b 01       		.byte	.LVU421
 2142 022c 36000000 		.4byte	.LBB109
 2143 0230 10000000 		.4byte	.LBE109-.LBB109
 2144 0234 01       		.byte	0x1
 2145 0235 0203     		.2byte	0x302
 2146 0237 03       		.byte	0x3
 2147 0238 12       		.uleb128 0x12
 2148 0239 36000000 		.4byte	.LBB110
 2149 023d 10000000 		.4byte	.LBE110-.LBB110
 2150 0241 13       		.uleb128 0x13
ARM GAS  /tmp/cc5qDK7o.s 			page 63


 2151 0242 0D070000 		.4byte	0x70d
 2152 0246 00       		.byte	0
 2153 0247 00       		.byte	0
 2154 0248 00       		.byte	0
 2155 0249 15       		.uleb128 0x15
 2156 024a 4D590000 		.4byte	.LASF1106
 2157 024e 01       		.byte	0x1
 2158 024f BD02     		.2byte	0x2bd
 2159 0251 0D       		.byte	0xd
 2160 0252 00000000 		.4byte	.LFB16
 2161 0256 0E000000 		.4byte	.LFE16-.LFB16
 2162 025a 01       		.uleb128 0x1
 2163 025b 9C       		.byte	0x9c
 2164 025c 16       		.uleb128 0x16
 2165 025d FF570000 		.4byte	.LASF1098
 2166 0261 01       		.byte	0x1
 2167 0262 A702     		.2byte	0x2a7
 2168 0264 1E       		.byte	0x1e
 2169 0265 00000000 		.4byte	.LFB15
 2170 0269 48000000 		.4byte	.LFE15-.LFB15
 2171 026d 01       		.uleb128 0x1
 2172 026e 9C       		.byte	0x9c
 2173 026f 0F       		.uleb128 0xf
 2174 0270 9D750000 		.4byte	.LASF1091
 2175 0274 01       		.byte	0x1
 2176 0275 FE01     		.2byte	0x1fe
 2177 0277 1D       		.byte	0x1d
 2178 0278 00000000 		.4byte	.LFB14
 2179 027c 1C010000 		.4byte	.LFE14-.LFB14
 2180 0280 01       		.uleb128 0x1
 2181 0281 9C       		.byte	0x9c
 2182 0282 28030000 		.4byte	0x328
 2183 0286 17       		.uleb128 0x17
 2184 0287 9D5D0000 		.4byte	.LASF1111
 2185 028b 01       		.byte	0x1
 2186 028c FE01     		.2byte	0x1fe
 2187 028e 44       		.byte	0x44
 2188 028f F6000000 		.4byte	0xf6
 2189 0293 30000000 		.4byte	.LLST4
 2190 0297 2A000000 		.4byte	.LVUS4
 2191 029b 10       		.uleb128 0x10
 2192 029c AB400000 		.4byte	.LASF1092
 2193 02a0 01       		.byte	0x1
 2194 02a1 0002     		.2byte	0x200
 2195 02a3 0B       		.byte	0xb
 2196 02a4 A2000000 		.4byte	0xa2
 2197 02a8 5D000000 		.4byte	.LLST5
 2198 02ac 59000000 		.4byte	.LVUS5
 2199 02b0 10       		.uleb128 0x10
 2200 02b1 617A0000 		.4byte	.LASF1093
 2201 02b5 01       		.byte	0x1
 2202 02b6 0002     		.2byte	0x200
 2203 02b8 1A       		.byte	0x1a
 2204 02b9 A2000000 		.4byte	0xa2
 2205 02bd 7F000000 		.4byte	.LLST6
 2206 02c1 7B000000 		.4byte	.LVUS6
 2207 02c5 10       		.uleb128 0x10
ARM GAS  /tmp/cc5qDK7o.s 			page 64


 2208 02c6 A72D0000 		.4byte	.LASF1094
 2209 02ca 01       		.byte	0x1
 2210 02cb 0002     		.2byte	0x200
 2211 02cd 31       		.byte	0x31
 2212 02ce A2000000 		.4byte	0xa2
 2213 02d2 A5000000 		.4byte	.LLST7
 2214 02d6 9D000000 		.4byte	.LVUS7
 2215 02da 10       		.uleb128 0x10
 2216 02db 551B0000 		.4byte	.LASF1095
 2217 02df 01       		.byte	0x1
 2218 02e0 0102     		.2byte	0x201
 2219 02e2 0D       		.byte	0xd
 2220 02e3 F6000000 		.4byte	0xf6
 2221 02e7 F4000000 		.4byte	.LLST8
 2222 02eb F2000000 		.4byte	.LVUS8
 2223 02ef 18       		.uleb128 0x18
 2224 02f0 18000000 		.4byte	.Ldebug_ranges0+0x18
 2225 02f4 0E030000 		.4byte	0x30e
 2226 02f8 10       		.uleb128 0x10
 2227 02f9 674F0000 		.4byte	.LASF1096
 2228 02fd 01       		.byte	0x1
 2229 02fe 6B02     		.2byte	0x26b
 2230 0300 0E       		.byte	0xe
 2231 0301 A2000000 		.4byte	0xa2
 2232 0305 0B010000 		.4byte	.LLST9
 2233 0309 07010000 		.4byte	.LVUS9
 2234 030d 00       		.byte	0
 2235 030e 19       		.uleb128 0x19
 2236 030f 42000000 		.4byte	.LVL20
 2237 0313 A9070000 		.4byte	0x7a9
 2238 0317 1A       		.uleb128 0x1a
 2239 0318 F0000000 		.4byte	.LVL32
 2240 031c B6070000 		.4byte	0x7b6
 2241 0320 1B       		.uleb128 0x1b
 2242 0321 01       		.uleb128 0x1
 2243 0322 50       		.byte	0x50
 2244 0323 02       		.uleb128 0x2
 2245 0324 76       		.byte	0x76
 2246 0325 00       		.sleb128 0
 2247 0326 00       		.byte	0
 2248 0327 00       		.byte	0
 2249 0328 0F       		.uleb128 0xf
 2250 0329 4C170000 		.4byte	.LASF1097
 2251 032d 01       		.byte	0x1
 2252 032e E801     		.2byte	0x1e8
 2253 0330 06       		.byte	0x6
 2254 0331 00000000 		.4byte	.LFB13
 2255 0335 2C000000 		.4byte	.LFE13-.LFB13
 2256 0339 01       		.uleb128 0x1
 2257 033a 9C       		.byte	0x9c
 2258 033b 93030000 		.4byte	0x393
 2259 033f 1C       		.uleb128 0x1c
 2260 0340 00070000 		.4byte	0x700
 2261 0344 00000000 		.4byte	.LBI61
 2262 0348 02       		.byte	.LVU121
 2263 0349 00000000 		.4byte	.Ldebug_ranges0+0
 2264 034d 01       		.byte	0x1
ARM GAS  /tmp/cc5qDK7o.s 			page 65


 2265 034e EE01     		.2byte	0x1ee
 2266 0350 02       		.byte	0x2
 2267 0351 61030000 		.4byte	0x361
 2268 0355 1D       		.uleb128 0x1d
 2269 0356 00000000 		.4byte	.Ldebug_ranges0+0
 2270 035a 13       		.uleb128 0x13
 2271 035b 0D070000 		.4byte	0x70d
 2272 035f 00       		.byte	0
 2273 0360 00       		.byte	0
 2274 0361 11       		.uleb128 0x11
 2275 0362 E6060000 		.4byte	0x6e6
 2276 0366 20000000 		.4byte	.LBI65
 2277 036a 01       		.byte	.LVU132
 2278 036b 20000000 		.4byte	.LBB65
 2279 036f 06000000 		.4byte	.LBE65-.LBB65
 2280 0373 01       		.byte	0x1
 2281 0374 F801     		.2byte	0x1f8
 2282 0376 02       		.byte	0x2
 2283 0377 89030000 		.4byte	0x389
 2284 037b 1E       		.uleb128 0x1e
 2285 037c F3060000 		.4byte	0x6f3
 2286 0380 2B010000 		.4byte	.LLST3
 2287 0384 29010000 		.4byte	.LVUS3
 2288 0388 00       		.byte	0
 2289 0389 19       		.uleb128 0x19
 2290 038a 16000000 		.4byte	.LVL12
 2291 038e C3070000 		.4byte	0x7c3
 2292 0392 00       		.byte	0
 2293 0393 16       		.uleb128 0x16
 2294 0394 68150000 		.4byte	.LASF1099
 2295 0398 01       		.byte	0x1
 2296 0399 AF01     		.2byte	0x1af
 2297 039b 06       		.byte	0x6
 2298 039c 00000000 		.4byte	.LFB12
 2299 03a0 64000000 		.4byte	.LFE12-.LFB12
 2300 03a4 01       		.uleb128 0x1
 2301 03a5 9C       		.byte	0x9c
 2302 03a6 0F       		.uleb128 0xf
 2303 03a7 7B4E0000 		.4byte	.LASF1100
 2304 03ab 01       		.byte	0x1
 2305 03ac A401     		.2byte	0x1a4
 2306 03ae 06       		.byte	0x6
 2307 03af 00000000 		.4byte	.LFB11
 2308 03b3 28000000 		.4byte	.LFE11-.LFB11
 2309 03b7 01       		.uleb128 0x1
 2310 03b8 9C       		.byte	0x9c
 2311 03b9 0C040000 		.4byte	0x40c
 2312 03bd 11       		.uleb128 0x11
 2313 03be 00070000 		.4byte	0x700
 2314 03c2 06000000 		.4byte	.LBI57
 2315 03c6 01       		.byte	.LVU98
 2316 03c7 06000000 		.4byte	.LBB57
 2317 03cb 10000000 		.4byte	.LBE57-.LBB57
 2318 03cf 01       		.byte	0x1
 2319 03d0 A601     		.2byte	0x1a6
 2320 03d2 02       		.byte	0x2
 2321 03d3 E7030000 		.4byte	0x3e7
ARM GAS  /tmp/cc5qDK7o.s 			page 66


 2322 03d7 12       		.uleb128 0x12
 2323 03d8 06000000 		.4byte	.LBB58
 2324 03dc 10000000 		.4byte	.LBE58-.LBB58
 2325 03e0 13       		.uleb128 0x13
 2326 03e1 0D070000 		.4byte	0x70d
 2327 03e5 00       		.byte	0
 2328 03e6 00       		.byte	0
 2329 03e7 14       		.uleb128 0x14
 2330 03e8 E6060000 		.4byte	0x6e6
 2331 03ec 1E000000 		.4byte	.LBI59
 2332 03f0 01       		.byte	.LVU112
 2333 03f1 1E000000 		.4byte	.LBB59
 2334 03f5 04000000 		.4byte	.LBE59-.LBB59
 2335 03f9 01       		.byte	0x1
 2336 03fa AA01     		.2byte	0x1aa
 2337 03fc 03       		.byte	0x3
 2338 03fd 1E       		.uleb128 0x1e
 2339 03fe F3060000 		.4byte	0x6f3
 2340 0402 41010000 		.4byte	.LLST2
 2341 0406 3F010000 		.4byte	.LVUS2
 2342 040a 00       		.byte	0
 2343 040b 00       		.byte	0
 2344 040c 0F       		.uleb128 0xf
 2345 040d 8A5D0000 		.4byte	.LASF1101
 2346 0411 01       		.byte	0x1
 2347 0412 9301     		.2byte	0x193
 2348 0414 06       		.byte	0x6
 2349 0415 00000000 		.4byte	.LFB10
 2350 0419 44000000 		.4byte	.LFE10-.LFB10
 2351 041d 01       		.uleb128 0x1
 2352 041e 9C       		.byte	0x9c
 2353 041f 74040000 		.4byte	0x474
 2354 0423 11       		.uleb128 0x11
 2355 0424 00070000 		.4byte	0x700
 2356 0428 00000000 		.4byte	.LBI53
 2357 042c 02       		.byte	.LVU75
 2358 042d 00000000 		.4byte	.LBB53
 2359 0431 10000000 		.4byte	.LBE53-.LBB53
 2360 0435 01       		.byte	0x1
 2361 0436 9501     		.2byte	0x195
 2362 0438 02       		.byte	0x2
 2363 0439 4D040000 		.4byte	0x44d
 2364 043d 12       		.uleb128 0x12
 2365 043e 00000000 		.4byte	.LBB54
 2366 0442 10000000 		.4byte	.LBE54-.LBB54
 2367 0446 13       		.uleb128 0x13
 2368 0447 0D070000 		.4byte	0x70d
 2369 044b 00       		.byte	0
 2370 044c 00       		.byte	0
 2371 044d 14       		.uleb128 0x14
 2372 044e 00070000 		.4byte	0x700
 2373 0452 28000000 		.4byte	.LBI55
 2374 0456 01       		.byte	.LVU87
 2375 0457 28000000 		.4byte	.LBB55
 2376 045b 10000000 		.4byte	.LBE55-.LBB55
 2377 045f 01       		.byte	0x1
 2378 0460 9F01     		.2byte	0x19f
ARM GAS  /tmp/cc5qDK7o.s 			page 67


 2379 0462 03       		.byte	0x3
 2380 0463 12       		.uleb128 0x12
 2381 0464 28000000 		.4byte	.LBB56
 2382 0468 10000000 		.4byte	.LBE56-.LBB56
 2383 046c 13       		.uleb128 0x13
 2384 046d 0D070000 		.4byte	0x70d
 2385 0471 00       		.byte	0
 2386 0472 00       		.byte	0
 2387 0473 00       		.byte	0
 2388 0474 0F       		.uleb128 0xf
 2389 0475 38520000 		.4byte	.LASF1102
 2390 0479 01       		.byte	0x1
 2391 047a 8B01     		.2byte	0x18b
 2392 047c 06       		.byte	0x6
 2393 047d 00000000 		.4byte	.LFB9
 2394 0481 24000000 		.4byte	.LFE9-.LFB9
 2395 0485 01       		.uleb128 0x1
 2396 0486 9C       		.byte	0x9c
 2397 0487 B2040000 		.4byte	0x4b2
 2398 048b 14       		.uleb128 0x14
 2399 048c 00070000 		.4byte	0x700
 2400 0490 0A000000 		.4byte	.LBI51
 2401 0494 01       		.byte	.LVU64
 2402 0495 0A000000 		.4byte	.LBB51
 2403 0499 10000000 		.4byte	.LBE51-.LBB51
 2404 049d 01       		.byte	0x1
 2405 049e 8F01     		.2byte	0x18f
 2406 04a0 02       		.byte	0x2
 2407 04a1 12       		.uleb128 0x12
 2408 04a2 0A000000 		.4byte	.LBB52
 2409 04a6 10000000 		.4byte	.LBE52-.LBB52
 2410 04aa 13       		.uleb128 0x13
 2411 04ab 0D070000 		.4byte	0x70d
 2412 04af 00       		.byte	0
 2413 04b0 00       		.byte	0
 2414 04b1 00       		.byte	0
 2415 04b2 1F       		.uleb128 0x1f
 2416 04b3 883A0000 		.4byte	.LASF1109
 2417 04b7 01       		.byte	0x1
 2418 04b8 1F01     		.2byte	0x11f
 2419 04ba 0C       		.byte	0xc
 2420 04bb DE000000 		.4byte	0xde
 2421 04bf 00000000 		.4byte	.LFB8
 2422 04c3 3C010000 		.4byte	.LFE8-.LFB8
 2423 04c7 01       		.uleb128 0x1
 2424 04c8 9C       		.byte	0x9c
 2425 04c9 4B060000 		.4byte	0x64b
 2426 04cd 18       		.uleb128 0x18
 2427 04ce 40000000 		.4byte	.Ldebug_ranges0+0x40
 2428 04d2 32050000 		.4byte	0x532
 2429 04d6 20       		.uleb128 0x20
 2430 04d7 8F430000 		.4byte	.LASF1103
 2431 04db 01       		.byte	0x1
 2432 04dc 2D01     		.2byte	0x12d
 2433 04de 15       		.byte	0x15
 2434 04df AE000000 		.4byte	0xae
 2435 04e3 02       		.uleb128 0x2
ARM GAS  /tmp/cc5qDK7o.s 			page 68


 2436 04e4 91       		.byte	0x91
 2437 04e5 68       		.sleb128 -24
 2438 04e6 10       		.uleb128 0x10
 2439 04e7 CC6E0000 		.4byte	.LASF1104
 2440 04eb 01       		.byte	0x1
 2441 04ec 2E01     		.2byte	0x12e
 2442 04ee 1C       		.byte	0x1c
 2443 04ef 51060000 		.4byte	0x651
 2444 04f3 59010000 		.4byte	.LLST10
 2445 04f7 55010000 		.4byte	.LVUS10
 2446 04fb 20       		.uleb128 0x20
 2447 04fc C0480000 		.4byte	.LASF1105
 2448 0500 01       		.byte	0x1
 2449 0501 2F01     		.2byte	0x12f
 2450 0503 14       		.byte	0x14
 2451 0504 9D000000 		.4byte	0x9d
 2452 0508 02       		.uleb128 0x2
 2453 0509 91       		.byte	0x91
 2454 050a 67       		.sleb128 -25
 2455 050b 14       		.uleb128 0x14
 2456 050c 00070000 		.4byte	0x700
 2457 0510 6A000000 		.4byte	.LBI89
 2458 0514 01       		.byte	.LVU318
 2459 0515 6A000000 		.4byte	.LBB89
 2460 0519 10000000 		.4byte	.LBE89-.LBB89
 2461 051d 01       		.byte	0x1
 2462 051e 5A01     		.2byte	0x15a
 2463 0520 04       		.byte	0x4
 2464 0521 12       		.uleb128 0x12
 2465 0522 6A000000 		.4byte	.LBB90
 2466 0526 10000000 		.4byte	.LBE90-.LBB90
 2467 052a 13       		.uleb128 0x13
 2468 052b 0D070000 		.4byte	0x70d
 2469 052f 00       		.byte	0
 2470 0530 00       		.byte	0
 2471 0531 00       		.byte	0
 2472 0532 11       		.uleb128 0x11
 2473 0533 00070000 		.4byte	0x700
 2474 0537 7C000000 		.4byte	.LBI93
 2475 053b 02       		.byte	.LVU328
 2476 053c 7C000000 		.4byte	.LBB93
 2477 0540 10000000 		.4byte	.LBE93-.LBB93
 2478 0544 01       		.byte	0x1
 2479 0545 2901     		.2byte	0x129
 2480 0547 02       		.byte	0x2
 2481 0548 5C050000 		.4byte	0x55c
 2482 054c 12       		.uleb128 0x12
 2483 054d 7C000000 		.4byte	.LBB94
 2484 0551 10000000 		.4byte	.LBE94-.LBB94
 2485 0555 13       		.uleb128 0x13
 2486 0556 0D070000 		.4byte	0x70d
 2487 055a 00       		.byte	0
 2488 055b 00       		.byte	0
 2489 055c 11       		.uleb128 0x11
 2490 055d 00070000 		.4byte	0x700
 2491 0561 8E000000 		.4byte	.LBI95
 2492 0565 01       		.byte	.LVU337
ARM GAS  /tmp/cc5qDK7o.s 			page 69


 2493 0566 8E000000 		.4byte	.LBB95
 2494 056a 10000000 		.4byte	.LBE95-.LBB95
 2495 056e 01       		.byte	0x1
 2496 056f 2801     		.2byte	0x128
 2497 0571 02       		.byte	0x2
 2498 0572 86050000 		.4byte	0x586
 2499 0576 12       		.uleb128 0x12
 2500 0577 8E000000 		.4byte	.LBB96
 2501 057b 10000000 		.4byte	.LBE96-.LBB96
 2502 057f 13       		.uleb128 0x13
 2503 0580 0D070000 		.4byte	0x70d
 2504 0584 00       		.byte	0
 2505 0585 00       		.byte	0
 2506 0586 11       		.uleb128 0x11
 2507 0587 7B060000 		.4byte	0x67b
 2508 058b E0000000 		.4byte	.LBI99
 2509 058f 01       		.byte	.LVU370
 2510 0590 E0000000 		.4byte	.LBB99
 2511 0594 30000000 		.4byte	.LBE99-.LBB99
 2512 0598 01       		.byte	0x1
 2513 0599 8401     		.2byte	0x184
 2514 059b 02       		.byte	0x2
 2515 059c 26060000 		.4byte	0x626
 2516 05a0 12       		.uleb128 0x12
 2517 05a1 E0000000 		.4byte	.LBB100
 2518 05a5 30000000 		.4byte	.LBE100-.LBB100
 2519 05a9 21       		.uleb128 0x21
 2520 05aa 88060000 		.4byte	0x688
 2521 05ae 02       		.uleb128 0x2
 2522 05af 91       		.byte	0x91
 2523 05b0 6C       		.sleb128 -20
 2524 05b1 22       		.uleb128 0x22
 2525 05b2 7B060000 		.4byte	0x67b
 2526 05b6 E8000000 		.4byte	.LBI101
 2527 05ba 00       		.byte	.LVU375
 2528 05bb E8000000 		.4byte	.LBB101
 2529 05bf 12000000 		.4byte	.LBE101-.LBB101
 2530 05c3 01       		.byte	0x1
 2531 05c4 D9       		.byte	0xd9
 2532 05c5 0D       		.byte	0xd
 2533 05c6 FF050000 		.4byte	0x5ff
 2534 05ca 12       		.uleb128 0x12
 2535 05cb E8000000 		.4byte	.LBB102
 2536 05cf 12000000 		.4byte	.LBE102-.LBB102
 2537 05d3 13       		.uleb128 0x13
 2538 05d4 88060000 		.4byte	0x688
 2539 05d8 23       		.uleb128 0x23
 2540 05d9 00070000 		.4byte	0x700
 2541 05dd E8000000 		.4byte	.LBI103
 2542 05e1 02       		.byte	.LVU377
 2543 05e2 E8000000 		.4byte	.LBB103
 2544 05e6 10000000 		.4byte	.LBE103-.LBB103
 2545 05ea 01       		.byte	0x1
 2546 05eb E3       		.byte	0xe3
 2547 05ec 02       		.byte	0x2
 2548 05ed 12       		.uleb128 0x12
 2549 05ee E8000000 		.4byte	.LBB104
ARM GAS  /tmp/cc5qDK7o.s 			page 70


 2550 05f2 10000000 		.4byte	.LBE104-.LBB104
 2551 05f6 13       		.uleb128 0x13
 2552 05f7 0D070000 		.4byte	0x70d
 2553 05fb 00       		.byte	0
 2554 05fc 00       		.byte	0
 2555 05fd 00       		.byte	0
 2556 05fe 00       		.byte	0
 2557 05ff 23       		.uleb128 0x23
 2558 0600 00070000 		.4byte	0x700
 2559 0604 FA000000 		.4byte	.LBI105
 2560 0608 03       		.byte	.LVU388
 2561 0609 FA000000 		.4byte	.LBB105
 2562 060d 10000000 		.4byte	.LBE105-.LBB105
 2563 0611 01       		.byte	0x1
 2564 0612 E4       		.byte	0xe4
 2565 0613 02       		.byte	0x2
 2566 0614 12       		.uleb128 0x12
 2567 0615 FA000000 		.4byte	.LBB106
 2568 0619 10000000 		.4byte	.LBE106-.LBB106
 2569 061d 13       		.uleb128 0x13
 2570 061e 0D070000 		.4byte	0x70d
 2571 0622 00       		.byte	0
 2572 0623 00       		.byte	0
 2573 0624 00       		.byte	0
 2574 0625 00       		.byte	0
 2575 0626 19       		.uleb128 0x19
 2576 0627 C8000000 		.4byte	.LVL40
 2577 062b 5C020000 		.4byte	0x25c
 2578 062f 19       		.uleb128 0x19
 2579 0630 CE000000 		.4byte	.LVL41
 2580 0634 49020000 		.4byte	0x249
 2581 0638 19       		.uleb128 0x19
 2582 0639 DC000000 		.4byte	.LVL42
 2583 063d 56060000 		.4byte	0x656
 2584 0641 19       		.uleb128 0x19
 2585 0642 E0000000 		.4byte	.LVL43
 2586 0646 D0070000 		.4byte	0x7d0
 2587 064a 00       		.byte	0
 2588 064b 07       		.uleb128 0x7
 2589 064c 04       		.byte	0x4
 2590 064d 9D000000 		.4byte	0x9d
 2591 0651 05       		.uleb128 0x5
 2592 0652 4B060000 		.4byte	0x64b
 2593 0656 15       		.uleb128 0x15
 2594 0657 B66E0000 		.4byte	.LASF1107
 2595 065b 01       		.byte	0x1
 2596 065c 0501     		.2byte	0x105
 2597 065e 0D       		.byte	0xd
 2598 065f 00000000 		.4byte	.LFB7
 2599 0663 22000000 		.4byte	.LFE7-.LFB7
 2600 0667 01       		.uleb128 0x1
 2601 0668 9C       		.byte	0x9c
 2602 0669 24       		.uleb128 0x24
 2603 066a F97E0000 		.4byte	.LASF1108
 2604 066e 01       		.byte	0x1
 2605 066f F2       		.byte	0xf2
 2606 0670 06       		.byte	0x6
ARM GAS  /tmp/cc5qDK7o.s 			page 71


 2607 0671 00000000 		.4byte	.LFB6
 2608 0675 24000000 		.4byte	.LFE6-.LFB6
 2609 0679 01       		.uleb128 0x1
 2610 067a 9C       		.byte	0x9c
 2611 067b 25       		.uleb128 0x25
 2612 067c C92C0000 		.4byte	.LASF1114
 2613 0680 01       		.byte	0x1
 2614 0681 D9       		.byte	0xd9
 2615 0682 0D       		.byte	0xd
 2616 0683 01       		.byte	0x1
 2617 0684 95060000 		.4byte	0x695
 2618 0688 26       		.uleb128 0x26
 2619 0689 99490000 		.4byte	.LASF1117
 2620 068d 01       		.byte	0x1
 2621 068e DB       		.byte	0xdb
 2622 068f 13       		.byte	0x13
 2623 0690 AE000000 		.4byte	0xae
 2624 0694 00       		.byte	0
 2625 0695 27       		.uleb128 0x27
 2626 0696 0D290000 		.4byte	.LASF1110
 2627 069a 01       		.byte	0x1
 2628 069b BB       		.byte	0xbb
 2629 069c 0E       		.byte	0xe
 2630 069d 09010000 		.4byte	0x109
 2631 06a1 00000000 		.4byte	.LFB4
 2632 06a5 2C000000 		.4byte	.LFE4-.LFB4
 2633 06a9 01       		.uleb128 0x1
 2634 06aa 9C       		.byte	0x9c
 2635 06ab E6060000 		.4byte	0x6e6
 2636 06af 28       		.uleb128 0x28
 2637 06b0 75250000 		.4byte	.LASF1112
 2638 06b4 01       		.byte	0x1
 2639 06b5 BB       		.byte	0xbb
 2640 06b6 32       		.byte	0x32
 2641 06b7 09010000 		.4byte	0x109
 2642 06bb 91010000 		.4byte	.LLST0
 2643 06bf 81010000 		.4byte	.LVUS0
 2644 06c3 28       		.uleb128 0x28
 2645 06c4 44790000 		.4byte	.LASF1113
 2646 06c8 01       		.byte	0x1
 2647 06c9 BB       		.byte	0xbb
 2648 06ca 4F       		.byte	0x4f
 2649 06cb B3000000 		.4byte	0xb3
 2650 06cf 02020000 		.4byte	.LLST1
 2651 06d3 FE010000 		.4byte	.LVUS1
 2652 06d7 29       		.uleb128 0x29
 2653 06d8 56770000 		.4byte	.LASF1126
 2654 06dc 01       		.byte	0x1
 2655 06dd BB       		.byte	0xbb
 2656 06de 5D       		.byte	0x5d
 2657 06df D0000000 		.4byte	0xd0
 2658 06e3 01       		.uleb128 0x1
 2659 06e4 52       		.byte	0x52
 2660 06e5 00       		.byte	0
 2661 06e6 25       		.uleb128 0x25
 2662 06e7 DF220000 		.4byte	.LASF1115
 2663 06eb 02       		.byte	0x2
ARM GAS  /tmp/cc5qDK7o.s 			page 72


 2664 06ec E3       		.byte	0xe3
 2665 06ed 1E       		.byte	0x1e
 2666 06ee 03       		.byte	0x3
 2667 06ef 00070000 		.4byte	0x700
 2668 06f3 2A       		.uleb128 0x2a
 2669 06f4 B5200000 		.4byte	.LASF1127
 2670 06f8 02       		.byte	0x2
 2671 06f9 E3       		.byte	0xe3
 2672 06fa 38       		.byte	0x38
 2673 06fb A2000000 		.4byte	0xa2
 2674 06ff 00       		.byte	0
 2675 0700 25       		.uleb128 0x25
 2676 0701 E1710000 		.4byte	.LASF1116
 2677 0705 02       		.byte	0x2
 2678 0706 BF       		.byte	0xbf
 2679 0707 1E       		.byte	0x1e
 2680 0708 03       		.byte	0x3
 2681 0709 1A070000 		.4byte	0x71a
 2682 070d 26       		.uleb128 0x26
 2683 070e F5550000 		.4byte	.LASF1118
 2684 0712 02       		.byte	0x2
 2685 0713 C1       		.byte	0xc1
 2686 0714 0A       		.byte	0xa
 2687 0715 A2000000 		.4byte	0xa2
 2688 0719 00       		.byte	0
 2689 071a 2B       		.uleb128 0x2b
 2690 071b 7B060000 		.4byte	0x67b
 2691 071f 00000000 		.4byte	.LFB5
 2692 0723 40000000 		.4byte	.LFE5-.LFB5
 2693 0727 01       		.uleb128 0x1
 2694 0728 9C       		.byte	0x9c
 2695 0729 A9070000 		.4byte	0x7a9
 2696 072d 21       		.uleb128 0x21
 2697 072e 88060000 		.4byte	0x688
 2698 0732 02       		.uleb128 0x2
 2699 0733 91       		.byte	0x91
 2700 0734 7C       		.sleb128 -4
 2701 0735 22       		.uleb128 0x22
 2702 0736 7B060000 		.4byte	0x67b
 2703 073a 0E000000 		.4byte	.LBI45
 2704 073e 00       		.byte	.LVU14
 2705 073f 0E000000 		.4byte	.LBB45
 2706 0743 12000000 		.4byte	.LBE45-.LBB45
 2707 0747 01       		.byte	0x1
 2708 0748 D9       		.byte	0xd9
 2709 0749 0D       		.byte	0xd
 2710 074a 83070000 		.4byte	0x783
 2711 074e 12       		.uleb128 0x12
 2712 074f 0E000000 		.4byte	.LBB46
 2713 0753 12000000 		.4byte	.LBE46-.LBB46
 2714 0757 13       		.uleb128 0x13
 2715 0758 88060000 		.4byte	0x688
 2716 075c 23       		.uleb128 0x23
 2717 075d 00070000 		.4byte	0x700
 2718 0761 0E000000 		.4byte	.LBI47
 2719 0765 02       		.byte	.LVU16
 2720 0766 0E000000 		.4byte	.LBB47
ARM GAS  /tmp/cc5qDK7o.s 			page 73


 2721 076a 10000000 		.4byte	.LBE47-.LBB47
 2722 076e 01       		.byte	0x1
 2723 076f E3       		.byte	0xe3
 2724 0770 02       		.byte	0x2
 2725 0771 12       		.uleb128 0x12
 2726 0772 0E000000 		.4byte	.LBB48
 2727 0776 10000000 		.4byte	.LBE48-.LBB48
 2728 077a 13       		.uleb128 0x13
 2729 077b 0D070000 		.4byte	0x70d
 2730 077f 00       		.byte	0
 2731 0780 00       		.byte	0
 2732 0781 00       		.byte	0
 2733 0782 00       		.byte	0
 2734 0783 23       		.uleb128 0x23
 2735 0784 00070000 		.4byte	0x700
 2736 0788 20000000 		.4byte	.LBI49
 2737 078c 03       		.byte	.LVU27
 2738 078d 20000000 		.4byte	.LBB49
 2739 0791 10000000 		.4byte	.LBE49-.LBB49
 2740 0795 01       		.byte	0x1
 2741 0796 E4       		.byte	0xe4
 2742 0797 02       		.byte	0x2
 2743 0798 12       		.uleb128 0x12
 2744 0799 20000000 		.4byte	.LBB50
 2745 079d 10000000 		.4byte	.LBE50-.LBB50
 2746 07a1 13       		.uleb128 0x13
 2747 07a2 0D070000 		.4byte	0x70d
 2748 07a6 00       		.byte	0
 2749 07a7 00       		.byte	0
 2750 07a8 00       		.byte	0
 2751 07a9 2C       		.uleb128 0x2c
 2752 07aa FA620000 		.4byte	.LASF1119
 2753 07ae FA620000 		.4byte	.LASF1119
 2754 07b2 06       		.byte	0x6
 2755 07b3 0D09     		.2byte	0x90d
 2756 07b5 12       		.byte	0x12
 2757 07b6 2C       		.uleb128 0x2c
 2758 07b7 025C0000 		.4byte	.LASF1120
 2759 07bb 025C0000 		.4byte	.LASF1120
 2760 07bf 06       		.byte	0x6
 2761 07c0 FD08     		.2byte	0x8fd
 2762 07c2 06       		.byte	0x6
 2763 07c3 2C       		.uleb128 0x2c
 2764 07c4 455F0000 		.4byte	.LASF1121
 2765 07c8 455F0000 		.4byte	.LASF1121
 2766 07cc 06       		.byte	0x6
 2767 07cd 5C08     		.2byte	0x85c
 2768 07cf 0C       		.byte	0xc
 2769 07d0 2C       		.uleb128 0x2c
 2770 07d1 4D320000 		.4byte	.LASF1122
 2771 07d5 4D320000 		.4byte	.LASF1122
 2772 07d9 06       		.byte	0x6
 2773 07da B008     		.2byte	0x8b0
 2774 07dc 06       		.byte	0x6
 2775 07dd 00       		.byte	0
 2776              		.section	.debug_abbrev,"",%progbits
 2777              	.Ldebug_abbrev0:
ARM GAS  /tmp/cc5qDK7o.s 			page 74


 2778 0000 01       		.uleb128 0x1
 2779 0001 11       		.uleb128 0x11
 2780 0002 01       		.byte	0x1
 2781 0003 25       		.uleb128 0x25
 2782 0004 0E       		.uleb128 0xe
 2783 0005 13       		.uleb128 0x13
 2784 0006 0B       		.uleb128 0xb
 2785 0007 03       		.uleb128 0x3
 2786 0008 0E       		.uleb128 0xe
 2787 0009 1B       		.uleb128 0x1b
 2788 000a 0E       		.uleb128 0xe
 2789 000b 55       		.uleb128 0x55
 2790 000c 17       		.uleb128 0x17
 2791 000d 11       		.uleb128 0x11
 2792 000e 01       		.uleb128 0x1
 2793 000f 10       		.uleb128 0x10
 2794 0010 17       		.uleb128 0x17
 2795 0011 9942     		.uleb128 0x2119
 2796 0013 17       		.uleb128 0x17
 2797 0014 00       		.byte	0
 2798 0015 00       		.byte	0
 2799 0016 02       		.uleb128 0x2
 2800 0017 24       		.uleb128 0x24
 2801 0018 00       		.byte	0
 2802 0019 0B       		.uleb128 0xb
 2803 001a 0B       		.uleb128 0xb
 2804 001b 3E       		.uleb128 0x3e
 2805 001c 0B       		.uleb128 0xb
 2806 001d 03       		.uleb128 0x3
 2807 001e 08       		.uleb128 0x8
 2808 001f 00       		.byte	0
 2809 0020 00       		.byte	0
 2810 0021 03       		.uleb128 0x3
 2811 0022 24       		.uleb128 0x24
 2812 0023 00       		.byte	0
 2813 0024 0B       		.uleb128 0xb
 2814 0025 0B       		.uleb128 0xb
 2815 0026 3E       		.uleb128 0x3e
 2816 0027 0B       		.uleb128 0xb
 2817 0028 03       		.uleb128 0x3
 2818 0029 0E       		.uleb128 0xe
 2819 002a 00       		.byte	0
 2820 002b 00       		.byte	0
 2821 002c 04       		.uleb128 0x4
 2822 002d 16       		.uleb128 0x16
 2823 002e 00       		.byte	0
 2824 002f 03       		.uleb128 0x3
 2825 0030 0E       		.uleb128 0xe
 2826 0031 3A       		.uleb128 0x3a
 2827 0032 0B       		.uleb128 0xb
 2828 0033 3B       		.uleb128 0x3b
 2829 0034 0B       		.uleb128 0xb
 2830 0035 39       		.uleb128 0x39
 2831 0036 0B       		.uleb128 0xb
 2832 0037 49       		.uleb128 0x49
 2833 0038 13       		.uleb128 0x13
 2834 0039 00       		.byte	0
ARM GAS  /tmp/cc5qDK7o.s 			page 75


 2835 003a 00       		.byte	0
 2836 003b 05       		.uleb128 0x5
 2837 003c 26       		.uleb128 0x26
 2838 003d 00       		.byte	0
 2839 003e 49       		.uleb128 0x49
 2840 003f 13       		.uleb128 0x13
 2841 0040 00       		.byte	0
 2842 0041 00       		.byte	0
 2843 0042 06       		.uleb128 0x6
 2844 0043 35       		.uleb128 0x35
 2845 0044 00       		.byte	0
 2846 0045 49       		.uleb128 0x49
 2847 0046 13       		.uleb128 0x13
 2848 0047 00       		.byte	0
 2849 0048 00       		.byte	0
 2850 0049 07       		.uleb128 0x7
 2851 004a 0F       		.uleb128 0xf
 2852 004b 00       		.byte	0
 2853 004c 0B       		.uleb128 0xb
 2854 004d 0B       		.uleb128 0xb
 2855 004e 49       		.uleb128 0x49
 2856 004f 13       		.uleb128 0x13
 2857 0050 00       		.byte	0
 2858 0051 00       		.byte	0
 2859 0052 08       		.uleb128 0x8
 2860 0053 15       		.uleb128 0x15
 2861 0054 01       		.byte	0x1
 2862 0055 27       		.uleb128 0x27
 2863 0056 19       		.uleb128 0x19
 2864 0057 01       		.uleb128 0x1
 2865 0058 13       		.uleb128 0x13
 2866 0059 00       		.byte	0
 2867 005a 00       		.byte	0
 2868 005b 09       		.uleb128 0x9
 2869 005c 05       		.uleb128 0x5
 2870 005d 00       		.byte	0
 2871 005e 49       		.uleb128 0x49
 2872 005f 13       		.uleb128 0x13
 2873 0060 00       		.byte	0
 2874 0061 00       		.byte	0
 2875 0062 0A       		.uleb128 0xa
 2876 0063 0F       		.uleb128 0xf
 2877 0064 00       		.byte	0
 2878 0065 0B       		.uleb128 0xb
 2879 0066 0B       		.uleb128 0xb
 2880 0067 00       		.byte	0
 2881 0068 00       		.byte	0
 2882 0069 0B       		.uleb128 0xb
 2883 006a 04       		.uleb128 0x4
 2884 006b 01       		.byte	0x1
 2885 006c 3E       		.uleb128 0x3e
 2886 006d 0B       		.uleb128 0xb
 2887 006e 0B       		.uleb128 0xb
 2888 006f 0B       		.uleb128 0xb
 2889 0070 49       		.uleb128 0x49
 2890 0071 13       		.uleb128 0x13
 2891 0072 3A       		.uleb128 0x3a
ARM GAS  /tmp/cc5qDK7o.s 			page 76


 2892 0073 0B       		.uleb128 0xb
 2893 0074 3B       		.uleb128 0x3b
 2894 0075 0B       		.uleb128 0xb
 2895 0076 39       		.uleb128 0x39
 2896 0077 0B       		.uleb128 0xb
 2897 0078 01       		.uleb128 0x1
 2898 0079 13       		.uleb128 0x13
 2899 007a 00       		.byte	0
 2900 007b 00       		.byte	0
 2901 007c 0C       		.uleb128 0xc
 2902 007d 28       		.uleb128 0x28
 2903 007e 00       		.byte	0
 2904 007f 03       		.uleb128 0x3
 2905 0080 0E       		.uleb128 0xe
 2906 0081 1C       		.uleb128 0x1c
 2907 0082 0B       		.uleb128 0xb
 2908 0083 00       		.byte	0
 2909 0084 00       		.byte	0
 2910 0085 0D       		.uleb128 0xd
 2911 0086 34       		.uleb128 0x34
 2912 0087 00       		.byte	0
 2913 0088 03       		.uleb128 0x3
 2914 0089 0E       		.uleb128 0xe
 2915 008a 3A       		.uleb128 0x3a
 2916 008b 0B       		.uleb128 0xb
 2917 008c 3B       		.uleb128 0x3b
 2918 008d 0B       		.uleb128 0xb
 2919 008e 39       		.uleb128 0x39
 2920 008f 0B       		.uleb128 0xb
 2921 0090 49       		.uleb128 0x49
 2922 0091 13       		.uleb128 0x13
 2923 0092 02       		.uleb128 0x2
 2924 0093 18       		.uleb128 0x18
 2925 0094 00       		.byte	0
 2926 0095 00       		.byte	0
 2927 0096 0E       		.uleb128 0xe
 2928 0097 34       		.uleb128 0x34
 2929 0098 00       		.byte	0
 2930 0099 03       		.uleb128 0x3
 2931 009a 0E       		.uleb128 0xe
 2932 009b 3A       		.uleb128 0x3a
 2933 009c 0B       		.uleb128 0xb
 2934 009d 3B       		.uleb128 0x3b
 2935 009e 0B       		.uleb128 0xb
 2936 009f 39       		.uleb128 0x39
 2937 00a0 0B       		.uleb128 0xb
 2938 00a1 49       		.uleb128 0x49
 2939 00a2 13       		.uleb128 0x13
 2940 00a3 1C       		.uleb128 0x1c
 2941 00a4 06       		.uleb128 0x6
 2942 00a5 00       		.byte	0
 2943 00a6 00       		.byte	0
 2944 00a7 0F       		.uleb128 0xf
 2945 00a8 2E       		.uleb128 0x2e
 2946 00a9 01       		.byte	0x1
 2947 00aa 3F       		.uleb128 0x3f
 2948 00ab 19       		.uleb128 0x19
ARM GAS  /tmp/cc5qDK7o.s 			page 77


 2949 00ac 03       		.uleb128 0x3
 2950 00ad 0E       		.uleb128 0xe
 2951 00ae 3A       		.uleb128 0x3a
 2952 00af 0B       		.uleb128 0xb
 2953 00b0 3B       		.uleb128 0x3b
 2954 00b1 05       		.uleb128 0x5
 2955 00b2 39       		.uleb128 0x39
 2956 00b3 0B       		.uleb128 0xb
 2957 00b4 27       		.uleb128 0x27
 2958 00b5 19       		.uleb128 0x19
 2959 00b6 11       		.uleb128 0x11
 2960 00b7 01       		.uleb128 0x1
 2961 00b8 12       		.uleb128 0x12
 2962 00b9 06       		.uleb128 0x6
 2963 00ba 40       		.uleb128 0x40
 2964 00bb 18       		.uleb128 0x18
 2965 00bc 9742     		.uleb128 0x2117
 2966 00be 19       		.uleb128 0x19
 2967 00bf 01       		.uleb128 0x1
 2968 00c0 13       		.uleb128 0x13
 2969 00c1 00       		.byte	0
 2970 00c2 00       		.byte	0
 2971 00c3 10       		.uleb128 0x10
 2972 00c4 34       		.uleb128 0x34
 2973 00c5 00       		.byte	0
 2974 00c6 03       		.uleb128 0x3
 2975 00c7 0E       		.uleb128 0xe
 2976 00c8 3A       		.uleb128 0x3a
 2977 00c9 0B       		.uleb128 0xb
 2978 00ca 3B       		.uleb128 0x3b
 2979 00cb 05       		.uleb128 0x5
 2980 00cc 39       		.uleb128 0x39
 2981 00cd 0B       		.uleb128 0xb
 2982 00ce 49       		.uleb128 0x49
 2983 00cf 13       		.uleb128 0x13
 2984 00d0 02       		.uleb128 0x2
 2985 00d1 17       		.uleb128 0x17
 2986 00d2 B742     		.uleb128 0x2137
 2987 00d4 17       		.uleb128 0x17
 2988 00d5 00       		.byte	0
 2989 00d6 00       		.byte	0
 2990 00d7 11       		.uleb128 0x11
 2991 00d8 1D       		.uleb128 0x1d
 2992 00d9 01       		.byte	0x1
 2993 00da 31       		.uleb128 0x31
 2994 00db 13       		.uleb128 0x13
 2995 00dc 52       		.uleb128 0x52
 2996 00dd 01       		.uleb128 0x1
 2997 00de B842     		.uleb128 0x2138
 2998 00e0 0B       		.uleb128 0xb
 2999 00e1 11       		.uleb128 0x11
 3000 00e2 01       		.uleb128 0x1
 3001 00e3 12       		.uleb128 0x12
 3002 00e4 06       		.uleb128 0x6
 3003 00e5 58       		.uleb128 0x58
 3004 00e6 0B       		.uleb128 0xb
 3005 00e7 59       		.uleb128 0x59
ARM GAS  /tmp/cc5qDK7o.s 			page 78


 3006 00e8 05       		.uleb128 0x5
 3007 00e9 57       		.uleb128 0x57
 3008 00ea 0B       		.uleb128 0xb
 3009 00eb 01       		.uleb128 0x1
 3010 00ec 13       		.uleb128 0x13
 3011 00ed 00       		.byte	0
 3012 00ee 00       		.byte	0
 3013 00ef 12       		.uleb128 0x12
 3014 00f0 0B       		.uleb128 0xb
 3015 00f1 01       		.byte	0x1
 3016 00f2 11       		.uleb128 0x11
 3017 00f3 01       		.uleb128 0x1
 3018 00f4 12       		.uleb128 0x12
 3019 00f5 06       		.uleb128 0x6
 3020 00f6 00       		.byte	0
 3021 00f7 00       		.byte	0
 3022 00f8 13       		.uleb128 0x13
 3023 00f9 34       		.uleb128 0x34
 3024 00fa 00       		.byte	0
 3025 00fb 31       		.uleb128 0x31
 3026 00fc 13       		.uleb128 0x13
 3027 00fd 00       		.byte	0
 3028 00fe 00       		.byte	0
 3029 00ff 14       		.uleb128 0x14
 3030 0100 1D       		.uleb128 0x1d
 3031 0101 01       		.byte	0x1
 3032 0102 31       		.uleb128 0x31
 3033 0103 13       		.uleb128 0x13
 3034 0104 52       		.uleb128 0x52
 3035 0105 01       		.uleb128 0x1
 3036 0106 B842     		.uleb128 0x2138
 3037 0108 0B       		.uleb128 0xb
 3038 0109 11       		.uleb128 0x11
 3039 010a 01       		.uleb128 0x1
 3040 010b 12       		.uleb128 0x12
 3041 010c 06       		.uleb128 0x6
 3042 010d 58       		.uleb128 0x58
 3043 010e 0B       		.uleb128 0xb
 3044 010f 59       		.uleb128 0x59
 3045 0110 05       		.uleb128 0x5
 3046 0111 57       		.uleb128 0x57
 3047 0112 0B       		.uleb128 0xb
 3048 0113 00       		.byte	0
 3049 0114 00       		.byte	0
 3050 0115 15       		.uleb128 0x15
 3051 0116 2E       		.uleb128 0x2e
 3052 0117 00       		.byte	0
 3053 0118 03       		.uleb128 0x3
 3054 0119 0E       		.uleb128 0xe
 3055 011a 3A       		.uleb128 0x3a
 3056 011b 0B       		.uleb128 0xb
 3057 011c 3B       		.uleb128 0x3b
 3058 011d 05       		.uleb128 0x5
 3059 011e 39       		.uleb128 0x39
 3060 011f 0B       		.uleb128 0xb
 3061 0120 27       		.uleb128 0x27
 3062 0121 19       		.uleb128 0x19
ARM GAS  /tmp/cc5qDK7o.s 			page 79


 3063 0122 11       		.uleb128 0x11
 3064 0123 01       		.uleb128 0x1
 3065 0124 12       		.uleb128 0x12
 3066 0125 06       		.uleb128 0x6
 3067 0126 40       		.uleb128 0x40
 3068 0127 18       		.uleb128 0x18
 3069 0128 9742     		.uleb128 0x2117
 3070 012a 19       		.uleb128 0x19
 3071 012b 00       		.byte	0
 3072 012c 00       		.byte	0
 3073 012d 16       		.uleb128 0x16
 3074 012e 2E       		.uleb128 0x2e
 3075 012f 00       		.byte	0
 3076 0130 3F       		.uleb128 0x3f
 3077 0131 19       		.uleb128 0x19
 3078 0132 03       		.uleb128 0x3
 3079 0133 0E       		.uleb128 0xe
 3080 0134 3A       		.uleb128 0x3a
 3081 0135 0B       		.uleb128 0xb
 3082 0136 3B       		.uleb128 0x3b
 3083 0137 05       		.uleb128 0x5
 3084 0138 39       		.uleb128 0x39
 3085 0139 0B       		.uleb128 0xb
 3086 013a 27       		.uleb128 0x27
 3087 013b 19       		.uleb128 0x19
 3088 013c 11       		.uleb128 0x11
 3089 013d 01       		.uleb128 0x1
 3090 013e 12       		.uleb128 0x12
 3091 013f 06       		.uleb128 0x6
 3092 0140 40       		.uleb128 0x40
 3093 0141 18       		.uleb128 0x18
 3094 0142 9742     		.uleb128 0x2117
 3095 0144 19       		.uleb128 0x19
 3096 0145 00       		.byte	0
 3097 0146 00       		.byte	0
 3098 0147 17       		.uleb128 0x17
 3099 0148 05       		.uleb128 0x5
 3100 0149 00       		.byte	0
 3101 014a 03       		.uleb128 0x3
 3102 014b 0E       		.uleb128 0xe
 3103 014c 3A       		.uleb128 0x3a
 3104 014d 0B       		.uleb128 0xb
 3105 014e 3B       		.uleb128 0x3b
 3106 014f 05       		.uleb128 0x5
 3107 0150 39       		.uleb128 0x39
 3108 0151 0B       		.uleb128 0xb
 3109 0152 49       		.uleb128 0x49
 3110 0153 13       		.uleb128 0x13
 3111 0154 02       		.uleb128 0x2
 3112 0155 17       		.uleb128 0x17
 3113 0156 B742     		.uleb128 0x2137
 3114 0158 17       		.uleb128 0x17
 3115 0159 00       		.byte	0
 3116 015a 00       		.byte	0
 3117 015b 18       		.uleb128 0x18
 3118 015c 0B       		.uleb128 0xb
 3119 015d 01       		.byte	0x1
ARM GAS  /tmp/cc5qDK7o.s 			page 80


 3120 015e 55       		.uleb128 0x55
 3121 015f 17       		.uleb128 0x17
 3122 0160 01       		.uleb128 0x1
 3123 0161 13       		.uleb128 0x13
 3124 0162 00       		.byte	0
 3125 0163 00       		.byte	0
 3126 0164 19       		.uleb128 0x19
 3127 0165 898201   		.uleb128 0x4109
 3128 0168 00       		.byte	0
 3129 0169 11       		.uleb128 0x11
 3130 016a 01       		.uleb128 0x1
 3131 016b 31       		.uleb128 0x31
 3132 016c 13       		.uleb128 0x13
 3133 016d 00       		.byte	0
 3134 016e 00       		.byte	0
 3135 016f 1A       		.uleb128 0x1a
 3136 0170 898201   		.uleb128 0x4109
 3137 0173 01       		.byte	0x1
 3138 0174 11       		.uleb128 0x11
 3139 0175 01       		.uleb128 0x1
 3140 0176 31       		.uleb128 0x31
 3141 0177 13       		.uleb128 0x13
 3142 0178 00       		.byte	0
 3143 0179 00       		.byte	0
 3144 017a 1B       		.uleb128 0x1b
 3145 017b 8A8201   		.uleb128 0x410a
 3146 017e 00       		.byte	0
 3147 017f 02       		.uleb128 0x2
 3148 0180 18       		.uleb128 0x18
 3149 0181 9142     		.uleb128 0x2111
 3150 0183 18       		.uleb128 0x18
 3151 0184 00       		.byte	0
 3152 0185 00       		.byte	0
 3153 0186 1C       		.uleb128 0x1c
 3154 0187 1D       		.uleb128 0x1d
 3155 0188 01       		.byte	0x1
 3156 0189 31       		.uleb128 0x31
 3157 018a 13       		.uleb128 0x13
 3158 018b 52       		.uleb128 0x52
 3159 018c 01       		.uleb128 0x1
 3160 018d B842     		.uleb128 0x2138
 3161 018f 0B       		.uleb128 0xb
 3162 0190 55       		.uleb128 0x55
 3163 0191 17       		.uleb128 0x17
 3164 0192 58       		.uleb128 0x58
 3165 0193 0B       		.uleb128 0xb
 3166 0194 59       		.uleb128 0x59
 3167 0195 05       		.uleb128 0x5
 3168 0196 57       		.uleb128 0x57
 3169 0197 0B       		.uleb128 0xb
 3170 0198 01       		.uleb128 0x1
 3171 0199 13       		.uleb128 0x13
 3172 019a 00       		.byte	0
 3173 019b 00       		.byte	0
 3174 019c 1D       		.uleb128 0x1d
 3175 019d 0B       		.uleb128 0xb
 3176 019e 01       		.byte	0x1
ARM GAS  /tmp/cc5qDK7o.s 			page 81


 3177 019f 55       		.uleb128 0x55
 3178 01a0 17       		.uleb128 0x17
 3179 01a1 00       		.byte	0
 3180 01a2 00       		.byte	0
 3181 01a3 1E       		.uleb128 0x1e
 3182 01a4 05       		.uleb128 0x5
 3183 01a5 00       		.byte	0
 3184 01a6 31       		.uleb128 0x31
 3185 01a7 13       		.uleb128 0x13
 3186 01a8 02       		.uleb128 0x2
 3187 01a9 17       		.uleb128 0x17
 3188 01aa B742     		.uleb128 0x2137
 3189 01ac 17       		.uleb128 0x17
 3190 01ad 00       		.byte	0
 3191 01ae 00       		.byte	0
 3192 01af 1F       		.uleb128 0x1f
 3193 01b0 2E       		.uleb128 0x2e
 3194 01b1 01       		.byte	0x1
 3195 01b2 3F       		.uleb128 0x3f
 3196 01b3 19       		.uleb128 0x19
 3197 01b4 03       		.uleb128 0x3
 3198 01b5 0E       		.uleb128 0xe
 3199 01b6 3A       		.uleb128 0x3a
 3200 01b7 0B       		.uleb128 0xb
 3201 01b8 3B       		.uleb128 0x3b
 3202 01b9 05       		.uleb128 0x5
 3203 01ba 39       		.uleb128 0x39
 3204 01bb 0B       		.uleb128 0xb
 3205 01bc 27       		.uleb128 0x27
 3206 01bd 19       		.uleb128 0x19
 3207 01be 49       		.uleb128 0x49
 3208 01bf 13       		.uleb128 0x13
 3209 01c0 11       		.uleb128 0x11
 3210 01c1 01       		.uleb128 0x1
 3211 01c2 12       		.uleb128 0x12
 3212 01c3 06       		.uleb128 0x6
 3213 01c4 40       		.uleb128 0x40
 3214 01c5 18       		.uleb128 0x18
 3215 01c6 9742     		.uleb128 0x2117
 3216 01c8 19       		.uleb128 0x19
 3217 01c9 01       		.uleb128 0x1
 3218 01ca 13       		.uleb128 0x13
 3219 01cb 00       		.byte	0
 3220 01cc 00       		.byte	0
 3221 01cd 20       		.uleb128 0x20
 3222 01ce 34       		.uleb128 0x34
 3223 01cf 00       		.byte	0
 3224 01d0 03       		.uleb128 0x3
 3225 01d1 0E       		.uleb128 0xe
 3226 01d2 3A       		.uleb128 0x3a
 3227 01d3 0B       		.uleb128 0xb
 3228 01d4 3B       		.uleb128 0x3b
 3229 01d5 05       		.uleb128 0x5
 3230 01d6 39       		.uleb128 0x39
 3231 01d7 0B       		.uleb128 0xb
 3232 01d8 49       		.uleb128 0x49
 3233 01d9 13       		.uleb128 0x13
ARM GAS  /tmp/cc5qDK7o.s 			page 82


 3234 01da 02       		.uleb128 0x2
 3235 01db 18       		.uleb128 0x18
 3236 01dc 00       		.byte	0
 3237 01dd 00       		.byte	0
 3238 01de 21       		.uleb128 0x21
 3239 01df 34       		.uleb128 0x34
 3240 01e0 00       		.byte	0
 3241 01e1 31       		.uleb128 0x31
 3242 01e2 13       		.uleb128 0x13
 3243 01e3 02       		.uleb128 0x2
 3244 01e4 18       		.uleb128 0x18
 3245 01e5 00       		.byte	0
 3246 01e6 00       		.byte	0
 3247 01e7 22       		.uleb128 0x22
 3248 01e8 1D       		.uleb128 0x1d
 3249 01e9 01       		.byte	0x1
 3250 01ea 31       		.uleb128 0x31
 3251 01eb 13       		.uleb128 0x13
 3252 01ec 52       		.uleb128 0x52
 3253 01ed 01       		.uleb128 0x1
 3254 01ee B842     		.uleb128 0x2138
 3255 01f0 0B       		.uleb128 0xb
 3256 01f1 11       		.uleb128 0x11
 3257 01f2 01       		.uleb128 0x1
 3258 01f3 12       		.uleb128 0x12
 3259 01f4 06       		.uleb128 0x6
 3260 01f5 58       		.uleb128 0x58
 3261 01f6 0B       		.uleb128 0xb
 3262 01f7 59       		.uleb128 0x59
 3263 01f8 0B       		.uleb128 0xb
 3264 01f9 57       		.uleb128 0x57
 3265 01fa 0B       		.uleb128 0xb
 3266 01fb 01       		.uleb128 0x1
 3267 01fc 13       		.uleb128 0x13
 3268 01fd 00       		.byte	0
 3269 01fe 00       		.byte	0
 3270 01ff 23       		.uleb128 0x23
 3271 0200 1D       		.uleb128 0x1d
 3272 0201 01       		.byte	0x1
 3273 0202 31       		.uleb128 0x31
 3274 0203 13       		.uleb128 0x13
 3275 0204 52       		.uleb128 0x52
 3276 0205 01       		.uleb128 0x1
 3277 0206 B842     		.uleb128 0x2138
 3278 0208 0B       		.uleb128 0xb
 3279 0209 11       		.uleb128 0x11
 3280 020a 01       		.uleb128 0x1
 3281 020b 12       		.uleb128 0x12
 3282 020c 06       		.uleb128 0x6
 3283 020d 58       		.uleb128 0x58
 3284 020e 0B       		.uleb128 0xb
 3285 020f 59       		.uleb128 0x59
 3286 0210 0B       		.uleb128 0xb
 3287 0211 57       		.uleb128 0x57
 3288 0212 0B       		.uleb128 0xb
 3289 0213 00       		.byte	0
 3290 0214 00       		.byte	0
ARM GAS  /tmp/cc5qDK7o.s 			page 83


 3291 0215 24       		.uleb128 0x24
 3292 0216 2E       		.uleb128 0x2e
 3293 0217 00       		.byte	0
 3294 0218 3F       		.uleb128 0x3f
 3295 0219 19       		.uleb128 0x19
 3296 021a 03       		.uleb128 0x3
 3297 021b 0E       		.uleb128 0xe
 3298 021c 3A       		.uleb128 0x3a
 3299 021d 0B       		.uleb128 0xb
 3300 021e 3B       		.uleb128 0x3b
 3301 021f 0B       		.uleb128 0xb
 3302 0220 39       		.uleb128 0x39
 3303 0221 0B       		.uleb128 0xb
 3304 0222 27       		.uleb128 0x27
 3305 0223 19       		.uleb128 0x19
 3306 0224 11       		.uleb128 0x11
 3307 0225 01       		.uleb128 0x1
 3308 0226 12       		.uleb128 0x12
 3309 0227 06       		.uleb128 0x6
 3310 0228 40       		.uleb128 0x40
 3311 0229 18       		.uleb128 0x18
 3312 022a 9742     		.uleb128 0x2117
 3313 022c 19       		.uleb128 0x19
 3314 022d 00       		.byte	0
 3315 022e 00       		.byte	0
 3316 022f 25       		.uleb128 0x25
 3317 0230 2E       		.uleb128 0x2e
 3318 0231 01       		.byte	0x1
 3319 0232 03       		.uleb128 0x3
 3320 0233 0E       		.uleb128 0xe
 3321 0234 3A       		.uleb128 0x3a
 3322 0235 0B       		.uleb128 0xb
 3323 0236 3B       		.uleb128 0x3b
 3324 0237 0B       		.uleb128 0xb
 3325 0238 39       		.uleb128 0x39
 3326 0239 0B       		.uleb128 0xb
 3327 023a 27       		.uleb128 0x27
 3328 023b 19       		.uleb128 0x19
 3329 023c 20       		.uleb128 0x20
 3330 023d 0B       		.uleb128 0xb
 3331 023e 01       		.uleb128 0x1
 3332 023f 13       		.uleb128 0x13
 3333 0240 00       		.byte	0
 3334 0241 00       		.byte	0
 3335 0242 26       		.uleb128 0x26
 3336 0243 34       		.uleb128 0x34
 3337 0244 00       		.byte	0
 3338 0245 03       		.uleb128 0x3
 3339 0246 0E       		.uleb128 0xe
 3340 0247 3A       		.uleb128 0x3a
 3341 0248 0B       		.uleb128 0xb
 3342 0249 3B       		.uleb128 0x3b
 3343 024a 0B       		.uleb128 0xb
 3344 024b 39       		.uleb128 0x39
 3345 024c 0B       		.uleb128 0xb
 3346 024d 49       		.uleb128 0x49
 3347 024e 13       		.uleb128 0x13
ARM GAS  /tmp/cc5qDK7o.s 			page 84


 3348 024f 00       		.byte	0
 3349 0250 00       		.byte	0
 3350 0251 27       		.uleb128 0x27
 3351 0252 2E       		.uleb128 0x2e
 3352 0253 01       		.byte	0x1
 3353 0254 3F       		.uleb128 0x3f
 3354 0255 19       		.uleb128 0x19
 3355 0256 03       		.uleb128 0x3
 3356 0257 0E       		.uleb128 0xe
 3357 0258 3A       		.uleb128 0x3a
 3358 0259 0B       		.uleb128 0xb
 3359 025a 3B       		.uleb128 0x3b
 3360 025b 0B       		.uleb128 0xb
 3361 025c 39       		.uleb128 0x39
 3362 025d 0B       		.uleb128 0xb
 3363 025e 27       		.uleb128 0x27
 3364 025f 19       		.uleb128 0x19
 3365 0260 49       		.uleb128 0x49
 3366 0261 13       		.uleb128 0x13
 3367 0262 11       		.uleb128 0x11
 3368 0263 01       		.uleb128 0x1
 3369 0264 12       		.uleb128 0x12
 3370 0265 06       		.uleb128 0x6
 3371 0266 40       		.uleb128 0x40
 3372 0267 18       		.uleb128 0x18
 3373 0268 9742     		.uleb128 0x2117
 3374 026a 19       		.uleb128 0x19
 3375 026b 01       		.uleb128 0x1
 3376 026c 13       		.uleb128 0x13
 3377 026d 00       		.byte	0
 3378 026e 00       		.byte	0
 3379 026f 28       		.uleb128 0x28
 3380 0270 05       		.uleb128 0x5
 3381 0271 00       		.byte	0
 3382 0272 03       		.uleb128 0x3
 3383 0273 0E       		.uleb128 0xe
 3384 0274 3A       		.uleb128 0x3a
 3385 0275 0B       		.uleb128 0xb
 3386 0276 3B       		.uleb128 0x3b
 3387 0277 0B       		.uleb128 0xb
 3388 0278 39       		.uleb128 0x39
 3389 0279 0B       		.uleb128 0xb
 3390 027a 49       		.uleb128 0x49
 3391 027b 13       		.uleb128 0x13
 3392 027c 02       		.uleb128 0x2
 3393 027d 17       		.uleb128 0x17
 3394 027e B742     		.uleb128 0x2137
 3395 0280 17       		.uleb128 0x17
 3396 0281 00       		.byte	0
 3397 0282 00       		.byte	0
 3398 0283 29       		.uleb128 0x29
 3399 0284 05       		.uleb128 0x5
 3400 0285 00       		.byte	0
 3401 0286 03       		.uleb128 0x3
 3402 0287 0E       		.uleb128 0xe
 3403 0288 3A       		.uleb128 0x3a
 3404 0289 0B       		.uleb128 0xb
ARM GAS  /tmp/cc5qDK7o.s 			page 85


 3405 028a 3B       		.uleb128 0x3b
 3406 028b 0B       		.uleb128 0xb
 3407 028c 39       		.uleb128 0x39
 3408 028d 0B       		.uleb128 0xb
 3409 028e 49       		.uleb128 0x49
 3410 028f 13       		.uleb128 0x13
 3411 0290 02       		.uleb128 0x2
 3412 0291 18       		.uleb128 0x18
 3413 0292 00       		.byte	0
 3414 0293 00       		.byte	0
 3415 0294 2A       		.uleb128 0x2a
 3416 0295 05       		.uleb128 0x5
 3417 0296 00       		.byte	0
 3418 0297 03       		.uleb128 0x3
 3419 0298 0E       		.uleb128 0xe
 3420 0299 3A       		.uleb128 0x3a
 3421 029a 0B       		.uleb128 0xb
 3422 029b 3B       		.uleb128 0x3b
 3423 029c 0B       		.uleb128 0xb
 3424 029d 39       		.uleb128 0x39
 3425 029e 0B       		.uleb128 0xb
 3426 029f 49       		.uleb128 0x49
 3427 02a0 13       		.uleb128 0x13
 3428 02a1 00       		.byte	0
 3429 02a2 00       		.byte	0
 3430 02a3 2B       		.uleb128 0x2b
 3431 02a4 2E       		.uleb128 0x2e
 3432 02a5 01       		.byte	0x1
 3433 02a6 31       		.uleb128 0x31
 3434 02a7 13       		.uleb128 0x13
 3435 02a8 11       		.uleb128 0x11
 3436 02a9 01       		.uleb128 0x1
 3437 02aa 12       		.uleb128 0x12
 3438 02ab 06       		.uleb128 0x6
 3439 02ac 40       		.uleb128 0x40
 3440 02ad 18       		.uleb128 0x18
 3441 02ae 9742     		.uleb128 0x2117
 3442 02b0 19       		.uleb128 0x19
 3443 02b1 01       		.uleb128 0x1
 3444 02b2 13       		.uleb128 0x13
 3445 02b3 00       		.byte	0
 3446 02b4 00       		.byte	0
 3447 02b5 2C       		.uleb128 0x2c
 3448 02b6 2E       		.uleb128 0x2e
 3449 02b7 00       		.byte	0
 3450 02b8 3F       		.uleb128 0x3f
 3451 02b9 19       		.uleb128 0x19
 3452 02ba 3C       		.uleb128 0x3c
 3453 02bb 19       		.uleb128 0x19
 3454 02bc 6E       		.uleb128 0x6e
 3455 02bd 0E       		.uleb128 0xe
 3456 02be 03       		.uleb128 0x3
 3457 02bf 0E       		.uleb128 0xe
 3458 02c0 3A       		.uleb128 0x3a
 3459 02c1 0B       		.uleb128 0xb
 3460 02c2 3B       		.uleb128 0x3b
 3461 02c3 05       		.uleb128 0x5
ARM GAS  /tmp/cc5qDK7o.s 			page 86


 3462 02c4 39       		.uleb128 0x39
 3463 02c5 0B       		.uleb128 0xb
 3464 02c6 00       		.byte	0
 3465 02c7 00       		.byte	0
 3466 02c8 00       		.byte	0
 3467              		.section	.debug_loc,"",%progbits
 3468              	.Ldebug_loc0:
 3469              	.LVUS11:
 3470 0000 00       		.uleb128 .LVU402
 3471 0001 00       		.uleb128 .LVU408
 3472              	.LLST11:
 3473 0002 04000000 		.4byte	.LVL46
 3474 0006 0E000000 		.4byte	.LVL47
 3475 000a 0100     		.2byte	0x1
 3476 000c 53       		.byte	0x53
 3477 000d 00000000 		.4byte	0
 3478 0011 00000000 		.4byte	0
 3479              	.LVUS12:
 3480 0015 00       		.uleb128 .LVU408
 3481 0016 00       		.uleb128 .LVU413
 3482              	.LLST12:
 3483 0017 0E000000 		.4byte	.LVL47
 3484 001b 24000000 		.4byte	.LVL48
 3485 001f 0100     		.2byte	0x1
 3486 0021 53       		.byte	0x53
 3487 0022 00000000 		.4byte	0
 3488 0026 00000000 		.4byte	0
 3489              	.LVUS4:
 3490 002a 00       		.uleb128 0
 3491 002b 00       		.uleb128 .LVU148
 3492 002c 00       		.uleb128 .LVU148
 3493 002d 00       		.uleb128 .LVU152
 3494 002e 00       		.uleb128 .LVU152
 3495 002f 00       		.uleb128 0
 3496              	.LLST4:
 3497 0030 00000000 		.4byte	.LVL15
 3498 0034 20000000 		.4byte	.LVL16
 3499 0038 0100     		.2byte	0x1
 3500 003a 50       		.byte	0x50
 3501 003b 20000000 		.4byte	.LVL16
 3502 003f 24000000 		.4byte	.LVL17
 3503 0043 0100     		.2byte	0x1
 3504 0045 54       		.byte	0x54
 3505 0046 24000000 		.4byte	.LVL17
 3506 004a 1C010000 		.4byte	.LFE14
 3507 004e 0100     		.2byte	0x1
 3508 0050 58       		.byte	0x58
 3509 0051 00000000 		.4byte	0
 3510 0055 00000000 		.4byte	0
 3511              	.LVUS5:
 3512 0059 00       		.uleb128 .LVU155
 3513 005a 00       		.uleb128 .LVU214
 3514 005b 00       		.uleb128 .LVU222
 3515 005c 00       		.uleb128 .LVU234
 3516              	.LLST5:
 3517 005d 2E000000 		.4byte	.LVL18
 3518 0061 B6000000 		.4byte	.LVL23
ARM GAS  /tmp/cc5qDK7o.s 			page 87


 3519 0065 0100     		.2byte	0x1
 3520 0067 54       		.byte	0x54
 3521 0068 C2000000 		.4byte	.LVL26
 3522 006c DA000000 		.4byte	.LVL31
 3523 0070 0100     		.2byte	0x1
 3524 0072 54       		.byte	0x54
 3525 0073 00000000 		.4byte	0
 3526 0077 00000000 		.4byte	0
 3527              	.LVUS6:
 3528 007b 01       		.uleb128 .LVU221
 3529 007c 00       		.uleb128 .LVU222
 3530 007d 00       		.uleb128 .LVU230
 3531 007e 00       		.uleb128 .LVU248
 3532              	.LLST6:
 3533 007f C0000000 		.4byte	.LVL25
 3534 0083 C2000000 		.4byte	.LVL26
 3535 0087 0100     		.2byte	0x1
 3536 0089 56       		.byte	0x56
 3537 008a D2000000 		.4byte	.LVL29
 3538 008e FE000000 		.4byte	.LVL33
 3539 0092 0100     		.2byte	0x1
 3540 0094 56       		.byte	0x56
 3541 0095 00000000 		.4byte	0
 3542 0099 00000000 		.4byte	0
 3543              	.LVUS7:
 3544 009d 00       		.uleb128 .LVU226
 3545 009e 00       		.uleb128 .LVU228
 3546 009f 00       		.uleb128 .LVU228
 3547 00a0 00       		.uleb128 .LVU230
 3548 00a1 00       		.uleb128 .LVU230
 3549 00a2 00       		.uleb128 .LVU232
 3550 00a3 00       		.uleb128 .LVU232
 3551 00a4 00       		.uleb128 .LVU234
 3552              	.LLST7:
 3553 00a5 CA000000 		.4byte	.LVL27
 3554 00a9 CC000000 		.4byte	.LVL28
 3555 00ad 0600     		.2byte	0x6
 3556 00af 73       		.byte	0x73
 3557 00b0 00       		.sleb128 0
 3558 00b1 71       		.byte	0x71
 3559 00b2 00       		.sleb128 0
 3560 00b3 1C       		.byte	0x1c
 3561 00b4 9F       		.byte	0x9f
 3562 00b5 CC000000 		.4byte	.LVL28
 3563 00b9 D2000000 		.4byte	.LVL29
 3564 00bd 0100     		.2byte	0x1
 3565 00bf 56       		.byte	0x56
 3566 00c0 D2000000 		.4byte	.LVL29
 3567 00c4 D6000000 		.4byte	.LVL30
 3568 00c8 0900     		.2byte	0x9
 3569 00ca 78       		.byte	0x78
 3570 00cb 00       		.sleb128 0
 3571 00cc 72       		.byte	0x72
 3572 00cd 00       		.sleb128 0
 3573 00ce 1E       		.byte	0x1e
 3574 00cf 71       		.byte	0x71
 3575 00d0 00       		.sleb128 0
ARM GAS  /tmp/cc5qDK7o.s 			page 88


 3576 00d1 1C       		.byte	0x1c
 3577 00d2 9F       		.byte	0x9f
 3578 00d3 D6000000 		.4byte	.LVL30
 3579 00d7 DA000000 		.4byte	.LVL31
 3580 00db 0D00     		.2byte	0xd
 3581 00dd 78       		.byte	0x78
 3582 00de 00       		.sleb128 0
 3583 00df 03       		.byte	0x3
 3584 00e0 00000000 		.4byte	ulTimerCountsForOneTick
 3585 00e4 06       		.byte	0x6
 3586 00e5 1E       		.byte	0x1e
 3587 00e6 71       		.byte	0x71
 3588 00e7 00       		.sleb128 0
 3589 00e8 1C       		.byte	0x1c
 3590 00e9 9F       		.byte	0x9f
 3591 00ea 00000000 		.4byte	0
 3592 00ee 00000000 		.4byte	0
 3593              	.LVUS8:
 3594 00f2 01       		.uleb128 .LVU188
 3595 00f3 00       		.uleb128 0
 3596              	.LLST8:
 3597 00f4 76000000 		.4byte	.LVL22
 3598 00f8 1C010000 		.4byte	.LFE14
 3599 00fc 0100     		.2byte	0x1
 3600 00fe 58       		.byte	0x58
 3601 00ff 00000000 		.4byte	0
 3602 0103 00000000 		.4byte	0
 3603              	.LVUS9:
 3604 0107 00       		.uleb128 .LVU214
 3605 0108 00       		.uleb128 .LVU222
 3606 0109 00       		.uleb128 .LVU248
 3607 010a 00       		.uleb128 0
 3608              	.LLST9:
 3609 010b B6000000 		.4byte	.LVL23
 3610 010f C2000000 		.4byte	.LVL26
 3611 0113 0100     		.2byte	0x1
 3612 0115 54       		.byte	0x54
 3613 0116 FE000000 		.4byte	.LVL33
 3614 011a 1C010000 		.4byte	.LFE14
 3615 011e 0100     		.2byte	0x1
 3616 0120 54       		.byte	0x54
 3617 0121 00000000 		.4byte	0
 3618 0125 00000000 		.4byte	0
 3619              	.LVUS3:
 3620 0129 01       		.uleb128 .LVU132
 3621 012a 00       		.uleb128 .LVU134
 3622              	.LLST3:
 3623 012b 20000000 		.4byte	.LVL13
 3624 012f 26000000 		.4byte	.LVL14
 3625 0133 0200     		.2byte	0x2
 3626 0135 30       		.byte	0x30
 3627 0136 9F       		.byte	0x9f
 3628 0137 00000000 		.4byte	0
 3629 013b 00000000 		.4byte	0
 3630              	.LVUS2:
 3631 013f 01       		.uleb128 .LVU112
 3632 0140 00       		.uleb128 .LVU114
ARM GAS  /tmp/cc5qDK7o.s 			page 89


 3633              	.LLST2:
 3634 0141 1E000000 		.4byte	.LVL10
 3635 0145 22000000 		.4byte	.LVL11
 3636 0149 0200     		.2byte	0x2
 3637 014b 30       		.byte	0x30
 3638 014c 9F       		.byte	0x9f
 3639 014d 00000000 		.4byte	0
 3640 0151 00000000 		.4byte	0
 3641              	.LVUS10:
 3642 0155 03       		.uleb128 .LVU284
 3643 0156 00       		.uleb128 .LVU326
 3644 0157 00       		.uleb128 .LVU345
 3645 0158 00       		.uleb128 0
 3646              	.LLST10:
 3647 0159 12000000 		.4byte	.LVL34
 3648 015d 7C000000 		.4byte	.LVL36
 3649 0161 0600     		.2byte	0x6
 3650 0163 9E       		.byte	0x9e
 3651 0164 04       		.uleb128 0x4
 3652 0165 00E400E0 		.4byte	0xe000e400
 3653 0169 A0000000 		.4byte	.LVL39
 3654 016d 3C010000 		.4byte	.LFE8
 3655 0171 0600     		.2byte	0x6
 3656 0173 9E       		.byte	0x9e
 3657 0174 04       		.uleb128 0x4
 3658 0175 00E400E0 		.4byte	0xe000e400
 3659 0179 00000000 		.4byte	0
 3660 017d 00000000 		.4byte	0
 3661              	.LVUS0:
 3662 0181 00       		.uleb128 0
 3663 0182 02       		.uleb128 .LVU37
 3664 0183 02       		.uleb128 .LVU37
 3665 0184 01       		.uleb128 .LVU46
 3666 0185 01       		.uleb128 .LVU46
 3667 0186 03       		.uleb128 .LVU48
 3668 0187 03       		.uleb128 .LVU48
 3669 0188 05       		.uleb128 .LVU50
 3670 0189 05       		.uleb128 .LVU50
 3671 018a 07       		.uleb128 .LVU52
 3672 018b 07       		.uleb128 .LVU52
 3673 018c 01       		.uleb128 .LVU55
 3674 018d 01       		.uleb128 .LVU55
 3675 018e 00       		.uleb128 .LVU57
 3676 018f 00       		.uleb128 .LVU57
 3677 0190 00       		.uleb128 0
 3678              	.LLST0:
 3679 0191 00000000 		.4byte	.LVL2
 3680 0195 00000000 		.4byte	.LVL2
 3681 0199 0100     		.2byte	0x1
 3682 019b 50       		.byte	0x50
 3683 019c 00000000 		.4byte	.LVL2
 3684 01a0 1C000000 		.4byte	.LVL4
 3685 01a4 0300     		.2byte	0x3
 3686 01a6 70       		.byte	0x70
 3687 01a7 7C       		.sleb128 -4
 3688 01a8 9F       		.byte	0x9f
 3689 01a9 1C000000 		.4byte	.LVL4
ARM GAS  /tmp/cc5qDK7o.s 			page 90


 3690 01ad 1C000000 		.4byte	.LVL4
 3691 01b1 0300     		.2byte	0x3
 3692 01b3 70       		.byte	0x70
 3693 01b4 78       		.sleb128 -8
 3694 01b5 9F       		.byte	0x9f
 3695 01b6 1C000000 		.4byte	.LVL4
 3696 01ba 1C000000 		.4byte	.LVL4
 3697 01be 0300     		.2byte	0x3
 3698 01c0 70       		.byte	0x70
 3699 01c1 74       		.sleb128 -12
 3700 01c2 9F       		.byte	0x9f
 3701 01c3 1C000000 		.4byte	.LVL4
 3702 01c7 1C000000 		.4byte	.LVL4
 3703 01cb 0300     		.2byte	0x3
 3704 01cd 70       		.byte	0x70
 3705 01ce 60       		.sleb128 -32
 3706 01cf 9F       		.byte	0x9f
 3707 01d0 1C000000 		.4byte	.LVL4
 3708 01d4 20000000 		.4byte	.LVL5
 3709 01d8 0300     		.2byte	0x3
 3710 01da 70       		.byte	0x70
 3711 01db 5C       		.sleb128 -36
 3712 01dc 9F       		.byte	0x9f
 3713 01dd 20000000 		.4byte	.LVL5
 3714 01e1 24000000 		.4byte	.LVL6
 3715 01e5 0400     		.2byte	0x4
 3716 01e7 70       		.byte	0x70
 3717 01e8 BC7F     		.sleb128 -68
 3718 01ea 9F       		.byte	0x9f
 3719 01eb 24000000 		.4byte	.LVL6
 3720 01ef 2C000000 		.4byte	.LFE4
 3721 01f3 0100     		.2byte	0x1
 3722 01f5 50       		.byte	0x50
 3723 01f6 00000000 		.4byte	0
 3724 01fa 00000000 		.4byte	0
 3725              	.LVUS1:
 3726 01fe 00       		.uleb128 0
 3727 01ff 00       		.uleb128 .LVU40
 3728 0200 00       		.uleb128 .LVU40
 3729 0201 00       		.uleb128 0
 3730              	.LLST1:
 3731 0202 00000000 		.4byte	.LVL2
 3732 0206 06000000 		.4byte	.LVL3
 3733 020a 0100     		.2byte	0x1
 3734 020c 51       		.byte	0x51
 3735 020d 06000000 		.4byte	.LVL3
 3736 0211 2C000000 		.4byte	.LFE4
 3737 0215 0400     		.2byte	0x4
 3738 0217 F3       		.byte	0xf3
 3739 0218 01       		.uleb128 0x1
 3740 0219 51       		.byte	0x51
 3741 021a 9F       		.byte	0x9f
 3742 021b 00000000 		.4byte	0
 3743 021f 00000000 		.4byte	0
 3744              		.section	.debug_aranges,"",%progbits
 3745 0000 84000000 		.4byte	0x84
 3746 0004 0200     		.2byte	0x2
ARM GAS  /tmp/cc5qDK7o.s 			page 91


 3747 0006 00000000 		.4byte	.Ldebug_info0
 3748 000a 04       		.byte	0x4
 3749 000b 00       		.byte	0
 3750 000c 0000     		.2byte	0
 3751 000e 0000     		.2byte	0
 3752 0010 00000000 		.4byte	.LFB7
 3753 0014 22000000 		.4byte	.LFE7-.LFB7
 3754 0018 00000000 		.4byte	.LFB16
 3755 001c 0E000000 		.4byte	.LFE16-.LFB16
 3756 0020 00000000 		.4byte	.LFB5
 3757 0024 40000000 		.4byte	.LFE5-.LFB5
 3758 0028 00000000 		.4byte	.LFB4
 3759 002c 2C000000 		.4byte	.LFE4-.LFB4
 3760 0030 00000000 		.4byte	.LFB6
 3761 0034 24000000 		.4byte	.LFE6-.LFB6
 3762 0038 00000000 		.4byte	.LFB9
 3763 003c 24000000 		.4byte	.LFE9-.LFB9
 3764 0040 00000000 		.4byte	.LFB10
 3765 0044 44000000 		.4byte	.LFE10-.LFB10
 3766 0048 00000000 		.4byte	.LFB11
 3767 004c 28000000 		.4byte	.LFE11-.LFB11
 3768 0050 00000000 		.4byte	.LFB12
 3769 0054 64000000 		.4byte	.LFE12-.LFB12
 3770 0058 00000000 		.4byte	.LFB13
 3771 005c 2C000000 		.4byte	.LFE13-.LFB13
 3772 0060 00000000 		.4byte	.LFB14
 3773 0064 1C010000 		.4byte	.LFE14-.LFB14
 3774 0068 00000000 		.4byte	.LFB15
 3775 006c 48000000 		.4byte	.LFE15-.LFB15
 3776 0070 00000000 		.4byte	.LFB8
 3777 0074 3C010000 		.4byte	.LFE8-.LFB8
 3778 0078 00000000 		.4byte	.LFB17
 3779 007c 5C000000 		.4byte	.LFE17-.LFB17
 3780 0080 00000000 		.4byte	0
 3781 0084 00000000 		.4byte	0
 3782              		.section	.debug_ranges,"",%progbits
 3783              	.Ldebug_ranges0:
 3784 0000 00000000 		.4byte	.LBB61
 3785 0004 00000000 		.4byte	.LBE61
 3786 0008 02000000 		.4byte	.LBB64
 3787 000c 12000000 		.4byte	.LBE64
 3788 0010 00000000 		.4byte	0
 3789 0014 00000000 		.4byte	0
 3790 0018 A2000000 		.4byte	.LBB67
 3791 001c A4000000 		.4byte	.LBE67
 3792 0020 A8000000 		.4byte	.LBB68
 3793 0024 AA000000 		.4byte	.LBE68
 3794 0028 AC000000 		.4byte	.LBB69
 3795 002c C0000000 		.4byte	.LBE69
 3796 0030 FE000000 		.4byte	.LBB70
 3797 0034 1C010000 		.4byte	.LBE70
 3798 0038 00000000 		.4byte	0
 3799 003c 00000000 		.4byte	0
 3800 0040 12000000 		.4byte	.LBB88
 3801 0044 12000000 		.4byte	.LBE88
 3802 0048 14000000 		.4byte	.LBB91
 3803 004c 1C000000 		.4byte	.LBE91
ARM GAS  /tmp/cc5qDK7o.s 			page 92


 3804 0050 1E000000 		.4byte	.LBB92
 3805 0054 7C000000 		.4byte	.LBE92
 3806 0058 A0000000 		.4byte	.LBB97
 3807 005c A4000000 		.4byte	.LBE97
 3808 0060 A8000000 		.4byte	.LBB98
 3809 0064 B2000000 		.4byte	.LBE98
 3810 0068 00000000 		.4byte	0
 3811 006c 00000000 		.4byte	0
 3812 0070 00000000 		.4byte	.LFB7
 3813 0074 22000000 		.4byte	.LFE7
 3814 0078 00000000 		.4byte	.LFB16
 3815 007c 0E000000 		.4byte	.LFE16
 3816 0080 00000000 		.4byte	.LFB5
 3817 0084 40000000 		.4byte	.LFE5
 3818 0088 00000000 		.4byte	.LFB4
 3819 008c 2C000000 		.4byte	.LFE4
 3820 0090 00000000 		.4byte	.LFB6
 3821 0094 24000000 		.4byte	.LFE6
 3822 0098 00000000 		.4byte	.LFB9
 3823 009c 24000000 		.4byte	.LFE9
 3824 00a0 00000000 		.4byte	.LFB10
 3825 00a4 44000000 		.4byte	.LFE10
 3826 00a8 00000000 		.4byte	.LFB11
 3827 00ac 28000000 		.4byte	.LFE11
 3828 00b0 00000000 		.4byte	.LFB12
 3829 00b4 64000000 		.4byte	.LFE12
 3830 00b8 00000000 		.4byte	.LFB13
 3831 00bc 2C000000 		.4byte	.LFE13
 3832 00c0 00000000 		.4byte	.LFB14
 3833 00c4 1C010000 		.4byte	.LFE14
 3834 00c8 00000000 		.4byte	.LFB15
 3835 00cc 48000000 		.4byte	.LFE15
 3836 00d0 00000000 		.4byte	.LFB8
 3837 00d4 3C010000 		.4byte	.LFE8
 3838 00d8 00000000 		.4byte	.LFB17
 3839 00dc 5C000000 		.4byte	.LFE17
 3840 00e0 00000000 		.4byte	0
 3841 00e4 00000000 		.4byte	0
 3842              		.section	.debug_macro,"",%progbits
 3843              	.Ldebug_macro0:
 3844 0000 0400     		.2byte	0x4
 3845 0002 02       		.byte	0x2
 3846 0003 00000000 		.4byte	.Ldebug_line0
 3847 0007 07       		.byte	0x7
 3848 0008 00000000 		.4byte	.Ldebug_macro2
 3849 000c 03       		.byte	0x3
 3850 000d 00       		.uleb128 0
 3851 000e 01       		.uleb128 0x1
 3852              		.file 7 "../../kernel/FreeRTOS/Source/include/FreeRTOS.h"
 3853 000f 03       		.byte	0x3
 3854 0010 21       		.uleb128 0x21
 3855 0011 07       		.uleb128 0x7
 3856 0012 05       		.byte	0x5
 3857 0013 1D       		.uleb128 0x1d
 3858 0014 95580000 		.4byte	.LASF456
 3859              		.file 8 "/home/gu/code/freeRTOS10/vendor/mstar/CM4/tools/gcc-arm-none-eabi-8-2018-q4-major/lib/gcc
 3860 0018 03       		.byte	0x3
ARM GAS  /tmp/cc5qDK7o.s 			page 93


 3861 0019 22       		.uleb128 0x22
 3862 001a 08       		.uleb128 0x8
 3863 001b 07       		.byte	0x7
 3864 001c 00000000 		.4byte	.Ldebug_macro3
 3865 0020 04       		.byte	0x4
 3866              		.file 9 "/home/gu/code/freeRTOS10/vendor/mstar/CM4/tools/gcc-arm-none-eabi-8-2018-q4-major/lib/gcc
 3867 0021 03       		.byte	0x3
 3868 0022 31       		.uleb128 0x31
 3869 0023 09       		.uleb128 0x9
 3870              		.file 10 "/home/gu/code/freeRTOS10/vendor/mstar/CM4/tools/gcc-arm-none-eabi-8-2018-q4-major/arm-no
 3871 0024 03       		.byte	0x3
 3872 0025 09       		.uleb128 0x9
 3873 0026 0A       		.uleb128 0xa
 3874 0027 05       		.byte	0x5
 3875 0028 0A       		.uleb128 0xa
 3876 0029 C71F0000 		.4byte	.LASF509
 3877 002d 03       		.byte	0x3
 3878 002e 0C       		.uleb128 0xc
 3879 002f 03       		.uleb128 0x3
 3880 0030 05       		.byte	0x5
 3881 0031 06       		.uleb128 0x6
 3882 0032 A4540000 		.4byte	.LASF510
 3883              		.file 11 "/home/gu/code/freeRTOS10/vendor/mstar/CM4/tools/gcc-arm-none-eabi-8-2018-q4-major/arm-no
 3884 0036 03       		.byte	0x3
 3885 0037 08       		.uleb128 0x8
 3886 0038 0B       		.uleb128 0xb
 3887 0039 05       		.byte	0x5
 3888 003a 16       		.uleb128 0x16
 3889 003b 64250000 		.4byte	.LASF511
 3890              		.file 12 "/home/gu/code/freeRTOS10/vendor/mstar/CM4/tools/gcc-arm-none-eabi-8-2018-q4-major/arm-no
 3891 003f 03       		.byte	0x3
 3892 0040 1C       		.uleb128 0x1c
 3893 0041 0C       		.uleb128 0xc
 3894 0042 07       		.byte	0x7
 3895 0043 00000000 		.4byte	.Ldebug_macro4
 3896 0047 04       		.byte	0x4
 3897 0048 07       		.byte	0x7
 3898 0049 00000000 		.4byte	.Ldebug_macro5
 3899 004d 04       		.byte	0x4
 3900 004e 07       		.byte	0x7
 3901 004f 00000000 		.4byte	.Ldebug_macro6
 3902 0053 04       		.byte	0x4
 3903              		.file 13 "/home/gu/code/freeRTOS10/vendor/mstar/CM4/tools/gcc-arm-none-eabi-8-2018-q4-major/arm-no
 3904 0054 03       		.byte	0x3
 3905 0055 0D       		.uleb128 0xd
 3906 0056 0D       		.uleb128 0xd
 3907 0057 07       		.byte	0x7
 3908 0058 00000000 		.4byte	.Ldebug_macro7
 3909 005c 04       		.byte	0x4
 3910 005d 03       		.byte	0x3
 3911 005e 0E       		.uleb128 0xe
 3912 005f 04       		.uleb128 0x4
 3913 0060 07       		.byte	0x7
 3914 0061 00000000 		.4byte	.Ldebug_macro8
 3915 0065 04       		.byte	0x4
 3916 0066 07       		.byte	0x7
 3917 0067 00000000 		.4byte	.Ldebug_macro9
ARM GAS  /tmp/cc5qDK7o.s 			page 94


 3918 006b 04       		.byte	0x4
 3919 006c 05       		.byte	0x5
 3920 006d 0D       		.uleb128 0xd
 3921 006e 40280000 		.4byte	.LASF664
 3922 0072 04       		.byte	0x4
 3923              		.file 14 "./FreeRTOSConfig.h"
 3924 0073 03       		.byte	0x3
 3925 0074 38       		.uleb128 0x38
 3926 0075 0E       		.uleb128 0xe
 3927 0076 07       		.byte	0x7
 3928 0077 00000000 		.4byte	.Ldebug_macro10
 3929 007b 04       		.byte	0x4
 3930 007c 03       		.byte	0x3
 3931 007d 3B       		.uleb128 0x3b
 3932 007e 05       		.uleb128 0x5
 3933 007f 07       		.byte	0x7
 3934 0080 00000000 		.4byte	.Ldebug_macro11
 3935 0084 04       		.byte	0x4
 3936              		.file 15 "../../kernel/FreeRTOS/Source/include/portable.h"
 3937 0085 03       		.byte	0x3
 3938 0086 3E       		.uleb128 0x3e
 3939 0087 0F       		.uleb128 0xf
 3940 0088 05       		.byte	0x5
 3941 0089 21       		.uleb128 0x21
 3942 008a 31260000 		.4byte	.LASF778
 3943              		.file 16 "../../kernel/FreeRTOS/Source/include/deprecated_definitions.h"
 3944 008e 03       		.byte	0x3
 3945 008f 2D       		.uleb128 0x2d
 3946 0090 10       		.uleb128 0x10
 3947 0091 05       		.byte	0x5
 3948 0092 1D       		.uleb128 0x1d
 3949 0093 E3610000 		.4byte	.LASF779
 3950 0097 04       		.byte	0x4
 3951 0098 03       		.byte	0x3
 3952 0099 34       		.uleb128 0x34
 3953 009a 02       		.uleb128 0x2
 3954 009b 07       		.byte	0x7
 3955 009c 00000000 		.4byte	.Ldebug_macro12
 3956 00a0 04       		.byte	0x4
 3957 00a1 07       		.byte	0x7
 3958 00a2 00000000 		.4byte	.Ldebug_macro13
 3959              		.file 17 "../../kernel/FreeRTOS/Source/include/mpu_wrappers.h"
 3960 00a6 03       		.byte	0x3
 3961 00a7 5B       		.uleb128 0x5b
 3962 00a8 11       		.uleb128 0x11
 3963 00a9 07       		.byte	0x7
 3964 00aa 00000000 		.4byte	.Ldebug_macro14
 3965 00ae 04       		.byte	0x4
 3966 00af 04       		.byte	0x4
 3967 00b0 07       		.byte	0x7
 3968 00b1 00000000 		.4byte	.Ldebug_macro15
 3969 00b5 04       		.byte	0x4
 3970 00b6 03       		.byte	0x3
 3971 00b7 22       		.uleb128 0x22
 3972 00b8 06       		.uleb128 0x6
 3973 00b9 05       		.byte	0x5
 3974 00ba 1E       		.uleb128 0x1e
ARM GAS  /tmp/cc5qDK7o.s 			page 95


 3975 00bb 914B0000 		.4byte	.LASF979
 3976              		.file 18 "../../kernel/FreeRTOS/Source/include/list.h"
 3977 00bf 03       		.byte	0x3
 3978 00c0 24       		.uleb128 0x24
 3979 00c1 12       		.uleb128 0x12
 3980 00c2 07       		.byte	0x7
 3981 00c3 00000000 		.4byte	.Ldebug_macro16
 3982 00c7 04       		.byte	0x4
 3983 00c8 07       		.byte	0x7
 3984 00c9 00000000 		.4byte	.Ldebug_macro17
 3985 00cd 04       		.byte	0x4
 3986 00ce 05       		.byte	0x5
 3987 00cf 29       		.uleb128 0x29
 3988 00d0 57120000 		.4byte	.LASF1027
 3989 00d4 05       		.byte	0x5
 3990 00d5 2B       		.uleb128 0x2b
 3991 00d6 093C0000 		.4byte	.LASF1028
 3992 00da 05       		.byte	0x5
 3993 00db 33       		.uleb128 0x33
 3994 00dc 00490000 		.4byte	.LASF1029
 3995 00e0 05       		.byte	0x5
 3996 00e1 34       		.uleb128 0x34
 3997 00e2 145B0000 		.4byte	.LASF1030
 3998 00e6 05       		.byte	0x5
 3999 00e7 35       		.uleb128 0x35
 4000 00e8 DB3D0000 		.4byte	.LASF1031
 4001 00ec 05       		.byte	0x5
 4002 00ed 36       		.uleb128 0x36
 4003 00ee AE1D0000 		.4byte	.LASF1032
 4004 00f2 05       		.byte	0x5
 4005 00f3 38       		.uleb128 0x38
 4006 00f4 3C250000 		.4byte	.LASF1033
 4007 00f8 05       		.byte	0x5
 4008 00f9 39       		.uleb128 0x39
 4009 00fa 8B6B0000 		.4byte	.LASF1034
 4010 00fe 05       		.byte	0x5
 4011 00ff 3A       		.uleb128 0x3a
 4012 0100 B6550000 		.4byte	.LASF1035
 4013 0104 05       		.byte	0x5
 4014 0105 3B       		.uleb128 0x3b
 4015 0106 561F0000 		.4byte	.LASF1036
 4016 010a 05       		.byte	0x5
 4017 010b 3C       		.uleb128 0x3c
 4018 010c B9150000 		.4byte	.LASF1037
 4019 0110 05       		.byte	0x5
 4020 0111 40       		.uleb128 0x40
 4021 0112 00750000 		.4byte	.LASF1038
 4022 0116 05       		.byte	0x5
 4023 0117 41       		.uleb128 0x41
 4024 0118 01280000 		.4byte	.LASF1039
 4025 011c 05       		.byte	0x5
 4026 011d 42       		.uleb128 0x42
 4027 011e 1D790000 		.4byte	.LASF1040
 4028 0122 05       		.byte	0x5
 4029 0123 44       		.uleb128 0x44
 4030 0124 CD090000 		.4byte	.LASF1041
 4031 0128 05       		.byte	0x5
ARM GAS  /tmp/cc5qDK7o.s 			page 96


 4032 0129 45       		.uleb128 0x45
 4033 012a 092B0000 		.4byte	.LASF1042
 4034 012e 05       		.byte	0x5
 4035 012f 48       		.uleb128 0x48
 4036 0130 FF7C0000 		.4byte	.LASF1043
 4037 0134 05       		.byte	0x5
 4038 0135 49       		.uleb128 0x49
 4039 0136 1A720000 		.4byte	.LASF1044
 4040 013a 05       		.byte	0x5
 4041 013b 4A       		.uleb128 0x4a
 4042 013c 477E0000 		.4byte	.LASF1045
 4043 0140 05       		.byte	0x5
 4044 0141 4B       		.uleb128 0x4b
 4045 0142 50090000 		.4byte	.LASF1046
 4046 0146 05       		.byte	0x5
 4047 0147 4C       		.uleb128 0x4c
 4048 0148 3C540000 		.4byte	.LASF1047
 4049 014c 05       		.byte	0x5
 4050 014d 4D       		.uleb128 0x4d
 4051 014e 2C0E0000 		.4byte	.LASF1048
 4052 0152 05       		.byte	0x5
 4053 0153 4E       		.uleb128 0x4e
 4054 0154 16630000 		.4byte	.LASF1049
 4055 0158 05       		.byte	0x5
 4056 0159 4F       		.uleb128 0x4f
 4057 015a 5B240000 		.4byte	.LASF1050
 4058 015e 05       		.byte	0x5
 4059 015f 52       		.uleb128 0x52
 4060 0160 68830000 		.4byte	.LASF1051
 4061 0164 05       		.byte	0x5
 4062 0165 55       		.uleb128 0x55
 4063 0166 A61B0000 		.4byte	.LASF1052
 4064 016a 05       		.byte	0x5
 4065 016b 56       		.uleb128 0x56
 4066 016c 19340000 		.4byte	.LASF1053
 4067 0170 05       		.byte	0x5
 4068 0171 59       		.uleb128 0x59
 4069 0172 FD2C0000 		.4byte	.LASF1054
 4070 0176 05       		.byte	0x5
 4071 0177 5A       		.uleb128 0x5a
 4072 0178 154A0000 		.4byte	.LASF1055
 4073 017c 05       		.byte	0x5
 4074 017d 5D       		.uleb128 0x5d
 4075 017e 97420000 		.4byte	.LASF1056
 4076 0182 05       		.byte	0x5
 4077 0183 61       		.uleb128 0x61
 4078 0184 845B0000 		.4byte	.LASF1057
 4079 0188 05       		.byte	0x5
 4080 0189 66       		.uleb128 0x66
 4081 018a 322C0000 		.4byte	.LASF1058
 4082 018e 05       		.byte	0x5
 4083 018f 6E       		.uleb128 0x6e
 4084 0190 154B0000 		.4byte	.LASF1059
 4085 0194 04       		.byte	0x4
 4086 0195 00       		.byte	0
 4087              		.section	.debug_macro,"G",%progbits,wm4.0.2d6fdf766c63846a0a39c0f8d0bba653,comdat
 4088              	.Ldebug_macro2:
ARM GAS  /tmp/cc5qDK7o.s 			page 97


 4089 0000 0400     		.2byte	0x4
 4090 0002 00       		.byte	0
 4091 0003 05       		.byte	0x5
 4092 0004 00       		.uleb128 0
 4093 0005 51750000 		.4byte	.LASF0
 4094 0009 05       		.byte	0x5
 4095 000a 00       		.uleb128 0
 4096 000b DA740000 		.4byte	.LASF1
 4097 000f 05       		.byte	0x5
 4098 0010 00       		.uleb128 0
 4099 0011 F1510000 		.4byte	.LASF2
 4100 0015 05       		.byte	0x5
 4101 0016 00       		.uleb128 0
 4102 0017 37670000 		.4byte	.LASF3
 4103 001b 05       		.byte	0x5
 4104 001c 00       		.uleb128 0
 4105 001d E31E0000 		.4byte	.LASF4
 4106 0021 05       		.byte	0x5
 4107 0022 00       		.uleb128 0
 4108 0023 210B0000 		.4byte	.LASF5
 4109 0027 05       		.byte	0x5
 4110 0028 00       		.uleb128 0
 4111 0029 E96E0000 		.4byte	.LASF6
 4112 002d 05       		.byte	0x5
 4113 002e 00       		.uleb128 0
 4114 002f 5F220000 		.4byte	.LASF7
 4115 0033 05       		.byte	0x5
 4116 0034 00       		.uleb128 0
 4117 0035 215C0000 		.4byte	.LASF8
 4118 0039 05       		.byte	0x5
 4119 003a 00       		.uleb128 0
 4120 003b B43F0000 		.4byte	.LASF9
 4121 003f 05       		.byte	0x5
 4122 0040 00       		.uleb128 0
 4123 0041 7B810000 		.4byte	.LASF10
 4124 0045 05       		.byte	0x5
 4125 0046 00       		.uleb128 0
 4126 0047 02040000 		.4byte	.LASF11
 4127 004b 05       		.byte	0x5
 4128 004c 00       		.uleb128 0
 4129 004d 69400000 		.4byte	.LASF12
 4130 0051 05       		.byte	0x5
 4131 0052 00       		.uleb128 0
 4132 0053 C3400000 		.4byte	.LASF13
 4133 0057 05       		.byte	0x5
 4134 0058 00       		.uleb128 0
 4135 0059 57780000 		.4byte	.LASF14
 4136 005d 05       		.byte	0x5
 4137 005e 00       		.uleb128 0
 4138 005f CE1A0000 		.4byte	.LASF15
 4139 0063 05       		.byte	0x5
 4140 0064 00       		.uleb128 0
 4141 0065 F7040000 		.4byte	.LASF16
 4142 0069 05       		.byte	0x5
 4143 006a 00       		.uleb128 0
 4144 006b CC600000 		.4byte	.LASF17
 4145 006f 05       		.byte	0x5
ARM GAS  /tmp/cc5qDK7o.s 			page 98


 4146 0070 00       		.uleb128 0
 4147 0071 D5200000 		.4byte	.LASF18
 4148 0075 05       		.byte	0x5
 4149 0076 00       		.uleb128 0
 4150 0077 691B0000 		.4byte	.LASF19
 4151 007b 05       		.byte	0x5
 4152 007c 00       		.uleb128 0
 4153 007d 82250000 		.4byte	.LASF20
 4154 0081 05       		.byte	0x5
 4155 0082 00       		.uleb128 0
 4156 0083 D56B0000 		.4byte	.LASF21
 4157 0087 05       		.byte	0x5
 4158 0088 00       		.uleb128 0
 4159 0089 6C4E0000 		.4byte	.LASF22
 4160 008d 05       		.byte	0x5
 4161 008e 00       		.uleb128 0
 4162 008f BF540000 		.4byte	.LASF23
 4163 0093 05       		.byte	0x5
 4164 0094 00       		.uleb128 0
 4165 0095 B15C0000 		.4byte	.LASF24
 4166 0099 05       		.byte	0x5
 4167 009a 00       		.uleb128 0
 4168 009b C8100000 		.4byte	.LASF25
 4169 009f 05       		.byte	0x5
 4170 00a0 00       		.uleb128 0
 4171 00a1 0D060000 		.4byte	.LASF26
 4172 00a5 05       		.byte	0x5
 4173 00a6 00       		.uleb128 0
 4174 00a7 3B4A0000 		.4byte	.LASF27
 4175 00ab 05       		.byte	0x5
 4176 00ac 00       		.uleb128 0
 4177 00ad 18500000 		.4byte	.LASF28
 4178 00b1 05       		.byte	0x5
 4179 00b2 00       		.uleb128 0
 4180 00b3 5C170000 		.4byte	.LASF29
 4181 00b7 05       		.byte	0x5
 4182 00b8 00       		.uleb128 0
 4183 00b9 27060000 		.4byte	.LASF30
 4184 00bd 05       		.byte	0x5
 4185 00be 00       		.uleb128 0
 4186 00bf 1D2D0000 		.4byte	.LASF31
 4187 00c3 05       		.byte	0x5
 4188 00c4 00       		.uleb128 0
 4189 00c5 F8250000 		.4byte	.LASF32
 4190 00c9 05       		.byte	0x5
 4191 00ca 00       		.uleb128 0
 4192 00cb C90B0000 		.4byte	.LASF33
 4193 00cf 05       		.byte	0x5
 4194 00d0 00       		.uleb128 0
 4195 00d1 E2670000 		.4byte	.LASF34
 4196 00d5 05       		.byte	0x5
 4197 00d6 00       		.uleb128 0
 4198 00d7 CC660000 		.4byte	.LASF35
 4199 00db 05       		.byte	0x5
 4200 00dc 00       		.uleb128 0
 4201 00dd BE5F0000 		.4byte	.LASF36
 4202 00e1 05       		.byte	0x5
ARM GAS  /tmp/cc5qDK7o.s 			page 99


 4203 00e2 00       		.uleb128 0
 4204 00e3 011A0000 		.4byte	.LASF37
 4205 00e7 05       		.byte	0x5
 4206 00e8 00       		.uleb128 0
 4207 00e9 670B0000 		.4byte	.LASF38
 4208 00ed 05       		.byte	0x5
 4209 00ee 00       		.uleb128 0
 4210 00ef 4C070000 		.4byte	.LASF39
 4211 00f3 05       		.byte	0x5
 4212 00f4 00       		.uleb128 0
 4213 00f5 6B080000 		.4byte	.LASF40
 4214 00f9 05       		.byte	0x5
 4215 00fa 00       		.uleb128 0
 4216 00fb 71620000 		.4byte	.LASF41
 4217 00ff 05       		.byte	0x5
 4218 0100 00       		.uleb128 0
 4219 0101 86470000 		.4byte	.LASF42
 4220 0105 05       		.byte	0x5
 4221 0106 00       		.uleb128 0
 4222 0107 400A0000 		.4byte	.LASF43
 4223 010b 05       		.byte	0x5
 4224 010c 00       		.uleb128 0
 4225 010d CD3A0000 		.4byte	.LASF44
 4226 0111 05       		.byte	0x5
 4227 0112 00       		.uleb128 0
 4228 0113 1E770000 		.4byte	.LASF45
 4229 0117 05       		.byte	0x5
 4230 0118 00       		.uleb128 0
 4231 0119 0C6C0000 		.4byte	.LASF46
 4232 011d 05       		.byte	0x5
 4233 011e 00       		.uleb128 0
 4234 011f 71170000 		.4byte	.LASF47
 4235 0123 05       		.byte	0x5
 4236 0124 00       		.uleb128 0
 4237 0125 127C0000 		.4byte	.LASF48
 4238 0129 05       		.byte	0x5
 4239 012a 00       		.uleb128 0
 4240 012b C95A0000 		.4byte	.LASF49
 4241 012f 05       		.byte	0x5
 4242 0130 00       		.uleb128 0
 4243 0131 B1830000 		.4byte	.LASF50
 4244 0135 05       		.byte	0x5
 4245 0136 00       		.uleb128 0
 4246 0137 F0140000 		.4byte	.LASF51
 4247 013b 05       		.byte	0x5
 4248 013c 00       		.uleb128 0
 4249 013d 0A4E0000 		.4byte	.LASF52
 4250 0141 05       		.byte	0x5
 4251 0142 00       		.uleb128 0
 4252 0143 9D670000 		.4byte	.LASF53
 4253 0147 05       		.byte	0x5
 4254 0148 00       		.uleb128 0
 4255 0149 C33E0000 		.4byte	.LASF54
 4256 014d 05       		.byte	0x5
 4257 014e 00       		.uleb128 0
 4258 014f C9160000 		.4byte	.LASF55
 4259 0153 05       		.byte	0x5
ARM GAS  /tmp/cc5qDK7o.s 			page 100


 4260 0154 00       		.uleb128 0
 4261 0155 AA5E0000 		.4byte	.LASF56
 4262 0159 05       		.byte	0x5
 4263 015a 00       		.uleb128 0
 4264 015b D9510000 		.4byte	.LASF57
 4265 015f 05       		.byte	0x5
 4266 0160 00       		.uleb128 0
 4267 0161 A70B0000 		.4byte	.LASF58
 4268 0165 05       		.byte	0x5
 4269 0166 00       		.uleb128 0
 4270 0167 963B0000 		.4byte	.LASF59
 4271 016b 05       		.byte	0x5
 4272 016c 00       		.uleb128 0
 4273 016d 777A0000 		.4byte	.LASF60
 4274 0171 05       		.byte	0x5
 4275 0172 00       		.uleb128 0
 4276 0173 C40A0000 		.4byte	.LASF61
 4277 0177 05       		.byte	0x5
 4278 0178 00       		.uleb128 0
 4279 0179 C7260000 		.4byte	.LASF62
 4280 017d 05       		.byte	0x5
 4281 017e 00       		.uleb128 0
 4282 017f 74130000 		.4byte	.LASF63
 4283 0183 05       		.byte	0x5
 4284 0184 00       		.uleb128 0
 4285 0185 B96A0000 		.4byte	.LASF64
 4286 0189 05       		.byte	0x5
 4287 018a 00       		.uleb128 0
 4288 018b A4380000 		.4byte	.LASF65
 4289 018f 05       		.byte	0x5
 4290 0190 00       		.uleb128 0
 4291 0191 8C2B0000 		.4byte	.LASF66
 4292 0195 05       		.byte	0x5
 4293 0196 00       		.uleb128 0
 4294 0197 F9290000 		.4byte	.LASF67
 4295 019b 05       		.byte	0x5
 4296 019c 00       		.uleb128 0
 4297 019d A34E0000 		.4byte	.LASF68
 4298 01a1 05       		.byte	0x5
 4299 01a2 00       		.uleb128 0
 4300 01a3 765D0000 		.4byte	.LASF69
 4301 01a7 05       		.byte	0x5
 4302 01a8 00       		.uleb128 0
 4303 01a9 9A830000 		.4byte	.LASF70
 4304 01ad 05       		.byte	0x5
 4305 01ae 00       		.uleb128 0
 4306 01af E07E0000 		.4byte	.LASF71
 4307 01b3 05       		.byte	0x5
 4308 01b4 00       		.uleb128 0
 4309 01b5 F0560000 		.4byte	.LASF72
 4310 01b9 05       		.byte	0x5
 4311 01ba 00       		.uleb128 0
 4312 01bb 33040000 		.4byte	.LASF73
 4313 01bf 05       		.byte	0x5
 4314 01c0 00       		.uleb128 0
 4315 01c1 D9420000 		.4byte	.LASF74
 4316 01c5 05       		.byte	0x5
ARM GAS  /tmp/cc5qDK7o.s 			page 101


 4317 01c6 00       		.uleb128 0
 4318 01c7 9A350000 		.4byte	.LASF75
 4319 01cb 05       		.byte	0x5
 4320 01cc 00       		.uleb128 0
 4321 01cd 4F7B0000 		.4byte	.LASF76
 4322 01d1 05       		.byte	0x5
 4323 01d2 00       		.uleb128 0
 4324 01d3 61020000 		.4byte	.LASF77
 4325 01d7 05       		.byte	0x5
 4326 01d8 00       		.uleb128 0
 4327 01d9 2E7E0000 		.4byte	.LASF78
 4328 01dd 05       		.byte	0x5
 4329 01de 00       		.uleb128 0
 4330 01df 8B120000 		.4byte	.LASF79
 4331 01e3 05       		.byte	0x5
 4332 01e4 00       		.uleb128 0
 4333 01e5 11510000 		.4byte	.LASF80
 4334 01e9 05       		.byte	0x5
 4335 01ea 00       		.uleb128 0
 4336 01eb 715C0000 		.4byte	.LASF81
 4337 01ef 05       		.byte	0x5
 4338 01f0 00       		.uleb128 0
 4339 01f1 67420000 		.4byte	.LASF82
 4340 01f5 05       		.byte	0x5
 4341 01f6 00       		.uleb128 0
 4342 01f7 2E440000 		.4byte	.LASF83
 4343 01fb 05       		.byte	0x5
 4344 01fc 00       		.uleb128 0
 4345 01fd AF800000 		.4byte	.LASF84
 4346 0201 05       		.byte	0x5
 4347 0202 00       		.uleb128 0
 4348 0203 2A570000 		.4byte	.LASF85
 4349 0207 05       		.byte	0x5
 4350 0208 00       		.uleb128 0
 4351 0209 B4110000 		.4byte	.LASF86
 4352 020d 05       		.byte	0x5
 4353 020e 00       		.uleb128 0
 4354 020f 9C160000 		.4byte	.LASF87
 4355 0213 05       		.byte	0x5
 4356 0214 00       		.uleb128 0
 4357 0215 0C030000 		.4byte	.LASF88
 4358 0219 05       		.byte	0x5
 4359 021a 00       		.uleb128 0
 4360 021b AF000000 		.4byte	.LASF89
 4361 021f 05       		.byte	0x5
 4362 0220 00       		.uleb128 0
 4363 0221 2E830000 		.4byte	.LASF90
 4364 0225 05       		.byte	0x5
 4365 0226 00       		.uleb128 0
 4366 0227 34170000 		.4byte	.LASF91
 4367 022b 05       		.byte	0x5
 4368 022c 00       		.uleb128 0
 4369 022d BD050000 		.4byte	.LASF92
 4370 0231 05       		.byte	0x5
 4371 0232 00       		.uleb128 0
 4372 0233 AC700000 		.4byte	.LASF93
 4373 0237 05       		.byte	0x5
ARM GAS  /tmp/cc5qDK7o.s 			page 102


 4374 0238 00       		.uleb128 0
 4375 0239 BD310000 		.4byte	.LASF94
 4376 023d 05       		.byte	0x5
 4377 023e 00       		.uleb128 0
 4378 023f 742B0000 		.4byte	.LASF95
 4379 0243 05       		.byte	0x5
 4380 0244 00       		.uleb128 0
 4381 0245 B3390000 		.4byte	.LASF96
 4382 0249 05       		.byte	0x5
 4383 024a 00       		.uleb128 0
 4384 024b DD720000 		.4byte	.LASF97
 4385 024f 05       		.byte	0x5
 4386 0250 00       		.uleb128 0
 4387 0251 A03C0000 		.4byte	.LASF98
 4388 0255 05       		.byte	0x5
 4389 0256 00       		.uleb128 0
 4390 0257 2D410000 		.4byte	.LASF99
 4391 025b 05       		.byte	0x5
 4392 025c 00       		.uleb128 0
 4393 025d E5280000 		.4byte	.LASF100
 4394 0261 05       		.byte	0x5
 4395 0262 00       		.uleb128 0
 4396 0263 D4830000 		.4byte	.LASF101
 4397 0267 05       		.byte	0x5
 4398 0268 00       		.uleb128 0
 4399 0269 CB360000 		.4byte	.LASF102
 4400 026d 05       		.byte	0x5
 4401 026e 00       		.uleb128 0
 4402 026f 95360000 		.4byte	.LASF103
 4403 0273 05       		.byte	0x5
 4404 0274 00       		.uleb128 0
 4405 0275 5F370000 		.4byte	.LASF104
 4406 0279 05       		.byte	0x5
 4407 027a 00       		.uleb128 0
 4408 027b F1570000 		.4byte	.LASF105
 4409 027f 05       		.byte	0x5
 4410 0280 00       		.uleb128 0
 4411 0281 FB7B0000 		.4byte	.LASF106
 4412 0285 05       		.byte	0x5
 4413 0286 00       		.uleb128 0
 4414 0287 1D2A0000 		.4byte	.LASF107
 4415 028b 05       		.byte	0x5
 4416 028c 00       		.uleb128 0
 4417 028d C2800000 		.4byte	.LASF108
 4418 0291 05       		.byte	0x5
 4419 0292 00       		.uleb128 0
 4420 0293 00340000 		.4byte	.LASF109
 4421 0297 05       		.byte	0x5
 4422 0298 00       		.uleb128 0
 4423 0299 A1490000 		.4byte	.LASF110
 4424 029d 05       		.byte	0x5
 4425 029e 00       		.uleb128 0
 4426 029f 54280000 		.4byte	.LASF111
 4427 02a3 05       		.byte	0x5
 4428 02a4 00       		.uleb128 0
 4429 02a5 5B2B0000 		.4byte	.LASF112
 4430 02a9 05       		.byte	0x5
ARM GAS  /tmp/cc5qDK7o.s 			page 103


 4431 02aa 00       		.uleb128 0
 4432 02ab 133D0000 		.4byte	.LASF113
 4433 02af 05       		.byte	0x5
 4434 02b0 00       		.uleb128 0
 4435 02b1 4C6C0000 		.4byte	.LASF114
 4436 02b5 05       		.byte	0x5
 4437 02b6 00       		.uleb128 0
 4438 02b7 20390000 		.4byte	.LASF115
 4439 02bb 05       		.byte	0x5
 4440 02bc 00       		.uleb128 0
 4441 02bd 25320000 		.4byte	.LASF116
 4442 02c1 05       		.byte	0x5
 4443 02c2 00       		.uleb128 0
 4444 02c3 5C080000 		.4byte	.LASF117
 4445 02c7 05       		.byte	0x5
 4446 02c8 00       		.uleb128 0
 4447 02c9 1B1F0000 		.4byte	.LASF118
 4448 02cd 05       		.byte	0x5
 4449 02ce 00       		.uleb128 0
 4450 02cf BE6D0000 		.4byte	.LASF119
 4451 02d3 05       		.byte	0x5
 4452 02d4 00       		.uleb128 0
 4453 02d5 CC380000 		.4byte	.LASF120
 4454 02d9 05       		.byte	0x5
 4455 02da 00       		.uleb128 0
 4456 02db 022C0000 		.4byte	.LASF121
 4457 02df 05       		.byte	0x5
 4458 02e0 00       		.uleb128 0
 4459 02e1 D75B0000 		.4byte	.LASF122
 4460 02e5 05       		.byte	0x5
 4461 02e6 00       		.uleb128 0
 4462 02e7 AC3E0000 		.4byte	.LASF123
 4463 02eb 05       		.byte	0x5
 4464 02ec 00       		.uleb128 0
 4465 02ed FD750000 		.4byte	.LASF124
 4466 02f1 05       		.byte	0x5
 4467 02f2 00       		.uleb128 0
 4468 02f3 D04E0000 		.4byte	.LASF125
 4469 02f7 05       		.byte	0x5
 4470 02f8 00       		.uleb128 0
 4471 02f9 9A600000 		.4byte	.LASF126
 4472 02fd 05       		.byte	0x5
 4473 02fe 00       		.uleb128 0
 4474 02ff 9D120000 		.4byte	.LASF127
 4475 0303 05       		.byte	0x5
 4476 0304 00       		.uleb128 0
 4477 0305 41220000 		.4byte	.LASF128
 4478 0309 05       		.byte	0x5
 4479 030a 00       		.uleb128 0
 4480 030b 53760000 		.4byte	.LASF129
 4481 030f 05       		.byte	0x5
 4482 0310 00       		.uleb128 0
 4483 0311 77150000 		.4byte	.LASF130
 4484 0315 05       		.byte	0x5
 4485 0316 00       		.uleb128 0
 4486 0317 E50F0000 		.4byte	.LASF131
 4487 031b 05       		.byte	0x5
ARM GAS  /tmp/cc5qDK7o.s 			page 104


 4488 031c 00       		.uleb128 0
 4489 031d C9110000 		.4byte	.LASF132
 4490 0321 05       		.byte	0x5
 4491 0322 00       		.uleb128 0
 4492 0323 29130000 		.4byte	.LASF133
 4493 0327 05       		.byte	0x5
 4494 0328 00       		.uleb128 0
 4495 0329 9A1A0000 		.4byte	.LASF134
 4496 032d 05       		.byte	0x5
 4497 032e 00       		.uleb128 0
 4498 032f 70440000 		.4byte	.LASF135
 4499 0333 05       		.byte	0x5
 4500 0334 00       		.uleb128 0
 4501 0335 DD120000 		.4byte	.LASF136
 4502 0339 05       		.byte	0x5
 4503 033a 00       		.uleb128 0
 4504 033b B1440000 		.4byte	.LASF137
 4505 033f 05       		.byte	0x5
 4506 0340 00       		.uleb128 0
 4507 0341 B60D0000 		.4byte	.LASF138
 4508 0345 05       		.byte	0x5
 4509 0346 00       		.uleb128 0
 4510 0347 574F0000 		.4byte	.LASF139
 4511 034b 05       		.byte	0x5
 4512 034c 00       		.uleb128 0
 4513 034d 703A0000 		.4byte	.LASF140
 4514 0351 05       		.byte	0x5
 4515 0352 00       		.uleb128 0
 4516 0353 8D4E0000 		.4byte	.LASF141
 4517 0357 05       		.byte	0x5
 4518 0358 00       		.uleb128 0
 4519 0359 583B0000 		.4byte	.LASF142
 4520 035d 05       		.byte	0x5
 4521 035e 00       		.uleb128 0
 4522 035f 5E340000 		.4byte	.LASF143
 4523 0363 05       		.byte	0x5
 4524 0364 00       		.uleb128 0
 4525 0365 A2430000 		.4byte	.LASF144
 4526 0369 05       		.byte	0x5
 4527 036a 00       		.uleb128 0
 4528 036b EB3F0000 		.4byte	.LASF145
 4529 036f 05       		.byte	0x5
 4530 0370 00       		.uleb128 0
 4531 0371 4E200000 		.4byte	.LASF146
 4532 0375 05       		.byte	0x5
 4533 0376 00       		.uleb128 0
 4534 0377 5C470000 		.4byte	.LASF147
 4535 037b 05       		.byte	0x5
 4536 037c 00       		.uleb128 0
 4537 037d 235D0000 		.4byte	.LASF148
 4538 0381 05       		.byte	0x5
 4539 0382 00       		.uleb128 0
 4540 0383 BA1A0000 		.4byte	.LASF149
 4541 0387 05       		.byte	0x5
 4542 0388 00       		.uleb128 0
 4543 0389 1A210000 		.4byte	.LASF150
 4544 038d 05       		.byte	0x5
ARM GAS  /tmp/cc5qDK7o.s 			page 105


 4545 038e 00       		.uleb128 0
 4546 038f 091D0000 		.4byte	.LASF151
 4547 0393 05       		.byte	0x5
 4548 0394 00       		.uleb128 0
 4549 0395 B6270000 		.4byte	.LASF152
 4550 0399 05       		.byte	0x5
 4551 039a 00       		.uleb128 0
 4552 039b 53270000 		.4byte	.LASF153
 4553 039f 05       		.byte	0x5
 4554 03a0 00       		.uleb128 0
 4555 03a1 812C0000 		.4byte	.LASF154
 4556 03a5 05       		.byte	0x5
 4557 03a6 00       		.uleb128 0
 4558 03a7 382A0000 		.4byte	.LASF155
 4559 03ab 05       		.byte	0x5
 4560 03ac 00       		.uleb128 0
 4561 03ad 82330000 		.4byte	.LASF156
 4562 03b1 05       		.byte	0x5
 4563 03b2 00       		.uleb128 0
 4564 03b3 39390000 		.4byte	.LASF157
 4565 03b7 05       		.byte	0x5
 4566 03b8 00       		.uleb128 0
 4567 03b9 20520000 		.4byte	.LASF158
 4568 03bd 05       		.byte	0x5
 4569 03be 00       		.uleb128 0
 4570 03bf D7320000 		.4byte	.LASF159
 4571 03c3 05       		.byte	0x5
 4572 03c4 00       		.uleb128 0
 4573 03c5 54830000 		.4byte	.LASF160
 4574 03c9 05       		.byte	0x5
 4575 03ca 00       		.uleb128 0
 4576 03cb 5D6B0000 		.4byte	.LASF161
 4577 03cf 05       		.byte	0x5
 4578 03d0 00       		.uleb128 0
 4579 03d1 40580000 		.4byte	.LASF162
 4580 03d5 05       		.byte	0x5
 4581 03d6 00       		.uleb128 0
 4582 03d7 8F100000 		.4byte	.LASF163
 4583 03db 05       		.byte	0x5
 4584 03dc 00       		.uleb128 0
 4585 03dd 913F0000 		.4byte	.LASF164
 4586 03e1 05       		.byte	0x5
 4587 03e2 00       		.uleb128 0
 4588 03e3 0E050000 		.4byte	.LASF165
 4589 03e7 05       		.byte	0x5
 4590 03e8 00       		.uleb128 0
 4591 03e9 F3710000 		.4byte	.LASF166
 4592 03ed 05       		.byte	0x5
 4593 03ee 00       		.uleb128 0
 4594 03ef 3F7C0000 		.4byte	.LASF167
 4595 03f3 05       		.byte	0x5
 4596 03f4 00       		.uleb128 0
 4597 03f5 E9150000 		.4byte	.LASF168
 4598 03f9 05       		.byte	0x5
 4599 03fa 00       		.uleb128 0
 4600 03fb EE380000 		.4byte	.LASF169
 4601 03ff 05       		.byte	0x5
ARM GAS  /tmp/cc5qDK7o.s 			page 106


 4602 0400 00       		.uleb128 0
 4603 0401 334C0000 		.4byte	.LASF170
 4604 0405 05       		.byte	0x5
 4605 0406 00       		.uleb128 0
 4606 0407 73290000 		.4byte	.LASF171
 4607 040b 05       		.byte	0x5
 4608 040c 00       		.uleb128 0
 4609 040d 95700000 		.4byte	.LASF172
 4610 0411 05       		.byte	0x5
 4611 0412 00       		.uleb128 0
 4612 0413 21690000 		.4byte	.LASF173
 4613 0417 05       		.byte	0x5
 4614 0418 00       		.uleb128 0
 4615 0419 02080000 		.4byte	.LASF174
 4616 041d 05       		.byte	0x5
 4617 041e 00       		.uleb128 0
 4618 041f E27A0000 		.4byte	.LASF175
 4619 0423 05       		.byte	0x5
 4620 0424 00       		.uleb128 0
 4621 0425 E9070000 		.4byte	.LASF176
 4622 0429 05       		.byte	0x5
 4623 042a 00       		.uleb128 0
 4624 042b 8D6C0000 		.4byte	.LASF177
 4625 042f 05       		.byte	0x5
 4626 0430 00       		.uleb128 0
 4627 0431 00240000 		.4byte	.LASF178
 4628 0435 05       		.byte	0x5
 4629 0436 00       		.uleb128 0
 4630 0437 C64B0000 		.4byte	.LASF179
 4631 043b 05       		.byte	0x5
 4632 043c 00       		.uleb128 0
 4633 043d 18000000 		.4byte	.LASF180
 4634 0441 05       		.byte	0x5
 4635 0442 00       		.uleb128 0
 4636 0443 5C750000 		.4byte	.LASF181
 4637 0447 05       		.byte	0x5
 4638 0448 00       		.uleb128 0
 4639 0449 52430000 		.4byte	.LASF182
 4640 044d 05       		.byte	0x5
 4641 044e 00       		.uleb128 0
 4642 044f A86C0000 		.4byte	.LASF183
 4643 0453 05       		.byte	0x5
 4644 0454 00       		.uleb128 0
 4645 0455 153F0000 		.4byte	.LASF184
 4646 0459 05       		.byte	0x5
 4647 045a 00       		.uleb128 0
 4648 045b 00410000 		.4byte	.LASF185
 4649 045f 05       		.byte	0x5
 4650 0460 00       		.uleb128 0
 4651 0461 62580000 		.4byte	.LASF186
 4652 0465 05       		.byte	0x5
 4653 0466 00       		.uleb128 0
 4654 0467 682F0000 		.4byte	.LASF187
 4655 046b 05       		.byte	0x5
 4656 046c 00       		.uleb128 0
 4657 046d 15440000 		.4byte	.LASF188
 4658 0471 05       		.byte	0x5
ARM GAS  /tmp/cc5qDK7o.s 			page 107


 4659 0472 00       		.uleb128 0
 4660 0473 C53D0000 		.4byte	.LASF189
 4661 0477 05       		.byte	0x5
 4662 0478 00       		.uleb128 0
 4663 0479 86590000 		.4byte	.LASF190
 4664 047d 05       		.byte	0x5
 4665 047e 00       		.uleb128 0
 4666 047f 130E0000 		.4byte	.LASF191
 4667 0483 05       		.byte	0x5
 4668 0484 00       		.uleb128 0
 4669 0485 F9530000 		.4byte	.LASF192
 4670 0489 05       		.byte	0x5
 4671 048a 00       		.uleb128 0
 4672 048b 4F180000 		.4byte	.LASF193
 4673 048f 05       		.byte	0x5
 4674 0490 00       		.uleb128 0
 4675 0491 9A0C0000 		.4byte	.LASF194
 4676 0495 05       		.byte	0x5
 4677 0496 00       		.uleb128 0
 4678 0497 A5070000 		.4byte	.LASF195
 4679 049b 05       		.byte	0x5
 4680 049c 00       		.uleb128 0
 4681 049d 356B0000 		.4byte	.LASF196
 4682 04a1 05       		.byte	0x5
 4683 04a2 00       		.uleb128 0
 4684 04a3 66070000 		.4byte	.LASF197
 4685 04a7 05       		.byte	0x5
 4686 04a8 00       		.uleb128 0
 4687 04a9 624A0000 		.4byte	.LASF198
 4688 04ad 05       		.byte	0x5
 4689 04ae 00       		.uleb128 0
 4690 04af 453E0000 		.4byte	.LASF199
 4691 04b3 05       		.byte	0x5
 4692 04b4 00       		.uleb128 0
 4693 04b5 1A760000 		.4byte	.LASF200
 4694 04b9 05       		.byte	0x5
 4695 04ba 00       		.uleb128 0
 4696 04bb DA7C0000 		.4byte	.LASF201
 4697 04bf 05       		.byte	0x5
 4698 04c0 00       		.uleb128 0
 4699 04c1 4E2F0000 		.4byte	.LASF202
 4700 04c5 05       		.byte	0x5
 4701 04c6 00       		.uleb128 0
 4702 04c7 6F0D0000 		.4byte	.LASF203
 4703 04cb 05       		.byte	0x5
 4704 04cc 00       		.uleb128 0
 4705 04cd 25050000 		.4byte	.LASF204
 4706 04d1 05       		.byte	0x5
 4707 04d2 00       		.uleb128 0
 4708 04d3 7E7B0000 		.4byte	.LASF205
 4709 04d7 05       		.byte	0x5
 4710 04d8 00       		.uleb128 0
 4711 04d9 9A110000 		.4byte	.LASF206
 4712 04dd 05       		.byte	0x5
 4713 04de 00       		.uleb128 0
 4714 04df 7D0F0000 		.4byte	.LASF207
 4715 04e3 05       		.byte	0x5
ARM GAS  /tmp/cc5qDK7o.s 			page 108


 4716 04e4 00       		.uleb128 0
 4717 04e5 9F460000 		.4byte	.LASF208
 4718 04e9 05       		.byte	0x5
 4719 04ea 00       		.uleb128 0
 4720 04eb FC160000 		.4byte	.LASF209
 4721 04ef 05       		.byte	0x5
 4722 04f0 00       		.uleb128 0
 4723 04f1 65030000 		.4byte	.LASF210
 4724 04f5 05       		.byte	0x5
 4725 04f6 00       		.uleb128 0
 4726 04f7 9D080000 		.4byte	.LASF211
 4727 04fb 05       		.byte	0x5
 4728 04fc 00       		.uleb128 0
 4729 04fd 6C700000 		.4byte	.LASF212
 4730 0501 05       		.byte	0x5
 4731 0502 00       		.uleb128 0
 4732 0503 14740000 		.4byte	.LASF213
 4733 0507 05       		.byte	0x5
 4734 0508 00       		.uleb128 0
 4735 0509 C5000000 		.4byte	.LASF214
 4736 050d 05       		.byte	0x5
 4737 050e 00       		.uleb128 0
 4738 050f DE4D0000 		.4byte	.LASF215
 4739 0513 05       		.byte	0x5
 4740 0514 00       		.uleb128 0
 4741 0515 A2010000 		.4byte	.LASF216
 4742 0519 05       		.byte	0x5
 4743 051a 00       		.uleb128 0
 4744 051b 264D0000 		.4byte	.LASF217
 4745 051f 05       		.byte	0x5
 4746 0520 00       		.uleb128 0
 4747 0521 7C800000 		.4byte	.LASF218
 4748 0525 05       		.byte	0x5
 4749 0526 00       		.uleb128 0
 4750 0527 E15F0000 		.4byte	.LASF219
 4751 052b 05       		.byte	0x5
 4752 052c 00       		.uleb128 0
 4753 052d FC510000 		.4byte	.LASF220
 4754 0531 05       		.byte	0x5
 4755 0532 00       		.uleb128 0
 4756 0533 F4660000 		.4byte	.LASF221
 4757 0537 05       		.byte	0x5
 4758 0538 00       		.uleb128 0
 4759 0539 8C380000 		.4byte	.LASF222
 4760 053d 05       		.byte	0x5
 4761 053e 00       		.uleb128 0
 4762 053f 9C3A0000 		.4byte	.LASF223
 4763 0543 05       		.byte	0x5
 4764 0544 00       		.uleb128 0
 4765 0545 9F150000 		.4byte	.LASF224
 4766 0549 05       		.byte	0x5
 4767 054a 00       		.uleb128 0
 4768 054b 48640000 		.4byte	.LASF225
 4769 054f 05       		.byte	0x5
 4770 0550 00       		.uleb128 0
 4771 0551 81450000 		.4byte	.LASF226
 4772 0555 05       		.byte	0x5
ARM GAS  /tmp/cc5qDK7o.s 			page 109


 4773 0556 00       		.uleb128 0
 4774 0557 53160000 		.4byte	.LASF227
 4775 055b 05       		.byte	0x5
 4776 055c 00       		.uleb128 0
 4777 055d E8200000 		.4byte	.LASF228
 4778 0561 05       		.byte	0x5
 4779 0562 00       		.uleb128 0
 4780 0563 D33F0000 		.4byte	.LASF229
 4781 0567 05       		.byte	0x5
 4782 0568 00       		.uleb128 0
 4783 0569 81140000 		.4byte	.LASF230
 4784 056d 05       		.byte	0x5
 4785 056e 00       		.uleb128 0
 4786 056f 18160000 		.4byte	.LASF231
 4787 0573 05       		.byte	0x5
 4788 0574 00       		.uleb128 0
 4789 0575 80540000 		.4byte	.LASF232
 4790 0579 05       		.byte	0x5
 4791 057a 00       		.uleb128 0
 4792 057b 28280000 		.4byte	.LASF233
 4793 057f 05       		.byte	0x5
 4794 0580 00       		.uleb128 0
 4795 0581 393B0000 		.4byte	.LASF234
 4796 0585 05       		.byte	0x5
 4797 0586 00       		.uleb128 0
 4798 0587 A7050000 		.4byte	.LASF235
 4799 058b 05       		.byte	0x5
 4800 058c 00       		.uleb128 0
 4801 058d 932F0000 		.4byte	.LASF236
 4802 0591 05       		.byte	0x5
 4803 0592 00       		.uleb128 0
 4804 0593 E8110000 		.4byte	.LASF237
 4805 0597 05       		.byte	0x5
 4806 0598 00       		.uleb128 0
 4807 0599 30030000 		.4byte	.LASF238
 4808 059d 05       		.byte	0x5
 4809 059e 00       		.uleb128 0
 4810 059f CE5C0000 		.4byte	.LASF239
 4811 05a3 05       		.byte	0x5
 4812 05a4 00       		.uleb128 0
 4813 05a5 3E4F0000 		.4byte	.LASF240
 4814 05a9 05       		.byte	0x5
 4815 05aa 00       		.uleb128 0
 4816 05ab F3260000 		.4byte	.LASF241
 4817 05af 05       		.byte	0x5
 4818 05b0 00       		.uleb128 0
 4819 05b1 B9710000 		.4byte	.LASF242
 4820 05b5 05       		.byte	0x5
 4821 05b6 00       		.uleb128 0
 4822 05b7 781C0000 		.4byte	.LASF243
 4823 05bb 05       		.byte	0x5
 4824 05bc 00       		.uleb128 0
 4825 05bd 8F7B0000 		.4byte	.LASF244
 4826 05c1 05       		.byte	0x5
 4827 05c2 00       		.uleb128 0
 4828 05c3 CF340000 		.4byte	.LASF245
 4829 05c7 05       		.byte	0x5
ARM GAS  /tmp/cc5qDK7o.s 			page 110


 4830 05c8 00       		.uleb128 0
 4831 05c9 23510000 		.4byte	.LASF246
 4832 05cd 05       		.byte	0x5
 4833 05ce 00       		.uleb128 0
 4834 05cf AE160000 		.4byte	.LASF247
 4835 05d3 05       		.byte	0x5
 4836 05d4 00       		.uleb128 0
 4837 05d5 99690000 		.4byte	.LASF248
 4838 05d9 05       		.byte	0x5
 4839 05da 00       		.uleb128 0
 4840 05db 336C0000 		.4byte	.LASF249
 4841 05df 05       		.byte	0x5
 4842 05e0 00       		.uleb128 0
 4843 05e1 65210000 		.4byte	.LASF250
 4844 05e5 05       		.byte	0x5
 4845 05e6 00       		.uleb128 0
 4846 05e7 94000000 		.4byte	.LASF251
 4847 05eb 05       		.byte	0x5
 4848 05ec 00       		.uleb128 0
 4849 05ed 16240000 		.4byte	.LASF252
 4850 05f1 05       		.byte	0x5
 4851 05f2 00       		.uleb128 0
 4852 05f3 71010000 		.4byte	.LASF253
 4853 05f7 05       		.byte	0x5
 4854 05f8 00       		.uleb128 0
 4855 05f9 C1490000 		.4byte	.LASF254
 4856 05fd 05       		.byte	0x5
 4857 05fe 00       		.uleb128 0
 4858 05ff 113A0000 		.4byte	.LASF255
 4859 0603 05       		.byte	0x5
 4860 0604 00       		.uleb128 0
 4861 0605 63800000 		.4byte	.LASF256
 4862 0609 05       		.byte	0x5
 4863 060a 00       		.uleb128 0
 4864 060b 6A100000 		.4byte	.LASF257
 4865 060f 05       		.byte	0x5
 4866 0610 00       		.uleb128 0
 4867 0611 023F0000 		.4byte	.LASF258
 4868 0615 05       		.byte	0x5
 4869 0616 00       		.uleb128 0
 4870 0617 44810000 		.4byte	.LASF259
 4871 061b 05       		.byte	0x5
 4872 061c 00       		.uleb128 0
 4873 061d A2280000 		.4byte	.LASF260
 4874 0621 05       		.byte	0x5
 4875 0622 00       		.uleb128 0
 4876 0623 540D0000 		.4byte	.LASF261
 4877 0627 05       		.byte	0x5
 4878 0628 00       		.uleb128 0
 4879 0629 00350000 		.4byte	.LASF262
 4880 062d 05       		.byte	0x5
 4881 062e 00       		.uleb128 0
 4882 062f 9B1E0000 		.4byte	.LASF263
 4883 0633 05       		.byte	0x5
 4884 0634 00       		.uleb128 0
 4885 0635 105C0000 		.4byte	.LASF264
 4886 0639 05       		.byte	0x5
ARM GAS  /tmp/cc5qDK7o.s 			page 111


 4887 063a 00       		.uleb128 0
 4888 063b 3B050000 		.4byte	.LASF265
 4889 063f 05       		.byte	0x5
 4890 0640 00       		.uleb128 0
 4891 0641 9F210000 		.4byte	.LASF266
 4892 0645 05       		.byte	0x5
 4893 0646 00       		.uleb128 0
 4894 0647 EE3B0000 		.4byte	.LASF267
 4895 064b 05       		.byte	0x5
 4896 064c 00       		.uleb128 0
 4897 064d 7E4B0000 		.4byte	.LASF268
 4898 0651 05       		.byte	0x5
 4899 0652 00       		.uleb128 0
 4900 0653 B3570000 		.4byte	.LASF269
 4901 0657 05       		.byte	0x5
 4902 0658 00       		.uleb128 0
 4903 0659 49140000 		.4byte	.LASF270
 4904 065d 05       		.byte	0x5
 4905 065e 00       		.uleb128 0
 4906 065f 47490000 		.4byte	.LASF271
 4907 0663 05       		.byte	0x5
 4908 0664 00       		.uleb128 0
 4909 0665 BC420000 		.4byte	.LASF272
 4910 0669 05       		.byte	0x5
 4911 066a 00       		.uleb128 0
 4912 066b DB470000 		.4byte	.LASF273
 4913 066f 05       		.byte	0x5
 4914 0670 00       		.uleb128 0
 4915 0671 68520000 		.4byte	.LASF274
 4916 0675 05       		.byte	0x5
 4917 0676 00       		.uleb128 0
 4918 0677 15040000 		.4byte	.LASF275
 4919 067b 05       		.byte	0x5
 4920 067c 00       		.uleb128 0
 4921 067d 9D4F0000 		.4byte	.LASF276
 4922 0681 05       		.byte	0x5
 4923 0682 00       		.uleb128 0
 4924 0683 7A520000 		.4byte	.LASF277
 4925 0687 05       		.byte	0x5
 4926 0688 00       		.uleb128 0
 4927 0689 4D0F0000 		.4byte	.LASF278
 4928 068d 05       		.byte	0x5
 4929 068e 00       		.uleb128 0
 4930 068f 87830000 		.4byte	.LASF279
 4931 0693 05       		.byte	0x5
 4932 0694 00       		.uleb128 0
 4933 0695 08620000 		.4byte	.LASF280
 4934 0699 05       		.byte	0x5
 4935 069a 00       		.uleb128 0
 4936 069b 235F0000 		.4byte	.LASF281
 4937 069f 05       		.byte	0x5
 4938 06a0 00       		.uleb128 0
 4939 06a1 6C6B0000 		.4byte	.LASF282
 4940 06a5 05       		.byte	0x5
 4941 06a6 00       		.uleb128 0
 4942 06a7 C67C0000 		.4byte	.LASF283
 4943 06ab 05       		.byte	0x5
ARM GAS  /tmp/cc5qDK7o.s 			page 112


 4944 06ac 00       		.uleb128 0
 4945 06ad 76780000 		.4byte	.LASF284
 4946 06b1 05       		.byte	0x5
 4947 06b2 00       		.uleb128 0
 4948 06b3 B1780000 		.4byte	.LASF285
 4949 06b7 05       		.byte	0x5
 4950 06b8 00       		.uleb128 0
 4951 06b9 6F690000 		.4byte	.LASF286
 4952 06bd 05       		.byte	0x5
 4953 06be 00       		.uleb128 0
 4954 06bf 9B4A0000 		.4byte	.LASF287
 4955 06c3 05       		.byte	0x5
 4956 06c4 00       		.uleb128 0
 4957 06c5 C5810000 		.4byte	.LASF288
 4958 06c9 05       		.byte	0x5
 4959 06ca 00       		.uleb128 0
 4960 06cb 78410000 		.4byte	.LASF289
 4961 06cf 05       		.byte	0x5
 4962 06d0 00       		.uleb128 0
 4963 06d1 C7770000 		.4byte	.LASF290
 4964 06d5 05       		.byte	0x5
 4965 06d6 00       		.uleb128 0
 4966 06d7 09190000 		.4byte	.LASF291
 4967 06db 05       		.byte	0x5
 4968 06dc 00       		.uleb128 0
 4969 06dd B9740000 		.4byte	.LASF292
 4970 06e1 05       		.byte	0x5
 4971 06e2 00       		.uleb128 0
 4972 06e3 32840000 		.4byte	.LASF293
 4973 06e7 05       		.byte	0x5
 4974 06e8 00       		.uleb128 0
 4975 06e9 005E0000 		.4byte	.LASF294
 4976 06ed 05       		.byte	0x5
 4977 06ee 00       		.uleb128 0
 4978 06ef 015F0000 		.4byte	.LASF295
 4979 06f3 05       		.byte	0x5
 4980 06f4 00       		.uleb128 0
 4981 06f5 33200000 		.4byte	.LASF296
 4982 06f9 05       		.byte	0x5
 4983 06fa 00       		.uleb128 0
 4984 06fb 95790000 		.4byte	.LASF297
 4985 06ff 05       		.byte	0x5
 4986 0700 00       		.uleb128 0
 4987 0701 E62E0000 		.4byte	.LASF298
 4988 0705 05       		.byte	0x5
 4989 0706 00       		.uleb128 0
 4990 0707 864D0000 		.4byte	.LASF299
 4991 070b 05       		.byte	0x5
 4992 070c 00       		.uleb128 0
 4993 070d 8E070000 		.4byte	.LASF300
 4994 0711 05       		.byte	0x5
 4995 0712 00       		.uleb128 0
 4996 0713 8A050000 		.4byte	.LASF301
 4997 0717 05       		.byte	0x5
 4998 0718 00       		.uleb128 0
 4999 0719 03690000 		.4byte	.LASF302
 5000 071d 05       		.byte	0x5
ARM GAS  /tmp/cc5qDK7o.s 			page 113


 5001 071e 00       		.uleb128 0
 5002 071f 26150000 		.4byte	.LASF303
 5003 0723 05       		.byte	0x5
 5004 0724 00       		.uleb128 0
 5005 0725 EF6C0000 		.4byte	.LASF304
 5006 0729 05       		.byte	0x5
 5007 072a 00       		.uleb128 0
 5008 072b 845A0000 		.4byte	.LASF305
 5009 072f 05       		.byte	0x5
 5010 0730 00       		.uleb128 0
 5011 0731 6C390000 		.4byte	.LASF306
 5012 0735 05       		.byte	0x5
 5013 0736 00       		.uleb128 0
 5014 0737 A87A0000 		.4byte	.LASF307
 5015 073b 05       		.byte	0x5
 5016 073c 00       		.uleb128 0
 5017 073d 84420000 		.4byte	.LASF308
 5018 0741 05       		.byte	0x5
 5019 0742 00       		.uleb128 0
 5020 0743 46150000 		.4byte	.LASF309
 5021 0747 05       		.byte	0x5
 5022 0748 00       		.uleb128 0
 5023 0749 542C0000 		.4byte	.LASF310
 5024 074d 05       		.byte	0x5
 5025 074e 00       		.uleb128 0
 5026 074f 78400000 		.4byte	.LASF311
 5027 0753 05       		.byte	0x5
 5028 0754 00       		.uleb128 0
 5029 0755 F72D0000 		.4byte	.LASF312
 5030 0759 05       		.byte	0x5
 5031 075a 00       		.uleb128 0
 5032 075b 1D2F0000 		.4byte	.LASF313
 5033 075f 05       		.byte	0x5
 5034 0760 00       		.uleb128 0
 5035 0761 20120000 		.4byte	.LASF314
 5036 0765 05       		.byte	0x5
 5037 0766 00       		.uleb128 0
 5038 0767 B8750000 		.4byte	.LASF315
 5039 076b 05       		.byte	0x5
 5040 076c 00       		.uleb128 0
 5041 076d 965F0000 		.4byte	.LASF316
 5042 0771 05       		.byte	0x5
 5043 0772 00       		.uleb128 0
 5044 0773 2B020000 		.4byte	.LASF317
 5045 0777 05       		.byte	0x5
 5046 0778 00       		.uleb128 0
 5047 0779 49720000 		.4byte	.LASF318
 5048 077d 05       		.byte	0x5
 5049 077e 00       		.uleb128 0
 5050 077f 625D0000 		.4byte	.LASF319
 5051 0783 05       		.byte	0x5
 5052 0784 00       		.uleb128 0
 5053 0785 2D430000 		.4byte	.LASF320
 5054 0789 05       		.byte	0x5
 5055 078a 00       		.uleb128 0
 5056 078b 5B610000 		.4byte	.LASF321
 5057 078f 05       		.byte	0x5
ARM GAS  /tmp/cc5qDK7o.s 			page 114


 5058 0790 00       		.uleb128 0
 5059 0791 C37A0000 		.4byte	.LASF322
 5060 0795 05       		.byte	0x5
 5061 0796 00       		.uleb128 0
 5062 0797 B8660000 		.4byte	.LASF323
 5063 079b 05       		.byte	0x5
 5064 079c 00       		.uleb128 0
 5065 079d DA3B0000 		.4byte	.LASF324
 5066 07a1 05       		.byte	0x5
 5067 07a2 00       		.uleb128 0
 5068 07a3 F4010000 		.4byte	.LASF325
 5069 07a7 05       		.byte	0x5
 5070 07a8 00       		.uleb128 0
 5071 07a9 CE350000 		.4byte	.LASF326
 5072 07ad 05       		.byte	0x5
 5073 07ae 00       		.uleb128 0
 5074 07af C41E0000 		.4byte	.LASF327
 5075 07b3 05       		.byte	0x5
 5076 07b4 00       		.uleb128 0
 5077 07b5 E2240000 		.4byte	.LASF328
 5078 07b9 05       		.byte	0x5
 5079 07ba 00       		.uleb128 0
 5080 07bb F54D0000 		.4byte	.LASF329
 5081 07bf 05       		.byte	0x5
 5082 07c0 00       		.uleb128 0
 5083 07c1 3A760000 		.4byte	.LASF330
 5084 07c5 05       		.byte	0x5
 5085 07c6 00       		.uleb128 0
 5086 07c7 5A4D0000 		.4byte	.LASF331
 5087 07cb 05       		.byte	0x5
 5088 07cc 00       		.uleb128 0
 5089 07cd AF5D0000 		.4byte	.LASF332
 5090 07d1 05       		.byte	0x5
 5091 07d2 00       		.uleb128 0
 5092 07d3 317C0000 		.4byte	.LASF333
 5093 07d7 05       		.byte	0x5
 5094 07d8 00       		.uleb128 0
 5095 07d9 3F660000 		.4byte	.LASF334
 5096 07dd 05       		.byte	0x5
 5097 07de 00       		.uleb128 0
 5098 07df D97D0000 		.4byte	.LASF335
 5099 07e3 05       		.byte	0x5
 5100 07e4 00       		.uleb128 0
 5101 07e5 8E810000 		.4byte	.LASF336
 5102 07e9 05       		.byte	0x5
 5103 07ea 00       		.uleb128 0
 5104 07eb E2100000 		.4byte	.LASF337
 5105 07ef 05       		.byte	0x5
 5106 07f0 00       		.uleb128 0
 5107 07f1 FF050000 		.4byte	.LASF338
 5108 07f5 05       		.byte	0x5
 5109 07f6 00       		.uleb128 0
 5110 07f7 E15D0000 		.4byte	.LASF339
 5111 07fb 05       		.byte	0x5
 5112 07fc 00       		.uleb128 0
 5113 07fd 63620000 		.4byte	.LASF340
 5114 0801 05       		.byte	0x5
ARM GAS  /tmp/cc5qDK7o.s 			page 115


 5115 0802 00       		.uleb128 0
 5116 0803 A2230000 		.4byte	.LASF341
 5117 0807 05       		.byte	0x5
 5118 0808 00       		.uleb128 0
 5119 0809 57030000 		.4byte	.LASF342
 5120 080d 05       		.byte	0x5
 5121 080e 00       		.uleb128 0
 5122 080f 134F0000 		.4byte	.LASF343
 5123 0813 05       		.byte	0x5
 5124 0814 00       		.uleb128 0
 5125 0815 EA420000 		.4byte	.LASF344
 5126 0819 05       		.byte	0x5
 5127 081a 00       		.uleb128 0
 5128 081b 1B020000 		.4byte	.LASF345
 5129 081f 05       		.byte	0x5
 5130 0820 00       		.uleb128 0
 5131 0821 1F5E0000 		.4byte	.LASF346
 5132 0825 05       		.byte	0x5
 5133 0826 00       		.uleb128 0
 5134 0827 0B800000 		.4byte	.LASF347
 5135 082b 05       		.byte	0x5
 5136 082c 00       		.uleb128 0
 5137 082d 41570000 		.4byte	.LASF348
 5138 0831 05       		.byte	0x5
 5139 0832 00       		.uleb128 0
 5140 0833 9D4B0000 		.4byte	.LASF349
 5141 0837 05       		.byte	0x5
 5142 0838 00       		.uleb128 0
 5143 0839 26400000 		.4byte	.LASF350
 5144 083d 05       		.byte	0x5
 5145 083e 00       		.uleb128 0
 5146 083f 1F600000 		.4byte	.LASF351
 5147 0843 05       		.byte	0x5
 5148 0844 00       		.uleb128 0
 5149 0845 19640000 		.4byte	.LASF352
 5150 0849 05       		.byte	0x5
 5151 084a 00       		.uleb128 0
 5152 084b 83270000 		.4byte	.LASF353
 5153 084f 05       		.byte	0x5
 5154 0850 00       		.uleb128 0
 5155 0851 A3440000 		.4byte	.LASF354
 5156 0855 05       		.byte	0x5
 5157 0856 00       		.uleb128 0
 5158 0857 28640000 		.4byte	.LASF355
 5159 085b 05       		.byte	0x5
 5160 085c 00       		.uleb128 0
 5161 085d 413A0000 		.4byte	.LASF356
 5162 0861 05       		.byte	0x5
 5163 0862 00       		.uleb128 0
 5164 0863 95540000 		.4byte	.LASF357
 5165 0867 05       		.byte	0x5
 5166 0868 00       		.uleb128 0
 5167 0869 F2800000 		.4byte	.LASF358
 5168 086d 05       		.byte	0x5
 5169 086e 00       		.uleb128 0
 5170 086f E4180000 		.4byte	.LASF359
 5171 0873 05       		.byte	0x5
ARM GAS  /tmp/cc5qDK7o.s 			page 116


 5172 0874 00       		.uleb128 0
 5173 0875 92550000 		.4byte	.LASF360
 5174 0879 05       		.byte	0x5
 5175 087a 00       		.uleb128 0
 5176 087b 2B000000 		.4byte	.LASF361
 5177 087f 05       		.byte	0x5
 5178 0880 00       		.uleb128 0
 5179 0881 997A0000 		.4byte	.LASF362
 5180 0885 05       		.byte	0x5
 5181 0886 00       		.uleb128 0
 5182 0887 C9510000 		.4byte	.LASF363
 5183 088b 05       		.byte	0x5
 5184 088c 00       		.uleb128 0
 5185 088d 42260000 		.4byte	.LASF364
 5186 0891 05       		.byte	0x5
 5187 0892 00       		.uleb128 0
 5188 0893 E0160000 		.4byte	.LASF365
 5189 0897 05       		.byte	0x5
 5190 0898 00       		.uleb128 0
 5191 0899 CE6D0000 		.4byte	.LASF366
 5192 089d 05       		.byte	0x5
 5193 089e 00       		.uleb128 0
 5194 089f C11C0000 		.4byte	.LASF367
 5195 08a3 05       		.byte	0x5
 5196 08a4 00       		.uleb128 0
 5197 08a5 95740000 		.4byte	.LASF368
 5198 08a9 05       		.byte	0x5
 5199 08aa 00       		.uleb128 0
 5200 08ab 206B0000 		.4byte	.LASF369
 5201 08af 05       		.byte	0x5
 5202 08b0 00       		.uleb128 0
 5203 08b1 7E360000 		.4byte	.LASF370
 5204 08b5 05       		.byte	0x5
 5205 08b6 00       		.uleb128 0
 5206 08b7 E50C0000 		.4byte	.LASF371
 5207 08bb 05       		.byte	0x5
 5208 08bc 00       		.uleb128 0
 5209 08bd 16010000 		.4byte	.LASF372
 5210 08c1 05       		.byte	0x5
 5211 08c2 00       		.uleb128 0
 5212 08c3 5D0A0000 		.4byte	.LASF373
 5213 08c7 05       		.byte	0x5
 5214 08c8 00       		.uleb128 0
 5215 08c9 52260000 		.4byte	.LASF374
 5216 08cd 05       		.byte	0x5
 5217 08ce 00       		.uleb128 0
 5218 08cf 325A0000 		.4byte	.LASF375
 5219 08d3 05       		.byte	0x5
 5220 08d4 00       		.uleb128 0
 5221 08d5 DA170000 		.4byte	.LASF376
 5222 08d9 05       		.byte	0x5
 5223 08da 00       		.uleb128 0
 5224 08db 4A520000 		.4byte	.LASF377
 5225 08df 05       		.byte	0x5
 5226 08e0 00       		.uleb128 0
 5227 08e1 573F0000 		.4byte	.LASF378
 5228 08e5 05       		.byte	0x5
ARM GAS  /tmp/cc5qDK7o.s 			page 117


 5229 08e6 00       		.uleb128 0
 5230 08e7 F91E0000 		.4byte	.LASF379
 5231 08eb 05       		.byte	0x5
 5232 08ec 00       		.uleb128 0
 5233 08ed F5000000 		.4byte	.LASF380
 5234 08f1 05       		.byte	0x5
 5235 08f2 00       		.uleb128 0
 5236 08f3 652E0000 		.4byte	.LASF381
 5237 08f7 05       		.byte	0x5
 5238 08f8 00       		.uleb128 0
 5239 08f9 31680000 		.4byte	.LASF382
 5240 08fd 05       		.byte	0x5
 5241 08fe 00       		.uleb128 0
 5242 08ff 0F430000 		.4byte	.LASF383
 5243 0903 05       		.byte	0x5
 5244 0904 00       		.uleb128 0
 5245 0905 C5440000 		.4byte	.LASF384
 5246 0909 05       		.byte	0x5
 5247 090a 00       		.uleb128 0
 5248 090b F92E0000 		.4byte	.LASF385
 5249 090f 05       		.byte	0x5
 5250 0910 00       		.uleb128 0
 5251 0911 97370000 		.4byte	.LASF386
 5252 0915 05       		.byte	0x5
 5253 0916 00       		.uleb128 0
 5254 0917 E1390000 		.4byte	.LASF387
 5255 091b 05       		.byte	0x5
 5256 091c 00       		.uleb128 0
 5257 091d DC250000 		.4byte	.LASF388
 5258 0921 05       		.byte	0x5
 5259 0922 00       		.uleb128 0
 5260 0923 4D480000 		.4byte	.LASF389
 5261 0927 05       		.byte	0x5
 5262 0928 00       		.uleb128 0
 5263 0929 EC740000 		.4byte	.LASF390
 5264 092d 05       		.byte	0x5
 5265 092e 00       		.uleb128 0
 5266 092f BD4F0000 		.4byte	.LASF391
 5267 0933 05       		.byte	0x5
 5268 0934 00       		.uleb128 0
 5269 0935 D3640000 		.4byte	.LASF392
 5270 0939 05       		.byte	0x5
 5271 093a 00       		.uleb128 0
 5272 093b B8370000 		.4byte	.LASF393
 5273 093f 05       		.byte	0x5
 5274 0940 00       		.uleb128 0
 5275 0941 50410000 		.4byte	.LASF394
 5276 0945 06       		.byte	0x6
 5277 0946 00       		.uleb128 0
 5278 0947 A55A0000 		.4byte	.LASF395
 5279 094b 05       		.byte	0x5
 5280 094c 00       		.uleb128 0
 5281 094d 37750000 		.4byte	.LASF396
 5282 0951 06       		.byte	0x6
 5283 0952 00       		.uleb128 0
 5284 0953 59560000 		.4byte	.LASF397
 5285 0957 06       		.byte	0x6
ARM GAS  /tmp/cc5qDK7o.s 			page 118


 5286 0958 00       		.uleb128 0
 5287 0959 A5740000 		.4byte	.LASF398
 5288 095d 06       		.byte	0x6
 5289 095e 00       		.uleb128 0
 5290 095f 40770000 		.4byte	.LASF399
 5291 0963 05       		.byte	0x5
 5292 0964 00       		.uleb128 0
 5293 0965 C5570000 		.4byte	.LASF400
 5294 0969 06       		.byte	0x6
 5295 096a 00       		.uleb128 0
 5296 096b C0430000 		.4byte	.LASF401
 5297 096f 06       		.byte	0x6
 5298 0970 00       		.uleb128 0
 5299 0971 F34E0000 		.4byte	.LASF402
 5300 0975 05       		.byte	0x5
 5301 0976 00       		.uleb128 0
 5302 0977 6E7F0000 		.4byte	.LASF403
 5303 097b 05       		.byte	0x5
 5304 097c 00       		.uleb128 0
 5305 097d CD370000 		.4byte	.LASF404
 5306 0981 06       		.byte	0x6
 5307 0982 00       		.uleb128 0
 5308 0983 C5670000 		.4byte	.LASF405
 5309 0987 05       		.byte	0x5
 5310 0988 00       		.uleb128 0
 5311 0989 15730000 		.4byte	.LASF406
 5312 098d 05       		.byte	0x5
 5313 098e 00       		.uleb128 0
 5314 098f 34530000 		.4byte	.LASF407
 5315 0993 05       		.byte	0x5
 5316 0994 00       		.uleb128 0
 5317 0995 75380000 		.4byte	.LASF408
 5318 0999 06       		.byte	0x6
 5319 099a 00       		.uleb128 0
 5320 099b 73470000 		.4byte	.LASF409
 5321 099f 05       		.byte	0x5
 5322 09a0 00       		.uleb128 0
 5323 09a1 8F1F0000 		.4byte	.LASF410
 5324 09a5 05       		.byte	0x5
 5325 09a6 00       		.uleb128 0
 5326 09a7 9B530000 		.4byte	.LASF411
 5327 09ab 06       		.byte	0x6
 5328 09ac 00       		.uleb128 0
 5329 09ad BB7E0000 		.4byte	.LASF412
 5330 09b1 05       		.byte	0x5
 5331 09b2 00       		.uleb128 0
 5332 09b3 78430000 		.4byte	.LASF413
 5333 09b7 05       		.byte	0x5
 5334 09b8 00       		.uleb128 0
 5335 09b9 3C3D0000 		.4byte	.LASF414
 5336 09bd 05       		.byte	0x5
 5337 09be 00       		.uleb128 0
 5338 09bf F37C0000 		.4byte	.LASF415
 5339 09c3 05       		.byte	0x5
 5340 09c4 00       		.uleb128 0
 5341 09c5 D5240000 		.4byte	.LASF416
 5342 09c9 05       		.byte	0x5
ARM GAS  /tmp/cc5qDK7o.s 			page 119


 5343 09ca 00       		.uleb128 0
 5344 09cb C5640000 		.4byte	.LASF417
 5345 09cf 06       		.byte	0x6
 5346 09d0 00       		.uleb128 0
 5347 09d1 702D0000 		.4byte	.LASF418
 5348 09d5 05       		.byte	0x5
 5349 09d6 00       		.uleb128 0
 5350 09d7 D9560000 		.4byte	.LASF419
 5351 09db 05       		.byte	0x5
 5352 09dc 00       		.uleb128 0
 5353 09dd 267D0000 		.4byte	.LASF420
 5354 09e1 05       		.byte	0x5
 5355 09e2 00       		.uleb128 0
 5356 09e3 B5120000 		.4byte	.LASF421
 5357 09e7 06       		.byte	0x6
 5358 09e8 00       		.uleb128 0
 5359 09e9 9A440000 		.4byte	.LASF422
 5360 09ed 05       		.byte	0x5
 5361 09ee 00       		.uleb128 0
 5362 09ef 247A0000 		.4byte	.LASF423
 5363 09f3 06       		.byte	0x6
 5364 09f4 00       		.uleb128 0
 5365 09f5 B63A0000 		.4byte	.LASF424
 5366 09f9 06       		.byte	0x6
 5367 09fa 00       		.uleb128 0
 5368 09fb 1E540000 		.4byte	.LASF425
 5369 09ff 06       		.byte	0x6
 5370 0a00 00       		.uleb128 0
 5371 0a01 47780000 		.4byte	.LASF426
 5372 0a05 06       		.byte	0x6
 5373 0a06 00       		.uleb128 0
 5374 0a07 D0680000 		.4byte	.LASF427
 5375 0a0b 06       		.byte	0x6
 5376 0a0c 00       		.uleb128 0
 5377 0a0d 2E1A0000 		.4byte	.LASF428
 5378 0a11 06       		.byte	0x6
 5379 0a12 00       		.uleb128 0
 5380 0a13 74340000 		.4byte	.LASF429
 5381 0a17 05       		.byte	0x5
 5382 0a18 00       		.uleb128 0
 5383 0a19 F01D0000 		.4byte	.LASF430
 5384 0a1d 06       		.byte	0x6
 5385 0a1e 00       		.uleb128 0
 5386 0a1f 24180000 		.4byte	.LASF431
 5387 0a23 06       		.byte	0x6
 5388 0a24 00       		.uleb128 0
 5389 0a25 DA280000 		.4byte	.LASF432
 5390 0a29 06       		.byte	0x6
 5391 0a2a 00       		.uleb128 0
 5392 0a2b 8D4A0000 		.4byte	.LASF433
 5393 0a2f 05       		.byte	0x5
 5394 0a30 00       		.uleb128 0
 5395 0a31 F3180000 		.4byte	.LASF434
 5396 0a35 05       		.byte	0x5
 5397 0a36 00       		.uleb128 0
 5398 0a37 CB4D0000 		.4byte	.LASF435
 5399 0a3b 05       		.byte	0x5
ARM GAS  /tmp/cc5qDK7o.s 			page 120


 5400 0a3c 00       		.uleb128 0
 5401 0a3d 3C300000 		.4byte	.LASF436
 5402 0a41 05       		.byte	0x5
 5403 0a42 00       		.uleb128 0
 5404 0a43 D7460000 		.4byte	.LASF437
 5405 0a47 05       		.byte	0x5
 5406 0a48 00       		.uleb128 0
 5407 0a49 24300000 		.4byte	.LASF438
 5408 0a4d 05       		.byte	0x5
 5409 0a4e 00       		.uleb128 0
 5410 0a4f 03500000 		.4byte	.LASF439
 5411 0a53 05       		.byte	0x5
 5412 0a54 00       		.uleb128 0
 5413 0a55 01770000 		.4byte	.LASF440
 5414 0a59 06       		.byte	0x6
 5415 0a5a 00       		.uleb128 0
 5416 0a5b FC6E0000 		.4byte	.LASF441
 5417 0a5f 05       		.byte	0x5
 5418 0a60 00       		.uleb128 0
 5419 0a61 83500000 		.4byte	.LASF442
 5420 0a65 05       		.byte	0x5
 5421 0a66 00       		.uleb128 0
 5422 0a67 BA3C0000 		.4byte	.LASF443
 5423 0a6b 05       		.byte	0x5
 5424 0a6c 00       		.uleb128 0
 5425 0a6d BB640000 		.4byte	.LASF444
 5426 0a71 05       		.byte	0x5
 5427 0a72 00       		.uleb128 0
 5428 0a73 6F710000 		.4byte	.LASF445
 5429 0a77 05       		.byte	0x5
 5430 0a78 00       		.uleb128 0
 5431 0a79 BA5A0000 		.4byte	.LASF446
 5432 0a7d 05       		.byte	0x5
 5433 0a7e 00       		.uleb128 0
 5434 0a7f D60E0000 		.4byte	.LASF447
 5435 0a83 05       		.byte	0x5
 5436 0a84 00       		.uleb128 0
 5437 0a85 4B000000 		.4byte	.LASF448
 5438 0a89 05       		.byte	0x5
 5439 0a8a 00       		.uleb128 0
 5440 0a8b 20680000 		.4byte	.LASF449
 5441 0a8f 05       		.byte	0x5
 5442 0a90 00       		.uleb128 0
 5443 0a91 BA360000 		.4byte	.LASF450
 5444 0a95 05       		.byte	0x5
 5445 0a96 00       		.uleb128 0
 5446 0a97 503A0000 		.4byte	.LASF451
 5447 0a9b 05       		.byte	0x5
 5448 0a9c 00       		.uleb128 0
 5449 0a9d 93730000 		.4byte	.LASF452
 5450 0aa1 05       		.byte	0x5
 5451 0aa2 00       		.uleb128 0
 5452 0aa3 E60A0000 		.4byte	.LASF453
 5453 0aa7 05       		.byte	0x5
 5454 0aa8 00       		.uleb128 0
 5455 0aa9 5E140000 		.4byte	.LASF454
 5456 0aad 05       		.byte	0x5
ARM GAS  /tmp/cc5qDK7o.s 			page 121


 5457 0aae 00       		.uleb128 0
 5458 0aaf 84530000 		.4byte	.LASF455
 5459 0ab3 00       		.byte	0
 5460              		.section	.debug_macro,"G",%progbits,wm4.stddef.h.39.99b5021e28f91cdb161c889e07266673,comdat
 5461              	.Ldebug_macro3:
 5462 0000 0400     		.2byte	0x4
 5463 0002 00       		.byte	0
 5464 0003 05       		.byte	0x5
 5465 0004 27       		.uleb128 0x27
 5466 0005 8F6D0000 		.4byte	.LASF457
 5467 0009 05       		.byte	0x5
 5468 000a 28       		.uleb128 0x28
 5469 000b 34580000 		.4byte	.LASF458
 5470 000f 05       		.byte	0x5
 5471 0010 2A       		.uleb128 0x2a
 5472 0011 8C410000 		.4byte	.LASF459
 5473 0015 05       		.byte	0x5
 5474 0016 8901     		.uleb128 0x89
 5475 0018 45440000 		.4byte	.LASF460
 5476 001c 05       		.byte	0x5
 5477 001d 8A01     		.uleb128 0x8a
 5478 001f 102A0000 		.4byte	.LASF461
 5479 0023 05       		.byte	0x5
 5480 0024 8B01     		.uleb128 0x8b
 5481 0026 074F0000 		.4byte	.LASF462
 5482 002a 05       		.byte	0x5
 5483 002b 8C01     		.uleb128 0x8c
 5484 002d 125E0000 		.4byte	.LASF463
 5485 0031 05       		.byte	0x5
 5486 0032 8D01     		.uleb128 0x8d
 5487 0034 9C410000 		.4byte	.LASF464
 5488 0038 05       		.byte	0x5
 5489 0039 8E01     		.uleb128 0x8e
 5490 003b F60E0000 		.4byte	.LASF465
 5491 003f 05       		.byte	0x5
 5492 0040 8F01     		.uleb128 0x8f
 5493 0042 55400000 		.4byte	.LASF466
 5494 0046 05       		.byte	0x5
 5495 0047 9001     		.uleb128 0x90
 5496 0049 52550000 		.4byte	.LASF467
 5497 004d 05       		.byte	0x5
 5498 004e 9101     		.uleb128 0x91
 5499 0050 D44F0000 		.4byte	.LASF468
 5500 0054 06       		.byte	0x6
 5501 0055 A101     		.uleb128 0xa1
 5502 0057 D0710000 		.4byte	.LASF469
 5503 005b 05       		.byte	0x5
 5504 005c BB01     		.uleb128 0xbb
 5505 005e F0160000 		.4byte	.LASF470
 5506 0062 05       		.byte	0x5
 5507 0063 BC01     		.uleb128 0xbc
 5508 0065 310C0000 		.4byte	.LASF471
 5509 0069 05       		.byte	0x5
 5510 006a BD01     		.uleb128 0xbd
 5511 006c 02560000 		.4byte	.LASF472
 5512 0070 05       		.byte	0x5
 5513 0071 BE01     		.uleb128 0xbe
ARM GAS  /tmp/cc5qDK7o.s 			page 122


 5514 0073 C4140000 		.4byte	.LASF473
 5515 0077 05       		.byte	0x5
 5516 0078 BF01     		.uleb128 0xbf
 5517 007a 4E3B0000 		.4byte	.LASF474
 5518 007e 05       		.byte	0x5
 5519 007f C001     		.uleb128 0xc0
 5520 0081 86100000 		.4byte	.LASF475
 5521 0085 05       		.byte	0x5
 5522 0086 C101     		.uleb128 0xc1
 5523 0088 58580000 		.4byte	.LASF476
 5524 008c 05       		.byte	0x5
 5525 008d C201     		.uleb128 0xc2
 5526 008f 85430000 		.4byte	.LASF477
 5527 0093 05       		.byte	0x5
 5528 0094 C301     		.uleb128 0xc3
 5529 0096 A2620000 		.4byte	.LASF478
 5530 009a 05       		.byte	0x5
 5531 009b C401     		.uleb128 0xc4
 5532 009d B14C0000 		.4byte	.LASF479
 5533 00a1 05       		.byte	0x5
 5534 00a2 C501     		.uleb128 0xc5
 5535 00a4 D05D0000 		.4byte	.LASF480
 5536 00a8 05       		.byte	0x5
 5537 00a9 C601     		.uleb128 0xc6
 5538 00ab 7E200000 		.4byte	.LASF481
 5539 00af 05       		.byte	0x5
 5540 00b0 C701     		.uleb128 0xc7
 5541 00b2 BB190000 		.4byte	.LASF482
 5542 00b6 05       		.byte	0x5
 5543 00b7 C801     		.uleb128 0xc8
 5544 00b9 C4200000 		.4byte	.LASF483
 5545 00bd 05       		.byte	0x5
 5546 00be C901     		.uleb128 0xc9
 5547 00c0 AF770000 		.4byte	.LASF484
 5548 00c4 05       		.byte	0x5
 5549 00c5 CA01     		.uleb128 0xca
 5550 00c7 1D4D0000 		.4byte	.LASF485
 5551 00cb 05       		.byte	0x5
 5552 00cc D201     		.uleb128 0xd2
 5553 00ce C20F0000 		.4byte	.LASF486
 5554 00d2 06       		.byte	0x6
 5555 00d3 EE01     		.uleb128 0xee
 5556 00d5 44430000 		.4byte	.LASF487
 5557 00d9 05       		.byte	0x5
 5558 00da 8B02     		.uleb128 0x10b
 5559 00dc 08440000 		.4byte	.LASF488
 5560 00e0 05       		.byte	0x5
 5561 00e1 8C02     		.uleb128 0x10c
 5562 00e3 F2720000 		.4byte	.LASF489
 5563 00e7 05       		.byte	0x5
 5564 00e8 8D02     		.uleb128 0x10d
 5565 00ea 14540000 		.4byte	.LASF490
 5566 00ee 05       		.byte	0x5
 5567 00ef 8E02     		.uleb128 0x10e
 5568 00f1 79420000 		.4byte	.LASF491
 5569 00f5 05       		.byte	0x5
 5570 00f6 8F02     		.uleb128 0x10f
ARM GAS  /tmp/cc5qDK7o.s 			page 123


 5571 00f8 48300000 		.4byte	.LASF492
 5572 00fc 05       		.byte	0x5
 5573 00fd 9002     		.uleb128 0x110
 5574 00ff 420F0000 		.4byte	.LASF493
 5575 0103 05       		.byte	0x5
 5576 0104 9102     		.uleb128 0x111
 5577 0106 C2620000 		.4byte	.LASF494
 5578 010a 05       		.byte	0x5
 5579 010b 9202     		.uleb128 0x112
 5580 010d 3E320000 		.4byte	.LASF495
 5581 0111 05       		.byte	0x5
 5582 0112 9302     		.uleb128 0x113
 5583 0114 9C810000 		.4byte	.LASF496
 5584 0118 05       		.byte	0x5
 5585 0119 9402     		.uleb128 0x114
 5586 011b 49610000 		.4byte	.LASF497
 5587 011f 05       		.byte	0x5
 5588 0120 9502     		.uleb128 0x115
 5589 0122 0B560000 		.4byte	.LASF498
 5590 0126 05       		.byte	0x5
 5591 0127 9602     		.uleb128 0x116
 5592 0129 6B760000 		.4byte	.LASF499
 5593 012d 05       		.byte	0x5
 5594 012e 9702     		.uleb128 0x117
 5595 0130 37640000 		.4byte	.LASF500
 5596 0134 05       		.byte	0x5
 5597 0135 9802     		.uleb128 0x118
 5598 0137 45500000 		.4byte	.LASF501
 5599 013b 05       		.byte	0x5
 5600 013c 9902     		.uleb128 0x119
 5601 013e 334E0000 		.4byte	.LASF502
 5602 0142 06       		.byte	0x6
 5603 0143 A602     		.uleb128 0x126
 5604 0145 68780000 		.4byte	.LASF503
 5605 0149 06       		.byte	0x6
 5606 014a DB02     		.uleb128 0x15b
 5607 014c 040E0000 		.4byte	.LASF504
 5608 0150 06       		.byte	0x6
 5609 0151 9103     		.uleb128 0x191
 5610 0153 1B120000 		.4byte	.LASF505
 5611 0157 05       		.byte	0x5
 5612 0158 9603     		.uleb128 0x196
 5613 015a 1E350000 		.4byte	.LASF506
 5614 015e 06       		.byte	0x6
 5615 015f 9C03     		.uleb128 0x19c
 5616 0161 F8350000 		.4byte	.LASF507
 5617 0165 05       		.byte	0x5
 5618 0166 A103     		.uleb128 0x1a1
 5619 0168 743E0000 		.4byte	.LASF508
 5620 016c 00       		.byte	0
 5621              		.section	.debug_macro,"G",%progbits,wm4._newlib_version.h.4.875b979a44719054cd750d0952ad3fd6,comda
 5622              	.Ldebug_macro4:
 5623 0000 0400     		.2byte	0x4
 5624 0002 00       		.byte	0
 5625 0003 05       		.byte	0x5
 5626 0004 04       		.uleb128 0x4
 5627 0005 F9420000 		.4byte	.LASF512
ARM GAS  /tmp/cc5qDK7o.s 			page 124


 5628 0009 05       		.byte	0x5
 5629 000a 06       		.uleb128 0x6
 5630 000b AB340000 		.4byte	.LASF513
 5631 000f 05       		.byte	0x5
 5632 0010 07       		.uleb128 0x7
 5633 0011 9E1C0000 		.4byte	.LASF514
 5634 0015 05       		.byte	0x5
 5635 0016 08       		.uleb128 0x8
 5636 0017 C34C0000 		.4byte	.LASF515
 5637 001b 05       		.byte	0x5
 5638 001c 09       		.uleb128 0x9
 5639 001d 825C0000 		.4byte	.LASF516
 5640 0021 00       		.byte	0
 5641              		.section	.debug_macro,"G",%progbits,wm4.features.h.33.5bd1eea2d80518b50f7af0b5ce6750e0,comdat
 5642              	.Ldebug_macro5:
 5643 0000 0400     		.2byte	0x4
 5644 0002 00       		.byte	0
 5645 0003 05       		.byte	0x5
 5646 0004 21       		.uleb128 0x21
 5647 0005 F5130000 		.4byte	.LASF517
 5648 0009 05       		.byte	0x5
 5649 000a 28       		.uleb128 0x28
 5650 000b 40740000 		.4byte	.LASF518
 5651 000f 06       		.byte	0x6
 5652 0010 8301     		.uleb128 0x83
 5653 0012 9F770000 		.4byte	.LASF519
 5654 0016 05       		.byte	0x5
 5655 0017 8401     		.uleb128 0x84
 5656 0019 4A3D0000 		.4byte	.LASF520
 5657 001d 06       		.byte	0x6
 5658 001e 8801     		.uleb128 0x88
 5659 0020 F03A0000 		.4byte	.LASF521
 5660 0024 05       		.byte	0x5
 5661 0025 8901     		.uleb128 0x89
 5662 0027 2F7A0000 		.4byte	.LASF522
 5663 002b 06       		.byte	0x6
 5664 002c 8A01     		.uleb128 0x8a
 5665 002e 1E830000 		.4byte	.LASF523
 5666 0032 05       		.byte	0x5
 5667 0033 8B01     		.uleb128 0x8b
 5668 0035 821A0000 		.4byte	.LASF524
 5669 0039 06       		.byte	0x6
 5670 003a 9E01     		.uleb128 0x9e
 5671 003c 08370000 		.4byte	.LASF525
 5672 0040 05       		.byte	0x5
 5673 0041 9F01     		.uleb128 0x9f
 5674 0043 D3490000 		.4byte	.LASF526
 5675 0047 05       		.byte	0x5
 5676 0048 F701     		.uleb128 0xf7
 5677 004a 13150000 		.4byte	.LASF527
 5678 004e 05       		.byte	0x5
 5679 004f FD01     		.uleb128 0xfd
 5680 0051 85480000 		.4byte	.LASF528
 5681 0055 05       		.byte	0x5
 5682 0056 8502     		.uleb128 0x105
 5683 0058 F05D0000 		.4byte	.LASF529
 5684 005c 05       		.byte	0x5
ARM GAS  /tmp/cc5qDK7o.s 			page 125


 5685 005d 8D02     		.uleb128 0x10d
 5686 005f D11C0000 		.4byte	.LASF530
 5687 0063 05       		.byte	0x5
 5688 0064 9502     		.uleb128 0x115
 5689 0066 621C0000 		.4byte	.LASF531
 5690 006a 05       		.byte	0x5
 5691 006b 9902     		.uleb128 0x119
 5692 006d B2590000 		.4byte	.LASF532
 5693 0071 05       		.byte	0x5
 5694 0072 9F02     		.uleb128 0x11f
 5695 0074 56050000 		.4byte	.LASF533
 5696 0078 05       		.byte	0x5
 5697 0079 AF02     		.uleb128 0x12f
 5698 007b 3A000000 		.4byte	.LASF534
 5699 007f 05       		.byte	0x5
 5700 0080 BF02     		.uleb128 0x13f
 5701 0082 2C730000 		.4byte	.LASF535
 5702 0086 05       		.byte	0x5
 5703 0087 CA02     		.uleb128 0x14a
 5704 0089 FF720000 		.4byte	.LASF536
 5705 008d 00       		.byte	0
 5706              		.section	.debug_macro,"G",%progbits,wm4._default_types.h.15.247e5cd201eca3442cbf5404108c4935,comda
 5707              	.Ldebug_macro6:
 5708 0000 0400     		.2byte	0x4
 5709 0002 00       		.byte	0
 5710 0003 05       		.byte	0x5
 5711 0004 0F       		.uleb128 0xf
 5712 0005 004A0000 		.4byte	.LASF537
 5713 0009 05       		.byte	0x5
 5714 000a 1A       		.uleb128 0x1a
 5715 000b B8600000 		.4byte	.LASF538
 5716 000f 05       		.byte	0x5
 5717 0010 21       		.uleb128 0x21
 5718 0011 0A720000 		.4byte	.LASF539
 5719 0015 05       		.byte	0x5
 5720 0016 2F       		.uleb128 0x2f
 5721 0017 FD390000 		.4byte	.LASF540
 5722 001b 05       		.byte	0x5
 5723 001c 3D       		.uleb128 0x3d
 5724 001d 73640000 		.4byte	.LASF541
 5725 0021 05       		.byte	0x5
 5726 0022 53       		.uleb128 0x53
 5727 0023 F2460000 		.4byte	.LASF542
 5728 0027 05       		.byte	0x5
 5729 0028 6D       		.uleb128 0x6d
 5730 0029 0F180000 		.4byte	.LASF543
 5731 002d 05       		.byte	0x5
 5732 002e 8C01     		.uleb128 0x8c
 5733 0030 E94F0000 		.4byte	.LASF544
 5734 0034 05       		.byte	0x5
 5735 0035 A601     		.uleb128 0xa6
 5736 0037 81160000 		.4byte	.LASF545
 5737 003b 05       		.byte	0x5
 5738 003c BC01     		.uleb128 0xbc
 5739 003e B3350000 		.4byte	.LASF546
 5740 0042 05       		.byte	0x5
 5741 0043 CE01     		.uleb128 0xce
ARM GAS  /tmp/cc5qDK7o.s 			page 126


 5742 0045 63490000 		.4byte	.LASF547
 5743 0049 06       		.byte	0x6
 5744 004a F401     		.uleb128 0xf4
 5745 004c 4D040000 		.4byte	.LASF548
 5746 0050 00       		.byte	0
 5747              		.section	.debug_macro,"G",%progbits,wm4._intsup.h.10.cce27fed8484c08a33f522034c30d2b5,comdat
 5748              	.Ldebug_macro7:
 5749 0000 0400     		.2byte	0x4
 5750 0002 00       		.byte	0
 5751 0003 05       		.byte	0x5
 5752 0004 0A       		.uleb128 0xa
 5753 0005 4B790000 		.4byte	.LASF549
 5754 0009 05       		.byte	0x5
 5755 000a 10       		.uleb128 0x10
 5756 000b E4490000 		.4byte	.LASF550
 5757 000f 06       		.byte	0x6
 5758 0010 2A       		.uleb128 0x2a
 5759 0011 693A0000 		.4byte	.LASF551
 5760 0015 06       		.byte	0x6
 5761 0016 2B       		.uleb128 0x2b
 5762 0017 1E6D0000 		.4byte	.LASF552
 5763 001b 06       		.byte	0x6
 5764 001c 2C       		.uleb128 0x2c
 5765 001d 3D260000 		.4byte	.LASF553
 5766 0021 06       		.byte	0x6
 5767 0022 2D       		.uleb128 0x2d
 5768 0023 50570000 		.4byte	.LASF554
 5769 0027 02       		.byte	0x2
 5770 0028 2E       		.uleb128 0x2e
 5771 0029 696E7400 		.ascii	"int\000"
 5772 002d 06       		.byte	0x6
 5773 002e 2F       		.uleb128 0x2f
 5774 002f 1E820000 		.4byte	.LASF555
 5775 0033 06       		.byte	0x6
 5776 0034 30       		.uleb128 0x30
 5777 0035 3C570000 		.4byte	.LASF556
 5778 0039 05       		.byte	0x5
 5779 003a 31       		.uleb128 0x31
 5780 003b E9590000 		.4byte	.LASF557
 5781 003f 05       		.byte	0x5
 5782 0040 32       		.uleb128 0x32
 5783 0041 C73F0000 		.4byte	.LASF558
 5784 0045 05       		.byte	0x5
 5785 0046 33       		.uleb128 0x33
 5786 0047 8B6A0000 		.4byte	.LASF559
 5787 004b 05       		.byte	0x5
 5788 004c 34       		.uleb128 0x34
 5789 004d 57810000 		.4byte	.LASF560
 5790 0051 05       		.byte	0x5
 5791 0052 35       		.uleb128 0x35
 5792 0053 DA400000 		.4byte	.LASF561
 5793 0057 05       		.byte	0x5
 5794 0058 36       		.uleb128 0x36
 5795 0059 793B0000 		.4byte	.LASF562
 5796 005d 05       		.byte	0x5
 5797 005e 37       		.uleb128 0x37
 5798 005f 427F0000 		.4byte	.LASF563
ARM GAS  /tmp/cc5qDK7o.s 			page 127


 5799 0063 05       		.byte	0x5
 5800 0064 40       		.uleb128 0x40
 5801 0065 65380000 		.4byte	.LASF564
 5802 0069 05       		.byte	0x5
 5803 006a 47       		.uleb128 0x47
 5804 006b 037E0000 		.4byte	.LASF565
 5805 006f 05       		.byte	0x5
 5806 0070 4F       		.uleb128 0x4f
 5807 0071 1E0A0000 		.4byte	.LASF566
 5808 0075 05       		.byte	0x5
 5809 0076 5A       		.uleb128 0x5a
 5810 0077 E74E0000 		.4byte	.LASF567
 5811 007b 05       		.byte	0x5
 5812 007c 65       		.uleb128 0x65
 5813 007d F5760000 		.4byte	.LASF568
 5814 0081 05       		.byte	0x5
 5815 0082 6E       		.uleb128 0x6e
 5816 0083 D0120000 		.4byte	.LASF569
 5817 0087 05       		.byte	0x5
 5818 0088 75       		.uleb128 0x75
 5819 0089 31760000 		.4byte	.LASF570
 5820 008d 05       		.byte	0x5
 5821 008e 7E       		.uleb128 0x7e
 5822 008f 321C0000 		.4byte	.LASF571
 5823 0093 05       		.byte	0x5
 5824 0094 8501     		.uleb128 0x85
 5825 0096 B9400000 		.4byte	.LASF572
 5826 009a 05       		.byte	0x5
 5827 009b 9001     		.uleb128 0x90
 5828 009d A63F0000 		.4byte	.LASF573
 5829 00a1 05       		.byte	0x5
 5830 00a2 9401     		.uleb128 0x94
 5831 00a4 632A0000 		.4byte	.LASF574
 5832 00a8 05       		.byte	0x5
 5833 00a9 9F01     		.uleb128 0x9f
 5834 00ab DE6D0000 		.4byte	.LASF575
 5835 00af 05       		.byte	0x5
 5836 00b0 AA01     		.uleb128 0xaa
 5837 00b2 C2120000 		.4byte	.LASF576
 5838 00b6 05       		.byte	0x5
 5839 00b7 B301     		.uleb128 0xb3
 5840 00b9 E6550000 		.4byte	.LASF577
 5841 00bd 06       		.byte	0x6
 5842 00be B501     		.uleb128 0xb5
 5843 00c0 693A0000 		.4byte	.LASF551
 5844 00c4 06       		.byte	0x6
 5845 00c5 B601     		.uleb128 0xb6
 5846 00c7 1E6D0000 		.4byte	.LASF552
 5847 00cb 06       		.byte	0x6
 5848 00cc B701     		.uleb128 0xb7
 5849 00ce 3D260000 		.4byte	.LASF553
 5850 00d2 06       		.byte	0x6
 5851 00d3 B801     		.uleb128 0xb8
 5852 00d5 50570000 		.4byte	.LASF554
 5853 00d9 02       		.byte	0x2
 5854 00da B901     		.uleb128 0xb9
 5855 00dc 696E7400 		.ascii	"int\000"
ARM GAS  /tmp/cc5qDK7o.s 			page 128


 5856 00e0 06       		.byte	0x6
 5857 00e1 BA01     		.uleb128 0xba
 5858 00e3 3C570000 		.4byte	.LASF556
 5859 00e7 06       		.byte	0x6
 5860 00e8 BF01     		.uleb128 0xbf
 5861 00ea 1E820000 		.4byte	.LASF555
 5862 00ee 00       		.byte	0
 5863              		.section	.debug_macro,"G",%progbits,wm4._stdint.h.10.c24fa3af3bc1706662bb5593a907e841,comdat
 5864              	.Ldebug_macro8:
 5865 0000 0400     		.2byte	0x4
 5866 0002 00       		.byte	0
 5867 0003 05       		.byte	0x5
 5868 0004 0A       		.uleb128 0xa
 5869 0005 64110000 		.4byte	.LASF578
 5870 0009 05       		.byte	0x5
 5871 000a 15       		.uleb128 0x15
 5872 000b A7710000 		.4byte	.LASF579
 5873 000f 05       		.byte	0x5
 5874 0010 19       		.uleb128 0x19
 5875 0011 461D0000 		.4byte	.LASF580
 5876 0015 05       		.byte	0x5
 5877 0016 1B       		.uleb128 0x1b
 5878 0017 45290000 		.4byte	.LASF581
 5879 001b 05       		.byte	0x5
 5880 001c 21       		.uleb128 0x21
 5881 001d 40330000 		.4byte	.LASF582
 5882 0021 05       		.byte	0x5
 5883 0022 25       		.uleb128 0x25
 5884 0023 0E110000 		.4byte	.LASF583
 5885 0027 05       		.byte	0x5
 5886 0028 27       		.uleb128 0x27
 5887 0029 64410000 		.4byte	.LASF584
 5888 002d 05       		.byte	0x5
 5889 002e 2D       		.uleb128 0x2d
 5890 002f 98400000 		.4byte	.LASF585
 5891 0033 05       		.byte	0x5
 5892 0034 31       		.uleb128 0x31
 5893 0035 C4020000 		.4byte	.LASF586
 5894 0039 05       		.byte	0x5
 5895 003a 33       		.uleb128 0x33
 5896 003b 253B0000 		.4byte	.LASF587
 5897 003f 05       		.byte	0x5
 5898 0040 39       		.uleb128 0x39
 5899 0041 CD620000 		.4byte	.LASF588
 5900 0045 05       		.byte	0x5
 5901 0046 3D       		.uleb128 0x3d
 5902 0047 7B190000 		.4byte	.LASF589
 5903 004b 05       		.byte	0x5
 5904 004c 3F       		.uleb128 0x3f
 5905 004d C9720000 		.4byte	.LASF590
 5906 0051 05       		.byte	0x5
 5907 0052 44       		.uleb128 0x44
 5908 0053 825F0000 		.4byte	.LASF591
 5909 0057 05       		.byte	0x5
 5910 0058 49       		.uleb128 0x49
 5911 0059 F8280000 		.4byte	.LASF592
 5912 005d 05       		.byte	0x5
ARM GAS  /tmp/cc5qDK7o.s 			page 129


 5913 005e 4E       		.uleb128 0x4e
 5914 005f 6D140000 		.4byte	.LASF593
 5915 0063 05       		.byte	0x5
 5916 0064 53       		.uleb128 0x53
 5917 0065 34610000 		.4byte	.LASF594
 5918 0069 00       		.byte	0
 5919              		.section	.debug_macro,"G",%progbits,wm4.stdint.h.23.d53047a68f4a85177f80b422d52785ed,comdat
 5920              	.Ldebug_macro9:
 5921 0000 0400     		.2byte	0x4
 5922 0002 00       		.byte	0
 5923 0003 05       		.byte	0x5
 5924 0004 17       		.uleb128 0x17
 5925 0005 297F0000 		.4byte	.LASF595
 5926 0009 05       		.byte	0x5
 5927 000a 1D       		.uleb128 0x1d
 5928 000b DD2D0000 		.4byte	.LASF596
 5929 000f 05       		.byte	0x5
 5930 0010 23       		.uleb128 0x23
 5931 0011 64360000 		.4byte	.LASF597
 5932 0015 05       		.byte	0x5
 5933 0016 29       		.uleb128 0x29
 5934 0017 44340000 		.4byte	.LASF598
 5935 001b 05       		.byte	0x5
 5936 001c 35       		.uleb128 0x35
 5937 001d 6B500000 		.4byte	.LASF599
 5938 0021 05       		.byte	0x5
 5939 0022 3F       		.uleb128 0x3f
 5940 0023 AD4B0000 		.4byte	.LASF600
 5941 0027 05       		.byte	0x5
 5942 0028 49       		.uleb128 0x49
 5943 0029 CC0F0000 		.4byte	.LASF601
 5944 002d 05       		.byte	0x5
 5945 002e 53       		.uleb128 0x53
 5946 002f 76240000 		.4byte	.LASF602
 5947 0033 05       		.byte	0x5
 5948 0034 8001     		.uleb128 0x80
 5949 0036 C72F0000 		.4byte	.LASF603
 5950 003a 05       		.byte	0x5
 5951 003b 8101     		.uleb128 0x81
 5952 003d 3A510000 		.4byte	.LASF604
 5953 0041 05       		.byte	0x5
 5954 0042 8201     		.uleb128 0x82
 5955 0044 31180000 		.4byte	.LASF605
 5956 0048 05       		.byte	0x5
 5957 0049 9801     		.uleb128 0x98
 5958 004b F1100000 		.4byte	.LASF606
 5959 004f 05       		.byte	0x5
 5960 0050 9901     		.uleb128 0x99
 5961 0052 E40B0000 		.4byte	.LASF607
 5962 0056 05       		.byte	0x5
 5963 0057 9A01     		.uleb128 0x9a
 5964 0059 C67E0000 		.4byte	.LASF608
 5965 005d 05       		.byte	0x5
 5966 005e A201     		.uleb128 0xa2
 5967 0060 9B020000 		.4byte	.LASF609
 5968 0064 05       		.byte	0x5
 5969 0065 A301     		.uleb128 0xa3
ARM GAS  /tmp/cc5qDK7o.s 			page 130


 5970 0067 33120000 		.4byte	.LASF610
 5971 006b 05       		.byte	0x5
 5972 006c A401     		.uleb128 0xa4
 5973 006e 11670000 		.4byte	.LASF611
 5974 0072 05       		.byte	0x5
 5975 0073 AE01     		.uleb128 0xae
 5976 0075 D5010000 		.4byte	.LASF612
 5977 0079 05       		.byte	0x5
 5978 007a AF01     		.uleb128 0xaf
 5979 007c 070F0000 		.4byte	.LASF613
 5980 0080 05       		.byte	0x5
 5981 0081 B001     		.uleb128 0xb0
 5982 0083 EE470000 		.4byte	.LASF614
 5983 0087 05       		.byte	0x5
 5984 0088 B801     		.uleb128 0xb8
 5985 008a 95480000 		.4byte	.LASF615
 5986 008e 05       		.byte	0x5
 5987 008f B901     		.uleb128 0xb9
 5988 0091 9E0A0000 		.4byte	.LASF616
 5989 0095 05       		.byte	0x5
 5990 0096 BA01     		.uleb128 0xba
 5991 0098 72600000 		.4byte	.LASF617
 5992 009c 05       		.byte	0x5
 5993 009d C401     		.uleb128 0xc4
 5994 009f E1370000 		.4byte	.LASF618
 5995 00a3 05       		.byte	0x5
 5996 00a4 C501     		.uleb128 0xc5
 5997 00a6 C5290000 		.4byte	.LASF619
 5998 00aa 05       		.byte	0x5
 5999 00ab C601     		.uleb128 0xc6
 6000 00ad D3430000 		.4byte	.LASF620
 6001 00b1 05       		.byte	0x5
 6002 00b2 D401     		.uleb128 0xd4
 6003 00b4 3A2E0000 		.4byte	.LASF621
 6004 00b8 05       		.byte	0x5
 6005 00b9 D501     		.uleb128 0xd5
 6006 00bb 142E0000 		.4byte	.LASF622
 6007 00bf 05       		.byte	0x5
 6008 00c0 D601     		.uleb128 0xd6
 6009 00c2 116A0000 		.4byte	.LASF623
 6010 00c6 05       		.byte	0x5
 6011 00c7 E601     		.uleb128 0xe6
 6012 00c9 976E0000 		.4byte	.LASF624
 6013 00cd 05       		.byte	0x5
 6014 00ce E701     		.uleb128 0xe7
 6015 00d0 694C0000 		.4byte	.LASF625
 6016 00d4 05       		.byte	0x5
 6017 00d5 E801     		.uleb128 0xe8
 6018 00d7 CA700000 		.4byte	.LASF626
 6019 00db 05       		.byte	0x5
 6020 00dc F601     		.uleb128 0xf6
 6021 00de 49130000 		.4byte	.LASF627
 6022 00e2 05       		.byte	0x5
 6023 00e3 F701     		.uleb128 0xf7
 6024 00e5 74110000 		.4byte	.LASF628
 6025 00e9 05       		.byte	0x5
 6026 00ea F801     		.uleb128 0xf8
ARM GAS  /tmp/cc5qDK7o.s 			page 131


 6027 00ec FB5C0000 		.4byte	.LASF629
 6028 00f0 05       		.byte	0x5
 6029 00f1 8602     		.uleb128 0x106
 6030 00f3 DA810000 		.4byte	.LASF630
 6031 00f7 05       		.byte	0x5
 6032 00f8 8702     		.uleb128 0x107
 6033 00fa 26230000 		.4byte	.LASF631
 6034 00fe 05       		.byte	0x5
 6035 00ff 8802     		.uleb128 0x108
 6036 0101 057F0000 		.4byte	.LASF632
 6037 0105 05       		.byte	0x5
 6038 0106 9602     		.uleb128 0x116
 6039 0108 17370000 		.4byte	.LASF633
 6040 010c 05       		.byte	0x5
 6041 010d 9702     		.uleb128 0x117
 6042 010f FD0A0000 		.4byte	.LASF634
 6043 0113 05       		.byte	0x5
 6044 0114 9802     		.uleb128 0x118
 6045 0116 464E0000 		.4byte	.LASF635
 6046 011a 05       		.byte	0x5
 6047 011b A602     		.uleb128 0x126
 6048 011d 9B140000 		.4byte	.LASF636
 6049 0121 05       		.byte	0x5
 6050 0122 A702     		.uleb128 0x127
 6051 0124 8B820000 		.4byte	.LASF637
 6052 0128 05       		.byte	0x5
 6053 0129 A802     		.uleb128 0x128
 6054 012b 936A0000 		.4byte	.LASF638
 6055 012f 05       		.byte	0x5
 6056 0130 B602     		.uleb128 0x136
 6057 0132 990F0000 		.4byte	.LASF639
 6058 0136 05       		.byte	0x5
 6059 0137 B702     		.uleb128 0x137
 6060 0139 DD790000 		.4byte	.LASF640
 6061 013d 05       		.byte	0x5
 6062 013e B802     		.uleb128 0x138
 6063 0140 C3590000 		.4byte	.LASF641
 6064 0144 05       		.byte	0x5
 6065 0145 C602     		.uleb128 0x146
 6066 0147 A9290000 		.4byte	.LASF642
 6067 014b 05       		.byte	0x5
 6068 014c C702     		.uleb128 0x147
 6069 014e 911D0000 		.4byte	.LASF643
 6070 0152 05       		.byte	0x5
 6071 0153 CF02     		.uleb128 0x14f
 6072 0155 64230000 		.4byte	.LASF644
 6073 0159 05       		.byte	0x5
 6074 015a D702     		.uleb128 0x157
 6075 015c 4B620000 		.4byte	.LASF645
 6076 0160 05       		.byte	0x5
 6077 0161 DD02     		.uleb128 0x15d
 6078 0163 E8320000 		.4byte	.LASF646
 6079 0167 05       		.byte	0x5
 6080 0168 DE02     		.uleb128 0x15e
 6081 016a DA270000 		.4byte	.LASF647
 6082 016e 05       		.byte	0x5
 6083 016f E202     		.uleb128 0x162
ARM GAS  /tmp/cc5qDK7o.s 			page 132


 6084 0171 3D0C0000 		.4byte	.LASF648
 6085 0175 05       		.byte	0x5
 6086 0176 E602     		.uleb128 0x166
 6087 0178 91260000 		.4byte	.LASF649
 6088 017c 05       		.byte	0x5
 6089 017d EB02     		.uleb128 0x16b
 6090 017f 281E0000 		.4byte	.LASF650
 6091 0183 05       		.byte	0x5
 6092 0184 F602     		.uleb128 0x176
 6093 0186 01120000 		.4byte	.LASF651
 6094 018a 05       		.byte	0x5
 6095 018b 8003     		.uleb128 0x180
 6096 018d 97520000 		.4byte	.LASF652
 6097 0191 05       		.byte	0x5
 6098 0192 8503     		.uleb128 0x185
 6099 0194 00000000 		.4byte	.LASF653
 6100 0198 05       		.byte	0x5
 6101 0199 8C03     		.uleb128 0x18c
 6102 019b 803B0000 		.4byte	.LASF654
 6103 019f 05       		.byte	0x5
 6104 01a0 8D03     		.uleb128 0x18d
 6105 01a2 692C0000 		.4byte	.LASF655
 6106 01a6 05       		.byte	0x5
 6107 01a7 9803     		.uleb128 0x198
 6108 01a9 52100000 		.4byte	.LASF656
 6109 01ad 05       		.byte	0x5
 6110 01ae 9903     		.uleb128 0x199
 6111 01b0 14330000 		.4byte	.LASF657
 6112 01b4 05       		.byte	0x5
 6113 01b5 A403     		.uleb128 0x1a4
 6114 01b7 39690000 		.4byte	.LASF658
 6115 01bb 05       		.byte	0x5
 6116 01bc A503     		.uleb128 0x1a5
 6117 01be 404D0000 		.4byte	.LASF659
 6118 01c2 05       		.byte	0x5
 6119 01c3 B103     		.uleb128 0x1b1
 6120 01c5 F35F0000 		.4byte	.LASF660
 6121 01c9 05       		.byte	0x5
 6122 01ca B203     		.uleb128 0x1b2
 6123 01cc 9E660000 		.4byte	.LASF661
 6124 01d0 05       		.byte	0x5
 6125 01d1 C103     		.uleb128 0x1c1
 6126 01d3 77260000 		.4byte	.LASF662
 6127 01d7 05       		.byte	0x5
 6128 01d8 C203     		.uleb128 0x1c2
 6129 01da 96590000 		.4byte	.LASF663
 6130 01de 00       		.byte	0
 6131              		.section	.debug_macro,"G",%progbits,wm4.FreeRTOSConfig.h.72.a340d89ecb65042004b4d15b4973dce0,comda
 6132              	.Ldebug_macro10:
 6133 0000 0400     		.2byte	0x4
 6134 0002 00       		.byte	0
 6135 0003 05       		.byte	0x5
 6136 0004 48       		.uleb128 0x48
 6137 0005 802F0000 		.4byte	.LASF665
 6138 0009 05       		.byte	0x5
 6139 000a 5E       		.uleb128 0x5e
 6140 000b 14840000 		.4byte	.LASF666
ARM GAS  /tmp/cc5qDK7o.s 			page 133


 6141 000f 05       		.byte	0x5
 6142 0010 74       		.uleb128 0x74
 6143 0011 847F0000 		.4byte	.LASF667
 6144 0015 05       		.byte	0x5
 6145 0016 7A       		.uleb128 0x7a
 6146 0017 B64E0000 		.4byte	.LASF668
 6147 001b 05       		.byte	0x5
 6148 001c 7D       		.uleb128 0x7d
 6149 001d 2A0A0000 		.4byte	.LASF669
 6150 0021 05       		.byte	0x5
 6151 0022 7F       		.uleb128 0x7f
 6152 0023 78730000 		.4byte	.LASF670
 6153 0027 05       		.byte	0x5
 6154 0028 8001     		.uleb128 0x80
 6155 002a 7E030000 		.4byte	.LASF671
 6156 002e 05       		.byte	0x5
 6157 002f 8101     		.uleb128 0x81
 6158 0031 95040000 		.4byte	.LASF672
 6159 0035 05       		.byte	0x5
 6160 0036 8301     		.uleb128 0x83
 6161 0038 F8170000 		.4byte	.LASF673
 6162 003c 05       		.byte	0x5
 6163 003d 8401     		.uleb128 0x84
 6164 003f 9F720000 		.4byte	.LASF674
 6165 0043 05       		.byte	0x5
 6166 0044 8501     		.uleb128 0x85
 6167 0046 B0260000 		.4byte	.LASF675
 6168 004a 05       		.byte	0x5
 6169 004b 8601     		.uleb128 0x86
 6170 004d 6E5B0000 		.4byte	.LASF676
 6171 0051 05       		.byte	0x5
 6172 0052 8701     		.uleb128 0x87
 6173 0054 F7730000 		.4byte	.LASF677
 6174 0058 05       		.byte	0x5
 6175 0059 8801     		.uleb128 0x88
 6176 005b F3590000 		.4byte	.LASF678
 6177 005f 05       		.byte	0x5
 6178 0060 8901     		.uleb128 0x89
 6179 0062 D8020000 		.4byte	.LASF679
 6180 0066 05       		.byte	0x5
 6181 0067 8B01     		.uleb128 0x8b
 6182 0069 88640000 		.4byte	.LASF680
 6183 006d 05       		.byte	0x5
 6184 006e 8C01     		.uleb128 0x8c
 6185 0070 51440000 		.4byte	.LASF681
 6186 0074 05       		.byte	0x5
 6187 0075 8D01     		.uleb128 0x8d
 6188 0077 60810000 		.4byte	.LASF682
 6189 007b 05       		.byte	0x5
 6190 007c 8E01     		.uleb128 0x8e
 6191 007e 89620000 		.4byte	.LASF683
 6192 0082 05       		.byte	0x5
 6193 0083 8F01     		.uleb128 0x8f
 6194 0085 BB010000 		.4byte	.LASF684
 6195 0089 05       		.byte	0x5
 6196 008a 9001     		.uleb128 0x90
 6197 008c 14420000 		.4byte	.LASF685
ARM GAS  /tmp/cc5qDK7o.s 			page 134


 6198 0090 05       		.byte	0x5
 6199 0091 9101     		.uleb128 0x91
 6200 0093 8F240000 		.4byte	.LASF686
 6201 0097 05       		.byte	0x5
 6202 0098 9201     		.uleb128 0x92
 6203 009a E7360000 		.4byte	.LASF687
 6204 009e 05       		.byte	0x5
 6205 009f 9301     		.uleb128 0x93
 6206 00a1 51690000 		.4byte	.LASF688
 6207 00a5 05       		.byte	0x5
 6208 00a6 9401     		.uleb128 0x94
 6209 00a8 B66B0000 		.4byte	.LASF689
 6210 00ac 05       		.byte	0x5
 6211 00ad 9501     		.uleb128 0x95
 6212 00af A97B0000 		.4byte	.LASF690
 6213 00b3 05       		.byte	0x5
 6214 00b4 9601     		.uleb128 0x96
 6215 00b6 DE4B0000 		.4byte	.LASF691
 6216 00ba 05       		.byte	0x5
 6217 00bb 9701     		.uleb128 0x97
 6218 00bd 2A070000 		.4byte	.LASF692
 6219 00c1 05       		.byte	0x5
 6220 00c2 9A01     		.uleb128 0x9a
 6221 00c4 376D0000 		.4byte	.LASF693
 6222 00c8 05       		.byte	0x5
 6223 00c9 9B01     		.uleb128 0x9b
 6224 00cb 5C590000 		.4byte	.LASF694
 6225 00cf 05       		.byte	0x5
 6226 00d0 9C01     		.uleb128 0x9c
 6227 00d2 09270000 		.4byte	.LASF695
 6228 00d6 05       		.byte	0x5
 6229 00d7 A201     		.uleb128 0xa2
 6230 00d9 712A0000 		.4byte	.LASF696
 6231 00dd 05       		.byte	0x5
 6232 00de A501     		.uleb128 0xa5
 6233 00e0 D9570000 		.4byte	.LASF697
 6234 00e4 05       		.byte	0x5
 6235 00e5 A601     		.uleb128 0xa6
 6236 00e7 F6520000 		.4byte	.LASF698
 6237 00eb 05       		.byte	0x5
 6238 00ec A901     		.uleb128 0xa9
 6239 00ee 40160000 		.4byte	.LASF699
 6240 00f2 05       		.byte	0x5
 6241 00f3 AA01     		.uleb128 0xaa
 6242 00f5 44840000 		.4byte	.LASF700
 6243 00f9 05       		.byte	0x5
 6244 00fa AB01     		.uleb128 0xab
 6245 00fc FC0B0000 		.4byte	.LASF701
 6246 0100 05       		.byte	0x5
 6247 0101 AC01     		.uleb128 0xac
 6248 0103 5B790000 		.4byte	.LASF702
 6249 0107 05       		.byte	0x5
 6250 0108 B001     		.uleb128 0xb0
 6251 010a 77550000 		.4byte	.LASF703
 6252 010e 05       		.byte	0x5
 6253 010f B101     		.uleb128 0xb1
 6254 0111 50390000 		.4byte	.LASF704
ARM GAS  /tmp/cc5qDK7o.s 			page 135


 6255 0115 05       		.byte	0x5
 6256 0116 B201     		.uleb128 0xb2
 6257 0118 AF810000 		.4byte	.LASF705
 6258 011c 05       		.byte	0x5
 6259 011d B301     		.uleb128 0xb3
 6260 011f 6B6A0000 		.4byte	.LASF706
 6261 0123 05       		.byte	0x5
 6262 0124 B401     		.uleb128 0xb4
 6263 0126 BD070000 		.4byte	.LASF707
 6264 012a 05       		.byte	0x5
 6265 012b B501     		.uleb128 0xb5
 6266 012d 182C0000 		.4byte	.LASF708
 6267 0131 05       		.byte	0x5
 6268 0132 B601     		.uleb128 0xb6
 6269 0134 A1550000 		.4byte	.LASF709
 6270 0138 05       		.byte	0x5
 6271 0139 B701     		.uleb128 0xb7
 6272 013b 793F0000 		.4byte	.LASF710
 6273 013f 05       		.byte	0x5
 6274 0140 B801     		.uleb128 0xb8
 6275 0142 CE6C0000 		.4byte	.LASF711
 6276 0146 05       		.byte	0x5
 6277 0147 BF01     		.uleb128 0xbf
 6278 0149 F03E0000 		.4byte	.LASF712
 6279 014d 05       		.byte	0x5
 6280 014e C401     		.uleb128 0xc4
 6281 0150 D64C0000 		.4byte	.LASF713
 6282 0154 05       		.byte	0x5
 6283 0155 CA01     		.uleb128 0xca
 6284 0157 531A0000 		.4byte	.LASF714
 6285 015b 05       		.byte	0x5
 6286 015c CE01     		.uleb128 0xce
 6287 015e 26820000 		.4byte	.LASF715
 6288 0162 05       		.byte	0x5
 6289 0163 D101     		.uleb128 0xd1
 6290 0165 313C0000 		.4byte	.LASF716
 6291 0169 05       		.byte	0x5
 6292 016a D601     		.uleb128 0xd6
 6293 016c 03320000 		.4byte	.LASF717
 6294 0170 05       		.byte	0x5
 6295 0171 D701     		.uleb128 0xd7
 6296 0173 4D660000 		.4byte	.LASF718
 6297 0177 05       		.byte	0x5
 6298 0178 D801     		.uleb128 0xd8
 6299 017a BD760000 		.4byte	.LASF719
 6300 017e 05       		.byte	0x5
 6301 017f DC01     		.uleb128 0xdc
 6302 0181 93220000 		.4byte	.LASF720
 6303 0185 00       		.byte	0
 6304              		.section	.debug_macro,"G",%progbits,wm4.projdefs.h.29.3472c8470d131a5f474bc7437ea94609,comdat
 6305              	.Ldebug_macro11:
 6306 0000 0400     		.2byte	0x4
 6307 0002 00       		.byte	0
 6308 0003 05       		.byte	0x5
 6309 0004 1D       		.uleb128 0x1d
 6310 0005 C3340000 		.4byte	.LASF721
 6311 0009 05       		.byte	0x5
ARM GAS  /tmp/cc5qDK7o.s 			page 136


 6312 000a 29       		.uleb128 0x29
 6313 000b EE300000 		.4byte	.LASF722
 6314 000f 05       		.byte	0x5
 6315 0010 2C       		.uleb128 0x2c
 6316 0011 164C0000 		.4byte	.LASF723
 6317 0015 05       		.byte	0x5
 6318 0016 2D       		.uleb128 0x2d
 6319 0017 224F0000 		.4byte	.LASF724
 6320 001b 05       		.byte	0x5
 6321 001c 2F       		.uleb128 0x2f
 6322 001d 2E330000 		.4byte	.LASF725
 6323 0021 05       		.byte	0x5
 6324 0022 30       		.uleb128 0x30
 6325 0023 1B800000 		.4byte	.LASF726
 6326 0027 05       		.byte	0x5
 6327 0028 31       		.uleb128 0x31
 6328 0029 87560000 		.4byte	.LASF727
 6329 002d 05       		.byte	0x5
 6330 002e 32       		.uleb128 0x32
 6331 002f 22110000 		.4byte	.LASF728
 6332 0033 05       		.byte	0x5
 6333 0034 35       		.uleb128 0x35
 6334 0035 52300000 		.4byte	.LASF729
 6335 0039 05       		.byte	0x5
 6336 003a 36       		.uleb128 0x36
 6337 003b F37F0000 		.4byte	.LASF730
 6338 003f 05       		.byte	0x5
 6339 0040 37       		.uleb128 0x37
 6340 0041 AB1C0000 		.4byte	.LASF731
 6341 0045 05       		.byte	0x5
 6342 0046 3B       		.uleb128 0x3b
 6343 0047 8F190000 		.4byte	.LASF732
 6344 004b 05       		.byte	0x5
 6345 004c 41       		.uleb128 0x41
 6346 004d E4440000 		.4byte	.LASF733
 6347 0051 05       		.byte	0x5
 6348 0052 46       		.uleb128 0x46
 6349 0053 536A0000 		.4byte	.LASF734
 6350 0057 05       		.byte	0x5
 6351 0058 47       		.uleb128 0x47
 6352 0059 69660000 		.4byte	.LASF735
 6353 005d 05       		.byte	0x5
 6354 005e 48       		.uleb128 0x48
 6355 005f EF430000 		.4byte	.LASF736
 6356 0063 05       		.byte	0x5
 6357 0064 49       		.uleb128 0x49
 6358 0065 9A5C0000 		.4byte	.LASF737
 6359 0069 05       		.byte	0x5
 6360 006a 4A       		.uleb128 0x4a
 6361 006b 3E3F0000 		.4byte	.LASF738
 6362 006f 05       		.byte	0x5
 6363 0070 4B       		.uleb128 0x4b
 6364 0071 84080000 		.4byte	.LASF739
 6365 0075 05       		.byte	0x5
 6366 0076 4C       		.uleb128 0x4c
 6367 0077 BC5B0000 		.4byte	.LASF740
 6368 007b 05       		.byte	0x5
ARM GAS  /tmp/cc5qDK7o.s 			page 137


 6369 007c 4D       		.uleb128 0x4d
 6370 007d 9B500000 		.4byte	.LASF741
 6371 0081 05       		.byte	0x5
 6372 0082 4E       		.uleb128 0x4e
 6373 0083 024D0000 		.4byte	.LASF742
 6374 0087 05       		.byte	0x5
 6375 0088 4F       		.uleb128 0x4f
 6376 0089 A07E0000 		.4byte	.LASF743
 6377 008d 05       		.byte	0x5
 6378 008e 50       		.uleb128 0x50
 6379 008f 85610000 		.4byte	.LASF744
 6380 0093 05       		.byte	0x5
 6381 0094 51       		.uleb128 0x51
 6382 0095 7D570000 		.4byte	.LASF745
 6383 0099 05       		.byte	0x5
 6384 009a 52       		.uleb128 0x52
 6385 009b BA4A0000 		.4byte	.LASF746
 6386 009f 05       		.byte	0x5
 6387 00a0 53       		.uleb128 0x53
 6388 00a1 6D560000 		.4byte	.LASF747
 6389 00a5 05       		.byte	0x5
 6390 00a6 54       		.uleb128 0x54
 6391 00a7 9B250000 		.4byte	.LASF748
 6392 00ab 05       		.byte	0x5
 6393 00ac 55       		.uleb128 0x55
 6394 00ad 093B0000 		.4byte	.LASF749
 6395 00b1 05       		.byte	0x5
 6396 00b2 56       		.uleb128 0x56
 6397 00b3 79000000 		.4byte	.LASF750
 6398 00b7 05       		.byte	0x5
 6399 00b8 57       		.uleb128 0x57
 6400 00b9 137E0000 		.4byte	.LASF751
 6401 00bd 05       		.byte	0x5
 6402 00be 58       		.uleb128 0x58
 6403 00bf E01A0000 		.4byte	.LASF752
 6404 00c3 05       		.byte	0x5
 6405 00c4 59       		.uleb128 0x59
 6406 00c5 58290000 		.4byte	.LASF753
 6407 00c9 05       		.byte	0x5
 6408 00ca 5A       		.uleb128 0x5a
 6409 00cb FA410000 		.4byte	.LASF754
 6410 00cf 05       		.byte	0x5
 6411 00d0 5B       		.uleb128 0x5b
 6412 00d1 610F0000 		.4byte	.LASF755
 6413 00d5 05       		.byte	0x5
 6414 00d6 5C       		.uleb128 0x5c
 6415 00d7 E0620000 		.4byte	.LASF756
 6416 00db 05       		.byte	0x5
 6417 00dc 5D       		.uleb128 0x5d
 6418 00dd 7E490000 		.4byte	.LASF757
 6419 00e1 05       		.byte	0x5
 6420 00e2 5E       		.uleb128 0x5e
 6421 00e3 54060000 		.4byte	.LASF758
 6422 00e7 05       		.byte	0x5
 6423 00e8 5F       		.uleb128 0x5f
 6424 00e9 827E0000 		.4byte	.LASF759
 6425 00ed 05       		.byte	0x5
ARM GAS  /tmp/cc5qDK7o.s 			page 138


 6426 00ee 60       		.uleb128 0x60
 6427 00ef 94200000 		.4byte	.LASF760
 6428 00f3 05       		.byte	0x5
 6429 00f4 61       		.uleb128 0x61
 6430 00f5 15170000 		.4byte	.LASF761
 6431 00f9 05       		.byte	0x5
 6432 00fa 62       		.uleb128 0x62
 6433 00fb 5C3D0000 		.4byte	.LASF762
 6434 00ff 05       		.byte	0x5
 6435 0100 63       		.uleb128 0x63
 6436 0101 88290000 		.4byte	.LASF763
 6437 0105 05       		.byte	0x5
 6438 0106 64       		.uleb128 0x64
 6439 0107 8B340000 		.4byte	.LASF764
 6440 010b 05       		.byte	0x5
 6441 010c 65       		.uleb128 0x65
 6442 010d E81B0000 		.4byte	.LASF765
 6443 0111 05       		.byte	0x5
 6444 0112 66       		.uleb128 0x66
 6445 0113 72220000 		.4byte	.LASF766
 6446 0117 05       		.byte	0x5
 6447 0118 67       		.uleb128 0x67
 6448 0119 23220000 		.4byte	.LASF767
 6449 011d 05       		.byte	0x5
 6450 011e 68       		.uleb128 0x68
 6451 011f 62480000 		.4byte	.LASF768
 6452 0123 05       		.byte	0x5
 6453 0124 69       		.uleb128 0x69
 6454 0125 01820000 		.4byte	.LASF769
 6455 0129 05       		.byte	0x5
 6456 012a 6A       		.uleb128 0x6a
 6457 012b 88130000 		.4byte	.LASF770
 6458 012f 05       		.byte	0x5
 6459 0130 6B       		.uleb128 0x6b
 6460 0131 19710000 		.4byte	.LASF771
 6461 0135 05       		.byte	0x5
 6462 0136 6C       		.uleb128 0x6c
 6463 0137 93800000 		.4byte	.LASF772
 6464 013b 05       		.byte	0x5
 6465 013c 6D       		.uleb128 0x6d
 6466 013d D6130000 		.4byte	.LASF773
 6467 0141 05       		.byte	0x5
 6468 0142 71       		.uleb128 0x71
 6469 0143 E5400000 		.4byte	.LASF774
 6470 0147 05       		.byte	0x5
 6471 0148 72       		.uleb128 0x72
 6472 0149 FE4B0000 		.4byte	.LASF775
 6473 014d 05       		.byte	0x5
 6474 014e 75       		.uleb128 0x75
 6475 014f 74750000 		.4byte	.LASF776
 6476 0153 05       		.byte	0x5
 6477 0154 76       		.uleb128 0x76
 6478 0155 B73B0000 		.4byte	.LASF777
 6479 0159 00       		.byte	0
 6480              		.section	.debug_macro,"G",%progbits,wm4.portmacro.h.30.110a3580e768a63cdd084aa29b33cb01,comdat
 6481              	.Ldebug_macro12:
 6482 0000 0400     		.2byte	0x4
ARM GAS  /tmp/cc5qDK7o.s 			page 139


 6483 0002 00       		.byte	0
 6484 0003 05       		.byte	0x5
 6485 0004 1E       		.uleb128 0x1e
 6486 0005 E6700000 		.4byte	.LASF780
 6487 0009 05       		.byte	0x5
 6488 000a 2F       		.uleb128 0x2f
 6489 000b 38150000 		.4byte	.LASF781
 6490 000f 05       		.byte	0x5
 6491 0010 30       		.uleb128 0x30
 6492 0011 276D0000 		.4byte	.LASF782
 6493 0015 05       		.byte	0x5
 6494 0016 31       		.uleb128 0x31
 6495 0017 12300000 		.4byte	.LASF783
 6496 001b 05       		.byte	0x5
 6497 001c 32       		.uleb128 0x32
 6498 001d F5680000 		.4byte	.LASF784
 6499 0021 05       		.byte	0x5
 6500 0022 33       		.uleb128 0x33
 6501 0023 7F1F0000 		.4byte	.LASF785
 6502 0027 05       		.byte	0x5
 6503 0028 34       		.uleb128 0x34
 6504 0029 2A380000 		.4byte	.LASF786
 6505 002d 05       		.byte	0x5
 6506 002e 35       		.uleb128 0x35
 6507 002f 5F600000 		.4byte	.LASF787
 6508 0033 05       		.byte	0x5
 6509 0034 40       		.uleb128 0x40
 6510 0035 585F0000 		.4byte	.LASF788
 6511 0039 05       		.byte	0x5
 6512 003a 44       		.uleb128 0x44
 6513 003b EF2A0000 		.4byte	.LASF789
 6514 003f 05       		.byte	0x5
 6515 0040 49       		.uleb128 0x49
 6516 0041 D54A0000 		.4byte	.LASF790
 6517 0045 05       		.byte	0x5
 6518 0046 4A       		.uleb128 0x4a
 6519 0047 09450000 		.4byte	.LASF791
 6520 004b 05       		.byte	0x5
 6521 004c 4B       		.uleb128 0x4b
 6522 004d 62550000 		.4byte	.LASF792
 6523 0051 05       		.byte	0x5
 6524 0052 4F       		.uleb128 0x4f
 6525 0053 65180000 		.4byte	.LASF793
 6526 0057 05       		.byte	0x5
 6527 0058 5A       		.uleb128 0x5a
 6528 0059 0A480000 		.4byte	.LASF794
 6529 005d 05       		.byte	0x5
 6530 005e 5B       		.uleb128 0x5b
 6531 005f 73350000 		.4byte	.LASF795
 6532 0063 05       		.byte	0x5
 6533 0064 5C       		.uleb128 0x5c
 6534 0065 FE540000 		.4byte	.LASF796
 6535 0069 05       		.byte	0x5
 6536 006a 5D       		.uleb128 0x5d
 6537 006b CA7B0000 		.4byte	.LASF797
 6538 006f 05       		.byte	0x5
 6539 0070 63       		.uleb128 0x63
ARM GAS  /tmp/cc5qDK7o.s 			page 140


 6540 0071 CB030000 		.4byte	.LASF798
 6541 0075 05       		.byte	0x5
 6542 0076 64       		.uleb128 0x64
 6543 0077 780E0000 		.4byte	.LASF799
 6544 007b 05       		.byte	0x5
 6545 007c 65       		.uleb128 0x65
 6546 007d 48670000 		.4byte	.LASF800
 6547 0081 05       		.byte	0x5
 6548 0082 66       		.uleb128 0x66
 6549 0083 E7640000 		.4byte	.LASF801
 6550 0087 05       		.byte	0x5
 6551 0088 67       		.uleb128 0x67
 6552 0089 00380000 		.4byte	.LASF802
 6553 008d 05       		.byte	0x5
 6554 008e 68       		.uleb128 0x68
 6555 008f ED4A0000 		.4byte	.LASF803
 6556 0093 05       		.byte	0x5
 6557 0094 6F       		.uleb128 0x6f
 6558 0095 066E0000 		.4byte	.LASF804
 6559 0099 05       		.byte	0x5
 6560 009a 70       		.uleb128 0x70
 6561 009b B1330000 		.4byte	.LASF805
 6562 009f 05       		.byte	0x5
 6563 00a0 76       		.uleb128 0x76
 6564 00a1 04360000 		.4byte	.LASF806
 6565 00a5 05       		.byte	0x5
 6566 00a6 9D01     		.uleb128 0x9d
 6567 00a8 793D0000 		.4byte	.LASF807
 6568 00ac 05       		.byte	0x5
 6569 00ad A101     		.uleb128 0xa1
 6570 00af BC770000 		.4byte	.LASF808
 6571 00b3 05       		.byte	0x5
 6572 00b4 A301     		.uleb128 0xa3
 6573 00b6 E1760000 		.4byte	.LASF809
 6574 00ba 05       		.byte	0x5
 6575 00bb A601     		.uleb128 0xa6
 6576 00bd 49450000 		.4byte	.LASF810
 6577 00c1 00       		.byte	0
 6578              		.section	.debug_macro,"G",%progbits,wm4.portable.h.64.00b423ba030e23bed354b037664af7a6,comdat
 6579              	.Ldebug_macro13:
 6580 0000 0400     		.2byte	0x4
 6581 0002 00       		.byte	0
 6582 0003 05       		.byte	0x5
 6583 0004 40       		.uleb128 0x40
 6584 0005 DB780000 		.4byte	.LASF811
 6585 0009 05       		.byte	0x5
 6586 000a 54       		.uleb128 0x54
 6587 000b D47F0000 		.4byte	.LASF812
 6588 000f 00       		.byte	0
 6589              		.section	.debug_macro,"G",%progbits,wm4.mpu_wrappers.h.29.89d425470b0b1ff39fbd61026b3dc073,comdat
 6590              	.Ldebug_macro14:
 6591 0000 0400     		.2byte	0x4
 6592 0002 00       		.byte	0
 6593 0003 05       		.byte	0x5
 6594 0004 1D       		.uleb128 0x1d
 6595 0005 85040000 		.4byte	.LASF813
 6596 0009 05       		.byte	0x5
ARM GAS  /tmp/cc5qDK7o.s 			page 141


 6597 000a AD01     		.uleb128 0xad
 6598 000c FB0C0000 		.4byte	.LASF814
 6599 0010 05       		.byte	0x5
 6600 0011 AE01     		.uleb128 0xae
 6601 0013 D71B0000 		.4byte	.LASF815
 6602 0017 05       		.byte	0x5
 6603 0018 AF01     		.uleb128 0xaf
 6604 001a 43080000 		.4byte	.LASF816
 6605 001e 00       		.byte	0
 6606              		.section	.debug_macro,"G",%progbits,wm4.FreeRTOS.h.66.65006175992b5832ef563358bda14c3e,comdat
 6607              	.Ldebug_macro15:
 6608 0000 0400     		.2byte	0x4
 6609 0002 00       		.byte	0
 6610 0003 05       		.byte	0x5
 6611 0004 42       		.uleb128 0x42
 6612 0005 78580000 		.4byte	.LASF817
 6613 0009 05       		.byte	0x5
 6614 000a 8801     		.uleb128 0x88
 6615 000c A82C0000 		.4byte	.LASF818
 6616 0010 05       		.byte	0x5
 6617 0011 8C01     		.uleb128 0x8c
 6618 0013 2B3E0000 		.4byte	.LASF819
 6619 0017 05       		.byte	0x5
 6620 0018 9001     		.uleb128 0x90
 6621 001a 40370000 		.4byte	.LASF820
 6622 001e 05       		.byte	0x5
 6623 001f 9401     		.uleb128 0x94
 6624 0021 322D0000 		.4byte	.LASF821
 6625 0025 05       		.byte	0x5
 6626 0026 9801     		.uleb128 0x98
 6627 0028 2A7B0000 		.4byte	.LASF822
 6628 002c 05       		.byte	0x5
 6629 002d 9C01     		.uleb128 0x9c
 6630 002f B6250000 		.4byte	.LASF823
 6631 0033 05       		.byte	0x5
 6632 0034 A401     		.uleb128 0xa4
 6633 0036 D3140000 		.4byte	.LASF824
 6634 003a 05       		.byte	0x5
 6635 003b AC01     		.uleb128 0xac
 6636 003d 210F0000 		.4byte	.LASF825
 6637 0041 05       		.byte	0x5
 6638 0042 B001     		.uleb128 0xb0
 6639 0044 0E5A0000 		.4byte	.LASF826
 6640 0048 05       		.byte	0x5
 6641 0049 BA01     		.uleb128 0xba
 6642 004b 91270000 		.4byte	.LASF827
 6643 004f 05       		.byte	0x5
 6644 0050 C201     		.uleb128 0xc2
 6645 0052 91170000 		.4byte	.LASF828
 6646 0056 05       		.byte	0x5
 6647 0057 D601     		.uleb128 0xd6
 6648 0059 48230000 		.4byte	.LASF829
 6649 005d 05       		.byte	0x5
 6650 005e DA01     		.uleb128 0xda
 6651 0060 2E5E0000 		.4byte	.LASF830
 6652 0064 05       		.byte	0x5
 6653 0065 ED01     		.uleb128 0xed
ARM GAS  /tmp/cc5qDK7o.s 			page 142


 6654 0067 A9410000 		.4byte	.LASF831
 6655 006b 05       		.byte	0x5
 6656 006c 8A02     		.uleb128 0x10a
 6657 006e 1F1D0000 		.4byte	.LASF832
 6658 0072 05       		.byte	0x5
 6659 0073 8E02     		.uleb128 0x10e
 6660 0075 C7230000 		.4byte	.LASF833
 6661 0079 05       		.byte	0x5
 6662 007a 9202     		.uleb128 0x112
 6663 007c 540E0000 		.4byte	.LASF834
 6664 0080 05       		.byte	0x5
 6665 0081 9A02     		.uleb128 0x11a
 6666 0083 83710000 		.4byte	.LASF835
 6667 0087 05       		.byte	0x5
 6668 0088 9B02     		.uleb128 0x11b
 6669 008a BB170000 		.4byte	.LASF836
 6670 008e 05       		.byte	0x5
 6671 008f 9C02     		.uleb128 0x11c
 6672 0091 1C530000 		.4byte	.LASF837
 6673 0095 05       		.byte	0x5
 6674 0096 A002     		.uleb128 0x120
 6675 0098 59730000 		.4byte	.LASF838
 6676 009c 05       		.byte	0x5
 6677 009d A702     		.uleb128 0x127
 6678 009f C6080000 		.4byte	.LASF839
 6679 00a3 05       		.byte	0x5
 6680 00a4 AD02     		.uleb128 0x12d
 6681 00a6 77270000 		.4byte	.LASF840
 6682 00aa 05       		.byte	0x5
 6683 00ab B302     		.uleb128 0x133
 6684 00ad 2A010000 		.4byte	.LASF841
 6685 00b1 05       		.byte	0x5
 6686 00b2 B902     		.uleb128 0x139
 6687 00b4 35100000 		.4byte	.LASF842
 6688 00b8 05       		.byte	0x5
 6689 00b9 BE02     		.uleb128 0x13e
 6690 00bb 614B0000 		.4byte	.LASF843
 6691 00bf 05       		.byte	0x5
 6692 00c0 C302     		.uleb128 0x143
 6693 00c2 53040000 		.4byte	.LASF844
 6694 00c6 05       		.byte	0x5
 6695 00c7 C902     		.uleb128 0x149
 6696 00c9 DF290000 		.4byte	.LASF845
 6697 00cd 05       		.byte	0x5
 6698 00ce D202     		.uleb128 0x152
 6699 00d0 100D0000 		.4byte	.LASF846
 6700 00d4 05       		.byte	0x5
 6701 00d5 DA02     		.uleb128 0x15a
 6702 00d7 B9210000 		.4byte	.LASF847
 6703 00db 05       		.byte	0x5
 6704 00dc E202     		.uleb128 0x162
 6705 00de A5530000 		.4byte	.LASF848
 6706 00e2 05       		.byte	0x5
 6707 00e3 EA02     		.uleb128 0x16a
 6708 00e5 101B0000 		.4byte	.LASF849
 6709 00e9 05       		.byte	0x5
 6710 00ea F202     		.uleb128 0x172
ARM GAS  /tmp/cc5qDK7o.s 			page 143


 6711 00ec A6730000 		.4byte	.LASF850
 6712 00f0 05       		.byte	0x5
 6713 00f1 FA02     		.uleb128 0x17a
 6714 00f3 23290000 		.4byte	.LASF851
 6715 00f7 05       		.byte	0x5
 6716 00f8 FE02     		.uleb128 0x17e
 6717 00fa 17080000 		.4byte	.LASF852
 6718 00fe 05       		.byte	0x5
 6719 00ff 8403     		.uleb128 0x184
 6720 0101 56570000 		.4byte	.LASF853
 6721 0105 05       		.byte	0x5
 6722 0106 8803     		.uleb128 0x188
 6723 0108 616C0000 		.4byte	.LASF854
 6724 010c 05       		.byte	0x5
 6725 010d 8C03     		.uleb128 0x18c
 6726 010f 80720000 		.4byte	.LASF855
 6727 0113 05       		.byte	0x5
 6728 0114 9003     		.uleb128 0x190
 6729 0116 D7540000 		.4byte	.LASF856
 6730 011a 05       		.byte	0x5
 6731 011b 9403     		.uleb128 0x194
 6732 011d CD630000 		.4byte	.LASF857
 6733 0121 05       		.byte	0x5
 6734 0122 9803     		.uleb128 0x198
 6735 0124 820A0000 		.4byte	.LASF858
 6736 0128 05       		.byte	0x5
 6737 0129 9C03     		.uleb128 0x19c
 6738 012b FF210000 		.4byte	.LASF859
 6739 012f 05       		.byte	0x5
 6740 0130 A003     		.uleb128 0x1a0
 6741 0132 BB500000 		.4byte	.LASF860
 6742 0136 05       		.byte	0x5
 6743 0137 A403     		.uleb128 0x1a4
 6744 0139 9A6D0000 		.4byte	.LASF861
 6745 013d 05       		.byte	0x5
 6746 013e A803     		.uleb128 0x1a8
 6747 0140 A5680000 		.4byte	.LASF862
 6748 0144 05       		.byte	0x5
 6749 0145 AC03     		.uleb128 0x1ac
 6750 0147 5C200000 		.4byte	.LASF863
 6751 014b 05       		.byte	0x5
 6752 014c B003     		.uleb128 0x1b0
 6753 014e 8A390000 		.4byte	.LASF864
 6754 0152 05       		.byte	0x5
 6755 0153 B403     		.uleb128 0x1b4
 6756 0155 170C0000 		.4byte	.LASF865
 6757 0159 05       		.byte	0x5
 6758 015a B803     		.uleb128 0x1b8
 6759 015c DC750000 		.4byte	.LASF866
 6760 0160 05       		.byte	0x5
 6761 0161 BC03     		.uleb128 0x1bc
 6762 0163 3C730000 		.4byte	.LASF867
 6763 0167 05       		.byte	0x5
 6764 0168 C003     		.uleb128 0x1c0
 6765 016a EC6D0000 		.4byte	.LASF868
 6766 016e 05       		.byte	0x5
 6767 016f C403     		.uleb128 0x1c4
ARM GAS  /tmp/cc5qDK7o.s 			page 144


 6768 0171 B6460000 		.4byte	.LASF869
 6769 0175 05       		.byte	0x5
 6770 0176 C803     		.uleb128 0x1c8
 6771 0178 5D720000 		.4byte	.LASF870
 6772 017c 05       		.byte	0x5
 6773 017d CC03     		.uleb128 0x1cc
 6774 017f 4A7F0000 		.4byte	.LASF871
 6775 0183 05       		.byte	0x5
 6776 0184 D003     		.uleb128 0x1d0
 6777 0186 FD6A0000 		.4byte	.LASF872
 6778 018a 05       		.byte	0x5
 6779 018b D403     		.uleb128 0x1d4
 6780 018d AF820000 		.4byte	.LASF873
 6781 0191 05       		.byte	0x5
 6782 0192 D803     		.uleb128 0x1d8
 6783 0194 5E530000 		.4byte	.LASF874
 6784 0198 05       		.byte	0x5
 6785 0199 DC03     		.uleb128 0x1dc
 6786 019b D3480000 		.4byte	.LASF875
 6787 019f 05       		.byte	0x5
 6788 01a0 E003     		.uleb128 0x1e0
 6789 01a2 EA830000 		.4byte	.LASF876
 6790 01a6 05       		.byte	0x5
 6791 01a7 E403     		.uleb128 0x1e4
 6792 01a9 C5390000 		.4byte	.LASF877
 6793 01ad 05       		.byte	0x5
 6794 01ae E803     		.uleb128 0x1e8
 6795 01b0 97570000 		.4byte	.LASF878
 6796 01b4 05       		.byte	0x5
 6797 01b5 EC03     		.uleb128 0x1ec
 6798 01b7 65540000 		.4byte	.LASF879
 6799 01bb 05       		.byte	0x5
 6800 01bc F003     		.uleb128 0x1f0
 6801 01be A51F0000 		.4byte	.LASF880
 6802 01c2 05       		.byte	0x5
 6803 01c3 F403     		.uleb128 0x1f4
 6804 01c5 8C1B0000 		.4byte	.LASF881
 6805 01c9 05       		.byte	0x5
 6806 01ca F803     		.uleb128 0x1f8
 6807 01cc 5B5B0000 		.4byte	.LASF882
 6808 01d0 05       		.byte	0x5
 6809 01d1 FC03     		.uleb128 0x1fc
 6810 01d3 576D0000 		.4byte	.LASF883
 6811 01d7 05       		.byte	0x5
 6812 01d8 8004     		.uleb128 0x200
 6813 01da 591D0000 		.4byte	.LASF884
 6814 01de 05       		.byte	0x5
 6815 01df 8404     		.uleb128 0x204
 6816 01e1 852D0000 		.4byte	.LASF885
 6817 01e5 05       		.byte	0x5
 6818 01e6 8804     		.uleb128 0x208
 6819 01e8 CE530000 		.4byte	.LASF886
 6820 01ec 05       		.byte	0x5
 6821 01ed 8C04     		.uleb128 0x20c
 6822 01ef B00E0000 		.4byte	.LASF887
 6823 01f3 05       		.byte	0x5
 6824 01f4 9004     		.uleb128 0x210
ARM GAS  /tmp/cc5qDK7o.s 			page 145


 6825 01f6 361B0000 		.4byte	.LASF888
 6826 01fa 05       		.byte	0x5
 6827 01fb 9404     		.uleb128 0x214
 6828 01fd 18580000 		.4byte	.LASF889
 6829 0201 05       		.byte	0x5
 6830 0202 9804     		.uleb128 0x218
 6831 0204 AF520000 		.4byte	.LASF890
 6832 0208 05       		.byte	0x5
 6833 0209 9C04     		.uleb128 0x21c
 6834 020b FD0F0000 		.4byte	.LASF891
 6835 020f 05       		.byte	0x5
 6836 0210 A004     		.uleb128 0x220
 6837 0212 C25E0000 		.4byte	.LASF892
 6838 0216 05       		.byte	0x5
 6839 0217 A404     		.uleb128 0x224
 6840 0219 83010000 		.4byte	.LASF893
 6841 021d 05       		.byte	0x5
 6842 021e A804     		.uleb128 0x228
 6843 0220 7A6E0000 		.4byte	.LASF894
 6844 0224 05       		.byte	0x5
 6845 0225 AC04     		.uleb128 0x22c
 6846 0227 F3700000 		.4byte	.LASF895
 6847 022b 05       		.byte	0x5
 6848 022c B004     		.uleb128 0x230
 6849 022e F7240000 		.4byte	.LASF896
 6850 0232 05       		.byte	0x5
 6851 0233 B404     		.uleb128 0x234
 6852 0235 4C5E0000 		.4byte	.LASF897
 6853 0239 05       		.byte	0x5
 6854 023a B804     		.uleb128 0x238
 6855 023c 327D0000 		.4byte	.LASF898
 6856 0240 05       		.byte	0x5
 6857 0241 BC04     		.uleb128 0x23c
 6858 0243 5B0C0000 		.4byte	.LASF899
 6859 0247 05       		.byte	0x5
 6860 0248 C004     		.uleb128 0x240
 6861 024a E0770000 		.4byte	.LASF900
 6862 024e 05       		.byte	0x5
 6863 024f C404     		.uleb128 0x244
 6864 0251 DB3C0000 		.4byte	.LASF901
 6865 0255 05       		.byte	0x5
 6866 0256 C804     		.uleb128 0x248
 6867 0258 0F090000 		.4byte	.LASF902
 6868 025c 05       		.byte	0x5
 6869 025d CC04     		.uleb128 0x24c
 6870 025f A07F0000 		.4byte	.LASF903
 6871 0263 05       		.byte	0x5
 6872 0264 D004     		.uleb128 0x250
 6873 0266 345C0000 		.4byte	.LASF904
 6874 026a 05       		.byte	0x5
 6875 026b D404     		.uleb128 0x254
 6876 026d 3C1C0000 		.4byte	.LASF905
 6877 0271 05       		.byte	0x5
 6878 0272 D804     		.uleb128 0x258
 6879 0274 2F350000 		.4byte	.LASF906
 6880 0278 05       		.byte	0x5
 6881 0279 DC04     		.uleb128 0x25c
ARM GAS  /tmp/cc5qDK7o.s 			page 146


 6882 027b 40630000 		.4byte	.LASF907
 6883 027f 05       		.byte	0x5
 6884 0280 E004     		.uleb128 0x260
 6885 0282 575A0000 		.4byte	.LASF908
 6886 0286 05       		.byte	0x5
 6887 0287 E404     		.uleb128 0x264
 6888 0289 FE780000 		.4byte	.LASF909
 6889 028d 05       		.byte	0x5
 6890 028e E804     		.uleb128 0x268
 6891 0290 C4790000 		.4byte	.LASF910
 6892 0294 05       		.byte	0x5
 6893 0295 EC04     		.uleb128 0x26c
 6894 0297 7C020000 		.4byte	.LASF911
 6895 029b 05       		.byte	0x5
 6896 029c F004     		.uleb128 0x270
 6897 029e 48020000 		.4byte	.LASF912
 6898 02a2 05       		.byte	0x5
 6899 02a3 F404     		.uleb128 0x274
 6900 02a5 0B600000 		.4byte	.LASF913
 6901 02a9 05       		.byte	0x5
 6902 02aa F804     		.uleb128 0x278
 6903 02ac F27A0000 		.4byte	.LASF914
 6904 02b0 05       		.byte	0x5
 6905 02b1 FC04     		.uleb128 0x27c
 6906 02b3 3F7A0000 		.4byte	.LASF915
 6907 02b7 05       		.byte	0x5
 6908 02b8 8005     		.uleb128 0x280
 6909 02ba 820D0000 		.4byte	.LASF916
 6910 02be 05       		.byte	0x5
 6911 02bf 8405     		.uleb128 0x284
 6912 02c1 A0610000 		.4byte	.LASF917
 6913 02c5 05       		.byte	0x5
 6914 02c6 8805     		.uleb128 0x288
 6915 02c8 69680000 		.4byte	.LASF918
 6916 02cc 05       		.byte	0x5
 6917 02cd 8C05     		.uleb128 0x28c
 6918 02cf E82F0000 		.4byte	.LASF919
 6919 02d3 05       		.byte	0x5
 6920 02d4 9005     		.uleb128 0x290
 6921 02d6 17560000 		.4byte	.LASF920
 6922 02da 05       		.byte	0x5
 6923 02db 9405     		.uleb128 0x294
 6924 02dd CD190000 		.4byte	.LASF921
 6925 02e1 05       		.byte	0x5
 6926 02e2 9805     		.uleb128 0x298
 6927 02e4 B20C0000 		.4byte	.LASF922
 6928 02e8 05       		.byte	0x5
 6929 02e9 9C05     		.uleb128 0x29c
 6930 02eb 53330000 		.4byte	.LASF923
 6931 02ef 05       		.byte	0x5
 6932 02f0 A005     		.uleb128 0x2a0
 6933 02f2 63770000 		.4byte	.LASF924
 6934 02f6 05       		.byte	0x5
 6935 02f7 A405     		.uleb128 0x2a4
 6936 02f9 EF220000 		.4byte	.LASF925
 6937 02fd 05       		.byte	0x5
 6938 02fe A805     		.uleb128 0x2a8
ARM GAS  /tmp/cc5qDK7o.s 			page 147


 6939 0300 D4080000 		.4byte	.LASF926
 6940 0304 05       		.byte	0x5
 6941 0305 AC05     		.uleb128 0x2ac
 6942 0307 D20D0000 		.4byte	.LASF927
 6943 030b 05       		.byte	0x5
 6944 030c B005     		.uleb128 0x2b0
 6945 030e 79310000 		.4byte	.LASF928
 6946 0312 05       		.byte	0x5
 6947 0313 CE05     		.uleb128 0x2ce
 6948 0315 CC730000 		.4byte	.LASF929
 6949 0319 05       		.byte	0x5
 6950 031a D205     		.uleb128 0x2d2
 6951 031c 45110000 		.4byte	.LASF930
 6952 0320 05       		.byte	0x5
 6953 0321 DA05     		.uleb128 0x2da
 6954 0323 75670000 		.4byte	.LASF931
 6955 0327 05       		.byte	0x5
 6956 0328 E605     		.uleb128 0x2e6
 6957 032a 0D660000 		.4byte	.LASF932
 6958 032e 05       		.byte	0x5
 6959 032f EA05     		.uleb128 0x2ea
 6960 0331 371F0000 		.4byte	.LASF933
 6961 0335 05       		.byte	0x5
 6962 0336 EE05     		.uleb128 0x2ee
 6963 0338 7D4F0000 		.4byte	.LASF934
 6964 033c 05       		.byte	0x5
 6965 033d F605     		.uleb128 0x2f6
 6966 033f 00680000 		.4byte	.LASF935
 6967 0343 05       		.byte	0x5
 6968 0344 FA05     		.uleb128 0x2fa
 6969 0346 19250000 		.4byte	.LASF936
 6970 034a 05       		.byte	0x5
 6971 034b FE05     		.uleb128 0x2fe
 6972 034d C42D0000 		.4byte	.LASF937
 6973 0351 05       		.byte	0x5
 6974 0352 8206     		.uleb128 0x302
 6975 0354 A07D0000 		.4byte	.LASF938
 6976 0358 05       		.byte	0x5
 6977 0359 9206     		.uleb128 0x312
 6978 035b 0F130000 		.4byte	.LASF939
 6979 035f 05       		.byte	0x5
 6980 0360 9606     		.uleb128 0x316
 6981 0362 EA310000 		.4byte	.LASF940
 6982 0366 05       		.byte	0x5
 6983 0367 9A06     		.uleb128 0x31a
 6984 0369 53500000 		.4byte	.LASF941
 6985 036d 05       		.byte	0x5
 6986 036e A206     		.uleb128 0x322
 6987 0370 42380000 		.4byte	.LASF942
 6988 0374 05       		.byte	0x5
 6989 0375 A606     		.uleb128 0x326
 6990 0377 5B6E0000 		.4byte	.LASF943
 6991 037b 05       		.byte	0x5
 6992 037c B406     		.uleb128 0x334
 6993 037e 30600000 		.4byte	.LASF944
 6994 0382 05       		.byte	0x5
 6995 0383 BA06     		.uleb128 0x33a
ARM GAS  /tmp/cc5qDK7o.s 			page 148


 6996 0385 77370000 		.4byte	.LASF945
 6997 0389 05       		.byte	0x5
 6998 038a CD06     		.uleb128 0x34d
 6999 038c 4E680000 		.4byte	.LASF946
 7000 0390 05       		.byte	0x5
 7001 0391 DB06     		.uleb128 0x35b
 7002 0393 82230000 		.4byte	.LASF947
 7003 0397 05       		.byte	0x5
 7004 0398 DC06     		.uleb128 0x35c
 7005 039a A9100000 		.4byte	.LASF948
 7006 039e 05       		.byte	0x5
 7007 039f DD06     		.uleb128 0x35d
 7008 03a1 43010000 		.4byte	.LASF949
 7009 03a5 05       		.byte	0x5
 7010 03a6 DE06     		.uleb128 0x35e
 7011 03a8 68280000 		.4byte	.LASF950
 7012 03ac 05       		.byte	0x5
 7013 03ad E406     		.uleb128 0x364
 7014 03af A5030000 		.4byte	.LASF951
 7015 03b3 05       		.byte	0x5
 7016 03b4 F206     		.uleb128 0x372
 7017 03b6 0D830000 		.4byte	.LASF952
 7018 03ba 05       		.byte	0x5
 7019 03bb F806     		.uleb128 0x378
 7020 03bd 2E800000 		.4byte	.LASF953
 7021 03c1 05       		.byte	0x5
 7022 03c2 FE06     		.uleb128 0x37e
 7023 03c4 30210000 		.4byte	.LASF954
 7024 03c8 05       		.byte	0x5
 7025 03c9 8207     		.uleb128 0x382
 7026 03cb 5F190000 		.4byte	.LASF955
 7027 03cf 05       		.byte	0x5
 7028 03d0 8307     		.uleb128 0x383
 7029 03d2 F7120000 		.4byte	.LASF956
 7030 03d6 05       		.byte	0x5
 7031 03d7 8407     		.uleb128 0x384
 7032 03d9 40560000 		.4byte	.LASF957
 7033 03dd 05       		.byte	0x5
 7034 03de 8507     		.uleb128 0x385
 7035 03e0 4C420000 		.4byte	.LASF958
 7036 03e4 05       		.byte	0x5
 7037 03e5 8607     		.uleb128 0x386
 7038 03e7 3E4B0000 		.4byte	.LASF959
 7039 03eb 05       		.byte	0x5
 7040 03ec 8707     		.uleb128 0x387
 7041 03ee 834C0000 		.4byte	.LASF960
 7042 03f2 05       		.byte	0x5
 7043 03f3 8807     		.uleb128 0x388
 7044 03f5 E75A0000 		.4byte	.LASF961
 7045 03f9 05       		.byte	0x5
 7046 03fa 8907     		.uleb128 0x389
 7047 03fc AD1E0000 		.4byte	.LASF962
 7048 0400 05       		.byte	0x5
 7049 0401 8A07     		.uleb128 0x38a
 7050 0403 14260000 		.4byte	.LASF963
 7051 0407 05       		.byte	0x5
 7052 0408 8B07     		.uleb128 0x38b
ARM GAS  /tmp/cc5qDK7o.s 			page 149


 7053 040a D1800000 		.4byte	.LASF964
 7054 040e 05       		.byte	0x5
 7055 040f 8C07     		.uleb128 0x38c
 7056 0411 016D0000 		.4byte	.LASF965
 7057 0415 05       		.byte	0x5
 7058 0416 8D07     		.uleb128 0x38d
 7059 0418 1A100000 		.4byte	.LASF966
 7060 041c 05       		.byte	0x5
 7061 041d 8E07     		.uleb128 0x38e
 7062 041f DA2C0000 		.4byte	.LASF967
 7063 0423 05       		.byte	0x5
 7064 0424 8F07     		.uleb128 0x38f
 7065 0426 041E0000 		.4byte	.LASF968
 7066 042a 05       		.byte	0x5
 7067 042b 9007     		.uleb128 0x390
 7068 042d 28420000 		.4byte	.LASF969
 7069 0431 05       		.byte	0x5
 7070 0432 9107     		.uleb128 0x391
 7071 0434 35400000 		.4byte	.LASF970
 7072 0438 05       		.byte	0x5
 7073 0439 9207     		.uleb128 0x392
 7074 043b E61C0000 		.4byte	.LASF971
 7075 043f 05       		.byte	0x5
 7076 0440 9307     		.uleb128 0x393
 7077 0442 E96B0000 		.4byte	.LASF972
 7078 0446 05       		.byte	0x5
 7079 0447 9407     		.uleb128 0x394
 7080 0449 302F0000 		.4byte	.LASF973
 7081 044d 05       		.byte	0x5
 7082 044e 9807     		.uleb128 0x398
 7083 0450 AB240000 		.4byte	.LASF974
 7084 0454 05       		.byte	0x5
 7085 0455 9907     		.uleb128 0x399
 7086 0457 83660000 		.4byte	.LASF975
 7087 045b 05       		.byte	0x5
 7088 045c 9A07     		.uleb128 0x39a
 7089 045e B2230000 		.4byte	.LASF976
 7090 0462 05       		.byte	0x5
 7091 0463 9B07     		.uleb128 0x39b
 7092 0465 33160000 		.4byte	.LASF977
 7093 0469 05       		.byte	0x5
 7094 046a A707     		.uleb128 0x3a7
 7095 046c 5C000000 		.4byte	.LASF978
 7096 0470 00       		.byte	0
 7097              		.section	.debug_macro,"G",%progbits,wm4.list.h.61.bafeaa82806d71ae8917c6d7827fc3d2,comdat
 7098              	.Ldebug_macro16:
 7099 0000 0400     		.2byte	0x4
 7100 0002 00       		.byte	0
 7101 0003 05       		.byte	0x5
 7102 0004 3D       		.uleb128 0x3d
 7103 0005 7F0B0000 		.4byte	.LASF980
 7104 0009 05       		.byte	0x5
 7105 000a 5C       		.uleb128 0x5c
 7106 000b D4070000 		.4byte	.LASF981
 7107 000f 05       		.byte	0x5
 7108 0010 6A       		.uleb128 0x6a
 7109 0011 071C0000 		.4byte	.LASF982
ARM GAS  /tmp/cc5qDK7o.s 			page 150


 7110 0015 05       		.byte	0x5
 7111 0016 6B       		.uleb128 0x6b
 7112 0017 1F620000 		.4byte	.LASF983
 7113 001b 05       		.byte	0x5
 7114 001c 6C       		.uleb128 0x6c
 7115 001d 3C5D0000 		.4byte	.LASF984
 7116 0021 05       		.byte	0x5
 7117 0022 6D       		.uleb128 0x6d
 7118 0023 FF3F0000 		.4byte	.LASF985
 7119 0027 05       		.byte	0x5
 7120 0028 6E       		.uleb128 0x6e
 7121 0029 38710000 		.4byte	.LASF986
 7122 002d 05       		.byte	0x5
 7123 002e 6F       		.uleb128 0x6f
 7124 002f A3470000 		.4byte	.LASF987
 7125 0033 05       		.byte	0x5
 7126 0034 70       		.uleb128 0x70
 7127 0035 D1050000 		.4byte	.LASF988
 7128 0039 05       		.byte	0x5
 7129 003a 71       		.uleb128 0x71
 7130 003b AB560000 		.4byte	.LASF989
 7131 003f 05       		.byte	0x5
 7132 0040 72       		.uleb128 0x72
 7133 0041 D76A0000 		.4byte	.LASF990
 7134 0045 05       		.byte	0x5
 7135 0046 73       		.uleb128 0x73
 7136 0047 B9280000 		.4byte	.LASF991
 7137 004b 05       		.byte	0x5
 7138 004c B301     		.uleb128 0xb3
 7139 004e D21F0000 		.4byte	.LASF992
 7140 0052 05       		.byte	0x5
 7141 0053 BC01     		.uleb128 0xbc
 7142 0055 7D760000 		.4byte	.LASF993
 7143 0059 05       		.byte	0x5
 7144 005a C501     		.uleb128 0xc5
 7145 005c 982A0000 		.4byte	.LASF994
 7146 0060 05       		.byte	0x5
 7147 0061 CF01     		.uleb128 0xcf
 7148 0063 01810000 		.4byte	.LASF995
 7149 0067 05       		.byte	0x5
 7150 0068 D801     		.uleb128 0xd8
 7151 006a 421E0000 		.4byte	.LASF996
 7152 006e 05       		.byte	0x5
 7153 006f E001     		.uleb128 0xe0
 7154 0071 B8040000 		.4byte	.LASF997
 7155 0075 05       		.byte	0x5
 7156 0076 E801     		.uleb128 0xe8
 7157 0078 D9820000 		.4byte	.LASF998
 7158 007c 05       		.byte	0x5
 7159 007d F001     		.uleb128 0xf0
 7160 007f 79090000 		.4byte	.LASF999
 7161 0083 05       		.byte	0x5
 7162 0084 F901     		.uleb128 0xf9
 7163 0086 842E0000 		.4byte	.LASF1000
 7164 008a 05       		.byte	0x5
 7165 008b FE01     		.uleb128 0xfe
 7166 008d 8D630000 		.4byte	.LASF1001
ARM GAS  /tmp/cc5qDK7o.s 			page 151


 7167 0091 05       		.byte	0x5
 7168 0092 9402     		.uleb128 0x114
 7169 0094 116F0000 		.4byte	.LASF1002
 7170 0098 05       		.byte	0x5
 7171 0099 B202     		.uleb128 0x132
 7172 009b DF600000 		.4byte	.LASF1003
 7173 009f 05       		.byte	0x5
 7174 00a0 BD02     		.uleb128 0x13d
 7175 00a2 60320000 		.4byte	.LASF1004
 7176 00a6 05       		.byte	0x5
 7177 00a7 C502     		.uleb128 0x145
 7178 00a9 BE2B0000 		.4byte	.LASF1005
 7179 00ad 05       		.byte	0x5
 7180 00ae CC02     		.uleb128 0x14c
 7181 00b0 07470000 		.4byte	.LASF1006
 7182 00b4 00       		.byte	0
 7183              		.section	.debug_macro,"G",%progbits,wm4.task.h.46.0d11769cee96bf77a599bac125eeecf9,comdat
 7184              	.Ldebug_macro17:
 7185 0000 0400     		.2byte	0x4
 7186 0002 00       		.byte	0
 7187 0003 05       		.byte	0x5
 7188 0004 2E       		.uleb128 0x2e
 7189 0005 017A0000 		.4byte	.LASF1007
 7190 0009 05       		.byte	0x5
 7191 000a 2F       		.uleb128 0x2f
 7192 000b E87D0000 		.4byte	.LASF1008
 7193 000f 05       		.byte	0x5
 7194 0010 30       		.uleb128 0x30
 7195 0011 97330000 		.4byte	.LASF1009
 7196 0015 05       		.byte	0x5
 7197 0016 31       		.uleb128 0x31
 7198 0017 396A0000 		.4byte	.LASF1010
 7199 001b 05       		.byte	0x5
 7200 001c 9A01     		.uleb128 0x9a
 7201 001e 2B270000 		.4byte	.LASF1011
 7202 0022 05       		.byte	0x5
 7203 0023 A401     		.uleb128 0xa4
 7204 0025 AF2F0000 		.4byte	.LASF1012
 7205 0029 05       		.byte	0x5
 7206 002a B201     		.uleb128 0xb2
 7207 002c 35190000 		.4byte	.LASF1013
 7208 0030 05       		.byte	0x5
 7209 0031 B301     		.uleb128 0xb3
 7210 0033 AE300000 		.4byte	.LASF1014
 7211 0037 05       		.byte	0x5
 7212 0038 C101     		.uleb128 0xc1
 7213 003a 6D740000 		.4byte	.LASF1015
 7214 003e 05       		.byte	0x5
 7215 003f C201     		.uleb128 0xc2
 7216 0041 6E7C0000 		.4byte	.LASF1016
 7217 0045 05       		.byte	0x5
 7218 0046 CB01     		.uleb128 0xcb
 7219 0048 994D0000 		.4byte	.LASF1017
 7220 004c 05       		.byte	0x5
 7221 004d D501     		.uleb128 0xd5
 7222 004f A6130000 		.4byte	.LASF1018
 7223 0053 05       		.byte	0x5
ARM GAS  /tmp/cc5qDK7o.s 			page 152


 7224 0054 DA01     		.uleb128 0xda
 7225 0056 EC630000 		.4byte	.LASF1019
 7226 005a 05       		.byte	0x5
 7227 005b DB01     		.uleb128 0xdb
 7228 005d 7F300000 		.4byte	.LASF1020
 7229 0061 05       		.byte	0x5
 7230 0062 DC01     		.uleb128 0xdc
 7231 0064 E6500000 		.4byte	.LASF1021
 7232 0068 05       		.byte	0x5
 7233 0069 E60D     		.uleb128 0x6e6
 7234 006b 56510000 		.4byte	.LASF1022
 7235 006f 05       		.byte	0x5
 7236 0070 E70D     		.uleb128 0x6e7
 7237 0072 A5580000 		.4byte	.LASF1023
 7238 0076 05       		.byte	0x5
 7239 0077 C10E     		.uleb128 0x741
 7240 0079 70060000 		.4byte	.LASF1024
 7241 007d 05       		.byte	0x5
 7242 007e C20E     		.uleb128 0x742
 7243 0080 12650000 		.4byte	.LASF1025
 7244 0084 05       		.byte	0x5
 7245 0085 BB0F     		.uleb128 0x7bb
 7246 0087 B1690000 		.4byte	.LASF1026
 7247 008b 00       		.byte	0
 7248              		.section	.debug_line,"",%progbits
 7249              	.Ldebug_line0:
 7250 0000 920B0000 		.section	.debug_str,"MS",%progbits,1
 7250      03003503 
 7250      00000201 
 7250      FB0E0D00 
 7250      01010101 
 7251              	.LASF653:
 7252 0000 57494E54 		.ascii	"WINT_MIN (__WINT_MIN__)\000"
 7252      5F4D494E 
 7252      20285F5F 
 7252      57494E54 
 7252      5F4D494E 
 7253              	.LASF180:
 7254 0018 5F5F4445 		.ascii	"__DECIMAL_DIG__ 17\000"
 7254      43494D41 
 7254      4C5F4449 
 7254      475F5F20 
 7254      313700
 7255              	.LASF361:
 7256 002b 5F5F5548 		.ascii	"__UHA_FBIT__ 8\000"
 7256      415F4642 
 7256      49545F5F 
 7256      203800
 7257              	.LASF534:
 7258 003a 5F5F5356 		.ascii	"__SVID_VISIBLE 1\000"
 7258      49445F56 
 7258      49534942 
 7258      4C452031 
 7258      00
 7259              	.LASF448:
 7260 004b 434F4E46 		.ascii	"CONFIG_VOC_MIC 6\000"
 7260      49475F56 
ARM GAS  /tmp/cc5qDK7o.s 			page 153


 7260      4F435F4D 
 7260      49432036 
 7260      00
 7261              	.LASF978:
 7262 005c 636F6E66 		.ascii	"configUSE_TASK_FPU_SUPPORT 1\000"
 7262      69675553 
 7262      455F5441 
 7262      534B5F46 
 7262      50555F53 
 7263              	.LASF750:
 7264 0079 70644652 		.ascii	"pdFREERTOS_ERRNO_EISDIR 21\000"
 7264      45455254 
 7264      4F535F45 
 7264      52524E4F 
 7264      5F454953 
 7265              	.LASF251:
 7266 0094 5F5F4445 		.ascii	"__DEC128_EPSILON__ 1E-33DL\000"
 7266      43313238 
 7266      5F455053 
 7266      494C4F4E 
 7266      5F5F2031 
 7267              	.LASF89:
 7268 00af 5F5F494E 		.ascii	"__INTMAX_C(c) c ## LL\000"
 7268      544D4158 
 7268      5F432863 
 7268      29206320 
 7268      2323204C 
 7269              	.LASF214:
 7270 00c5 5F5F464C 		.ascii	"__FLT64_DENORM_MIN__ 4.9406564584124654e-324F64\000"
 7270      5436345F 
 7270      44454E4F 
 7270      524D5F4D 
 7270      494E5F5F 
 7271              	.LASF380:
 7272 00f5 5F5F4743 		.ascii	"__GCC_ATOMIC_WCHAR_T_LOCK_FREE 2\000"
 7272      435F4154 
 7272      4F4D4943 
 7272      5F574348 
 7272      41525F54 
 7273              	.LASF372:
 7274 0116 5F5F4348 		.ascii	"__CHAR_UNSIGNED__ 1\000"
 7274      41525F55 
 7274      4E534947 
 7274      4E45445F 
 7274      5F203100 
 7275              	.LASF841:
 7276 012a 74726163 		.ascii	"traceTASK_SWITCHED_IN() \000"
 7276      65544153 
 7276      4B5F5357 
 7276      49544348 
 7276      45445F49 
 7277              	.LASF949:
 7278 0143 706F7274 		.ascii	"portTICK_TYPE_SET_INTERRUPT_MASK_FROM_ISR() 0\000"
 7278      5449434B 
 7278      5F545950 
 7278      455F5345 
 7278      545F494E 
ARM GAS  /tmp/cc5qDK7o.s 			page 154


 7279              	.LASF253:
 7280 0171 5F5F5346 		.ascii	"__SFRACT_FBIT__ 7\000"
 7280      52414354 
 7280      5F464249 
 7280      545F5F20 
 7280      3700
 7281              	.LASF893:
 7282 0183 74726163 		.ascii	"traceMALLOC(pvAddress,uiSize) \000"
 7282      654D414C 
 7282      4C4F4328 
 7282      70764164 
 7282      64726573 
 7283              	.LASF216:
 7284 01a2 5F5F464C 		.ascii	"__FLT64_HAS_INFINITY__ 1\000"
 7284      5436345F 
 7284      4841535F 
 7284      494E4649 
 7284      4E495459 
 7285              	.LASF684:
 7286 01bb 636F6E66 		.ascii	"configIDLE_SHOULD_YIELD 1\000"
 7286      69674944 
 7286      4C455F53 
 7286      484F554C 
 7286      445F5949 
 7287              	.LASF612:
 7288 01d5 494E5431 		.ascii	"INT16_MIN (-__INT16_MAX__ - 1)\000"
 7288      365F4D49 
 7288      4E20282D 
 7288      5F5F494E 
 7288      5431365F 
 7289              	.LASF325:
 7290 01f4 5F5F4C4C 		.ascii	"__LLACCUM_MIN__ (-0X1P31LLK-0X1P31LLK)\000"
 7290      41434355 
 7290      4D5F4D49 
 7290      4E5F5F20 
 7290      282D3058 
 7291              	.LASF345:
 7292 021b 5F5F5548 		.ascii	"__UHQ_FBIT__ 16\000"
 7292      515F4642 
 7292      49545F5F 
 7292      20313600 
 7293              	.LASF317:
 7294 022b 5F5F4C41 		.ascii	"__LACCUM_EPSILON__ 0x1P-31LK\000"
 7294      4343554D 
 7294      5F455053 
 7294      494C4F4E 
 7294      5F5F2030 
 7295              	.LASF912:
 7296 0248 74726163 		.ascii	"traceTASK_NOTIFY_WAIT() \000"
 7296      65544153 
 7296      4B5F4E4F 
 7296      54494659 
 7296      5F574149 
 7297              	.LASF77:
 7298 0261 5F5F5054 		.ascii	"__PTRDIFF_MAX__ 0x7fffffff\000"
 7298      52444946 
 7298      465F4D41 
ARM GAS  /tmp/cc5qDK7o.s 			page 155


 7298      585F5F20 
 7298      30783766 
 7299              	.LASF911:
 7300 027c 74726163 		.ascii	"traceTASK_NOTIFY_WAIT_BLOCK() \000"
 7300      65544153 
 7300      4B5F4E4F 
 7300      54494659 
 7300      5F574149 
 7301              	.LASF609:
 7302 029b 494E545F 		.ascii	"INT_LEAST8_MIN (-__INT_LEAST8_MAX__ - 1)\000"
 7302      4C454153 
 7302      54385F4D 
 7302      494E2028 
 7302      2D5F5F49 
 7303              	.LASF586:
 7304 02c4 5F55494E 		.ascii	"_UINT32_T_DECLARED \000"
 7304      5433325F 
 7304      545F4445 
 7304      434C4152 
 7304      45442000 
 7305              	.LASF679:
 7306 02d8 636F6E66 		.ascii	"configMINIMAL_STACK_SIZE ( ( unsigned short ) 120 )"
 7306      69674D49 
 7306      4E494D41 
 7306      4C5F5354 
 7306      41434B5F 
 7307 030b 00       		.ascii	"\000"
 7308              	.LASF88:
 7309 030c 5F5F494E 		.ascii	"__INTMAX_MAX__ 0x7fffffffffffffffLL\000"
 7309      544D4158 
 7309      5F4D4158 
 7309      5F5F2030 
 7309      78376666 
 7310              	.LASF238:
 7311 0330 5F5F4445 		.ascii	"__DEC32_SUBNORMAL_MIN__ 0.000001E-95DF\000"
 7311      4333325F 
 7311      5355424E 
 7311      4F524D41 
 7311      4C5F4D49 
 7312              	.LASF342:
 7313 0357 5F5F5451 		.ascii	"__TQ_IBIT__ 0\000"
 7313      5F494249 
 7313      545F5F20 
 7313      3000
 7314              	.LASF210:
 7315 0365 5F5F464C 		.ascii	"__FLT64_DECIMAL_DIG__ 17\000"
 7315      5436345F 
 7315      44454349 
 7315      4D414C5F 
 7315      4449475F 
 7316              	.LASF671:
 7317 037e 636F6E66 		.ascii	"configCOMMAND_INT_MAX_OUTPUT_SIZE 1024\000"
 7317      6967434F 
 7317      4D4D414E 
 7317      445F494E 
 7317      545F4D41 
 7318              	.LASF951:
ARM GAS  /tmp/cc5qDK7o.s 			page 156


 7319 03a5 636F6E66 		.ascii	"configENABLE_BACKWARD_COMPATIBILITY 1\000"
 7319      6967454E 
 7319      41424C45 
 7319      5F424143 
 7319      4B574152 
 7320              	.LASF798:
 7321 03cb 706F7274 		.ascii	"portSET_INTERRUPT_MASK_FROM_ISR() ulPortRaiseBASEPR"
 7321      5345545F 
 7321      494E5445 
 7321      52525550 
 7321      545F4D41 
 7322 03fe 49282900 		.ascii	"I()\000"
 7323              	.LASF11:
 7324 0402 5F5F4154 		.ascii	"__ATOMIC_CONSUME 1\000"
 7324      4F4D4943 
 7324      5F434F4E 
 7324      53554D45 
 7324      203100
 7325              	.LASF275:
 7326 0415 5F5F4C46 		.ascii	"__LFRACT_MIN__ (-0.5LR-0.5LR)\000"
 7326      52414354 
 7326      5F4D494E 
 7326      5F5F2028 
 7326      2D302E35 
 7327              	.LASF73:
 7328 0433 5F5F5743 		.ascii	"__WCHAR_MAX__ 0xffffffffU\000"
 7328      4841525F 
 7328      4D41585F 
 7328      5F203078 
 7328      66666666 
 7329              	.LASF548:
 7330 044d 5F5F4558 		.ascii	"__EXP\000"
 7330      5000
 7331              	.LASF844:
 7332 0453 74726163 		.ascii	"traceLOW_POWER_IDLE_END() \000"
 7332      654C4F57 
 7332      5F504F57 
 7332      45525F49 
 7332      444C455F 
 7333              	.LASF1080:
 7334 046e 654E6F54 		.ascii	"eNoTasksWaitingTimeout\000"
 7334      61736B73 
 7334      57616974 
 7334      696E6754 
 7334      696D656F 
 7335              	.LASF813:
 7336 0485 4D50555F 		.ascii	"MPU_WRAPPERS_H \000"
 7336      57524150 
 7336      50455253 
 7336      5F482000 
 7337              	.LASF672:
 7338 0495 636F6E66 		.ascii	"configINCLUDE_QUERY_HEAP_COMMAND 1\000"
 7338      6967494E 
 7338      434C5544 
 7338      455F5155 
 7338      4552595F 
 7339              	.LASF997:
ARM GAS  /tmp/cc5qDK7o.s 			page 157


 7340 04b8 6C697374 		.ascii	"listGET_HEAD_ENTRY(pxList) ( ( ( pxList )->xListEnd"
 7340      4745545F 
 7340      48454144 
 7340      5F454E54 
 7340      52592870 
 7341 04eb 20292E70 		.ascii	" ).pxNext )\000"
 7341      784E6578 
 7341      74202900 
 7342              	.LASF16:
 7343 04f7 5F5F5349 		.ascii	"__SIZEOF_LONG_LONG__ 8\000"
 7343      5A454F46 
 7343      5F4C4F4E 
 7343      475F4C4F 
 7343      4E475F5F 
 7344              	.LASF165:
 7345 050e 5F5F4442 		.ascii	"__DBL_MAX_10_EXP__ 308\000"
 7345      4C5F4D41 
 7345      585F3130 
 7345      5F455850 
 7345      5F5F2033 
 7346              	.LASF204:
 7347 0525 5F5F464C 		.ascii	"__FLT64_MANT_DIG__ 53\000"
 7347      5436345F 
 7347      4D414E54 
 7347      5F444947 
 7347      5F5F2035 
 7348              	.LASF265:
 7349 053b 5F5F4652 		.ascii	"__FRACT_MIN__ (-0.5R-0.5R)\000"
 7349      4143545F 
 7349      4D494E5F 
 7349      5F20282D 
 7349      302E3552 
 7350              	.LASF533:
 7351 0556 5F5F504F 		.ascii	"__POSIX_VISIBLE 200809\000"
 7351      5349585F 
 7351      56495349 
 7351      424C4520 
 7351      32303038 
 7352              	.LASF1087:
 7353 056d 7063496E 		.ascii	"pcInterruptPriorityRegisters\000"
 7353      74657272 
 7353      75707450 
 7353      72696F72 
 7353      69747952 
 7354              	.LASF301:
 7355 058a 5F5F5553 		.ascii	"__USACCUM_MAX__ 0XFFFFP-8UHK\000"
 7355      41434355 
 7355      4D5F4D41 
 7355      585F5F20 
 7355      30584646 
 7356              	.LASF235:
 7357 05a7 5F5F4445 		.ascii	"__DEC32_MIN__ 1E-95DF\000"
 7357      4333325F 
 7357      4D494E5F 
 7357      5F203145 
 7357      2D393544 
 7358              	.LASF92:
ARM GAS  /tmp/cc5qDK7o.s 			page 158


 7359 05bd 5F5F494E 		.ascii	"__INTMAX_WIDTH__ 64\000"
 7359      544D4158 
 7359      5F574944 
 7359      54485F5F 
 7359      20363400 
 7360              	.LASF988:
 7361 05d1 6C697374 		.ascii	"listSET_LIST_INTEGRITY_CHECK_1_VALUE(pxList) \000"
 7361      5345545F 
 7361      4C495354 
 7361      5F494E54 
 7361      45475249 
 7362              	.LASF338:
 7363 05ff 5F5F5351 		.ascii	"__SQ_IBIT__ 0\000"
 7363      5F494249 
 7363      545F5F20 
 7363      3000
 7364              	.LASF26:
 7365 060d 5F5F4F52 		.ascii	"__ORDER_PDP_ENDIAN__ 3412\000"
 7365      4445525F 
 7365      5044505F 
 7365      454E4449 
 7365      414E5F5F 
 7366              	.LASF30:
 7367 0627 5F5F5349 		.ascii	"__SIZE_TYPE__ unsigned int\000"
 7367      5A455F54 
 7367      5950455F 
 7367      5F20756E 
 7367      7369676E 
 7368              	.LASF1089:
 7369 0642 75634375 		.ascii	"ucCurrentPriority\000"
 7369      7272656E 
 7369      74507269 
 7369      6F726974 
 7369      7900
 7370              	.LASF758:
 7371 0654 70644652 		.ascii	"pdFREERTOS_ERRNO_ENMFILE 89\000"
 7371      45455254 
 7371      4F535F45 
 7371      52524E4F 
 7371      5F454E4D 
 7372              	.LASF1024:
 7373 0670 78546173 		.ascii	"xTaskNotifyFromISR(xTaskToNotify,ulValue,eAction,px"
 7373      6B4E6F74 
 7373      69667946 
 7373      726F6D49 
 7373      53522878 
 7374 06a3 48696768 		.ascii	"HigherPriorityTaskWoken) xTaskGenericNotifyFromISR("
 7374      65725072 
 7374      696F7269 
 7374      74795461 
 7374      736B576F 
 7375 06d6 20282078 		.ascii	" ( xTaskToNotify ), ( ulValue ), ( eAction ), NULL,"
 7375      5461736B 
 7375      546F4E6F 
 7375      74696679 
 7375      20292C20 
 7376 0709 20282070 		.ascii	" ( pxHigherPriorityTaskWoken ) )\000"
ARM GAS  /tmp/cc5qDK7o.s 			page 159


 7376      78486967 
 7376      68657250 
 7376      72696F72 
 7376      69747954 
 7377              	.LASF692:
 7378 072a 636F6E66 		.ascii	"configSUPPORT_STATIC_ALLOCATION 1\000"
 7378      69675355 
 7378      50504F52 
 7378      545F5354 
 7378      41544943 
 7379              	.LASF39:
 7380 074c 5F5F494E 		.ascii	"__INT8_TYPE__ signed char\000"
 7380      54385F54 
 7380      5950455F 
 7380      5F207369 
 7380      676E6564 
 7381              	.LASF197:
 7382 0766 5F5F464C 		.ascii	"__FLT32_MIN__ 1.1754943508222875e-38F32\000"
 7382      5433325F 
 7382      4D494E5F 
 7382      5F20312E 
 7382      31373534 
 7383              	.LASF300:
 7384 078e 5F5F5553 		.ascii	"__USACCUM_MIN__ 0.0UHK\000"
 7384      41434355 
 7384      4D5F4D49 
 7384      4E5F5F20 
 7384      302E3055 
 7385              	.LASF195:
 7386 07a5 5F5F464C 		.ascii	"__FLT32_DECIMAL_DIG__ 9\000"
 7386      5433325F 
 7386      44454349 
 7386      4D414C5F 
 7386      4449475F 
 7387              	.LASF707:
 7388 07bd 494E434C 		.ascii	"INCLUDE_vTaskSuspend 1\000"
 7388      5544455F 
 7388      76546173 
 7388      6B537573 
 7388      70656E64 
 7389              	.LASF981:
 7390 07d4 636F6E66 		.ascii	"configLIST_VOLATILE \000"
 7390      69674C49 
 7390      53545F56 
 7390      4F4C4154 
 7390      494C4520 
 7391              	.LASF176:
 7392 07e9 5F5F4C44 		.ascii	"__LDBL_MIN_EXP__ (-1021)\000"
 7392      424C5F4D 
 7392      494E5F45 
 7392      58505F5F 
 7392      20282D31 
 7393              	.LASF174:
 7394 0802 5F5F4C44 		.ascii	"__LDBL_MANT_DIG__ 53\000"
 7394      424C5F4D 
 7394      414E545F 
 7394      4449475F 
ARM GAS  /tmp/cc5qDK7o.s 			page 160


 7394      5F203533 
 7395              	.LASF852:
 7396 0817 636F6E66 		.ascii	"configINCLUDE_FREERTOS_TASK_C_ADDITIONS_H 0\000"
 7396      6967494E 
 7396      434C5544 
 7396      455F4652 
 7396      45455254 
 7397              	.LASF816:
 7398 0843 706F7274 		.ascii	"portUSING_MPU_WRAPPERS 0\000"
 7398      5553494E 
 7398      475F4D50 
 7398      555F5752 
 7398      41505045 
 7399              	.LASF117:
 7400 085c 5F5F5549 		.ascii	"__UINT8_C(c) c\000"
 7400      4E54385F 
 7400      43286329 
 7400      206300
 7401              	.LASF40:
 7402 086b 5F5F494E 		.ascii	"__INT16_TYPE__ short int\000"
 7402      5431365F 
 7402      54595045 
 7402      5F5F2073 
 7402      686F7274 
 7403              	.LASF739:
 7404 0884 70644652 		.ascii	"pdFREERTOS_ERRNO_EBADF 9\000"
 7404      45455254 
 7404      4F535F45 
 7404      52524E4F 
 7404      5F454241 
 7405              	.LASF211:
 7406 089d 5F5F464C 		.ascii	"__FLT64_MAX__ 1.7976931348623157e+308F64\000"
 7406      5436345F 
 7406      4D41585F 
 7406      5F20312E 
 7406      37393736 
 7407              	.LASF839:
 7408 08c6 74726163 		.ascii	"traceSTART() \000"
 7408      65535441 
 7408      52542829 
 7408      2000
 7409              	.LASF926:
 7410 08d4 74726163 		.ascii	"traceSTREAM_BUFFER_RECEIVE(xStreamBuffer,xReceivedL"
 7410      65535452 
 7410      45414D5F 
 7410      42554646 
 7410      45525F52 
 7411 0907 656E6774 		.ascii	"ength) \000"
 7411      68292000 
 7412              	.LASF902:
 7413 090f 74726163 		.ascii	"traceEVENT_GROUP_CLEAR_BITS_FROM_ISR(xEventGroup,ux"
 7413      65455645 
 7413      4E545F47 
 7413      524F5550 
 7413      5F434C45 
 7414 0942 42697473 		.ascii	"BitsToClear) \000"
 7414      546F436C 
ARM GAS  /tmp/cc5qDK7o.s 			page 161


 7414      65617229 
 7414      2000
 7415              	.LASF1046:
 7416 0950 706F7274 		.ascii	"portMAX_8_BIT_VALUE ( ( uint8_t ) 0xff )\000"
 7416      4D41585F 
 7416      385F4249 
 7416      545F5641 
 7416      4C554520 
 7417              	.LASF999:
 7418 0979 6C697374 		.ascii	"listGET_END_MARKER(pxList) ( ( ListItem_t const * )"
 7418      4745545F 
 7418      454E445F 
 7418      4D41524B 
 7418      45522870 
 7419 09ac 20282026 		.ascii	" ( &( ( pxList )->xListEnd ) ) )\000"
 7419      28202820 
 7419      70784C69 
 7419      73742029 
 7419      2D3E784C 
 7420              	.LASF1041:
 7421 09cd 706F7274 		.ascii	"portNVIC_PENDSV_PRI ( ( ( uint32_t ) configKERNEL_I"
 7421      4E564943 
 7421      5F50454E 
 7421      4453565F 
 7421      50524920 
 7422 0a00 4E544552 		.ascii	"NTERRUPT_PRIORITY ) << 16UL )\000"
 7422      52555054 
 7422      5F505249 
 7422      4F524954 
 7422      59202920 
 7423              	.LASF566:
 7424 0a1e 5F5F494E 		.ascii	"__INT8 \"hh\"\000"
 7424      54382022 
 7424      68682200 
 7425              	.LASF669:
 7426 0a2a 636F6E66 		.ascii	"configUSE_IDLE_HOOK 1\000"
 7426      69675553 
 7426      455F4944 
 7426      4C455F48 
 7426      4F4F4B20 
 7427              	.LASF43:
 7428 0a40 5F5F5549 		.ascii	"__UINT8_TYPE__ unsigned char\000"
 7428      4E54385F 
 7428      54595045 
 7428      5F5F2075 
 7428      6E736967 
 7429              	.LASF373:
 7430 0a5d 5F5F4743 		.ascii	"__GCC_HAVE_SYNC_COMPARE_AND_SWAP_1 1\000"
 7430      435F4841 
 7430      56455F53 
 7430      594E435F 
 7430      434F4D50 
 7431              	.LASF858:
 7432 0a82 74726163 		.ascii	"traceCREATE_MUTEX_FAILED() \000"
 7432      65435245 
 7432      4154455F 
 7432      4D555445 
ARM GAS  /tmp/cc5qDK7o.s 			page 162


 7432      585F4641 
 7433              	.LASF616:
 7434 0a9e 494E545F 		.ascii	"INT_LEAST16_MAX (__INT_LEAST16_MAX__)\000"
 7434      4C454153 
 7434      5431365F 
 7434      4D415820 
 7434      285F5F49 
 7435              	.LASF61:
 7436 0ac4 5F5F5549 		.ascii	"__UINT_FAST32_TYPE__ unsigned int\000"
 7436      4E545F46 
 7436      41535433 
 7436      325F5459 
 7436      50455F5F 
 7437              	.LASF453:
 7438 0ae6 434F4E46 		.ascii	"CONFIG_VOC_SW_SRC48K 1\000"
 7438      49475F56 
 7438      4F435F53 
 7438      575F5352 
 7438      4334384B 
 7439              	.LASF634:
 7440 0afd 494E545F 		.ascii	"INT_FAST16_MAX (__INT_FAST16_MAX__)\000"
 7440      46415354 
 7440      31365F4D 
 7440      41582028 
 7440      5F5F494E 
 7441              	.LASF5:
 7442 0b21 5F5F5645 		.ascii	"__VERSION__ \"8.2.1 20181213 (release) [gcc-8-branc"
 7442      5253494F 
 7442      4E5F5F20 
 7442      22382E32 
 7442      2E312032 
 7443 0b53 68207265 		.ascii	"h revision 267074]\"\000"
 7443      76697369 
 7443      6F6E2032 
 7443      36373037 
 7443      345D2200 
 7444              	.LASF38:
 7445 0b67 5F5F5349 		.ascii	"__SIG_ATOMIC_TYPE__ int\000"
 7445      475F4154 
 7445      4F4D4943 
 7445      5F545950 
 7445      455F5F20 
 7446              	.LASF980:
 7447 0b7f 4C495354 		.ascii	"LIST_H \000"
 7447      5F482000 
 7448              	.LASF1083:
 7449 0b87 784D6178 		.ascii	"xMaximumPossibleSuppressedTicks\000"
 7449      696D756D 
 7449      506F7373 
 7449      69626C65 
 7449      53757070 
 7450              	.LASF58:
 7451 0ba7 5F5F494E 		.ascii	"__INT_FAST64_TYPE__ long long int\000"
 7451      545F4641 
 7451      53543634 
 7451      5F545950 
 7451      455F5F20 
ARM GAS  /tmp/cc5qDK7o.s 			page 163


 7452              	.LASF33:
 7453 0bc9 5F5F5749 		.ascii	"__WINT_TYPE__ unsigned int\000"
 7453      4E545F54 
 7453      5950455F 
 7453      5F20756E 
 7453      7369676E 
 7454              	.LASF607:
 7455 0be4 494E5438 		.ascii	"INT8_MAX (__INT8_MAX__)\000"
 7455      5F4D4158 
 7455      20285F5F 
 7455      494E5438 
 7455      5F4D4158 
 7456              	.LASF701:
 7457 0bfc 636F6E66 		.ascii	"configTIMER_QUEUE_LENGTH 5\000"
 7457      69675449 
 7457      4D45525F 
 7457      51554555 
 7457      455F4C45 
 7458              	.LASF865:
 7459 0c17 74726163 		.ascii	"traceQUEUE_SEND(pxQueue) \000"
 7459      65515545 
 7459      55455F53 
 7459      454E4428 
 7459      70785175 
 7460              	.LASF471:
 7461 0c31 5F5F5349 		.ascii	"__SIZE_T__ \000"
 7461      5A455F54 
 7461      5F5F2000 
 7462              	.LASF648:
 7463 0c3d 50545244 		.ascii	"PTRDIFF_MAX (__PTRDIFF_MAX__)\000"
 7463      4946465F 
 7463      4D415820 
 7463      285F5F50 
 7463      54524449 
 7464              	.LASF899:
 7465 0c5b 74726163 		.ascii	"traceEVENT_GROUP_WAIT_BITS_BLOCK(xEventGroup,uxBits"
 7465      65455645 
 7465      4E545F47 
 7465      524F5550 
 7465      5F574149 
 7466 0c8e 546F5761 		.ascii	"ToWaitFor) \000"
 7466      6974466F 
 7466      72292000 
 7467              	.LASF194:
 7468 0c9a 5F5F464C 		.ascii	"__FLT32_MAX_10_EXP__ 38\000"
 7468      5433325F 
 7468      4D41585F 
 7468      31305F45 
 7468      58505F5F 
 7469              	.LASF922:
 7470 0cb2 74726163 		.ascii	"traceSTREAM_BUFFER_SEND(xStreamBuffer,xBytesSent) \000"
 7470      65535452 
 7470      45414D5F 
 7470      42554646 
 7470      45525F53 
 7471              	.LASF371:
 7472 0ce5 5F5F474E 		.ascii	"__GNUC_GNU_INLINE__ 1\000"
ARM GAS  /tmp/cc5qDK7o.s 			page 164


 7472      55435F47 
 7472      4E555F49 
 7472      4E4C494E 
 7472      455F5F20 
 7473              	.LASF814:
 7474 0cfb 50524956 		.ascii	"PRIVILEGED_FUNCTION \000"
 7474      494C4547 
 7474      45445F46 
 7474      554E4354 
 7474      494F4E20 
 7475              	.LASF846:
 7476 0d10 74726163 		.ascii	"traceTASK_PRIORITY_INHERIT(pxTCBOfMutexHolder,uxInh"
 7476      65544153 
 7476      4B5F5052 
 7476      494F5249 
 7476      54595F49 
 7477 0d43 65726974 		.ascii	"eritedPriority) \000"
 7477      65645072 
 7477      696F7269 
 7477      74792920 
 7477      00
 7478              	.LASF261:
 7479 0d54 5F5F5553 		.ascii	"__USFRACT_MAX__ 0XFFP-8UHR\000"
 7479      46524143 
 7479      545F4D41 
 7479      585F5F20 
 7479      30584646 
 7480              	.LASF203:
 7481 0d6f 5F5F4650 		.ascii	"__FP_FAST_FMAF32 1\000"
 7481      5F464153 
 7481      545F464D 
 7481      41463332 
 7481      203100
 7482              	.LASF916:
 7483 0d82 74726163 		.ascii	"traceSTREAM_BUFFER_CREATE_FAILED(xIsMessageBuffer) "
 7483      65535452 
 7483      45414D5F 
 7483      42554646 
 7483      45525F43 
 7484 0db5 00       		.ascii	"\000"
 7485              	.LASF138:
 7486 0db6 5F5F5549 		.ascii	"__UINTPTR_MAX__ 0xffffffffU\000"
 7486      4E545054 
 7486      525F4D41 
 7486      585F5F20 
 7486      30786666 
 7487              	.LASF927:
 7488 0dd2 74726163 		.ascii	"traceSTREAM_BUFFER_RECEIVE_FAILED(xStreamBuffer) \000"
 7488      65535452 
 7488      45414D5F 
 7488      42554646 
 7488      45525F52 
 7489              	.LASF504:
 7490 0e04 5F5F6E65 		.ascii	"__need_wchar_t\000"
 7490      65645F77 
 7490      63686172 
 7490      5F7400
ARM GAS  /tmp/cc5qDK7o.s 			page 165


 7491              	.LASF191:
 7492 0e13 5F5F464C 		.ascii	"__FLT32_MIN_EXP__ (-125)\000"
 7492      5433325F 
 7492      4D494E5F 
 7492      4558505F 
 7492      5F20282D 
 7493              	.LASF1048:
 7494 0e2c 706F7274 		.ascii	"portMAX_PRIGROUP_BITS ( ( uint8_t ) 7 )\000"
 7494      4D41585F 
 7494      50524947 
 7494      524F5550 
 7494      5F424954 
 7495              	.LASF834:
 7496 0e54 706F7274 		.ascii	"portSETUP_TCB(pxTCB) ( void ) pxTCB\000"
 7496      53455455 
 7496      505F5443 
 7496      42287078 
 7496      54434229 
 7497              	.LASF799:
 7498 0e78 706F7274 		.ascii	"portCLEAR_INTERRUPT_MASK_FROM_ISR(x) vPortSetBASEPR"
 7498      434C4541 
 7498      525F494E 
 7498      54455252 
 7498      5550545F 
 7499 0eab 49287829 		.ascii	"I(x)\000"
 7499      00
 7500              	.LASF887:
 7501 0eb0 74726163 		.ascii	"traceTASK_INCREMENT_TICK(xTickCount) \000"
 7501      65544153 
 7501      4B5F494E 
 7501      4352454D 
 7501      454E545F 
 7502              	.LASF447:
 7503 0ed6 434F4E46 		.ascii	"CONFIG_SYS_DBG_LEVEL 0xFFFFFFFF\000"
 7503      49475F53 
 7503      59535F44 
 7503      42475F4C 
 7503      4556454C 
 7504              	.LASF465:
 7505 0ef6 5F425344 		.ascii	"_BSD_PTRDIFF_T_ \000"
 7505      5F505452 
 7505      44494646 
 7505      5F545F20 
 7505      00
 7506              	.LASF613:
 7507 0f07 494E5431 		.ascii	"INT16_MAX (__INT16_MAX__)\000"
 7507      365F4D41 
 7507      5820285F 
 7507      5F494E54 
 7507      31365F4D 
 7508              	.LASF825:
 7509 0f21 494E434C 		.ascii	"INCLUDE_xTaskGetSchedulerState 0\000"
 7509      5544455F 
 7509      78546173 
 7509      6B476574 
 7509      53636865 
 7510              	.LASF493:
ARM GAS  /tmp/cc5qDK7o.s 			page 166


 7511 0f42 5F5F5743 		.ascii	"__WCHAR_T \000"
 7511      4841525F 
 7511      542000
 7512              	.LASF278:
 7513 0f4d 5F5F554C 		.ascii	"__ULFRACT_FBIT__ 32\000"
 7513      46524143 
 7513      545F4642 
 7513      49545F5F 
 7513      20333200 
 7514              	.LASF755:
 7515 0f61 70644652 		.ascii	"pdFREERTOS_ERRNO_EUNATCH 42\000"
 7515      45455254 
 7515      4F535F45 
 7515      52524E4F 
 7515      5F45554E 
 7516              	.LASF207:
 7517 0f7d 5F5F464C 		.ascii	"__FLT64_MIN_10_EXP__ (-307)\000"
 7517      5436345F 
 7517      4D494E5F 
 7517      31305F45 
 7517      58505F5F 
 7518              	.LASF639:
 7519 0f99 494E545F 		.ascii	"INT_FAST64_MIN (-__INT_FAST64_MAX__ - 1)\000"
 7519      46415354 
 7519      36345F4D 
 7519      494E2028 
 7519      2D5F5F49 
 7520              	.LASF486:
 7521 0fc2 5F5F7369 		.ascii	"__size_t \000"
 7521      7A655F74 
 7521      2000
 7522              	.LASF601:
 7523 0fcc 5F5F696E 		.ascii	"__int_fast32_t_defined 1\000"
 7523      745F6661 
 7523      73743332 
 7523      5F745F64 
 7523      6566696E 
 7524              	.LASF131:
 7525 0fe5 5F5F494E 		.ascii	"__INT_FAST64_WIDTH__ 64\000"
 7525      545F4641 
 7525      53543634 
 7525      5F574944 
 7525      54485F5F 
 7526              	.LASF891:
 7527 0ffd 74726163 		.ascii	"traceTIMER_EXPIRED(pxTimer) \000"
 7527      6554494D 
 7527      45525F45 
 7527      58504952 
 7527      45442870 
 7528              	.LASF966:
 7529 101a 7854696D 		.ascii	"xTimerHandle TimerHandle_t\000"
 7529      65724861 
 7529      6E646C65 
 7529      2054696D 
 7529      65724861 
 7530              	.LASF842:
 7531 1035 74726163 		.ascii	"traceINCREASE_TICK_COUNT(x) \000"
ARM GAS  /tmp/cc5qDK7o.s 			page 167


 7531      65494E43 
 7531      52454153 
 7531      455F5449 
 7531      434B5F43 
 7532              	.LASF656:
 7533 1052 494E5431 		.ascii	"INT16_C(x) __INT16_C(x)\000"
 7533      365F4328 
 7533      7829205F 
 7533      5F494E54 
 7533      31365F43 
 7534              	.LASF257:
 7535 106a 5F5F5346 		.ascii	"__SFRACT_EPSILON__ 0x1P-7HR\000"
 7535      52414354 
 7535      5F455053 
 7535      494C4F4E 
 7535      5F5F2030 
 7536              	.LASF475:
 7537 1086 5F545F53 		.ascii	"_T_SIZE \000"
 7537      495A4520 
 7537      00
 7538              	.LASF163:
 7539 108f 5F5F4442 		.ascii	"__DBL_MIN_10_EXP__ (-307)\000"
 7539      4C5F4D49 
 7539      4E5F3130 
 7539      5F455850 
 7539      5F5F2028 
 7540              	.LASF948:
 7541 10a9 706F7274 		.ascii	"portTICK_TYPE_EXIT_CRITICAL() \000"
 7541      5449434B 
 7541      5F545950 
 7541      455F4558 
 7541      49545F43 
 7542              	.LASF25:
 7543 10c8 5F5F4F52 		.ascii	"__ORDER_BIG_ENDIAN__ 4321\000"
 7543      4445525F 
 7543      4249475F 
 7543      454E4449 
 7543      414E5F5F 
 7544              	.LASF337:
 7545 10e2 5F5F5351 		.ascii	"__SQ_FBIT__ 31\000"
 7545      5F464249 
 7545      545F5F20 
 7545      333100
 7546              	.LASF606:
 7547 10f1 494E5438 		.ascii	"INT8_MIN (-__INT8_MAX__ - 1)\000"
 7547      5F4D494E 
 7547      20282D5F 
 7547      5F494E54 
 7547      385F4D41 
 7548              	.LASF583:
 7549 110e 5F55494E 		.ascii	"_UINT16_T_DECLARED \000"
 7549      5431365F 
 7549      545F4445 
 7549      434C4152 
 7549      45442000 
 7550              	.LASF728:
 7551 1122 65727251 		.ascii	"errQUEUE_FULL ( ( BaseType_t ) 0 )\000"
ARM GAS  /tmp/cc5qDK7o.s 			page 168


 7551      55455545 
 7551      5F46554C 
 7551      4C202820 
 7551      28204261 
 7552              	.LASF930:
 7553 1145 706F7274 		.ascii	"portYIELD_WITHIN_API portYIELD\000"
 7553      5949454C 
 7553      445F5749 
 7553      5448494E 
 7553      5F415049 
 7554              	.LASF578:
 7555 1164 5F535953 		.ascii	"_SYS__STDINT_H \000"
 7555      5F5F5354 
 7555      44494E54 
 7555      5F482000 
 7556              	.LASF628:
 7557 1174 494E545F 		.ascii	"INT_LEAST64_MAX (__INT_LEAST64_MAX__)\000"
 7557      4C454153 
 7557      5436345F 
 7557      4D415820 
 7557      285F5F49 
 7558              	.LASF206:
 7559 119a 5F5F464C 		.ascii	"__FLT64_MIN_EXP__ (-1021)\000"
 7559      5436345F 
 7559      4D494E5F 
 7559      4558505F 
 7559      5F20282D 
 7560              	.LASF86:
 7561 11b4 5F5F5054 		.ascii	"__PTRDIFF_WIDTH__ 32\000"
 7561      52444946 
 7561      465F5749 
 7561      4454485F 
 7561      5F203332 
 7562              	.LASF132:
 7563 11c9 5F5F5549 		.ascii	"__UINT_FAST8_MAX__ 0xffffffffU\000"
 7563      4E545F46 
 7563      41535438 
 7563      5F4D4158 
 7563      5F5F2030 
 7564              	.LASF237:
 7565 11e8 5F5F4445 		.ascii	"__DEC32_EPSILON__ 1E-6DF\000"
 7565      4333325F 
 7565      45505349 
 7565      4C4F4E5F 
 7565      5F203145 
 7566              	.LASF651:
 7567 1201 57434841 		.ascii	"WCHAR_MAX (__WCHAR_MAX__)\000"
 7567      525F4D41 
 7567      5820285F 
 7567      5F574348 
 7567      41525F4D 
 7568              	.LASF505:
 7569 121b 4E554C4C 		.ascii	"NULL\000"
 7569      00
 7570              	.LASF314:
 7571 1220 5F5F4C41 		.ascii	"__LACCUM_IBIT__ 32\000"
 7571      4343554D 
ARM GAS  /tmp/cc5qDK7o.s 			page 169


 7571      5F494249 
 7571      545F5F20 
 7571      333200
 7572              	.LASF610:
 7573 1233 494E545F 		.ascii	"INT_LEAST8_MAX (__INT_LEAST8_MAX__)\000"
 7573      4C454153 
 7573      54385F4D 
 7573      41582028 
 7573      5F5F494E 
 7574              	.LASF1027:
 7575 1257 636F6E66 		.ascii	"configSYSTICK_CLOCK_HZ configCPU_CLOCK_HZ\000"
 7575      69675359 
 7575      53544943 
 7575      4B5F434C 
 7575      4F434B5F 
 7576              	.LASF1066:
 7577 1281 5F5F7569 		.ascii	"__uint8_t\000"
 7577      6E74385F 
 7577      7400
 7578              	.LASF79:
 7579 128b 5F5F5343 		.ascii	"__SCHAR_WIDTH__ 8\000"
 7579      4841525F 
 7579      57494454 
 7579      485F5F20 
 7579      3800
 7580              	.LASF127:
 7581 129d 5F5F494E 		.ascii	"__INT_FAST16_WIDTH__ 32\000"
 7581      545F4641 
 7581      53543136 
 7581      5F574944 
 7581      54485F5F 
 7582              	.LASF421:
 7583 12b5 5F5F5646 		.ascii	"__VFP_FP__ 1\000"
 7583      505F4650 
 7583      5F5F2031 
 7583      00
 7584              	.LASF576:
 7585 12c2 5F5F4C45 		.ascii	"__LEAST32 \"l\"\000"
 7585      41535433 
 7585      3220226C 
 7585      2200
 7586              	.LASF569:
 7587 12d0 5F5F494E 		.ascii	"__INT64 \"ll\"\000"
 7587      54363420 
 7587      226C6C22 
 7587      00
 7588              	.LASF136:
 7589 12dd 5F5F494E 		.ascii	"__INTPTR_MAX__ 0x7fffffff\000"
 7589      54505452 
 7589      5F4D4158 
 7589      5F5F2030 
 7589      78376666 
 7590              	.LASF956:
 7591 12f7 706F7274 		.ascii	"portTickType TickType_t\000"
 7591      5469636B 
 7591      54797065 
 7591      20546963 
ARM GAS  /tmp/cc5qDK7o.s 			page 170


 7591      6B547970 
 7592              	.LASF939:
 7593 130f 6D74434F 		.ascii	"mtCOVERAGE_TEST_MARKER() \000"
 7593      56455241 
 7593      47455F54 
 7593      4553545F 
 7593      4D41524B 
 7594              	.LASF133:
 7595 1329 5F5F5549 		.ascii	"__UINT_FAST16_MAX__ 0xffffffffU\000"
 7595      4E545F46 
 7595      41535431 
 7595      365F4D41 
 7595      585F5F20 
 7596              	.LASF627:
 7597 1349 494E545F 		.ascii	"INT_LEAST64_MIN (-__INT_LEAST64_MAX__ - 1)\000"
 7597      4C454153 
 7597      5436345F 
 7597      4D494E20 
 7597      282D5F5F 
 7598              	.LASF63:
 7599 1374 5F5F494E 		.ascii	"__INTPTR_TYPE__ int\000"
 7599      54505452 
 7599      5F545950 
 7599      455F5F20 
 7599      696E7400 
 7600              	.LASF770:
 7601 1388 70644652 		.ascii	"pdFREERTOS_ERRNO_ENOTCONN 128\000"
 7601      45455254 
 7601      4F535F45 
 7601      52524E4F 
 7601      5F454E4F 
 7602              	.LASF1018:
 7603 13a6 7461736B 		.ascii	"taskENABLE_INTERRUPTS() portENABLE_INTERRUPTS()\000"
 7603      454E4142 
 7603      4C455F49 
 7603      4E544552 
 7603      52555054 
 7604              	.LASF773:
 7605 13d6 70644652 		.ascii	"pdFREERTOS_ERRNO_ECANCELED 140\000"
 7605      45455254 
 7605      4F535F45 
 7605      52524E4F 
 7605      5F454341 
 7606              	.LASF517:
 7607 13f5 5F5F474E 		.ascii	"__GNUC_PREREQ(maj,min) ((__GNUC__ << 16) + __GNUC_M"
 7607      55435F50 
 7607      52455245 
 7607      51286D61 
 7607      6A2C6D69 
 7608 1428 494E4F52 		.ascii	"INOR__ >= ((maj) << 16) + (min))\000"
 7608      5F5F203E 
 7608      3D202828 
 7608      6D616A29 
 7608      203C3C20 
 7609              	.LASF270:
 7610 1449 5F5F5546 		.ascii	"__UFRACT_MIN__ 0.0UR\000"
 7610      52414354 
ARM GAS  /tmp/cc5qDK7o.s 			page 171


 7610      5F4D494E 
 7610      5F5F2030 
 7610      2E305552 
 7611              	.LASF454:
 7612 145e 41524D5F 		.ascii	"ARM_MATH_CM4 1\000"
 7612      4D415448 
 7612      5F434D34 
 7612      203100
 7613              	.LASF593:
 7614 146d 5F494E54 		.ascii	"_INTPTR_T_DECLARED \000"
 7614      5054525F 
 7614      545F4445 
 7614      434C4152 
 7614      45442000 
 7615              	.LASF230:
 7616 1481 5F5F464C 		.ascii	"__FLT32X_HAS_INFINITY__ 1\000"
 7616      54333258 
 7616      5F484153 
 7616      5F494E46 
 7616      494E4954 
 7617              	.LASF636:
 7618 149b 494E545F 		.ascii	"INT_FAST32_MIN (-__INT_FAST32_MAX__ - 1)\000"
 7618      46415354 
 7618      33325F4D 
 7618      494E2028 
 7618      2D5F5F49 
 7619              	.LASF473:
 7620 14c4 5F535953 		.ascii	"_SYS_SIZE_T_H \000"
 7620      5F53495A 
 7620      455F545F 
 7620      482000
 7621              	.LASF824:
 7622 14d3 494E434C 		.ascii	"INCLUDE_xTaskResumeFromISR 1\000"
 7622      5544455F 
 7622      78546173 
 7622      6B526573 
 7622      756D6546 
 7623              	.LASF51:
 7624 14f0 5F5F5549 		.ascii	"__UINT_LEAST8_TYPE__ unsigned char\000"
 7624      4E545F4C 
 7624      45415354 
 7624      385F5459 
 7624      50455F5F 
 7625              	.LASF527:
 7626 1513 5F5F4154 		.ascii	"__ATFILE_VISIBLE 1\000"
 7626      46494C45 
 7626      5F564953 
 7626      49424C45 
 7626      203100
 7627              	.LASF303:
 7628 1526 5F5F4143 		.ascii	"__ACCUM_FBIT__ 15\000"
 7628      43554D5F 
 7628      46424954 
 7628      5F5F2031 
 7628      3500
 7629              	.LASF781:
 7630 1538 706F7274 		.ascii	"portCHAR char\000"
ARM GAS  /tmp/cc5qDK7o.s 			page 172


 7630      43484152 
 7630      20636861 
 7630      7200
 7631              	.LASF309:
 7632 1546 5F5F5541 		.ascii	"__UACCUM_IBIT__ 16\000"
 7632      4343554D 
 7632      5F494249 
 7632      545F5F20 
 7632      313600
 7633              	.LASF1073:
 7634 1559 5461736B 		.ascii	"TaskFunction_t\000"
 7634      46756E63 
 7634      74696F6E 
 7634      5F7400
 7635              	.LASF1099:
 7636 1568 50656E64 		.ascii	"PendSV_Handler\000"
 7636      53565F48 
 7636      616E646C 
 7636      657200
 7637              	.LASF130:
 7638 1577 5F5F494E 		.ascii	"__INT_FAST64_MAX__ 0x7fffffffffffffffLL\000"
 7638      545F4641 
 7638      53543634 
 7638      5F4D4158 
 7638      5F5F2030 
 7639              	.LASF224:
 7640 159f 5F5F464C 		.ascii	"__FLT32X_DECIMAL_DIG__ 17\000"
 7640      54333258 
 7640      5F444543 
 7640      494D414C 
 7640      5F444947 
 7641              	.LASF1037:
 7642 15b9 706F7274 		.ascii	"portNVIC_PEND_SYSTICK_CLEAR_BIT ( 1UL << 25UL )\000"
 7642      4E564943 
 7642      5F50454E 
 7642      445F5359 
 7642      53544943 
 7643              	.LASF168:
 7644 15e9 5F5F4442 		.ascii	"__DBL_MIN__ ((double)2.2250738585072014e-308L)\000"
 7644      4C5F4D49 
 7644      4E5F5F20 
 7644      2828646F 
 7644      75626C65 
 7645              	.LASF231:
 7646 1618 5F5F464C 		.ascii	"__FLT32X_HAS_QUIET_NAN__ 1\000"
 7646      54333258 
 7646      5F484153 
 7646      5F515549 
 7646      45545F4E 
 7647              	.LASF977:
 7648 1633 784C6973 		.ascii	"xList List_t\000"
 7648      74204C69 
 7648      73745F74 
 7648      00
 7649              	.LASF699:
 7650 1640 636F6E66 		.ascii	"configUSE_TIMERS 1\000"
 7650      69675553 
ARM GAS  /tmp/cc5qDK7o.s 			page 173


 7650      455F5449 
 7650      4D455253 
 7650      203100
 7651              	.LASF227:
 7652 1653 5F5F464C 		.ascii	"__FLT32X_EPSILON__ 2.2204460492503131e-16F32x\000"
 7652      54333258 
 7652      5F455053 
 7652      494C4F4E 
 7652      5F5F2032 
 7653              	.LASF545:
 7654 1681 5F5F5F69 		.ascii	"___int_least16_t_defined 1\000"
 7654      6E745F6C 
 7654      65617374 
 7654      31365F74 
 7654      5F646566 
 7655              	.LASF87:
 7656 169c 5F5F5349 		.ascii	"__SIZE_WIDTH__ 32\000"
 7656      5A455F57 
 7656      49445448 
 7656      5F5F2033 
 7656      3200
 7657              	.LASF247:
 7658 16ae 5F5F4445 		.ascii	"__DEC128_MIN_EXP__ (-6142)\000"
 7658      43313238 
 7658      5F4D494E 
 7658      5F455850 
 7658      5F5F2028 
 7659              	.LASF55:
 7660 16c9 5F5F494E 		.ascii	"__INT_FAST8_TYPE__ int\000"
 7660      545F4641 
 7660      5354385F 
 7660      54595045 
 7660      5F5F2069 
 7661              	.LASF365:
 7662 16e0 5F5F5544 		.ascii	"__UDA_FBIT__ 32\000"
 7662      415F4642 
 7662      49545F5F 
 7662      20333200 
 7663              	.LASF470:
 7664 16f0 5F5F7369 		.ascii	"__size_t__ \000"
 7664      7A655F74 
 7664      5F5F2000 
 7665              	.LASF209:
 7666 16fc 5F5F464C 		.ascii	"__FLT64_MAX_10_EXP__ 308\000"
 7666      5436345F 
 7666      4D41585F 
 7666      31305F45 
 7666      58505F5F 
 7667              	.LASF761:
 7668 1715 70644652 		.ascii	"pdFREERTOS_ERRNO_EOPNOTSUPP 95\000"
 7668      45455254 
 7668      4F535F45 
 7668      52524E4F 
 7668      5F454F50 
 7669              	.LASF91:
 7670 1734 5F5F5549 		.ascii	"__UINTMAX_C(c) c ## ULL\000"
 7670      4E544D41 
ARM GAS  /tmp/cc5qDK7o.s 			page 174


 7670      585F4328 
 7670      63292063 
 7670      20232320 
 7671              	.LASF1097:
 7672 174c 53797354 		.ascii	"SysTick_Handler\000"
 7672      69636B5F 
 7672      48616E64 
 7672      6C657200 
 7673              	.LASF29:
 7674 175c 5F5F5349 		.ascii	"__SIZEOF_POINTER__ 4\000"
 7674      5A454F46 
 7674      5F504F49 
 7674      4E544552 
 7674      5F5F2034 
 7675              	.LASF47:
 7676 1771 5F5F494E 		.ascii	"__INT_LEAST8_TYPE__ signed char\000"
 7676      545F4C45 
 7676      41535438 
 7676      5F545950 
 7676      455F5F20 
 7677              	.LASF828:
 7678 1791 636F6E66 		.ascii	"configNUM_THREAD_LOCAL_STORAGE_POINTERS 0\000"
 7678      69674E55 
 7678      4D5F5448 
 7678      52454144 
 7678      5F4C4F43 
 7679              	.LASF836:
 7680 17bb 76517565 		.ascii	"vQueueUnregisterQueue(xQueue) \000"
 7680      7565556E 
 7680      72656769 
 7680      73746572 
 7680      51756575 
 7681              	.LASF376:
 7682 17da 5F5F4743 		.ascii	"__GCC_ATOMIC_BOOL_LOCK_FREE 2\000"
 7682      435F4154 
 7682      4F4D4943 
 7682      5F424F4F 
 7682      4C5F4C4F 
 7683              	.LASF673:
 7684 17f8 636F6E66 		.ascii	"configUSE_PREEMPTION 1\000"
 7684      69675553 
 7684      455F5052 
 7684      45454D50 
 7684      54494F4E 
 7685              	.LASF543:
 7686 180f 5F5F5F69 		.ascii	"___int64_t_defined 1\000"
 7686      6E743634 
 7686      5F745F64 
 7686      6566696E 
 7686      65642031 
 7687              	.LASF431:
 7688 1824 5F5F4152 		.ascii	"__ARM_NEON__\000"
 7688      4D5F4E45 
 7688      4F4E5F5F 
 7688      00
 7689              	.LASF605:
 7690 1831 55494E54 		.ascii	"UINTPTR_MAX (__UINTPTR_MAX__)\000"
ARM GAS  /tmp/cc5qDK7o.s 			page 175


 7690      5054525F 
 7690      4D415820 
 7690      285F5F55 
 7690      494E5450 
 7691              	.LASF193:
 7692 184f 5F5F464C 		.ascii	"__FLT32_MAX_EXP__ 128\000"
 7692      5433325F 
 7692      4D41585F 
 7692      4558505F 
 7692      5F203132 
 7693              	.LASF793:
 7694 1865 706F7274 		.ascii	"portYIELD() { portNVIC_INT_CTRL_REG = portNVIC_PEND"
 7694      5949454C 
 7694      44282920 
 7694      7B20706F 
 7694      72744E56 
 7695 1898 53565345 		.ascii	"SVSET_BIT; __asm volatile( \"dsb\" ::: \"memory\" )"
 7695      545F4249 
 7695      543B205F 
 7695      5F61736D 
 7695      20766F6C 
 7696 18c7 3B205F5F 		.ascii	"; __asm volatile( \"isb\" ); }\000"
 7696      61736D20 
 7696      766F6C61 
 7696      74696C65 
 7696      28202269 
 7697              	.LASF359:
 7698 18e4 5F5F5441 		.ascii	"__TA_FBIT__ 63\000"
 7698      5F464249 
 7698      545F5F20 
 7698      363300
 7699              	.LASF434:
 7700 18f3 5F5F5448 		.ascii	"__THUMB_INTERWORK__ 1\000"
 7700      554D425F 
 7700      494E5445 
 7700      52574F52 
 7700      4B5F5F20 
 7701              	.LASF291:
 7702 1909 5F5F554C 		.ascii	"__ULLFRACT_MAX__ 0XFFFFFFFFFFFFFFFFP-64ULLR\000"
 7702      4C465241 
 7702      43545F4D 
 7702      41585F5F 
 7702      20305846 
 7703              	.LASF1013:
 7704 1935 7461736B 		.ascii	"taskENTER_CRITICAL() portENTER_CRITICAL()\000"
 7704      454E5445 
 7704      525F4352 
 7704      49544943 
 7704      414C2829 
 7705              	.LASF955:
 7706 195f 65546173 		.ascii	"eTaskStateGet eTaskGetState\000"
 7706      6B537461 
 7706      74654765 
 7706      74206554 
 7706      61736B47 
 7707              	.LASF589:
 7708 197b 5F55494E 		.ascii	"_UINT64_T_DECLARED \000"
ARM GAS  /tmp/cc5qDK7o.s 			page 176


 7708      5436345F 
 7708      545F4445 
 7708      434C4152 
 7708      45442000 
 7709              	.LASF732:
 7710 198f 636F6E66 		.ascii	"configUSE_LIST_DATA_INTEGRITY_CHECK_BYTES 0\000"
 7710      69675553 
 7710      455F4C49 
 7710      53545F44 
 7710      4154415F 
 7711              	.LASF482:
 7712 19bb 5F53495A 		.ascii	"_SIZE_T_DECLARED \000"
 7712      455F545F 
 7712      4445434C 
 7712      41524544 
 7712      2000
 7713              	.LASF921:
 7714 19cd 74726163 		.ascii	"traceBLOCKING_ON_STREAM_BUFFER_SEND(xStreamBuffer) "
 7714      65424C4F 
 7714      434B494E 
 7714      475F4F4E 
 7714      5F535452 
 7715 1a00 00       		.ascii	"\000"
 7716              	.LASF37:
 7717 1a01 5F5F4348 		.ascii	"__CHAR32_TYPE__ long unsigned int\000"
 7717      41523332 
 7717      5F545950 
 7717      455F5F20 
 7717      6C6F6E67 
 7718              	.LASF1075:
 7719 1a23 42617365 		.ascii	"BaseType_t\000"
 7719      54797065 
 7719      5F7400
 7720              	.LASF428:
 7721 1a2e 5F5F4152 		.ascii	"__ARM_FEATURE_FP16_VECTOR_ARITHMETIC\000"
 7721      4D5F4645 
 7721      41545552 
 7721      455F4650 
 7721      31365F56 
 7722              	.LASF714:
 7723 1a53 636F6E66 		.ascii	"configLIBRARY_MAX_SYSCALL_INTERRUPT_PRIORITY 5\000"
 7723      69674C49 
 7723      42524152 
 7723      595F4D41 
 7723      585F5359 
 7724              	.LASF524:
 7725 1a82 5F504F53 		.ascii	"_POSIX_C_SOURCE 200809L\000"
 7725      49585F43 
 7725      5F534F55 
 7725      52434520 
 7725      32303038 
 7726              	.LASF134:
 7727 1a9a 5F5F5549 		.ascii	"__UINT_FAST32_MAX__ 0xffffffffU\000"
 7727      4E545F46 
 7727      41535433 
 7727      325F4D41 
 7727      585F5F20 
ARM GAS  /tmp/cc5qDK7o.s 			page 177


 7728              	.LASF149:
 7729 1aba 5F5F464C 		.ascii	"__FLT_MAX_EXP__ 128\000"
 7729      545F4D41 
 7729      585F4558 
 7729      505F5F20 
 7729      31323800 
 7730              	.LASF15:
 7731 1ace 5F5F5349 		.ascii	"__SIZEOF_LONG__ 4\000"
 7731      5A454F46 
 7731      5F4C4F4E 
 7731      475F5F20 
 7731      3400
 7732              	.LASF752:
 7733 1ae0 70644652 		.ascii	"pdFREERTOS_ERRNO_ENOSPC 28\000"
 7733      45455254 
 7733      4F535F45 
 7733      52524E4F 
 7733      5F454E4F 
 7734              	.LASF1085:
 7735 1afb 75634D61 		.ascii	"ucMaxSysCallPriority\000"
 7735      78537973 
 7735      43616C6C 
 7735      5072696F 
 7735      72697479 
 7736              	.LASF849:
 7737 1b10 74726163 		.ascii	"traceBLOCKING_ON_QUEUE_PEEK(pxQueue) \000"
 7737      65424C4F 
 7737      434B494E 
 7737      475F4F4E 
 7737      5F515545 
 7738              	.LASF888:
 7739 1b36 74726163 		.ascii	"traceTIMER_CREATE(pxNewTimer) \000"
 7739      6554494D 
 7739      45525F43 
 7739      52454154 
 7739      45287078 
 7740              	.LASF1095:
 7741 1b55 784D6F64 		.ascii	"xModifiableIdleTime\000"
 7741      69666961 
 7741      626C6549 
 7741      646C6554 
 7741      696D6500 
 7742              	.LASF19:
 7743 1b69 5F5F5349 		.ascii	"__SIZEOF_DOUBLE__ 8\000"
 7743      5A454F46 
 7743      5F444F55 
 7743      424C455F 
 7743      5F203800 
 7744              	.LASF1079:
 7745 1b7d 65537461 		.ascii	"eStandardSleep\000"
 7745      6E646172 
 7745      64536C65 
 7745      657000
 7746              	.LASF881:
 7747 1b8c 74726163 		.ascii	"traceTASK_DELAY_UNTIL(x) \000"
 7747      65544153 
 7747      4B5F4445 
ARM GAS  /tmp/cc5qDK7o.s 			page 178


 7747      4C41595F 
 7747      554E5449 
 7748              	.LASF1052:
 7749 1ba6 706F7274 		.ascii	"portFPCCR ( ( volatile uint32_t * ) 0xe000ef34 )\000"
 7749      46504343 
 7749      52202820 
 7749      2820766F 
 7749      6C617469 
 7750              	.LASF815:
 7751 1bd7 50524956 		.ascii	"PRIVILEGED_DATA \000"
 7751      494C4547 
 7751      45445F44 
 7751      41544120 
 7751      00
 7752              	.LASF765:
 7753 1be8 70644652 		.ascii	"pdFREERTOS_ERRNO_ETIMEDOUT 116\000"
 7753      45455254 
 7753      4F535F45 
 7753      52524E4F 
 7753      5F455449 
 7754              	.LASF982:
 7755 1c07 6C697374 		.ascii	"listFIRST_LIST_ITEM_INTEGRITY_CHECK_VALUE \000"
 7755      46495253 
 7755      545F4C49 
 7755      53545F49 
 7755      54454D5F 
 7756              	.LASF571:
 7757 1c32 5F5F4641 		.ascii	"__FAST16 \000"
 7757      53543136 
 7757      2000
 7758              	.LASF905:
 7759 1c3c 74726163 		.ascii	"traceEVENT_GROUP_DELETE(xEventGroup) \000"
 7759      65455645 
 7759      4E545F47 
 7759      524F5550 
 7759      5F44454C 
 7760              	.LASF531:
 7761 1c62 5F5F4C41 		.ascii	"__LARGEFILE_VISIBLE 0\000"
 7761      52474546 
 7761      494C455F 
 7761      56495349 
 7761      424C4520 
 7762              	.LASF243:
 7763 1c78 5F5F4445 		.ascii	"__DEC64_MAX__ 9.999999999999999E384DD\000"
 7763      4336345F 
 7763      4D41585F 
 7763      5F20392E 
 7763      39393939 
 7764              	.LASF514:
 7765 1c9e 5F5F4E45 		.ascii	"__NEWLIB__ 3\000"
 7765      574C4942 
 7765      5F5F2033 
 7765      00
 7766              	.LASF731:
 7767 1cab 65727251 		.ascii	"errQUEUE_YIELD ( -5 )\000"
 7767      55455545 
 7767      5F594945 
ARM GAS  /tmp/cc5qDK7o.s 			page 179


 7767      4C442028 
 7767      202D3520 
 7768              	.LASF367:
 7769 1cc1 5F5F5554 		.ascii	"__UTA_FBIT__ 64\000"
 7769      415F4642 
 7769      49545F5F 
 7769      20363400 
 7770              	.LASF530:
 7771 1cd1 5F5F4953 		.ascii	"__ISO_C_VISIBLE 1999\000"
 7771      4F5F435F 
 7771      56495349 
 7771      424C4520 
 7771      31393939 
 7772              	.LASF971:
 7773 1ce6 70635469 		.ascii	"pcTimerGetTimerName pcTimerGetName\000"
 7773      6D657247 
 7773      65745469 
 7773      6D65724E 
 7773      616D6520 
 7774              	.LASF151:
 7775 1d09 5F5F464C 		.ascii	"__FLT_DECIMAL_DIG__ 9\000"
 7775      545F4445 
 7775      43494D41 
 7775      4C5F4449 
 7775      475F5F20 
 7776              	.LASF832:
 7777 1d1f 706F7274 		.ascii	"portCLEAN_UP_TCB(pxTCB) ( void ) pxTCB\000"
 7777      434C4541 
 7777      4E5F5550 
 7777      5F544342 
 7777      28707854 
 7778              	.LASF580:
 7779 1d46 5F55494E 		.ascii	"_UINT8_T_DECLARED \000"
 7779      54385F54 
 7779      5F444543 
 7779      4C415245 
 7779      442000
 7780              	.LASF884:
 7781 1d59 74726163 		.ascii	"traceTASK_SUSPEND(pxTaskToSuspend) \000"
 7781      65544153 
 7781      4B5F5355 
 7781      5350454E 
 7781      44287078 
 7782              	.LASF1061:
 7783 1d7d 7369676E 		.ascii	"signed char\000"
 7783      65642063 
 7783      68617200 
 7784              	.LASF1071:
 7785 1d89 75696E74 		.ascii	"uint8_t\000"
 7785      385F7400 
 7786              	.LASF643:
 7787 1d91 494E544D 		.ascii	"INTMAX_MIN (-INTMAX_MAX - 1)\000"
 7787      41585F4D 
 7787      494E2028 
 7787      2D494E54 
 7787      4D41585F 
 7788              	.LASF1032:
ARM GAS  /tmp/cc5qDK7o.s 			page 180


 7789 1dae 706F7274 		.ascii	"portNVIC_SYSPRI2_REG ( * ( ( volatile uint32_t * ) "
 7789      4E564943 
 7789      5F535953 
 7789      50524932 
 7789      5F524547 
 7790 1de1 30786530 		.ascii	"0xe000ed20 ) )\000"
 7790      30306564 
 7790      32302029 
 7790      202900
 7791              	.LASF430:
 7792 1df0 5F5F4152 		.ascii	"__ARM_FEATURE_FMA 1\000"
 7792      4D5F4645 
 7792      41545552 
 7792      455F464D 
 7792      41203100 
 7793              	.LASF968:
 7794 1e04 70645441 		.ascii	"pdTASK_HOOK_CODE TaskHookFunction_t\000"
 7794      534B5F48 
 7794      4F4F4B5F 
 7794      434F4445 
 7794      20546173 
 7795              	.LASF650:
 7796 1e28 57434841 		.ascii	"WCHAR_MIN (__WCHAR_MIN__)\000"
 7796      525F4D49 
 7796      4E20285F 
 7796      5F574348 
 7796      41525F4D 
 7797              	.LASF996:
 7798 1e42 6C697374 		.ascii	"listGET_ITEM_VALUE_OF_HEAD_ENTRY(pxList) ( ( ( pxLi"
 7798      4745545F 
 7798      4954454D 
 7798      5F56414C 
 7798      55455F4F 
 7799 1e75 73742029 		.ascii	"st )->xListEnd ).pxNext->xItemValue )\000"
 7799      2D3E784C 
 7799      69737445 
 7799      6E642029 
 7799      2E70784E 
 7800              	.LASF263:
 7801 1e9b 5F5F4652 		.ascii	"__FRACT_FBIT__ 15\000"
 7801      4143545F 
 7801      46424954 
 7801      5F5F2031 
 7801      3500
 7802              	.LASF962:
 7803 1ead 7854696D 		.ascii	"xTimeOutType TimeOut_t\000"
 7803      654F7574 
 7803      54797065 
 7803      2054696D 
 7803      654F7574 
 7804              	.LASF327:
 7805 1ec4 5F5F4C4C 		.ascii	"__LLACCUM_EPSILON__ 0x1P-31LLK\000"
 7805      41434355 
 7805      4D5F4550 
 7805      53494C4F 
 7805      4E5F5F20 
 7806              	.LASF4:
ARM GAS  /tmp/cc5qDK7o.s 			page 181


 7807 1ee3 5F5F474E 		.ascii	"__GNUC_PATCHLEVEL__ 1\000"
 7807      55435F50 
 7807      41544348 
 7807      4C455645 
 7807      4C5F5F20 
 7808              	.LASF379:
 7809 1ef9 5F5F4743 		.ascii	"__GCC_ATOMIC_CHAR32_T_LOCK_FREE 2\000"
 7809      435F4154 
 7809      4F4D4943 
 7809      5F434841 
 7809      5233325F 
 7810              	.LASF118:
 7811 1f1b 5F5F5549 		.ascii	"__UINT_LEAST16_MAX__ 0xffff\000"
 7811      4E545F4C 
 7811      45415354 
 7811      31365F4D 
 7811      41585F5F 
 7812              	.LASF933:
 7813 1f37 636F6E66 		.ascii	"configPRE_SLEEP_PROCESSING(x) \000"
 7813      69675052 
 7813      455F534C 
 7813      4545505F 
 7813      50524F43 
 7814              	.LASF1036:
 7815 1f56 706F7274 		.ascii	"portNVIC_PENDSVCLEAR_BIT ( 1UL << 27UL )\000"
 7815      4E564943 
 7815      5F50454E 
 7815      44535643 
 7815      4C454152 
 7816              	.LASF785:
 7817 1f7f 706F7274 		.ascii	"portSHORT short\000"
 7817      53484F52 
 7817      54207368 
 7817      6F727400 
 7818              	.LASF410:
 7819 1f8f 5F5F4152 		.ascii	"__ARM_ARCH_PROFILE 77\000"
 7819      4D5F4152 
 7819      43485F50 
 7819      524F4649 
 7819      4C452037 
 7820              	.LASF880:
 7821 1fa5 74726163 		.ascii	"traceTASK_DELETE(pxTaskToDelete) \000"
 7821      65544153 
 7821      4B5F4445 
 7821      4C455445 
 7821      28707854 
 7822              	.LASF509:
 7823 1fc7 5F535444 		.ascii	"_STDINT_H \000"
 7823      494E545F 
 7823      482000
 7824              	.LASF992:
 7825 1fd2 6C697374 		.ascii	"listSET_LIST_ITEM_OWNER(pxListItem,pxOwner) ( ( pxL"
 7825      5345545F 
 7825      4C495354 
 7825      5F495445 
 7825      4D5F4F57 
 7826 2005 69737449 		.ascii	"istItem )->pvOwner = ( void * ) ( pxOwner ) )\000"
ARM GAS  /tmp/cc5qDK7o.s 			page 182


 7826      74656D20 
 7826      292D3E70 
 7826      764F776E 
 7826      6572203D 
 7827              	.LASF296:
 7828 2033 5F5F5341 		.ascii	"__SACCUM_MAX__ 0X7FFFP-7HK\000"
 7828      4343554D 
 7828      5F4D4158 
 7828      5F5F2030 
 7828      58374646 
 7829              	.LASF146:
 7830 204e 5F5F464C 		.ascii	"__FLT_DIG__ 6\000"
 7830      545F4449 
 7830      475F5F20 
 7830      3600
 7831              	.LASF863:
 7832 205c 74726163 		.ascii	"traceCREATE_COUNTING_SEMAPHORE() \000"
 7832      65435245 
 7832      4154455F 
 7832      434F554E 
 7832      54494E47 
 7833              	.LASF481:
 7834 207e 5F425344 		.ascii	"_BSD_SIZE_T_DEFINED_ \000"
 7834      5F53495A 
 7834      455F545F 
 7834      44454649 
 7834      4E45445F 
 7835              	.LASF760:
 7836 2094 70644652 		.ascii	"pdFREERTOS_ERRNO_ENAMETOOLONG 91\000"
 7836      45455254 
 7836      4F535F45 
 7836      52524E4F 
 7836      5F454E41 
 7837              	.LASF1127:
 7838 20b5 756C4E65 		.ascii	"ulNewMaskValue\000"
 7838      774D6173 
 7838      6B56616C 
 7838      756500
 7839              	.LASF483:
 7840 20c4 5F5F5F69 		.ascii	"___int_size_t_h \000"
 7840      6E745F73 
 7840      697A655F 
 7840      745F6820 
 7840      00
 7841              	.LASF18:
 7842 20d5 5F5F5349 		.ascii	"__SIZEOF_FLOAT__ 4\000"
 7842      5A454F46 
 7842      5F464C4F 
 7842      41545F5F 
 7842      203400
 7843              	.LASF228:
 7844 20e8 5F5F464C 		.ascii	"__FLT32X_DENORM_MIN__ 4.9406564584124654e-324F32x\000"
 7844      54333258 
 7844      5F44454E 
 7844      4F524D5F 
 7844      4D494E5F 
 7845              	.LASF150:
ARM GAS  /tmp/cc5qDK7o.s 			page 183


 7846 211a 5F5F464C 		.ascii	"__FLT_MAX_10_EXP__ 38\000"
 7846      545F4D41 
 7846      585F3130 
 7846      5F455850 
 7846      5F5F2033 
 7847              	.LASF954:
 7848 2130 636F6E66 		.ascii	"configMIN(a,b) ( ( ( a ) < ( b ) ) ? ( a ) : ( b ) "
 7848      69674D49 
 7848      4E28612C 
 7848      62292028 
 7848      20282028 
 7849 2163 2900     		.ascii	")\000"
 7850              	.LASF250:
 7851 2165 5F5F4445 		.ascii	"__DEC128_MAX__ 9.999999999999999999999999999999999E"
 7851      43313238 
 7851      5F4D4158 
 7851      5F5F2039 
 7851      2E393939 
 7852 2198 36313434 		.ascii	"6144DL\000"
 7852      444C00
 7853              	.LASF266:
 7854 219f 5F5F4652 		.ascii	"__FRACT_MAX__ 0X7FFFP-15R\000"
 7854      4143545F 
 7854      4D41585F 
 7854      5F203058 
 7854      37464646 
 7855              	.LASF847:
 7856 21b9 74726163 		.ascii	"traceTASK_PRIORITY_DISINHERIT(pxTCBOfMutexHolder,ux"
 7856      65544153 
 7856      4B5F5052 
 7856      494F5249 
 7856      54595F44 
 7857 21ec 4F726967 		.ascii	"OriginalPriority) \000"
 7857      696E616C 
 7857      5072696F 
 7857      72697479 
 7857      292000
 7858              	.LASF859:
 7859 21ff 74726163 		.ascii	"traceGIVE_MUTEX_RECURSIVE(pxMutex) \000"
 7859      65474956 
 7859      455F4D55 
 7859      5445585F 
 7859      52454355 
 7860              	.LASF767:
 7861 2223 70644652 		.ascii	"pdFREERTOS_ERRNO_EALREADY 120\000"
 7861      45455254 
 7861      4F535F45 
 7861      52524E4F 
 7861      5F45414C 
 7862              	.LASF128:
 7863 2241 5F5F494E 		.ascii	"__INT_FAST32_MAX__ 0x7fffffff\000"
 7863      545F4641 
 7863      53543332 
 7863      5F4D4158 
 7863      5F5F2030 
 7864              	.LASF7:
 7865 225f 5F5F4154 		.ascii	"__ATOMIC_SEQ_CST 5\000"
ARM GAS  /tmp/cc5qDK7o.s 			page 184


 7865      4F4D4943 
 7865      5F534551 
 7865      5F435354 
 7865      203500
 7866              	.LASF766:
 7867 2272 70644652 		.ascii	"pdFREERTOS_ERRNO_EINPROGRESS 119\000"
 7867      45455254 
 7867      4F535F45 
 7867      52524E4F 
 7867      5F45494E 
 7868              	.LASF720:
 7869 2293 636F6E66 		.ascii	"configASSERT(x) if( ( x ) == 0UL ) { taskDISABLE_IN"
 7869      69674153 
 7869      53455254 
 7869      28782920 
 7869      69662820 
 7870 22c6 54455252 		.ascii	"TERRUPTS(); for( ;; ); }\000"
 7870      55505453 
 7870      28293B20 
 7870      666F7228 
 7870      203B3B20 
 7871              	.LASF1115:
 7872 22df 76506F72 		.ascii	"vPortSetBASEPRI\000"
 7872      74536574 
 7872      42415345 
 7872      50524900 
 7873              	.LASF925:
 7874 22ef 74726163 		.ascii	"traceBLOCKING_ON_STREAM_BUFFER_RECEIVE(xStreamBuffe"
 7874      65424C4F 
 7874      434B494E 
 7874      475F4F4E 
 7874      5F535452 
 7875 2322 72292000 		.ascii	"r) \000"
 7876              	.LASF631:
 7877 2326 494E545F 		.ascii	"INT_FAST8_MAX (__INT_FAST8_MAX__)\000"
 7877      46415354 
 7877      385F4D41 
 7877      5820285F 
 7877      5F494E54 
 7878              	.LASF829:
 7879 2348 636F6E66 		.ascii	"configUSE_ALTERNATIVE_API 0\000"
 7879      69675553 
 7879      455F414C 
 7879      5445524E 
 7879      41544956 
 7880              	.LASF644:
 7881 2364 55494E54 		.ascii	"UINTMAX_MAX (__UINTMAX_MAX__)\000"
 7881      4D41585F 
 7881      4D415820 
 7881      285F5F55 
 7881      494E544D 
 7882              	.LASF947:
 7883 2382 706F7274 		.ascii	"portTICK_TYPE_ENTER_CRITICAL() \000"
 7883      5449434B 
 7883      5F545950 
 7883      455F454E 
 7883      5445525F 
ARM GAS  /tmp/cc5qDK7o.s 			page 185


 7884              	.LASF341:
 7885 23a2 5F5F5451 		.ascii	"__TQ_FBIT__ 127\000"
 7885      5F464249 
 7885      545F5F20 
 7885      31323700 
 7886              	.LASF976:
 7887 23b2 784C6973 		.ascii	"xListItem ListItem_t\000"
 7887      74497465 
 7887      6D204C69 
 7887      73744974 
 7887      656D5F74 
 7888              	.LASF833:
 7889 23c7 706F7274 		.ascii	"portPRE_TASK_DELETE_HOOK(pvTaskToDelete,pxYieldPend"
 7889      5052455F 
 7889      5441534B 
 7889      5F44454C 
 7889      4554455F 
 7890 23fa 696E6729 		.ascii	"ing) \000"
 7890      2000
 7891              	.LASF178:
 7892 2400 5F5F4C44 		.ascii	"__LDBL_MAX_EXP__ 1024\000"
 7892      424C5F4D 
 7892      41585F45 
 7892      58505F5F 
 7892      20313032 
 7893              	.LASF252:
 7894 2416 5F5F4445 		.ascii	"__DEC128_SUBNORMAL_MIN__ 0.000000000000000000000000"
 7894      43313238 
 7894      5F535542 
 7894      4E4F524D 
 7894      414C5F4D 
 7895 2449 30303030 		.ascii	"000000001E-6143DL\000"
 7895      30303030 
 7895      31452D36 
 7895      31343344 
 7895      4C00
 7896              	.LASF1050:
 7897 245b 706F7274 		.ascii	"portPRIGROUP_SHIFT ( 8UL )\000"
 7897      50524947 
 7897      524F5550 
 7897      5F534849 
 7897      46542028 
 7898              	.LASF602:
 7899 2476 5F5F696E 		.ascii	"__int_fast64_t_defined 1\000"
 7899      745F6661 
 7899      73743634 
 7899      5F745F64 
 7899      6566696E 
 7900              	.LASF686:
 7901 248f 636F6E66 		.ascii	"configQUEUE_REGISTRY_SIZE 0\000"
 7901      69675155 
 7901      4555455F 
 7901      52454749 
 7901      53545259 
 7902              	.LASF974:
 7903 24ab 746D7254 		.ascii	"tmrTIMER_CALLBACK TimerCallbackFunction_t\000"
 7903      494D4552 
ARM GAS  /tmp/cc5qDK7o.s 			page 186


 7903      5F43414C 
 7903      4C424143 
 7903      4B205469 
 7904              	.LASF416:
 7905 24d5 5F5F7468 		.ascii	"__thumb2__ 1\000"
 7905      756D6232 
 7905      5F5F2031 
 7905      00
 7906              	.LASF328:
 7907 24e2 5F5F554C 		.ascii	"__ULLACCUM_FBIT__ 32\000"
 7907      4C414343 
 7907      554D5F46 
 7907      4249545F 
 7907      5F203332 
 7908              	.LASF896:
 7909 24f7 74726163 		.ascii	"traceEVENT_GROUP_CREATE_FAILED() \000"
 7909      65455645 
 7909      4E545F47 
 7909      524F5550 
 7909      5F435245 
 7910              	.LASF936:
 7911 2519 706F7274 		.ascii	"portTASK_CALLS_SECURE_FUNCTIONS() \000"
 7911      5441534B 
 7911      5F43414C 
 7911      4C535F53 
 7911      45435552 
 7912              	.LASF1033:
 7913 253c 706F7274 		.ascii	"portNVIC_SYSTICK_INT_BIT ( 1UL << 1UL )\000"
 7913      4E564943 
 7913      5F535953 
 7913      5449434B 
 7913      5F494E54 
 7914              	.LASF511:
 7915 2564 5F535953 		.ascii	"_SYS_FEATURES_H \000"
 7915      5F464541 
 7915      54555245 
 7915      535F4820 
 7915      00
 7916              	.LASF1112:
 7917 2575 7078546F 		.ascii	"pxTopOfStack\000"
 7917      704F6653 
 7917      7461636B 
 7917      00
 7918              	.LASF20:
 7919 2582 5F5F5349 		.ascii	"__SIZEOF_LONG_DOUBLE__ 8\000"
 7919      5A454F46 
 7919      5F4C4F4E 
 7919      475F444F 
 7919      55424C45 
 7920              	.LASF748:
 7921 259b 70644652 		.ascii	"pdFREERTOS_ERRNO_ENODEV 19\000"
 7921      45455254 
 7921      4F535F45 
 7921      52524E4F 
 7921      5F454E4F 
 7922              	.LASF823:
 7923 25b6 494E434C 		.ascii	"INCLUDE_uxTaskGetStackHighWaterMark 0\000"
ARM GAS  /tmp/cc5qDK7o.s 			page 187


 7923      5544455F 
 7923      75785461 
 7923      736B4765 
 7923      74537461 
 7924              	.LASF388:
 7925 25dc 5F5F5052 		.ascii	"__PRAGMA_REDEFINE_EXTNAME 1\000"
 7925      41474D41 
 7925      5F524544 
 7925      4546494E 
 7925      455F4558 
 7926              	.LASF32:
 7927 25f8 5F5F5743 		.ascii	"__WCHAR_TYPE__ unsigned int\000"
 7927      4841525F 
 7927      54595045 
 7927      5F5F2075 
 7927      6E736967 
 7928              	.LASF963:
 7929 2614 784D656D 		.ascii	"xMemoryRegion MemoryRegion_t\000"
 7929      6F727952 
 7929      6567696F 
 7929      6E204D65 
 7929      6D6F7279 
 7930              	.LASF778:
 7931 2631 504F5254 		.ascii	"PORTABLE_H \000"
 7931      41424C45 
 7931      5F482000 
 7932              	.LASF553:
 7933 263d 63686172 		.ascii	"char\000"
 7933      00
 7934              	.LASF364:
 7935 2642 5F5F5553 		.ascii	"__USA_IBIT__ 16\000"
 7935      415F4942 
 7935      49545F5F 
 7935      20313600 
 7936              	.LASF374:
 7937 2652 5F5F4743 		.ascii	"__GCC_HAVE_SYNC_COMPARE_AND_SWAP_2 1\000"
 7937      435F4841 
 7937      56455F53 
 7937      594E435F 
 7937      434F4D50 
 7938              	.LASF662:
 7939 2677 494E544D 		.ascii	"INTMAX_C(x) __INTMAX_C(x)\000"
 7939      41585F43 
 7939      28782920 
 7939      5F5F494E 
 7939      544D4158 
 7940              	.LASF649:
 7941 2691 50545244 		.ascii	"PTRDIFF_MIN (-PTRDIFF_MAX - 1)\000"
 7941      4946465F 
 7941      4D494E20 
 7941      282D5054 
 7941      52444946 
 7942              	.LASF675:
 7943 26b0 636F6E66 		.ascii	"configUSE_QUEUE_SETS 1\000"
 7943      69675553 
 7943      455F5155 
 7943      4555455F 
ARM GAS  /tmp/cc5qDK7o.s 			page 188


 7943      53455453 
 7944              	.LASF62:
 7945 26c7 5F5F5549 		.ascii	"__UINT_FAST64_TYPE__ long long unsigned int\000"
 7945      4E545F46 
 7945      41535436 
 7945      345F5459 
 7945      50455F5F 
 7946              	.LASF241:
 7947 26f3 5F5F4445 		.ascii	"__DEC64_MAX_EXP__ 385\000"
 7947      4336345F 
 7947      4D41585F 
 7947      4558505F 
 7947      5F203338 
 7948              	.LASF695:
 7949 2709 706F7274 		.ascii	"portGET_RUN_TIME_COUNTER_VALUE() \000"
 7949      4745545F 
 7949      52554E5F 
 7949      54494D45 
 7949      5F434F55 
 7950              	.LASF1011:
 7951 272b 74736B49 		.ascii	"tskIDLE_PRIORITY ( ( UBaseType_t ) 0U )\000"
 7951      444C455F 
 7951      5052494F 
 7951      52495459 
 7951      20282028 
 7952              	.LASF153:
 7953 2753 5F5F464C 		.ascii	"__FLT_MIN__ 1.1754943508222875e-38F\000"
 7953      545F4D49 
 7953      4E5F5F20 
 7953      312E3137 
 7953      35343934 
 7954              	.LASF840:
 7955 2777 74726163 		.ascii	"traceEND() \000"
 7955      65454E44 
 7955      28292000 
 7956              	.LASF353:
 7957 2783 5F5F4841 		.ascii	"__HA_FBIT__ 7\000"
 7957      5F464249 
 7957      545F5F20 
 7957      3700
 7958              	.LASF827:
 7959 2791 636F6E66 		.ascii	"configUSE_DAEMON_TASK_STARTUP_HOOK 0\000"
 7959      69675553 
 7959      455F4441 
 7959      454D4F4E 
 7959      5F544153 
 7960              	.LASF152:
 7961 27b6 5F5F464C 		.ascii	"__FLT_MAX__ 3.4028234663852886e+38F\000"
 7961      545F4D41 
 7961      585F5F20 
 7961      332E3430 
 7961      32383233 
 7962              	.LASF647:
 7963 27da 5349475F 		.ascii	"SIG_ATOMIC_MAX (__STDINT_EXP(INT_MAX))\000"
 7963      41544F4D 
 7963      49435F4D 
 7963      41582028 
ARM GAS  /tmp/cc5qDK7o.s 			page 189


 7963      5F5F5354 
 7964              	.LASF1039:
 7965 2801 706F7274 		.ascii	"portCORTEX_M7_r0p1_ID ( 0x410FC271UL )\000"
 7965      434F5254 
 7965      45585F4D 
 7965      375F7230 
 7965      70315F49 
 7966              	.LASF233:
 7967 2828 5F5F4445 		.ascii	"__DEC32_MIN_EXP__ (-94)\000"
 7967      4333325F 
 7967      4D494E5F 
 7967      4558505F 
 7967      5F20282D 
 7968              	.LASF664:
 7969 2840 5F474343 		.ascii	"_GCC_WRAP_STDINT_H \000"
 7969      5F575241 
 7969      505F5354 
 7969      44494E54 
 7969      5F482000 
 7970              	.LASF111:
 7971 2854 5F5F494E 		.ascii	"__INT32_C(c) c ## L\000"
 7971      5433325F 
 7971      43286329 
 7971      20632023 
 7971      23204C00 
 7972              	.LASF950:
 7973 2868 706F7274 		.ascii	"portTICK_TYPE_CLEAR_INTERRUPT_MASK_FROM_ISR(x) ( vo"
 7973      5449434B 
 7973      5F545950 
 7973      455F434C 
 7973      4541525F 
 7974 289b 69642029 		.ascii	"id ) x\000"
 7974      207800
 7975              	.LASF260:
 7976 28a2 5F5F5553 		.ascii	"__USFRACT_MIN__ 0.0UHR\000"
 7976      46524143 
 7976      545F4D49 
 7976      4E5F5F20 
 7976      302E3055 
 7977              	.LASF991:
 7978 28b9 6C697374 		.ascii	"listTEST_LIST_INTEGRITY(pxList) \000"
 7978      54455354 
 7978      5F4C4953 
 7978      545F494E 
 7978      54454752 
 7979              	.LASF432:
 7980 28da 5F5F4152 		.ascii	"__ARM_NEON\000"
 7980      4D5F4E45 
 7980      4F4E00
 7981              	.LASF100:
 7982 28e5 5F5F5549 		.ascii	"__UINT8_MAX__ 0xff\000"
 7982      4E54385F 
 7982      4D41585F 
 7982      5F203078 
 7982      666600
 7983              	.LASF592:
 7984 28f8 5F55494E 		.ascii	"_UINTMAX_T_DECLARED \000"
ARM GAS  /tmp/cc5qDK7o.s 			page 190


 7984      544D4158 
 7984      5F545F44 
 7984      45434C41 
 7984      52454420 
 7985              	.LASF1110:
 7986 290d 7078506F 		.ascii	"pxPortInitialiseStack\000"
 7986      7274496E 
 7986      69746961 
 7986      6C697365 
 7986      53746163 
 7987              	.LASF851:
 7988 2923 636F6E66 		.ascii	"configRECORD_STACK_HIGH_ADDRESS 0\000"
 7988      69675245 
 7988      434F5244 
 7988      5F535441 
 7988      434B5F48 
 7989              	.LASF581:
 7990 2945 5F5F696E 		.ascii	"__int8_t_defined 1\000"
 7990      74385F74 
 7990      5F646566 
 7990      696E6564 
 7990      203100
 7991              	.LASF753:
 7992 2958 70644652 		.ascii	"pdFREERTOS_ERRNO_ESPIPE 29\000"
 7992      45455254 
 7992      4F535F45 
 7992      52524E4F 
 7992      5F455350 
 7993              	.LASF171:
 7994 2973 5F5F4442 		.ascii	"__DBL_HAS_DENORM__ 1\000"
 7994      4C5F4841 
 7994      535F4445 
 7994      4E4F524D 
 7994      5F5F2031 
 7995              	.LASF763:
 7996 2988 70644652 		.ascii	"pdFREERTOS_ERRNO_ENOPROTOOPT 109\000"
 7996      45455254 
 7996      4F535F45 
 7996      52524E4F 
 7996      5F454E4F 
 7997              	.LASF642:
 7998 29a9 494E544D 		.ascii	"INTMAX_MAX (__INTMAX_MAX__)\000"
 7998      41585F4D 
 7998      41582028 
 7998      5F5F494E 
 7998      544D4158 
 7999              	.LASF619:
 8000 29c5 494E5433 		.ascii	"INT32_MAX (__INT32_MAX__)\000"
 8000      325F4D41 
 8000      5820285F 
 8000      5F494E54 
 8000      33325F4D 
 8001              	.LASF845:
 8002 29df 74726163 		.ascii	"traceTASK_SWITCHED_OUT() \000"
 8002      65544153 
 8002      4B5F5357 
 8002      49544348 
ARM GAS  /tmp/cc5qDK7o.s 			page 191


 8002      45445F4F 
 8003              	.LASF67:
 8004 29f9 5F5F4758 		.ascii	"__GXX_ABI_VERSION 1013\000"
 8004      585F4142 
 8004      495F5645 
 8004      5253494F 
 8004      4E203130 
 8005              	.LASF461:
 8006 2a10 5F545F50 		.ascii	"_T_PTRDIFF_ \000"
 8006      54524449 
 8006      46465F20 
 8006      00
 8007              	.LASF107:
 8008 2a1d 5F5F494E 		.ascii	"__INT_LEAST16_MAX__ 0x7fff\000"
 8008      545F4C45 
 8008      41535431 
 8008      365F4D41 
 8008      585F5F20 
 8009              	.LASF155:
 8010 2a38 5F5F464C 		.ascii	"__FLT_DENORM_MIN__ 1.4012984643248171e-45F\000"
 8010      545F4445 
 8010      4E4F524D 
 8010      5F4D494E 
 8010      5F5F2031 
 8011              	.LASF574:
 8012 2a63 5F5F4C45 		.ascii	"__LEAST8 \"hh\"\000"
 8012      41535438 
 8012      20226868 
 8012      2200
 8013              	.LASF696:
 8014 2a71 636F6E66 		.ascii	"configUSE_STATS_FORMATTING_FUNCTIONS 1\000"
 8014      69675553 
 8014      455F5354 
 8014      4154535F 
 8014      464F524D 
 8015              	.LASF994:
 8016 2a98 6C697374 		.ascii	"listSET_LIST_ITEM_VALUE(pxListItem,xValue) ( ( pxLi"
 8016      5345545F 
 8016      4C495354 
 8016      5F495445 
 8016      4D5F5641 
 8017 2acb 73744974 		.ascii	"stItem )->xItemValue = ( xValue ) )\000"
 8017      656D2029 
 8017      2D3E7849 
 8017      74656D56 
 8017      616C7565 
 8018              	.LASF789:
 8019 2aef 706F7274 		.ascii	"portTICK_TYPE_IS_ATOMIC 1\000"
 8019      5449434B 
 8019      5F545950 
 8019      455F4953 
 8019      5F41544F 
 8020              	.LASF1042:
 8021 2b09 706F7274 		.ascii	"portNVIC_SYSTICK_PRI ( ( ( uint32_t ) configKERNEL_"
 8021      4E564943 
 8021      5F535953 
 8021      5449434B 
ARM GAS  /tmp/cc5qDK7o.s 			page 192


 8021      5F505249 
 8022 2b3c 494E5445 		.ascii	"INTERRUPT_PRIORITY ) << 24UL )\000"
 8022      52525550 
 8022      545F5052 
 8022      494F5249 
 8022      54592029 
 8023              	.LASF112:
 8024 2b5b 5F5F494E 		.ascii	"__INT_LEAST32_WIDTH__ 32\000"
 8024      545F4C45 
 8024      41535433 
 8024      325F5749 
 8024      4454485F 
 8025              	.LASF95:
 8026 2b74 5F5F5349 		.ascii	"__SIG_ATOMIC_WIDTH__ 32\000"
 8026      475F4154 
 8026      4F4D4943 
 8026      5F574944 
 8026      54485F5F 
 8027              	.LASF66:
 8028 2b8c 5F5F6861 		.ascii	"__has_include_next(STR) __has_include_next__(STR)\000"
 8028      735F696E 
 8028      636C7564 
 8028      655F6E65 
 8028      78742853 
 8029              	.LASF1005:
 8030 2bbe 6C697374 		.ascii	"listLIST_ITEM_CONTAINER(pxListItem) ( ( pxListItem "
 8030      4C495354 
 8030      5F495445 
 8030      4D5F434F 
 8030      4E544149 
 8031 2bf1 292D3E70 		.ascii	")->pvContainer )\000"
 8031      76436F6E 
 8031      7461696E 
 8031      65722029 
 8031      00
 8032              	.LASF121:
 8033 2c02 5F5F5549 		.ascii	"__UINT32_C(c) c ## UL\000"
 8033      4E543332 
 8033      5F432863 
 8033      29206320 
 8033      23232055 
 8034              	.LASF708:
 8035 2c18 494E434C 		.ascii	"INCLUDE_vTaskDelayUntil 1\000"
 8035      5544455F 
 8035      76546173 
 8035      6B44656C 
 8035      6179556E 
 8036              	.LASF1058:
 8037 2c32 706F7274 		.ascii	"portMISSED_COUNTS_FACTOR ( 45UL )\000"
 8037      4D495353 
 8037      45445F43 
 8037      4F554E54 
 8037      535F4641 
 8038              	.LASF310:
 8039 2c54 5F5F5541 		.ascii	"__UACCUM_MIN__ 0.0UK\000"
 8039      4343554D 
 8039      5F4D494E 
ARM GAS  /tmp/cc5qDK7o.s 			page 193


 8039      5F5F2030 
 8039      2E30554B 
 8040              	.LASF655:
 8041 2c69 55494E54 		.ascii	"UINT8_C(x) __UINT8_C(x)\000"
 8041      385F4328 
 8041      7829205F 
 8041      5F55494E 
 8041      54385F43 
 8042              	.LASF154:
 8043 2c81 5F5F464C 		.ascii	"__FLT_EPSILON__ 1.1920928955078125e-7F\000"
 8043      545F4550 
 8043      53494C4F 
 8043      4E5F5F20 
 8043      312E3139 
 8044              	.LASF818:
 8045 2ca8 494E434C 		.ascii	"INCLUDE_xTaskGetIdleTaskHandle 0\000"
 8045      5544455F 
 8045      78546173 
 8045      6B476574 
 8045      49646C65 
 8046              	.LASF1114:
 8047 2cc9 70727654 		.ascii	"prvTaskExitError\000"
 8047      61736B45 
 8047      78697445 
 8047      72726F72 
 8047      00
 8048              	.LASF967:
 8049 2cda 78436F52 		.ascii	"xCoRoutineHandle CoRoutineHandle_t\000"
 8049      6F757469 
 8049      6E654861 
 8049      6E646C65 
 8049      20436F52 
 8050              	.LASF1054:
 8051 2cfd 706F7274 		.ascii	"portINITIAL_XPSR ( 0x01000000 )\000"
 8051      494E4954 
 8051      49414C5F 
 8051      58505352 
 8051      20282030 
 8052              	.LASF31:
 8053 2d1d 5F5F5054 		.ascii	"__PTRDIFF_TYPE__ int\000"
 8053      52444946 
 8053      465F5459 
 8053      50455F5F 
 8053      20696E74 
 8054              	.LASF821:
 8055 2d32 494E434C 		.ascii	"INCLUDE_xSemaphoreGetMutexHolder INCLUDE_xQueueGetM"
 8055      5544455F 
 8055      7853656D 
 8055      6170686F 
 8055      72654765 
 8056 2d65 75746578 		.ascii	"utexHolder\000"
 8056      486F6C64 
 8056      657200
 8057              	.LASF418:
 8058 2d70 5F5F4152 		.ascii	"__ARM_ARCH_ISA_THUMB\000"
 8058      4D5F4152 
 8058      43485F49 
ARM GAS  /tmp/cc5qDK7o.s 			page 194


 8058      53415F54 
 8058      48554D42 
 8059              	.LASF885:
 8060 2d85 74726163 		.ascii	"traceTASK_RESUME(pxTaskToResume) \000"
 8060      65544153 
 8060      4B5F5245 
 8060      53554D45 
 8060      28707854 
 8061              	.LASF1094:
 8062 2da7 756C436F 		.ascii	"ulCompletedSysTickDecrements\000"
 8062      6D706C65 
 8062      74656453 
 8062      79735469 
 8062      636B4465 
 8063              	.LASF937:
 8064 2dc4 636F6E66 		.ascii	"configUSE_TIME_SLICING 1\000"
 8064      69675553 
 8064      455F5449 
 8064      4D455F53 
 8064      4C494349 
 8065              	.LASF596:
 8066 2ddd 5F5F696E 		.ascii	"__int_least16_t_defined 1\000"
 8066      745F6C65 
 8066      61737431 
 8066      365F745F 
 8066      64656669 
 8067              	.LASF312:
 8068 2df7 5F5F5541 		.ascii	"__UACCUM_EPSILON__ 0x1P-16UK\000"
 8068      4343554D 
 8068      5F455053 
 8068      494C4F4E 
 8068      5F5F2030 
 8069              	.LASF622:
 8070 2e14 494E545F 		.ascii	"INT_LEAST32_MAX (__INT_LEAST32_MAX__)\000"
 8070      4C454153 
 8070      5433325F 
 8070      4D415820 
 8070      285F5F49 
 8071              	.LASF621:
 8072 2e3a 494E545F 		.ascii	"INT_LEAST32_MIN (-__INT_LEAST32_MAX__ - 1)\000"
 8072      4C454153 
 8072      5433325F 
 8072      4D494E20 
 8072      282D5F5F 
 8073              	.LASF381:
 8074 2e65 5F5F4743 		.ascii	"__GCC_ATOMIC_SHORT_LOCK_FREE 2\000"
 8074      435F4154 
 8074      4F4D4943 
 8074      5F53484F 
 8074      52545F4C 
 8075              	.LASF1000:
 8076 2e84 6C697374 		.ascii	"listLIST_IS_EMPTY(pxList) ( ( BaseType_t ) ( ( pxLi"
 8076      4C495354 
 8076      5F49535F 
 8076      454D5054 
 8076      59287078 
 8077 2eb7 73742029 		.ascii	"st )->uxNumberOfItems == ( UBaseType_t ) 0 ) )\000"
ARM GAS  /tmp/cc5qDK7o.s 			page 195


 8077      2D3E7578 
 8077      4E756D62 
 8077      65724F66 
 8077      4974656D 
 8078              	.LASF298:
 8079 2ee6 5F5F5553 		.ascii	"__USACCUM_FBIT__ 8\000"
 8079      41434355 
 8079      4D5F4642 
 8079      49545F5F 
 8079      203800
 8080              	.LASF385:
 8081 2ef9 5F5F4743 		.ascii	"__GCC_ATOMIC_TEST_AND_SET_TRUEVAL 1\000"
 8081      435F4154 
 8081      4F4D4943 
 8081      5F544553 
 8081      545F414E 
 8082              	.LASF313:
 8083 2f1d 5F5F4C41 		.ascii	"__LACCUM_FBIT__ 31\000"
 8083      4343554D 
 8083      5F464249 
 8083      545F5F20 
 8083      333100
 8084              	.LASF973:
 8085 2f30 76546173 		.ascii	"vTaskGetTaskInfo vTaskGetInfo\000"
 8085      6B476574 
 8085      5461736B 
 8085      496E666F 
 8085      20765461 
 8086              	.LASF202:
 8087 2f4e 5F5F464C 		.ascii	"__FLT32_HAS_QUIET_NAN__ 1\000"
 8087      5433325F 
 8087      4841535F 
 8087      51554945 
 8087      545F4E41 
 8088              	.LASF187:
 8089 2f68 5F5F4C44 		.ascii	"__LDBL_HAS_INFINITY__ 1\000"
 8089      424C5F48 
 8089      41535F49 
 8089      4E46494E 
 8089      4954595F 
 8090              	.LASF665:
 8091 2f80 46524545 		.ascii	"FREERTOS_CONFIG_H \000"
 8091      52544F53 
 8091      5F434F4E 
 8091      4649475F 
 8091      482000
 8092              	.LASF236:
 8093 2f93 5F5F4445 		.ascii	"__DEC32_MAX__ 9.999999E96DF\000"
 8093      4333325F 
 8093      4D41585F 
 8093      5F20392E 
 8093      39393939 
 8094              	.LASF1012:
 8095 2faf 7461736B 		.ascii	"taskYIELD() portYIELD()\000"
 8095      5949454C 
 8095      44282920 
 8095      706F7274 
ARM GAS  /tmp/cc5qDK7o.s 			page 196


 8095      5949454C 
 8096              	.LASF603:
 8097 2fc7 494E5450 		.ascii	"INTPTR_MIN (-__INTPTR_MAX__ - 1)\000"
 8097      54525F4D 
 8097      494E2028 
 8097      2D5F5F49 
 8097      4E545054 
 8098              	.LASF919:
 8099 2fe8 74726163 		.ascii	"traceSTREAM_BUFFER_DELETE(xStreamBuffer) \000"
 8099      65535452 
 8099      45414D5F 
 8099      42554646 
 8099      45525F44 
 8100              	.LASF783:
 8101 3012 706F7274 		.ascii	"portDOUBLE double\000"
 8101      444F5542 
 8101      4C452064 
 8101      6F75626C 
 8101      6500
 8102              	.LASF438:
 8103 3024 5F5F4152 		.ascii	"__ARM_ARCH_EXT_IDIV__ 1\000"
 8103      4D5F4152 
 8103      43485F45 
 8103      58545F49 
 8103      4449565F 
 8104              	.LASF436:
 8105 303c 5F5F4152 		.ascii	"__ARM_PCS 1\000"
 8105      4D5F5043 
 8105      53203100 
 8106              	.LASF492:
 8107 3048 5F545F57 		.ascii	"_T_WCHAR \000"
 8107      43484152 
 8107      2000
 8108              	.LASF729:
 8109 3052 65727243 		.ascii	"errCOULD_NOT_ALLOCATE_REQUIRED_MEMORY ( -1 )\000"
 8109      4F554C44 
 8109      5F4E4F54 
 8109      5F414C4C 
 8109      4F434154 
 8110              	.LASF1020:
 8111 307f 7461736B 		.ascii	"taskSCHEDULER_NOT_STARTED ( ( BaseType_t ) 1 )\000"
 8111      53434845 
 8111      44554C45 
 8111      525F4E4F 
 8111      545F5354 
 8112              	.LASF1014:
 8113 30ae 7461736B 		.ascii	"taskENTER_CRITICAL_FROM_ISR() portSET_INTERRUPT_MAS"
 8113      454E5445 
 8113      525F4352 
 8113      49544943 
 8113      414C5F46 
 8114 30e1 4B5F4652 		.ascii	"K_FROM_ISR()\000"
 8114      4F4D5F49 
 8114      53522829 
 8114      00
 8115              	.LASF722:
 8116 30ee 70644D53 		.ascii	"pdMS_TO_TICKS(xTimeInMs) ( ( TickType_t ) ( ( ( Tic"
ARM GAS  /tmp/cc5qDK7o.s 			page 197


 8116      5F544F5F 
 8116      5449434B 
 8116      53287854 
 8116      696D6549 
 8117 3121 6B547970 		.ascii	"kType_t ) ( xTimeInMs ) * ( TickType_t ) configTICK"
 8117      655F7420 
 8117      29202820 
 8117      7854696D 
 8117      65496E4D 
 8118 3154 5F524154 		.ascii	"_RATE_HZ ) / ( TickType_t ) 1000 ) )\000"
 8118      455F485A 
 8118      2029202F 
 8118      20282054 
 8118      69636B54 
 8119              	.LASF928:
 8120 3179 74726163 		.ascii	"traceSTREAM_BUFFER_RECEIVE_FROM_ISR(xStreamBuffer,x"
 8120      65535452 
 8120      45414D5F 
 8120      42554646 
 8120      45525F52 
 8121 31ac 52656365 		.ascii	"ReceivedLength) \000"
 8121      69766564 
 8121      4C656E67 
 8121      74682920 
 8121      00
 8122              	.LASF94:
 8123 31bd 5F5F5349 		.ascii	"__SIG_ATOMIC_MIN__ (-__SIG_ATOMIC_MAX__ - 1)\000"
 8123      475F4154 
 8123      4F4D4943 
 8123      5F4D494E 
 8123      5F5F2028 
 8124              	.LASF940:
 8125 31ea 6D74434F 		.ascii	"mtCOVERAGE_TEST_DELAY() \000"
 8125      56455241 
 8125      47455F54 
 8125      4553545F 
 8125      44454C41 
 8126              	.LASF717:
 8127 3203 78506F72 		.ascii	"xPortPendSVHandler PendSV_Handler\000"
 8127      7450656E 
 8127      64535648 
 8127      616E646C 
 8127      65722050 
 8128              	.LASF116:
 8129 3225 5F5F5549 		.ascii	"__UINT_LEAST8_MAX__ 0xff\000"
 8129      4E545F4C 
 8129      45415354 
 8129      385F4D41 
 8129      585F5F20 
 8130              	.LASF495:
 8131 323e 5F425344 		.ascii	"_BSD_WCHAR_T_ \000"
 8131      5F574348 
 8131      41525F54 
 8131      5F2000
 8132              	.LASF1122:
 8133 324d 76546173 		.ascii	"vTaskSwitchContext\000"
 8133      6B537769 
ARM GAS  /tmp/cc5qDK7o.s 			page 198


 8133      74636843 
 8133      6F6E7465 
 8133      787400
 8134              	.LASF1004:
 8135 3260 6C697374 		.ascii	"listIS_CONTAINED_WITHIN(pxList,pxListItem) ( ( Base"
 8135      49535F43 
 8135      4F4E5441 
 8135      494E4544 
 8135      5F574954 
 8136 3293 54797065 		.ascii	"Type_t ) ( ( pxListItem )->pvContainer == ( void * "
 8136      5F742029 
 8136      20282028 
 8136      2070784C 
 8136      69737449 
 8137 32c6 29202820 		.ascii	") ( pxList ) ) )\000"
 8137      70784C69 
 8137      73742029 
 8137      20292029 
 8137      00
 8138              	.LASF159:
 8139 32d7 5F5F4650 		.ascii	"__FP_FAST_FMAF 1\000"
 8139      5F464153 
 8139      545F464D 
 8139      41462031 
 8139      00
 8140              	.LASF646:
 8141 32e8 5349475F 		.ascii	"SIG_ATOMIC_MIN (-__STDINT_EXP(INT_MAX) - 1)\000"
 8141      41544F4D 
 8141      49435F4D 
 8141      494E2028 
 8141      2D5F5F53 
 8142              	.LASF657:
 8143 3314 55494E54 		.ascii	"UINT16_C(x) __UINT16_C(x)\000"
 8143      31365F43 
 8143      28782920 
 8143      5F5F5549 
 8143      4E543136 
 8144              	.LASF725:
 8145 332e 70645041 		.ascii	"pdPASS ( pdTRUE )\000"
 8145      53532028 
 8145      20706454 
 8145      52554520 
 8145      2900
 8146              	.LASF582:
 8147 3340 5F494E54 		.ascii	"_INT16_T_DECLARED \000"
 8147      31365F54 
 8147      5F444543 
 8147      4C415245 
 8147      442000
 8148              	.LASF923:
 8149 3353 74726163 		.ascii	"traceSTREAM_BUFFER_SEND_FAILED(xStreamBuffer) \000"
 8149      65535452 
 8149      45414D5F 
 8149      42554646 
 8149      45525F53 
 8150              	.LASF156:
 8151 3382 5F5F464C 		.ascii	"__FLT_HAS_DENORM__ 1\000"
ARM GAS  /tmp/cc5qDK7o.s 			page 199


 8151      545F4841 
 8151      535F4445 
 8151      4E4F524D 
 8151      5F5F2031 
 8152              	.LASF1009:
 8153 3397 74736B4B 		.ascii	"tskKERNEL_VERSION_MINOR 0\000"
 8153      45524E45 
 8153      4C5F5645 
 8153      5253494F 
 8153      4E5F4D49 
 8154              	.LASF805:
 8155 33b1 706F7274 		.ascii	"portTASK_FUNCTION(vFunction,pvParameters) void vFun"
 8155      5441534B 
 8155      5F46554E 
 8155      4354494F 
 8155      4E287646 
 8156 33e4 6374696F 		.ascii	"ction( void *pvParameters )\000"
 8156      6E282076 
 8156      6F696420 
 8156      2A707650 
 8156      6172616D 
 8157              	.LASF109:
 8158 3400 5F5F494E 		.ascii	"__INT_LEAST16_WIDTH__ 16\000"
 8158      545F4C45 
 8158      41535431 
 8158      365F5749 
 8158      4454485F 
 8159              	.LASF1053:
 8160 3419 706F7274 		.ascii	"portASPEN_AND_LSPEN_BITS ( 0x3UL << 30UL )\000"
 8160      41535045 
 8160      4E5F414E 
 8160      445F4C53 
 8160      50454E5F 
 8161              	.LASF598:
 8162 3444 5F5F696E 		.ascii	"__int_least64_t_defined 1\000"
 8162      745F6C65 
 8162      61737436 
 8162      345F745F 
 8162      64656669 
 8163              	.LASF143:
 8164 345e 5F5F4445 		.ascii	"__DEC_EVAL_METHOD__ 2\000"
 8164      435F4556 
 8164      414C5F4D 
 8164      4554484F 
 8164      445F5F20 
 8165              	.LASF429:
 8166 3474 5F5F4152 		.ascii	"__ARM_FEATURE_FP16_FML\000"
 8166      4D5F4645 
 8166      41545552 
 8166      455F4650 
 8166      31365F46 
 8167              	.LASF764:
 8168 348b 70644652 		.ascii	"pdFREERTOS_ERRNO_EADDRINUSE 112\000"
 8168      45455254 
 8168      4F535F45 
 8168      52524E4F 
 8168      5F454144 
ARM GAS  /tmp/cc5qDK7o.s 			page 200


 8169              	.LASF513:
 8170 34ab 5F4E4557 		.ascii	"_NEWLIB_VERSION \"3.0.0\"\000"
 8170      4C49425F 
 8170      56455253 
 8170      494F4E20 
 8170      22332E30 
 8171              	.LASF721:
 8172 34c3 50524F4A 		.ascii	"PROJDEFS_H \000"
 8172      44454653 
 8172      5F482000 
 8173              	.LASF245:
 8174 34cf 5F5F4445 		.ascii	"__DEC64_SUBNORMAL_MIN__ 0.000000000000001E-383DD\000"
 8174      4336345F 
 8174      5355424E 
 8174      4F524D41 
 8174      4C5F4D49 
 8175              	.LASF262:
 8176 3500 5F5F5553 		.ascii	"__USFRACT_EPSILON__ 0x1P-8UHR\000"
 8176      46524143 
 8176      545F4550 
 8176      53494C4F 
 8176      4E5F5F20 
 8177              	.LASF506:
 8178 351e 4E554C4C 		.ascii	"NULL ((void *)0)\000"
 8178      20282876 
 8178      6F696420 
 8178      2A293029 
 8178      00
 8179              	.LASF906:
 8180 352f 74726163 		.ascii	"tracePEND_FUNC_CALL(xFunctionToPend,pvParameter1,ul"
 8180      6550454E 
 8180      445F4655 
 8180      4E435F43 
 8180      414C4C28 
 8181 3562 50617261 		.ascii	"Parameter2,ret) \000"
 8181      6D657465 
 8181      72322C72 
 8181      65742920 
 8181      00
 8182              	.LASF795:
 8183 3573 706F7274 		.ascii	"portNVIC_PENDSVSET_BIT ( 1UL << 28UL )\000"
 8183      4E564943 
 8183      5F50454E 
 8183      44535653 
 8183      45545F42 
 8184              	.LASF75:
 8185 359a 5F5F5749 		.ascii	"__WINT_MAX__ 0xffffffffU\000"
 8185      4E545F4D 
 8185      41585F5F 
 8185      20307866 
 8185      66666666 
 8186              	.LASF546:
 8187 35b3 5F5F5F69 		.ascii	"___int_least32_t_defined 1\000"
 8187      6E745F6C 
 8187      65617374 
 8187      33325F74 
 8187      5F646566 
ARM GAS  /tmp/cc5qDK7o.s 			page 201


 8188              	.LASF326:
 8189 35ce 5F5F4C4C 		.ascii	"__LLACCUM_MAX__ 0X7FFFFFFFFFFFFFFFP-31LLK\000"
 8189      41434355 
 8189      4D5F4D41 
 8189      585F5F20 
 8189      30583746 
 8190              	.LASF507:
 8191 35f8 5F5F6E65 		.ascii	"__need_NULL\000"
 8191      65645F4E 
 8191      554C4C00 
 8192              	.LASF806:
 8193 3604 706F7274 		.ascii	"portSUPPRESS_TICKS_AND_SLEEP(xExpectedIdleTime) vPo"
 8193      53555050 
 8193      52455353 
 8193      5F544943 
 8193      4B535F41 
 8194 3637 72745375 		.ascii	"rtSuppressTicksAndSleep( xExpectedIdleTime )\000"
 8194      70707265 
 8194      73735469 
 8194      636B7341 
 8194      6E64536C 
 8195              	.LASF597:
 8196 3664 5F5F696E 		.ascii	"__int_least32_t_defined 1\000"
 8196      745F6C65 
 8196      61737433 
 8196      325F745F 
 8196      64656669 
 8197              	.LASF370:
 8198 367e 5F5F5553 		.ascii	"__USER_LABEL_PREFIX__ \000"
 8198      45525F4C 
 8198      4142454C 
 8198      5F505245 
 8198      4649585F 
 8199              	.LASF103:
 8200 3695 5F5F5549 		.ascii	"__UINT64_MAX__ 0xffffffffffffffffULL\000"
 8200      4E543634 
 8200      5F4D4158 
 8200      5F5F2030 
 8200      78666666 
 8201              	.LASF450:
 8202 36ba 434F4E46 		.ascii	"CONFIG_AUD_AEC 1\000"
 8202      49475F41 
 8202      55445F41 
 8202      45432031 
 8202      00
 8203              	.LASF102:
 8204 36cb 5F5F5549 		.ascii	"__UINT32_MAX__ 0xffffffffUL\000"
 8204      4E543332 
 8204      5F4D4158 
 8204      5F5F2030 
 8204      78666666 
 8205              	.LASF687:
 8206 36e7 636F6E66 		.ascii	"configCHECK_FOR_STACK_OVERFLOW 2\000"
 8206      69674348 
 8206      45434B5F 
 8206      464F525F 
 8206      53544143 
ARM GAS  /tmp/cc5qDK7o.s 			page 202


 8207              	.LASF525:
 8208 3708 5F415446 		.ascii	"_ATFILE_SOURCE\000"
 8208      494C455F 
 8208      534F5552 
 8208      434500
 8209              	.LASF633:
 8210 3717 494E545F 		.ascii	"INT_FAST16_MIN (-__INT_FAST16_MAX__ - 1)\000"
 8210      46415354 
 8210      31365F4D 
 8210      494E2028 
 8210      2D5F5F49 
 8211              	.LASF820:
 8212 3740 494E434C 		.ascii	"INCLUDE_xQueueGetMutexHolder 0\000"
 8212      5544455F 
 8212      78517565 
 8212      75654765 
 8212      744D7574 
 8213              	.LASF104:
 8214 375f 5F5F494E 		.ascii	"__INT_LEAST8_MAX__ 0x7f\000"
 8214      545F4C45 
 8214      41535438 
 8214      5F4D4158 
 8214      5F5F2030 
 8215              	.LASF945:
 8216 3777 636F6E66 		.ascii	"configSTACK_DEPTH_TYPE uint16_t\000"
 8216      69675354 
 8216      41434B5F 
 8216      44455054 
 8216      485F5459 
 8217              	.LASF386:
 8218 3797 5F5F4743 		.ascii	"__GCC_ATOMIC_POINTER_LOCK_FREE 2\000"
 8218      435F4154 
 8218      4F4D4943 
 8218      5F504F49 
 8218      4E544552 
 8219              	.LASF393:
 8220 37b8 5F5F4152 		.ascii	"__ARM_FEATURE_QBIT 1\000"
 8220      4D5F4645 
 8220      41545552 
 8220      455F5142 
 8220      49542031 
 8221              	.LASF404:
 8222 37cd 5F5F4152 		.ascii	"__ARM_FEATURE_CLZ 1\000"
 8222      4D5F4645 
 8222      41545552 
 8222      455F434C 
 8222      5A203100 
 8223              	.LASF618:
 8224 37e1 494E5433 		.ascii	"INT32_MIN (-__INT32_MAX__ - 1)\000"
 8224      325F4D49 
 8224      4E20282D 
 8224      5F5F494E 
 8224      5433325F 
 8225              	.LASF802:
 8226 3800 706F7274 		.ascii	"portENTER_CRITICAL() vPortEnterCritical()\000"
 8226      454E5445 
 8226      525F4352 
ARM GAS  /tmp/cc5qDK7o.s 			page 203


 8226      49544943 
 8226      414C2829 
 8227              	.LASF786:
 8228 382a 706F7274 		.ascii	"portSTACK_TYPE uint32_t\000"
 8228      53544143 
 8228      4B5F5459 
 8228      50452075 
 8228      696E7433 
 8229              	.LASF942:
 8230 3842 636F6E66 		.ascii	"configAPPLICATION_ALLOCATED_HEAP 0\000"
 8230      69674150 
 8230      504C4943 
 8230      4154494F 
 8230      4E5F414C 
 8231              	.LASF564:
 8232 3865 5F494E54 		.ascii	"_INTPTR_EQ_INT \000"
 8232      5054525F 
 8232      45515F49 
 8232      4E542000 
 8233              	.LASF408:
 8234 3875 5F5F4152 		.ascii	"__ARM_SIZEOF_WCHAR_T 4\000"
 8234      4D5F5349 
 8234      5A454F46 
 8234      5F574348 
 8234      41525F54 
 8235              	.LASF222:
 8236 388c 5F5F464C 		.ascii	"__FLT32X_MAX_EXP__ 1024\000"
 8236      54333258 
 8236      5F4D4158 
 8236      5F455850 
 8236      5F5F2031 
 8237              	.LASF65:
 8238 38a4 5F5F6861 		.ascii	"__has_include(STR) __has_include__(STR)\000"
 8238      735F696E 
 8238      636C7564 
 8238      65285354 
 8238      5229205F 
 8239              	.LASF120:
 8240 38cc 5F5F5549 		.ascii	"__UINT_LEAST32_MAX__ 0xffffffffUL\000"
 8240      4E545F4C 
 8240      45415354 
 8240      33325F4D 
 8240      41585F5F 
 8241              	.LASF169:
 8242 38ee 5F5F4442 		.ascii	"__DBL_EPSILON__ ((double)2.2204460492503131e-16L)\000"
 8242      4C5F4550 
 8242      53494C4F 
 8242      4E5F5F20 
 8242      2828646F 
 8243              	.LASF115:
 8244 3920 5F5F494E 		.ascii	"__INT_LEAST64_WIDTH__ 64\000"
 8244      545F4C45 
 8244      41535436 
 8244      345F5749 
 8244      4454485F 
 8245              	.LASF157:
 8246 3939 5F5F464C 		.ascii	"__FLT_HAS_INFINITY__ 1\000"
ARM GAS  /tmp/cc5qDK7o.s 			page 204


 8246      545F4841 
 8246      535F494E 
 8246      46494E49 
 8246      54595F5F 
 8247              	.LASF704:
 8248 3950 494E434C 		.ascii	"INCLUDE_uxTaskPriorityGet 1\000"
 8248      5544455F 
 8248      75785461 
 8248      736B5072 
 8248      696F7269 
 8249              	.LASF306:
 8250 396c 5F5F4143 		.ascii	"__ACCUM_MAX__ 0X7FFFFFFFP-15K\000"
 8250      43554D5F 
 8250      4D41585F 
 8250      5F203058 
 8250      37464646 
 8251              	.LASF864:
 8252 398a 74726163 		.ascii	"traceCREATE_COUNTING_SEMAPHORE_FAILED() \000"
 8252      65435245 
 8252      4154455F 
 8252      434F554E 
 8252      54494E47 
 8253              	.LASF96:
 8254 39b3 5F5F494E 		.ascii	"__INT8_MAX__ 0x7f\000"
 8254      54385F4D 
 8254      41585F5F 
 8254      20307837 
 8254      6600
 8255              	.LASF877:
 8256 39c5 74726163 		.ascii	"traceQUEUE_DELETE(pxQueue) \000"
 8256      65515545 
 8256      55455F44 
 8256      454C4554 
 8256      45287078 
 8257              	.LASF387:
 8258 39e1 5F5F4743 		.ascii	"__GCC_HAVE_DWARF2_CFI_ASM 1\000"
 8258      435F4841 
 8258      56455F44 
 8258      57415246 
 8258      325F4346 
 8259              	.LASF540:
 8260 39fd 5F5F5F69 		.ascii	"___int8_t_defined 1\000"
 8260      6E74385F 
 8260      745F6465 
 8260      66696E65 
 8260      64203100 
 8261              	.LASF255:
 8262 3a11 5F5F5346 		.ascii	"__SFRACT_MIN__ (-0.5HR-0.5HR)\000"
 8262      52414354 
 8262      5F4D494E 
 8262      5F5F2028 
 8262      2D302E35 
 8263              	.LASF1068:
 8264 3a2f 6C6F6E67 		.ascii	"long unsigned int\000"
 8264      20756E73 
 8264      69676E65 
 8264      6420696E 
ARM GAS  /tmp/cc5qDK7o.s 			page 205


 8264      7400
 8265              	.LASF356:
 8266 3a41 5F5F5341 		.ascii	"__SA_IBIT__ 16\000"
 8266      5F494249 
 8266      545F5F20 
 8266      313600
 8267              	.LASF451:
 8268 3a50 434F4E46 		.ascii	"CONFIG_VOC_MIC_MAPPING 1\000"
 8268      49475F56 
 8268      4F435F4D 
 8268      49435F4D 
 8268      41505049 
 8269              	.LASF551:
 8270 3a69 7369676E 		.ascii	"signed\000"
 8270      656400
 8271              	.LASF140:
 8272 3a70 5F5F4743 		.ascii	"__GCC_IEC_559_COMPLEX 0\000"
 8272      435F4945 
 8272      435F3535 
 8272      395F434F 
 8272      4D504C45 
 8273              	.LASF1109:
 8274 3a88 78506F72 		.ascii	"xPortStartScheduler\000"
 8274      74537461 
 8274      72745363 
 8274      68656475 
 8274      6C657200 
 8275              	.LASF223:
 8276 3a9c 5F5F464C 		.ascii	"__FLT32X_MAX_10_EXP__ 308\000"
 8276      54333258 
 8276      5F4D4158 
 8276      5F31305F 
 8276      4558505F 
 8277              	.LASF424:
 8278 3ab6 5F5F4152 		.ascii	"__ARM_FP16_FORMAT_IEEE\000"
 8278      4D5F4650 
 8278      31365F46 
 8278      4F524D41 
 8278      545F4945 
 8279              	.LASF44:
 8280 3acd 5F5F5549 		.ascii	"__UINT16_TYPE__ short unsigned int\000"
 8280      4E543136 
 8280      5F545950 
 8280      455F5F20 
 8280      73686F72 
 8281              	.LASF521:
 8282 3af0 5F504F53 		.ascii	"_POSIX_SOURCE\000"
 8282      49585F53 
 8282      4F555243 
 8282      4500
 8283              	.LASF1067:
 8284 3afe 5F5F7569 		.ascii	"__uint32_t\000"
 8284      6E743332 
 8284      5F7400
 8285              	.LASF749:
 8286 3b09 70644652 		.ascii	"pdFREERTOS_ERRNO_ENOTDIR 20\000"
 8286      45455254 
ARM GAS  /tmp/cc5qDK7o.s 			page 206


 8286      4F535F45 
 8286      52524E4F 
 8286      5F454E4F 
 8287              	.LASF587:
 8288 3b25 5F5F696E 		.ascii	"__int32_t_defined 1\000"
 8288      7433325F 
 8288      745F6465 
 8288      66696E65 
 8288      64203100 
 8289              	.LASF234:
 8290 3b39 5F5F4445 		.ascii	"__DEC32_MAX_EXP__ 97\000"
 8290      4333325F 
 8290      4D41585F 
 8290      4558505F 
 8290      5F203937 
 8291              	.LASF474:
 8292 3b4e 5F545F53 		.ascii	"_T_SIZE_ \000"
 8292      495A455F 
 8292      2000
 8293              	.LASF142:
 8294 3b58 5F5F464C 		.ascii	"__FLT_EVAL_METHOD_TS_18661_3__ 0\000"
 8294      545F4556 
 8294      414C5F4D 
 8294      4554484F 
 8294      445F5453 
 8295              	.LASF562:
 8296 3b79 696E7420 		.ascii	"int +2\000"
 8296      2B3200
 8297              	.LASF654:
 8298 3b80 494E5438 		.ascii	"INT8_C(x) __INT8_C(x)\000"
 8298      5F432878 
 8298      29205F5F 
 8298      494E5438 
 8298      5F432878 
 8299              	.LASF59:
 8300 3b96 5F5F5549 		.ascii	"__UINT_FAST8_TYPE__ unsigned int\000"
 8300      4E545F46 
 8300      41535438 
 8300      5F545950 
 8300      455F5F20 
 8301              	.LASF777:
 8302 3bb7 70644249 		.ascii	"pdBIG_ENDIAN pdFREERTOS_BIG_ENDIAN\000"
 8302      475F454E 
 8302      4449414E 
 8302      20706446 
 8302      52454552 
 8303              	.LASF324:
 8304 3bda 5F5F4C4C 		.ascii	"__LLACCUM_IBIT__ 32\000"
 8304      41434355 
 8304      4D5F4942 
 8304      49545F5F 
 8304      20333200 
 8305              	.LASF267:
 8306 3bee 5F5F4652 		.ascii	"__FRACT_EPSILON__ 0x1P-15R\000"
 8306      4143545F 
 8306      45505349 
 8306      4C4F4E5F 
ARM GAS  /tmp/cc5qDK7o.s 			page 207


 8306      5F203078 
 8307              	.LASF1028:
 8308 3c09 706F7274 		.ascii	"portNVIC_SYSTICK_CLK_BIT ( 1UL << 2UL )\000"
 8308      4E564943 
 8308      5F535953 
 8308      5449434B 
 8308      5F434C4B 
 8309              	.LASF716:
 8310 3c31 636F6E66 		.ascii	"configMAX_SYSCALL_INTERRUPT_PRIORITY ( configLIBRAR"
 8310      69674D41 
 8310      585F5359 
 8310      5343414C 
 8310      4C5F494E 
 8311 3c64 595F4D41 		.ascii	"Y_MAX_SYSCALL_INTERRUPT_PRIORITY << (8 - configPRIO"
 8311      585F5359 
 8311      5343414C 
 8311      4C5F494E 
 8311      54455252 
 8312 3c97 5F424954 		.ascii	"_BITS) )\000"
 8312      53292029 
 8312      00
 8313              	.LASF98:
 8314 3ca0 5F5F494E 		.ascii	"__INT32_MAX__ 0x7fffffffL\000"
 8314      5433325F 
 8314      4D41585F 
 8314      5F203078 
 8314      37666666 
 8315              	.LASF443:
 8316 3cba 5F5F4758 		.ascii	"__GXX_TYPEINFO_EQUALITY_INLINE 0\000"
 8316      585F5459 
 8316      5045494E 
 8316      464F5F45 
 8316      5155414C 
 8317              	.LASF901:
 8318 3cdb 74726163 		.ascii	"traceEVENT_GROUP_CLEAR_BITS(xEventGroup,uxBitsToCle"
 8318      65455645 
 8318      4E545F47 
 8318      524F5550 
 8318      5F434C45 
 8319 3d0e 61722920 		.ascii	"ar) \000"
 8319      00
 8320              	.LASF113:
 8321 3d13 5F5F494E 		.ascii	"__INT_LEAST64_MAX__ 0x7fffffffffffffffLL\000"
 8321      545F4C45 
 8321      41535436 
 8321      345F4D41 
 8321      585F5F20 
 8322              	.LASF414:
 8323 3d3c 5F5F4150 		.ascii	"__APCS_32__ 1\000"
 8323      43535F33 
 8323      325F5F20 
 8323      3100
 8324              	.LASF520:
 8325 3d4a 5F444546 		.ascii	"_DEFAULT_SOURCE 1\000"
 8325      41554C54 
 8325      5F534F55 
 8325      52434520 
ARM GAS  /tmp/cc5qDK7o.s 			page 208


 8325      3100
 8326              	.LASF762:
 8327 3d5c 70644652 		.ascii	"pdFREERTOS_ERRNO_ENOBUFS 105\000"
 8327      45455254 
 8327      4F535F45 
 8327      52524E4F 
 8327      5F454E4F 
 8328              	.LASF807:
 8329 3d79 706F7274 		.ascii	"portASSERT_IF_INTERRUPT_PRIORITY_INVALID() vPortVal"
 8329      41535345 
 8329      52545F49 
 8329      465F494E 
 8329      54455252 
 8330 3dac 69646174 		.ascii	"idateInterruptPriority()\000"
 8330      65496E74 
 8330      65727275 
 8330      70745072 
 8330      696F7269 
 8331              	.LASF189:
 8332 3dc5 5F5F464C 		.ascii	"__FLT32_MANT_DIG__ 24\000"
 8332      5433325F 
 8332      4D414E54 
 8332      5F444947 
 8332      5F5F2032 
 8333              	.LASF1031:
 8334 3ddb 706F7274 		.ascii	"portNVIC_SYSTICK_CURRENT_VALUE_REG ( * ( ( volatile"
 8334      4E564943 
 8334      5F535953 
 8334      5449434B 
 8334      5F435552 
 8335 3e0e 2075696E 		.ascii	" uint32_t * ) 0xe000e018 ) )\000"
 8335      7433325F 
 8335      74202A20 
 8335      29203078 
 8335      65303030 
 8336              	.LASF819:
 8337 3e2b 494E434C 		.ascii	"INCLUDE_xTaskAbortDelay 0\000"
 8337      5544455F 
 8337      78546173 
 8337      6B41626F 
 8337      72744465 
 8338              	.LASF199:
 8339 3e45 5F5F464C 		.ascii	"__FLT32_DENORM_MIN__ 1.4012984643248171e-45F32\000"
 8339      5433325F 
 8339      44454E4F 
 8339      524D5F4D 
 8339      494E5F5F 
 8340              	.LASF508:
 8341 3e74 6F666673 		.ascii	"offsetof(TYPE,MEMBER) __builtin_offsetof (TYPE, MEM"
 8341      65746F66 
 8341      28545950 
 8341      452C4D45 
 8341      4D424552 
 8342 3ea7 42455229 		.ascii	"BER)\000"
 8342      00
 8343              	.LASF123:
 8344 3eac 5F5F5549 		.ascii	"__UINT64_C(c) c ## ULL\000"
ARM GAS  /tmp/cc5qDK7o.s 			page 209


 8344      4E543634 
 8344      5F432863 
 8344      29206320 
 8344      23232055 
 8345              	.LASF54:
 8346 3ec3 5F5F5549 		.ascii	"__UINT_LEAST64_TYPE__ long long unsigned int\000"
 8346      4E545F4C 
 8346      45415354 
 8346      36345F54 
 8346      5950455F 
 8347              	.LASF712:
 8348 3ef0 636F6E66 		.ascii	"configPRIO_BITS 3\000"
 8348      69675052 
 8348      494F5F42 
 8348      49545320 
 8348      3300
 8349              	.LASF258:
 8350 3f02 5F5F5553 		.ascii	"__USFRACT_FBIT__ 8\000"
 8350      46524143 
 8350      545F4642 
 8350      49545F5F 
 8350      203800
 8351              	.LASF184:
 8352 3f15 5F5F4C44 		.ascii	"__LDBL_EPSILON__ 2.2204460492503131e-16L\000"
 8352      424C5F45 
 8352      5053494C 
 8352      4F4E5F5F 
 8352      20322E32 
 8353              	.LASF738:
 8354 3f3e 70644652 		.ascii	"pdFREERTOS_ERRNO_ENXIO 6\000"
 8354      45455254 
 8354      4F535F45 
 8354      52524E4F 
 8354      5F454E58 
 8355              	.LASF378:
 8356 3f57 5F5F4743 		.ascii	"__GCC_ATOMIC_CHAR16_T_LOCK_FREE 2\000"
 8356      435F4154 
 8356      4F4D4943 
 8356      5F434841 
 8356      5231365F 
 8357              	.LASF710:
 8358 3f79 494E434C 		.ascii	"INCLUDE_eTaskGetState 1\000"
 8358      5544455F 
 8358      65546173 
 8358      6B476574 
 8358      53746174 
 8359              	.LASF164:
 8360 3f91 5F5F4442 		.ascii	"__DBL_MAX_EXP__ 1024\000"
 8360      4C5F4D41 
 8360      585F4558 
 8360      505F5F20 
 8360      31303234 
 8361              	.LASF573:
 8362 3fa6 5F5F4641 		.ascii	"__FAST64 \"ll\"\000"
 8362      53543634 
 8362      20226C6C 
 8362      2200
ARM GAS  /tmp/cc5qDK7o.s 			page 210


 8363              	.LASF9:
 8364 3fb4 5F5F4154 		.ascii	"__ATOMIC_RELEASE 3\000"
 8364      4F4D4943 
 8364      5F52454C 
 8364      45415345 
 8364      203300
 8365              	.LASF558:
 8366 3fc7 756E7369 		.ascii	"unsigned +0\000"
 8366      676E6564 
 8366      202B3000 
 8367              	.LASF229:
 8368 3fd3 5F5F464C 		.ascii	"__FLT32X_HAS_DENORM__ 1\000"
 8368      54333258 
 8368      5F484153 
 8368      5F44454E 
 8368      4F524D5F 
 8369              	.LASF145:
 8370 3feb 5F5F464C 		.ascii	"__FLT_MANT_DIG__ 24\000"
 8370      545F4D41 
 8370      4E545F44 
 8370      49475F5F 
 8370      20323400 
 8371              	.LASF985:
 8372 3fff 6C697374 		.ascii	"listSECOND_LIST_INTEGRITY_CHECK_VALUE \000"
 8372      5345434F 
 8372      4E445F4C 
 8372      4953545F 
 8372      494E5445 
 8373              	.LASF350:
 8374 4026 5F5F5544 		.ascii	"__UDQ_IBIT__ 0\000"
 8374      515F4942 
 8374      49545F5F 
 8374      203000
 8375              	.LASF970:
 8376 4035 70635461 		.ascii	"pcTaskGetTaskName pcTaskGetName\000"
 8376      736B4765 
 8376      74546173 
 8376      6B4E616D 
 8376      65207063 
 8377              	.LASF466:
 8378 4055 5F5F5F69 		.ascii	"___int_ptrdiff_t_h \000"
 8378      6E745F70 
 8378      74726469 
 8378      66665F74 
 8378      5F682000 
 8379              	.LASF12:
 8380 4069 5F5F4F50 		.ascii	"__OPTIMIZE__ 1\000"
 8380      54494D49 
 8380      5A455F5F 
 8380      203100
 8381              	.LASF311:
 8382 4078 5F5F5541 		.ascii	"__UACCUM_MAX__ 0XFFFFFFFFP-16UK\000"
 8382      4343554D 
 8382      5F4D4158 
 8382      5F5F2030 
 8382      58464646 
 8383              	.LASF585:
ARM GAS  /tmp/cc5qDK7o.s 			page 211


 8384 4098 5F494E54 		.ascii	"_INT32_T_DECLARED \000"
 8384      33325F54 
 8384      5F444543 
 8384      4C415245 
 8384      442000
 8385              	.LASF1092:
 8386 40ab 756C5265 		.ascii	"ulReloadValue\000"
 8386      6C6F6164 
 8386      56616C75 
 8386      6500
 8387              	.LASF572:
 8388 40b9 5F5F4641 		.ascii	"__FAST32 \000"
 8388      53543332 
 8388      2000
 8389              	.LASF13:
 8390 40c3 5F5F4649 		.ascii	"__FINITE_MATH_ONLY__ 0\000"
 8390      4E495445 
 8390      5F4D4154 
 8390      485F4F4E 
 8390      4C595F5F 
 8391              	.LASF561:
 8392 40da 5F5F696E 		.ascii	"__int20 +2\000"
 8392      74323020 
 8392      2B3200
 8393              	.LASF774:
 8394 40e5 70644652 		.ascii	"pdFREERTOS_LITTLE_ENDIAN 0\000"
 8394      45455254 
 8394      4F535F4C 
 8394      4954544C 
 8394      455F454E 
 8395              	.LASF185:
 8396 4100 5F5F4C44 		.ascii	"__LDBL_DENORM_MIN__ 4.9406564584124654e-324L\000"
 8396      424C5F44 
 8396      454E4F52 
 8396      4D5F4D49 
 8396      4E5F5F20 
 8397              	.LASF99:
 8398 412d 5F5F494E 		.ascii	"__INT64_MAX__ 0x7fffffffffffffffLL\000"
 8398      5436345F 
 8398      4D41585F 
 8398      5F203078 
 8398      37666666 
 8399              	.LASF394:
 8400 4150 5F5F4152 		.ascii	"__ARM_FEATURE_SAT 1\000"
 8400      4D5F4645 
 8400      41545552 
 8400      455F5341 
 8400      54203100 
 8401              	.LASF584:
 8402 4164 5F5F696E 		.ascii	"__int16_t_defined 1\000"
 8402      7431365F 
 8402      745F6465 
 8402      66696E65 
 8402      64203100 
 8403              	.LASF289:
 8404 4178 5F5F554C 		.ascii	"__ULLFRACT_IBIT__ 0\000"
 8404      4C465241 
ARM GAS  /tmp/cc5qDK7o.s 			page 212


 8404      43545F49 
 8404      4249545F 
 8404      5F203000 
 8405              	.LASF459:
 8406 418c 5F414E53 		.ascii	"_ANSI_STDDEF_H \000"
 8406      495F5354 
 8406      44444546 
 8406      5F482000 
 8407              	.LASF464:
 8408 419c 5F505452 		.ascii	"_PTRDIFF_T_ \000"
 8408      44494646 
 8408      5F545F20 
 8408      00
 8409              	.LASF831:
 8410 41a9 636F6E66 		.ascii	"configASSERT_DEFINED 1\000"
 8410      69674153 
 8410      53455254 
 8410      5F444546 
 8410      494E4544 
 8411              	.LASF1124:
 8412 41c0 2E2E2F2E 		.ascii	"../../kernel/FreeRTOS/Source/portable/GCC/ARM_CM4F/"
 8412      2E2F6B65 
 8412      726E656C 
 8412      2F467265 
 8412      6552544F 
 8413 41f3 706F7274 		.ascii	"port.c\000"
 8413      2E6300
 8414              	.LASF754:
 8415 41fa 70644652 		.ascii	"pdFREERTOS_ERRNO_EROFS 30\000"
 8415      45455254 
 8415      4F535F45 
 8415      52524E4F 
 8415      5F45524F 
 8416              	.LASF685:
 8417 4214 636F6E66 		.ascii	"configUSE_MUTEXES 1\000"
 8417      69675553 
 8417      455F4D55 
 8417      54455845 
 8417      53203100 
 8418              	.LASF969:
 8419 4228 706F7274 		.ascii	"portTICK_RATE_MS portTICK_PERIOD_MS\000"
 8419      5449434B 
 8419      5F524154 
 8419      455F4D53 
 8419      20706F72 
 8420              	.LASF958:
 8421 424c 78517565 		.ascii	"xQueueHandle QueueHandle_t\000"
 8421      75654861 
 8421      6E646C65 
 8421      20517565 
 8421      75654861 
 8422              	.LASF82:
 8423 4267 5F5F4C4F 		.ascii	"__LONG_WIDTH__ 32\000"
 8423      4E475F57 
 8423      49445448 
 8423      5F5F2033 
 8423      3200
ARM GAS  /tmp/cc5qDK7o.s 			page 213


 8424              	.LASF491:
 8425 4279 5F545F57 		.ascii	"_T_WCHAR_ \000"
 8425      43484152 
 8425      5F2000
 8426              	.LASF308:
 8427 4284 5F5F5541 		.ascii	"__UACCUM_FBIT__ 16\000"
 8427      4343554D 
 8427      5F464249 
 8427      545F5F20 
 8427      313600
 8428              	.LASF1056:
 8429 4297 706F7274 		.ascii	"portMAX_24_BIT_NUMBER ( 0xffffffUL )\000"
 8429      4D41585F 
 8429      32345F42 
 8429      49545F4E 
 8429      554D4245 
 8430              	.LASF272:
 8431 42bc 5F5F5546 		.ascii	"__UFRACT_EPSILON__ 0x1P-16UR\000"
 8431      52414354 
 8431      5F455053 
 8431      494C4F4E 
 8431      5F5F2030 
 8432              	.LASF74:
 8433 42d9 5F5F5743 		.ascii	"__WCHAR_MIN__ 0U\000"
 8433      4841525F 
 8433      4D494E5F 
 8433      5F203055 
 8433      00
 8434              	.LASF344:
 8435 42ea 5F5F5551 		.ascii	"__UQQ_IBIT__ 0\000"
 8435      515F4942 
 8435      49545F5F 
 8435      203000
 8436              	.LASF512:
 8437 42f9 5F4E4557 		.ascii	"_NEWLIB_VERSION_H__ 1\000"
 8437      4C49425F 
 8437      56455253 
 8437      494F4E5F 
 8437      485F5F20 
 8438              	.LASF383:
 8439 430f 5F5F4743 		.ascii	"__GCC_ATOMIC_LONG_LOCK_FREE 2\000"
 8439      435F4154 
 8439      4F4D4943 
 8439      5F4C4F4E 
 8439      475F4C4F 
 8440              	.LASF320:
 8441 432d 5F5F554C 		.ascii	"__ULACCUM_MIN__ 0.0ULK\000"
 8441      41434355 
 8441      4D5F4D49 
 8441      4E5F5F20 
 8441      302E3055 
 8442              	.LASF487:
 8443 4344 5F5F6E65 		.ascii	"__need_size_t\000"
 8443      65645F73 
 8443      697A655F 
 8443      7400
 8444              	.LASF182:
ARM GAS  /tmp/cc5qDK7o.s 			page 214


 8445 4352 5F5F4C44 		.ascii	"__LDBL_MAX__ 1.7976931348623157e+308L\000"
 8445      424C5F4D 
 8445      41585F5F 
 8445      20312E37 
 8445      39373639 
 8446              	.LASF413:
 8447 4378 5F5F4152 		.ascii	"__ARM_ARCH 7\000"
 8447      4D5F4152 
 8447      43482037 
 8447      00
 8448              	.LASF477:
 8449 4385 5F53495A 		.ascii	"_SIZE_T_ \000"
 8449      455F545F 
 8449      2000
 8450              	.LASF1103:
 8451 438f 756C4F72 		.ascii	"ulOriginalPriority\000"
 8451      6967696E 
 8451      616C5072 
 8451      696F7269 
 8451      747900
 8452              	.LASF144:
 8453 43a2 5F5F464C 		.ascii	"__FLT_RADIX__ 2\000"
 8453      545F5241 
 8453      4449585F 
 8453      5F203200 
 8454              	.LASF1069:
 8455 43b2 6C6F6E67 		.ascii	"long long int\000"
 8455      206C6F6E 
 8455      6720696E 
 8455      7400
 8456              	.LASF401:
 8457 43c0 5F5F4152 		.ascii	"__ARM_FEATURE_CMSE\000"
 8457      4D5F4645 
 8457      41545552 
 8457      455F434D 
 8457      534500
 8458              	.LASF620:
 8459 43d3 55494E54 		.ascii	"UINT32_MAX (__UINT32_MAX__)\000"
 8459      33325F4D 
 8459      41582028 
 8459      5F5F5549 
 8459      4E543332 
 8460              	.LASF736:
 8461 43ef 70644652 		.ascii	"pdFREERTOS_ERRNO_EINTR 4\000"
 8461      45455254 
 8461      4F535F45 
 8461      52524E4F 
 8461      5F45494E 
 8462              	.LASF488:
 8463 4408 5F5F7763 		.ascii	"__wchar_t__ \000"
 8463      6861725F 
 8463      745F5F20 
 8463      00
 8464              	.LASF188:
 8465 4415 5F5F4C44 		.ascii	"__LDBL_HAS_QUIET_NAN__ 1\000"
 8465      424C5F48 
 8465      41535F51 
ARM GAS  /tmp/cc5qDK7o.s 			page 215


 8465      55494554 
 8465      5F4E414E 
 8466              	.LASF83:
 8467 442e 5F5F4C4F 		.ascii	"__LONG_LONG_WIDTH__ 64\000"
 8467      4E475F4C 
 8467      4F4E475F 
 8467      57494454 
 8467      485F5F20 
 8468              	.LASF460:
 8469 4445 5F505452 		.ascii	"_PTRDIFF_T \000"
 8469      44494646 
 8469      5F542000 
 8470              	.LASF681:
 8471 4451 636F6E66 		.ascii	"configMAX_TASK_NAME_LEN ( 10 )\000"
 8471      69674D41 
 8471      585F5441 
 8471      534B5F4E 
 8471      414D455F 
 8472              	.LASF135:
 8473 4470 5F5F5549 		.ascii	"__UINT_FAST64_MAX__ 0xffffffffffffffffULL\000"
 8473      4E545F46 
 8473      41535436 
 8473      345F4D41 
 8473      585F5F20 
 8474              	.LASF422:
 8475 449a 5F5F4152 		.ascii	"__ARM_FP\000"
 8475      4D5F4650 
 8475      00
 8476              	.LASF354:
 8477 44a3 5F5F4841 		.ascii	"__HA_IBIT__ 8\000"
 8477      5F494249 
 8477      545F5F20 
 8477      3800
 8478              	.LASF137:
 8479 44b1 5F5F494E 		.ascii	"__INTPTR_WIDTH__ 32\000"
 8479      54505452 
 8479      5F574944 
 8479      54485F5F 
 8479      20333200 
 8480              	.LASF384:
 8481 44c5 5F5F4743 		.ascii	"__GCC_ATOMIC_LLONG_LOCK_FREE 1\000"
 8481      435F4154 
 8481      4F4D4943 
 8481      5F4C4C4F 
 8481      4E475F4C 
 8482              	.LASF733:
 8483 44e4 7064494E 		.ascii	"pdINTEGRITY_CHECK_VALUE 0x5a5a5a5aUL\000"
 8483      54454752 
 8483      4954595F 
 8483      43484543 
 8483      4B5F5641 
 8484              	.LASF791:
 8485 4509 706F7274 		.ascii	"portTICK_PERIOD_MS ( ( TickType_t ) 1000 / configTI"
 8485      5449434B 
 8485      5F504552 
 8485      494F445F 
 8485      4D532028 
ARM GAS  /tmp/cc5qDK7o.s 			page 216


 8486 453c 434B5F52 		.ascii	"CK_RATE_HZ )\000"
 8486      4154455F 
 8486      485A2029 
 8486      00
 8487              	.LASF810:
 8488 4549 706F7274 		.ascii	"portFORCE_INLINE inline __attribute__(( always_inli"
 8488      464F5243 
 8488      455F494E 
 8488      4C494E45 
 8488      20696E6C 
 8489 457c 6E652929 		.ascii	"ne))\000"
 8489      00
 8490              	.LASF226:
 8491 4581 5F5F464C 		.ascii	"__FLT32X_MIN__ 2.2250738585072014e-308F32x\000"
 8491      54333258 
 8491      5F4D494E 
 8491      5F5F2032 
 8491      2E323235 
 8492              	.LASF1123:
 8493 45ac 474E5520 		.ascii	"GNU C89 8.2.1 20181213 (release) [gcc-8-branch revi"
 8493      43383920 
 8493      382E322E 
 8493      31203230 
 8493      31383132 
 8494 45df 73696F6E 		.ascii	"sion 267074] -mcpu=cortex-m4 -mthumb -mthumb-interw"
 8494      20323637 
 8494      3037345D 
 8494      202D6D63 
 8494      70753D63 
 8495 4612 6F726B20 		.ascii	"ork -mfloat-abi=softfp -mfpu=fpv4-sp-d16 -march=arm"
 8495      2D6D666C 
 8495      6F61742D 
 8495      6162693D 
 8495      736F6674 
 8496 4645 7637652D 		.ascii	"v7e-m+fp -g -ggdb3 -O3 -std=gnu90 -ffunction-sectio"
 8496      6D2B6670 
 8496      202D6720 
 8496      2D676764 
 8496      6233202D 
 8497 4678 6E73202D 		.ascii	"ns -fdata-sections -fno-builtin-printf\000"
 8497      66646174 
 8497      612D7365 
 8497      6374696F 
 8497      6E73202D 
 8498              	.LASF208:
 8499 469f 5F5F464C 		.ascii	"__FLT64_MAX_EXP__ 1024\000"
 8499      5436345F 
 8499      4D41585F 
 8499      4558505F 
 8499      5F203130 
 8500              	.LASF869:
 8501 46b6 74726163 		.ascii	"traceQUEUE_PEEK_FAILED(pxQueue) \000"
 8501      65515545 
 8501      55455F50 
 8501      45454B5F 
 8501      4641494C 
 8502              	.LASF437:
ARM GAS  /tmp/cc5qDK7o.s 			page 217


 8503 46d7 5F5F4152 		.ascii	"__ARM_EABI__ 1\000"
 8503      4D5F4541 
 8503      42495F5F 
 8503      203100
 8504              	.LASF1078:
 8505 46e6 6541626F 		.ascii	"eAbortSleep\000"
 8505      7274536C 
 8505      65657000 
 8506              	.LASF542:
 8507 46f2 5F5F5F69 		.ascii	"___int32_t_defined 1\000"
 8507      6E743332 
 8507      5F745F64 
 8507      6566696E 
 8507      65642031 
 8508              	.LASF1006:
 8509 4707 6C697374 		.ascii	"listLIST_IS_INITIALISED(pxList) ( ( pxList )->xList"
 8509      4C495354 
 8509      5F49535F 
 8509      494E4954 
 8509      49414C49 
 8510 473a 456E642E 		.ascii	"End.xItemValue == portMAX_DELAY )\000"
 8510      78497465 
 8510      6D56616C 
 8510      7565203D 
 8510      3D20706F 
 8511              	.LASF147:
 8512 475c 5F5F464C 		.ascii	"__FLT_MIN_EXP__ (-125)\000"
 8512      545F4D49 
 8512      4E5F4558 
 8512      505F5F20 
 8512      282D3132 
 8513              	.LASF409:
 8514 4773 5F5F4152 		.ascii	"__ARM_ARCH_PROFILE\000"
 8514      4D5F4152 
 8514      43485F50 
 8514      524F4649 
 8514      4C4500
 8515              	.LASF42:
 8516 4786 5F5F494E 		.ascii	"__INT64_TYPE__ long long int\000"
 8516      5436345F 
 8516      54595045 
 8516      5F5F206C 
 8516      6F6E6720 
 8517              	.LASF987:
 8518 47a3 6C697374 		.ascii	"listSET_SECOND_LIST_ITEM_INTEGRITY_CHECK_VALUE(pxIt"
 8518      5345545F 
 8518      5345434F 
 8518      4E445F4C 
 8518      4953545F 
 8519 47d6 656D2920 		.ascii	"em) \000"
 8519      00
 8520              	.LASF273:
 8521 47db 5F5F4C46 		.ascii	"__LFRACT_FBIT__ 31\000"
 8521      52414354 
 8521      5F464249 
 8521      545F5F20 
 8521      333100
ARM GAS  /tmp/cc5qDK7o.s 			page 218


 8522              	.LASF614:
 8523 47ee 55494E54 		.ascii	"UINT16_MAX (__UINT16_MAX__)\000"
 8523      31365F4D 
 8523      41582028 
 8523      5F5F5549 
 8523      4E543136 
 8524              	.LASF794:
 8525 480a 706F7274 		.ascii	"portNVIC_INT_CTRL_REG ( * ( ( volatile uint32_t * )"
 8525      4E564943 
 8525      5F494E54 
 8525      5F435452 
 8525      4C5F5245 
 8526 483d 20307865 		.ascii	" 0xe000ed04 ) )\000"
 8526      30303065 
 8526      64303420 
 8526      29202900 
 8527              	.LASF389:
 8528 484d 5F5F5349 		.ascii	"__SIZEOF_WCHAR_T__ 4\000"
 8528      5A454F46 
 8528      5F574348 
 8528      41525F54 
 8528      5F5F2034 
 8529              	.LASF768:
 8530 4862 70644652 		.ascii	"pdFREERTOS_ERRNO_EADDRNOTAVAIL 125\000"
 8530      45455254 
 8530      4F535F45 
 8530      52524E4F 
 8530      5F454144 
 8531              	.LASF528:
 8532 4885 5F5F4253 		.ascii	"__BSD_VISIBLE 1\000"
 8532      445F5649 
 8532      5349424C 
 8532      45203100 
 8533              	.LASF615:
 8534 4895 494E545F 		.ascii	"INT_LEAST16_MIN (-__INT_LEAST16_MAX__ - 1)\000"
 8534      4C454153 
 8534      5431365F 
 8534      4D494E20 
 8534      282D5F5F 
 8535              	.LASF1105:
 8536 48c0 75634D61 		.ascii	"ucMaxPriorityValue\000"
 8536      78507269 
 8536      6F726974 
 8536      7956616C 
 8536      756500
 8537              	.LASF875:
 8538 48d3 74726163 		.ascii	"traceQUEUE_RECEIVE_FROM_ISR_FAILED(pxQueue) \000"
 8538      65515545 
 8538      55455F52 
 8538      45434549 
 8538      56455F46 
 8539              	.LASF1029:
 8540 4900 706F7274 		.ascii	"portNVIC_SYSTICK_CTRL_REG ( * ( ( volatile uint32_t"
 8540      4E564943 
 8540      5F535953 
 8540      5449434B 
 8540      5F435452 
ARM GAS  /tmp/cc5qDK7o.s 			page 219


 8541 4933 202A2029 		.ascii	" * ) 0xe000e010 ) )\000"
 8541      20307865 
 8541      30303065 
 8541      30313020 
 8541      29202900 
 8542              	.LASF271:
 8543 4947 5F5F5546 		.ascii	"__UFRACT_MAX__ 0XFFFFP-16UR\000"
 8543      52414354 
 8543      5F4D4158 
 8543      5F5F2030 
 8543      58464646 
 8544              	.LASF547:
 8545 4963 5F5F5F69 		.ascii	"___int_least64_t_defined 1\000"
 8545      6E745F6C 
 8545      65617374 
 8545      36345F74 
 8545      5F646566 
 8546              	.LASF757:
 8547 497e 70644652 		.ascii	"pdFREERTOS_ERRNO_EFTYPE 79\000"
 8547      45455254 
 8547      4F535F45 
 8547      52524E4F 
 8547      5F454654 
 8548              	.LASF1117:
 8549 4999 756C4475 		.ascii	"ulDummy\000"
 8549      6D6D7900 
 8550              	.LASF110:
 8551 49a1 5F5F494E 		.ascii	"__INT_LEAST32_MAX__ 0x7fffffffL\000"
 8551      545F4C45 
 8551      41535433 
 8551      325F4D41 
 8551      585F5F20 
 8552              	.LASF254:
 8553 49c1 5F5F5346 		.ascii	"__SFRACT_IBIT__ 0\000"
 8553      52414354 
 8553      5F494249 
 8553      545F5F20 
 8553      3000
 8554              	.LASF526:
 8555 49d3 5F415446 		.ascii	"_ATFILE_SOURCE 1\000"
 8555      494C455F 
 8555      534F5552 
 8555      43452031 
 8555      00
 8556              	.LASF550:
 8557 49e4 5F5F5354 		.ascii	"__STDINT_EXP(x) __ ##x ##__\000"
 8557      44494E54 
 8557      5F455850 
 8557      28782920 
 8557      5F5F2023 
 8558              	.LASF537:
 8559 4a00 5F5F4558 		.ascii	"__EXP(x) __ ##x ##__\000"
 8559      50287829 
 8559      205F5F20 
 8559      23237820 
 8559      23235F5F 
 8560              	.LASF1055:
ARM GAS  /tmp/cc5qDK7o.s 			page 220


 8561 4a15 706F7274 		.ascii	"portINITIAL_EXC_RETURN ( 0xfffffffd )\000"
 8561      494E4954 
 8561      49414C5F 
 8561      4558435F 
 8561      52455455 
 8562              	.LASF27:
 8563 4a3b 5F5F4259 		.ascii	"__BYTE_ORDER__ __ORDER_LITTLE_ENDIAN__\000"
 8563      54455F4F 
 8563      52444552 
 8563      5F5F205F 
 8563      5F4F5244 
 8564              	.LASF198:
 8565 4a62 5F5F464C 		.ascii	"__FLT32_EPSILON__ 1.1920928955078125e-7F32\000"
 8565      5433325F 
 8565      45505349 
 8565      4C4F4E5F 
 8565      5F20312E 
 8566              	.LASF433:
 8567 4a8d 5F5F4152 		.ascii	"__ARM_NEON_FP\000"
 8567      4D5F4E45 
 8567      4F4E5F46 
 8567      5000
 8568              	.LASF287:
 8569 4a9b 5F5F4C4C 		.ascii	"__LLFRACT_EPSILON__ 0x1P-63LLR\000"
 8569      46524143 
 8569      545F4550 
 8569      53494C4F 
 8569      4E5F5F20 
 8570              	.LASF746:
 8571 4aba 70644652 		.ascii	"pdFREERTOS_ERRNO_EEXIST 17\000"
 8571      45455254 
 8571      4F535F45 
 8571      52524E4F 
 8571      5F454558 
 8572              	.LASF790:
 8573 4ad5 706F7274 		.ascii	"portSTACK_GROWTH ( -1 )\000"
 8573      53544143 
 8573      4B5F4752 
 8573      4F575448 
 8573      2028202D 
 8574              	.LASF803:
 8575 4aed 706F7274 		.ascii	"portEXIT_CRITICAL() vPortExitCritical()\000"
 8575      45584954 
 8575      5F435249 
 8575      54494341 
 8575      4C282920 
 8576              	.LASF1059:
 8577 4b15 706F7274 		.ascii	"portTASK_RETURN_ADDRESS prvTaskExitError\000"
 8577      5441534B 
 8577      5F524554 
 8577      55524E5F 
 8577      41444452 
 8578              	.LASF959:
 8579 4b3e 7853656D 		.ascii	"xSemaphoreHandle SemaphoreHandle_t\000"
 8579      6170686F 
 8579      72654861 
 8579      6E646C65 
ARM GAS  /tmp/cc5qDK7o.s 			page 221


 8579      2053656D 
 8580              	.LASF843:
 8581 4b61 74726163 		.ascii	"traceLOW_POWER_IDLE_BEGIN() \000"
 8581      654C4F57 
 8581      5F504F57 
 8581      45525F49 
 8581      444C455F 
 8582              	.LASF268:
 8583 4b7e 5F5F5546 		.ascii	"__UFRACT_FBIT__ 16\000"
 8583      52414354 
 8583      5F464249 
 8583      545F5F20 
 8583      313600
 8584              	.LASF979:
 8585 4b91 494E435F 		.ascii	"INC_TASK_H \000"
 8585      5441534B 
 8585      5F482000 
 8586              	.LASF349:
 8587 4b9d 5F5F5544 		.ascii	"__UDQ_FBIT__ 64\000"
 8587      515F4642 
 8587      49545F5F 
 8587      20363400 
 8588              	.LASF600:
 8589 4bad 5F5F696E 		.ascii	"__int_fast16_t_defined 1\000"
 8589      745F6661 
 8589      73743136 
 8589      5F745F64 
 8589      6566696E 
 8590              	.LASF179:
 8591 4bc6 5F5F4C44 		.ascii	"__LDBL_MAX_10_EXP__ 308\000"
 8591      424C5F4D 
 8591      41585F31 
 8591      305F4558 
 8591      505F5F20 
 8592              	.LASF691:
 8593 4bde 636F6E66 		.ascii	"configUSE_COUNTING_SEMAPHORES 1\000"
 8593      69675553 
 8593      455F434F 
 8593      554E5449 
 8593      4E475F53 
 8594              	.LASF775:
 8595 4bfe 70644652 		.ascii	"pdFREERTOS_BIG_ENDIAN 1\000"
 8595      45455254 
 8595      4F535F42 
 8595      49475F45 
 8595      4E444941 
 8596              	.LASF723:
 8597 4c16 70644641 		.ascii	"pdFALSE ( ( BaseType_t ) 0 )\000"
 8597      4C534520 
 8597      28202820 
 8597      42617365 
 8597      54797065 
 8598              	.LASF170:
 8599 4c33 5F5F4442 		.ascii	"__DBL_DENORM_MIN__ ((double)4.9406564584124654e-324"
 8599      4C5F4445 
 8599      4E4F524D 
 8599      5F4D494E 
ARM GAS  /tmp/cc5qDK7o.s 			page 222


 8599      5F5F2028 
 8600 4c66 4C2900   		.ascii	"L)\000"
 8601              	.LASF625:
 8602 4c69 494E5436 		.ascii	"INT64_MAX (__INT64_MAX__)\000"
 8602      345F4D41 
 8602      5820285F 
 8602      5F494E54 
 8602      36345F4D 
 8603              	.LASF960:
 8604 4c83 78517565 		.ascii	"xQueueSetHandle QueueSetHandle_t\000"
 8604      75655365 
 8604      7448616E 
 8604      646C6520 
 8604      51756575 
 8605              	.LASF1060:
 8606 4ca4 756E7369 		.ascii	"unsigned int\000"
 8606      676E6564 
 8606      20696E74 
 8606      00
 8607              	.LASF479:
 8608 4cb1 5F53495A 		.ascii	"_SIZE_T_DEFINED_ \000"
 8608      455F545F 
 8608      44454649 
 8608      4E45445F 
 8608      2000
 8609              	.LASF515:
 8610 4cc3 5F5F4E45 		.ascii	"__NEWLIB_MINOR__ 0\000"
 8610      574C4942 
 8610      5F4D494E 
 8610      4F525F5F 
 8610      203000
 8611              	.LASF713:
 8612 4cd6 636F6E66 		.ascii	"configLIBRARY_LOWEST_INTERRUPT_PRIORITY 0x7\000"
 8612      69674C49 
 8612      42524152 
 8612      595F4C4F 
 8612      57455354 
 8613              	.LASF742:
 8614 4d02 70644652 		.ascii	"pdFREERTOS_ERRNO_ENOMEM 12\000"
 8614      45455254 
 8614      4F535F45 
 8614      52524E4F 
 8614      5F454E4F 
 8615              	.LASF485:
 8616 4d1d 5F53495A 		.ascii	"_SIZET_ \000"
 8616      45545F20 
 8616      00
 8617              	.LASF217:
 8618 4d26 5F5F464C 		.ascii	"__FLT64_HAS_QUIET_NAN__ 1\000"
 8618      5436345F 
 8618      4841535F 
 8618      51554945 
 8618      545F4E41 
 8619              	.LASF659:
 8620 4d40 55494E54 		.ascii	"UINT32_C(x) __UINT32_C(x)\000"
 8620      33325F43 
 8620      28782920 
ARM GAS  /tmp/cc5qDK7o.s 			page 223


 8620      5F5F5549 
 8620      4E543332 
 8621              	.LASF331:
 8622 4d5a 5F5F554C 		.ascii	"__ULLACCUM_MAX__ 0XFFFFFFFFFFFFFFFFP-32ULLK\000"
 8622      4C414343 
 8622      554D5F4D 
 8622      41585F5F 
 8622      20305846 
 8623              	.LASF299:
 8624 4d86 5F5F5553 		.ascii	"__USACCUM_IBIT__ 8\000"
 8624      41434355 
 8624      4D5F4942 
 8624      49545F5F 
 8624      203800
 8625              	.LASF1017:
 8626 4d99 7461736B 		.ascii	"taskDISABLE_INTERRUPTS() portDISABLE_INTERRUPTS()\000"
 8626      44495341 
 8626      424C455F 
 8626      494E5445 
 8626      52525550 
 8627              	.LASF435:
 8628 4dcb 5F5F4152 		.ascii	"__ARM_ARCH_7EM__ 1\000"
 8628      4D5F4152 
 8628      43485F37 
 8628      454D5F5F 
 8628      203100
 8629              	.LASF215:
 8630 4dde 5F5F464C 		.ascii	"__FLT64_HAS_DENORM__ 1\000"
 8630      5436345F 
 8630      4841535F 
 8630      44454E4F 
 8630      524D5F5F 
 8631              	.LASF329:
 8632 4df5 5F5F554C 		.ascii	"__ULLACCUM_IBIT__ 32\000"
 8632      4C414343 
 8632      554D5F49 
 8632      4249545F 
 8632      5F203332 
 8633              	.LASF52:
 8634 4e0a 5F5F5549 		.ascii	"__UINT_LEAST16_TYPE__ short unsigned int\000"
 8634      4E545F4C 
 8634      45415354 
 8634      31365F54 
 8634      5950455F 
 8635              	.LASF502:
 8636 4e33 5F574348 		.ascii	"_WCHAR_T_DECLARED \000"
 8636      41525F54 
 8636      5F444543 
 8636      4C415245 
 8636      442000
 8637              	.LASF635:
 8638 4e46 55494E54 		.ascii	"UINT_FAST16_MAX (__UINT_FAST16_MAX__)\000"
 8638      5F464153 
 8638      5431365F 
 8638      4D415820 
 8638      285F5F55 
 8639              	.LASF22:
ARM GAS  /tmp/cc5qDK7o.s 			page 224


 8640 4e6c 5F5F4348 		.ascii	"__CHAR_BIT__ 8\000"
 8640      41525F42 
 8640      49545F5F 
 8640      203800
 8641              	.LASF1100:
 8642 4e7b 76506F72 		.ascii	"vPortExitCritical\000"
 8642      74457869 
 8642      74437269 
 8642      74696361 
 8642      6C00
 8643              	.LASF141:
 8644 4e8d 5F5F464C 		.ascii	"__FLT_EVAL_METHOD__ 0\000"
 8644      545F4556 
 8644      414C5F4D 
 8644      4554484F 
 8644      445F5F20 
 8645              	.LASF68:
 8646 4ea3 5F5F5343 		.ascii	"__SCHAR_MAX__ 0x7f\000"
 8646      4841525F 
 8646      4D41585F 
 8646      5F203078 
 8646      376600
 8647              	.LASF668:
 8648 4eb6 636F6E66 		.ascii	"configUSE_TICKLESS_IDLE 1\000"
 8648      69675553 
 8648      455F5449 
 8648      434B4C45 
 8648      53535F49 
 8649              	.LASF125:
 8650 4ed0 5F5F494E 		.ascii	"__INT_FAST8_WIDTH__ 32\000"
 8650      545F4641 
 8650      5354385F 
 8650      57494454 
 8650      485F5F20 
 8651              	.LASF567:
 8652 4ee7 5F5F494E 		.ascii	"__INT16 \"h\"\000"
 8652      54313620 
 8652      22682200 
 8653              	.LASF402:
 8654 4ef3 5F5F4152 		.ascii	"__ARM_FEATURE_LDREX\000"
 8654      4D5F4645 
 8654      41545552 
 8654      455F4C44 
 8654      52455800 
 8655              	.LASF462:
 8656 4f07 5F545F50 		.ascii	"_T_PTRDIFF \000"
 8656      54524449 
 8656      46462000 
 8657              	.LASF343:
 8658 4f13 5F5F5551 		.ascii	"__UQQ_FBIT__ 8\000"
 8658      515F4642 
 8658      49545F5F 
 8658      203800
 8659              	.LASF724:
 8660 4f22 70645452 		.ascii	"pdTRUE ( ( BaseType_t ) 1 )\000"
 8660      55452028 
 8660      20282042 
ARM GAS  /tmp/cc5qDK7o.s 			page 225


 8660      61736554 
 8660      7970655F 
 8661              	.LASF240:
 8662 4f3e 5F5F4445 		.ascii	"__DEC64_MIN_EXP__ (-382)\000"
 8662      4336345F 
 8662      4D494E5F 
 8662      4558505F 
 8662      5F20282D 
 8663              	.LASF139:
 8664 4f57 5F5F4743 		.ascii	"__GCC_IEC_559 0\000"
 8664      435F4945 
 8664      435F3535 
 8664      39203000 
 8665              	.LASF1096:
 8666 4f67 756C4361 		.ascii	"ulCalculatedLoadValue\000"
 8666      6C63756C 
 8666      61746564 
 8666      4C6F6164 
 8666      56616C75 
 8667              	.LASF934:
 8668 4f7d 636F6E66 		.ascii	"configPOST_SLEEP_PROCESSING(x) \000"
 8668      6967504F 
 8668      53545F53 
 8668      4C454550 
 8668      5F50524F 
 8669              	.LASF276:
 8670 4f9d 5F5F4C46 		.ascii	"__LFRACT_MAX__ 0X7FFFFFFFP-31LR\000"
 8670      52414354 
 8670      5F4D4158 
 8670      5F5F2030 
 8670      58374646 
 8671              	.LASF391:
 8672 4fbd 5F5F5349 		.ascii	"__SIZEOF_PTRDIFF_T__ 4\000"
 8672      5A454F46 
 8672      5F505452 
 8672      44494646 
 8672      5F545F5F 
 8673              	.LASF468:
 8674 4fd4 5F505452 		.ascii	"_PTRDIFF_T_DECLARED \000"
 8674      44494646 
 8674      5F545F44 
 8674      45434C41 
 8674      52454420 
 8675              	.LASF544:
 8676 4fe9 5F5F5F69 		.ascii	"___int_least8_t_defined 1\000"
 8676      6E745F6C 
 8676      65617374 
 8676      385F745F 
 8676      64656669 
 8677              	.LASF439:
 8678 5003 5F5F4152 		.ascii	"__ARM_FEATURE_IDIV 1\000"
 8678      4D5F4645 
 8678      41545552 
 8678      455F4944 
 8678      49562031 
 8679              	.LASF28:
 8680 5018 5F5F464C 		.ascii	"__FLOAT_WORD_ORDER__ __ORDER_LITTLE_ENDIAN__\000"
ARM GAS  /tmp/cc5qDK7o.s 			page 226


 8680      4F41545F 
 8680      574F5244 
 8680      5F4F5244 
 8680      45525F5F 
 8681              	.LASF501:
 8682 5045 5F474343 		.ascii	"_GCC_WCHAR_T \000"
 8682      5F574348 
 8682      41525F54 
 8682      2000
 8683              	.LASF941:
 8684 5053 706F7274 		.ascii	"portASSERT_IF_IN_ISR() \000"
 8684      41535345 
 8684      52545F49 
 8684      465F494E 
 8684      5F495352 
 8685              	.LASF599:
 8686 506b 5F5F696E 		.ascii	"__int_fast8_t_defined 1\000"
 8686      745F6661 
 8686      7374385F 
 8686      745F6465 
 8686      66696E65 
 8687              	.LASF442:
 8688 5083 5F5F4152 		.ascii	"__ARM_FEATURE_COPROC 15\000"
 8688      4D5F4645 
 8688      41545552 
 8688      455F434F 
 8688      50524F43 
 8689              	.LASF741:
 8690 509b 70644652 		.ascii	"pdFREERTOS_ERRNO_EWOULDBLOCK 11\000"
 8690      45455254 
 8690      4F535F45 
 8690      52524E4F 
 8690      5F45574F 
 8691              	.LASF860:
 8692 50bb 74726163 		.ascii	"traceGIVE_MUTEX_RECURSIVE_FAILED(pxMutex) \000"
 8692      65474956 
 8692      455F4D55 
 8692      5445585F 
 8692      52454355 
 8693              	.LASF1021:
 8694 50e6 7461736B 		.ascii	"taskSCHEDULER_RUNNING ( ( BaseType_t ) 2 )\000"
 8694      53434845 
 8694      44554C45 
 8694      525F5255 
 8694      4E4E494E 
 8695              	.LASF80:
 8696 5111 5F5F5348 		.ascii	"__SHRT_WIDTH__ 16\000"
 8696      52545F57 
 8696      49445448 
 8696      5F5F2031 
 8696      3600
 8697              	.LASF246:
 8698 5123 5F5F4445 		.ascii	"__DEC128_MANT_DIG__ 34\000"
 8698      43313238 
 8698      5F4D414E 
 8698      545F4449 
 8698      475F5F20 
ARM GAS  /tmp/cc5qDK7o.s 			page 227


 8699              	.LASF604:
 8700 513a 494E5450 		.ascii	"INTPTR_MAX (__INTPTR_MAX__)\000"
 8700      54525F4D 
 8700      41582028 
 8700      5F5F494E 
 8700      54505452 
 8701              	.LASF1022:
 8702 5156 78546173 		.ascii	"xTaskNotify(xTaskToNotify,ulValue,eAction) xTaskGen"
 8702      6B4E6F74 
 8702      69667928 
 8702      78546173 
 8702      6B546F4E 
 8703 5189 65726963 		.ascii	"ericNotify( ( xTaskToNotify ), ( ulValue ), ( eActi"
 8703      4E6F7469 
 8703      66792820 
 8703      28207854 
 8703      61736B54 
 8704 51bc 6F6E2029 		.ascii	"on ), NULL )\000"
 8704      2C204E55 
 8704      4C4C2029 
 8704      00
 8705              	.LASF363:
 8706 51c9 5F5F5553 		.ascii	"__USA_FBIT__ 16\000"
 8706      415F4642 
 8706      49545F5F 
 8706      20313600 
 8707              	.LASF57:
 8708 51d9 5F5F494E 		.ascii	"__INT_FAST32_TYPE__ int\000"
 8708      545F4641 
 8708      53543332 
 8708      5F545950 
 8708      455F5F20 
 8709              	.LASF2:
 8710 51f1 5F5F474E 		.ascii	"__GNUC__ 8\000"
 8710      55435F5F 
 8710      203800
 8711              	.LASF220:
 8712 51fc 5F5F464C 		.ascii	"__FLT32X_MIN_EXP__ (-1021)\000"
 8712      54333258 
 8712      5F4D494E 
 8712      5F455850 
 8712      5F5F2028 
 8713              	.LASF1065:
 8714 5217 6C6F6E67 		.ascii	"long int\000"
 8714      20696E74 
 8714      00
 8715              	.LASF158:
 8716 5220 5F5F464C 		.ascii	"__FLT_HAS_QUIET_NAN__ 1\000"
 8716      545F4841 
 8716      535F5155 
 8716      4945545F 
 8716      4E414E5F 
 8717              	.LASF1102:
 8718 5238 76506F72 		.ascii	"vPortEndScheduler\000"
 8718      74456E64 
 8718      53636865 
 8718      64756C65 
ARM GAS  /tmp/cc5qDK7o.s 			page 228


 8718      7200
 8719              	.LASF377:
 8720 524a 5F5F4743 		.ascii	"__GCC_ATOMIC_CHAR_LOCK_FREE 2\000"
 8720      435F4154 
 8720      4F4D4943 
 8720      5F434841 
 8720      525F4C4F 
 8721              	.LASF274:
 8722 5268 5F5F4C46 		.ascii	"__LFRACT_IBIT__ 0\000"
 8722      52414354 
 8722      5F494249 
 8722      545F5F20 
 8722      3000
 8723              	.LASF277:
 8724 527a 5F5F4C46 		.ascii	"__LFRACT_EPSILON__ 0x1P-31LR\000"
 8724      52414354 
 8724      5F455053 
 8724      494C4F4E 
 8724      5F5F2030 
 8725              	.LASF652:
 8726 5297 57494E54 		.ascii	"WINT_MAX (__WINT_MAX__)\000"
 8726      5F4D4158 
 8726      20285F5F 
 8726      57494E54 
 8726      5F4D4158 
 8727              	.LASF890:
 8728 52af 74726163 		.ascii	"traceTIMER_COMMAND_SEND(xTimer,xMessageID,xMessageV"
 8728      6554494D 
 8728      45525F43 
 8728      4F4D4D41 
 8728      4E445F53 
 8729 52e2 616C7565 		.ascii	"alueValue,xReturn) \000"
 8729      56616C75 
 8729      652C7852 
 8729      65747572 
 8729      6E292000 
 8730              	.LASF698:
 8731 52f6 636F6E66 		.ascii	"configMAX_CO_ROUTINE_PRIORITIES ( 2 )\000"
 8731      69674D41 
 8731      585F434F 
 8731      5F524F55 
 8731      54494E45 
 8732              	.LASF837:
 8733 531c 70635175 		.ascii	"pcQueueGetName(xQueue) \000"
 8733      65756547 
 8733      65744E61 
 8733      6D652878 
 8733      51756575 
 8734              	.LASF407:
 8735 5334 5F5F4152 		.ascii	"__ARM_SIZEOF_MINIMAL_ENUM 1\000"
 8735      4D5F5349 
 8735      5A454F46 
 8735      5F4D494E 
 8735      494D414C 
 8736              	.LASF1062:
 8737 5350 756E7369 		.ascii	"unsigned char\000"
 8737      676E6564 
ARM GAS  /tmp/cc5qDK7o.s 			page 229


 8737      20636861 
 8737      7200
 8738              	.LASF874:
 8739 535e 74726163 		.ascii	"traceQUEUE_RECEIVE_FROM_ISR(pxQueue) \000"
 8739      65515545 
 8739      55455F52 
 8739      45434549 
 8739      56455F46 
 8740              	.LASF455:
 8741 5384 424F4F54 		.ascii	"BOOTROM_VERSION_ASIC 1\000"
 8741      524F4D5F 
 8741      56455253 
 8741      494F4E5F 
 8741      41534943 
 8742              	.LASF411:
 8743 539b 5F5F6172 		.ascii	"__arm__ 1\000"
 8743      6D5F5F20 
 8743      3100
 8744              	.LASF848:
 8745 53a5 74726163 		.ascii	"traceBLOCKING_ON_QUEUE_RECEIVE(pxQueue) \000"
 8745      65424C4F 
 8745      434B494E 
 8745      475F4F4E 
 8745      5F515545 
 8746              	.LASF886:
 8747 53ce 74726163 		.ascii	"traceTASK_RESUME_FROM_ISR(pxTaskToResume) \000"
 8747      65544153 
 8747      4B5F5245 
 8747      53554D45 
 8747      5F46524F 
 8748              	.LASF192:
 8749 53f9 5F5F464C 		.ascii	"__FLT32_MIN_10_EXP__ (-37)\000"
 8749      5433325F 
 8749      4D494E5F 
 8749      31305F45 
 8749      58505F5F 
 8750              	.LASF490:
 8751 5414 5F574348 		.ascii	"_WCHAR_T \000"
 8751      41525F54 
 8751      2000
 8752              	.LASF425:
 8753 541e 5F5F4152 		.ascii	"__ARM_FP16_FORMAT_ALTERNATIVE\000"
 8753      4D5F4650 
 8753      31365F46 
 8753      4F524D41 
 8753      545F414C 
 8754              	.LASF1047:
 8755 543c 706F7274 		.ascii	"portTOP_BIT_OF_BYTE ( ( uint8_t ) 0x80 )\000"
 8755      544F505F 
 8755      4249545F 
 8755      4F465F42 
 8755      59544520 
 8756              	.LASF879:
 8757 5465 74726163 		.ascii	"traceTASK_CREATE_FAILED() \000"
 8757      65544153 
 8757      4B5F4352 
 8757      45415445 
ARM GAS  /tmp/cc5qDK7o.s 			page 230


 8757      5F464149 
 8758              	.LASF232:
 8759 5480 5F5F4445 		.ascii	"__DEC32_MANT_DIG__ 7\000"
 8759      4333325F 
 8759      4D414E54 
 8759      5F444947 
 8759      5F5F2037 
 8760              	.LASF357:
 8761 5495 5F5F4441 		.ascii	"__DA_FBIT__ 31\000"
 8761      5F464249 
 8761      545F5F20 
 8761      333100
 8762              	.LASF510:
 8763 54a4 5F4D4143 		.ascii	"_MACHINE__DEFAULT_TYPES_H \000"
 8763      48494E45 
 8763      5F5F4445 
 8763      4641554C 
 8763      545F5459 
 8764              	.LASF23:
 8765 54bf 5F5F4249 		.ascii	"__BIGGEST_ALIGNMENT__ 8\000"
 8765      47474553 
 8765      545F414C 
 8765      49474E4D 
 8765      454E545F 
 8766              	.LASF856:
 8767 54d7 74726163 		.ascii	"traceQUEUE_CREATE_FAILED(ucQueueType) \000"
 8767      65515545 
 8767      55455F43 
 8767      52454154 
 8767      455F4641 
 8768              	.LASF796:
 8769 54fe 706F7274 		.ascii	"portEND_SWITCHING_ISR(xSwitchRequired) if( xSwitchR"
 8769      454E445F 
 8769      53574954 
 8769      4348494E 
 8769      475F4953 
 8770 5531 65717569 		.ascii	"equired != pdFALSE ) portYIELD()\000"
 8770      72656420 
 8770      213D2070 
 8770      6446414C 
 8770      53452029 
 8771              	.LASF467:
 8772 5552 5F474343 		.ascii	"_GCC_PTRDIFF_T \000"
 8772      5F505452 
 8772      44494646 
 8772      5F542000 
 8773              	.LASF792:
 8774 5562 706F7274 		.ascii	"portBYTE_ALIGNMENT 8\000"
 8774      42595445 
 8774      5F414C49 
 8774      474E4D45 
 8774      4E542038 
 8775              	.LASF703:
 8776 5577 494E434C 		.ascii	"INCLUDE_vTaskPrioritySet 1\000"
 8776      5544455F 
 8776      76546173 
 8776      6B507269 
ARM GAS  /tmp/cc5qDK7o.s 			page 231


 8776      6F726974 
 8777              	.LASF360:
 8778 5592 5F5F5441 		.ascii	"__TA_IBIT__ 64\000"
 8778      5F494249 
 8778      545F5F20 
 8778      363400
 8779              	.LASF709:
 8780 55a1 494E434C 		.ascii	"INCLUDE_vTaskDelay 1\000"
 8780      5544455F 
 8780      76546173 
 8780      6B44656C 
 8780      61792031 
 8781              	.LASF1035:
 8782 55b6 706F7274 		.ascii	"portNVIC_SYSTICK_COUNT_FLAG_BIT ( 1UL << 16UL )\000"
 8782      4E564943 
 8782      5F535953 
 8782      5449434B 
 8782      5F434F55 
 8783              	.LASF577:
 8784 55e6 5F5F4C45 		.ascii	"__LEAST64 \"ll\"\000"
 8784      41535436 
 8784      3420226C 
 8784      6C2200
 8785              	.LASF1118:
 8786 55f5 756C4E65 		.ascii	"ulNewBASEPRI\000"
 8786      77424153 
 8786      45505249 
 8786      00
 8787              	.LASF472:
 8788 5602 5F53495A 		.ascii	"_SIZE_T \000"
 8788      455F5420 
 8788      00
 8789              	.LASF498:
 8790 560b 5F574348 		.ascii	"_WCHAR_T_H \000"
 8790      41525F54 
 8790      5F482000 
 8791              	.LASF920:
 8792 5617 74726163 		.ascii	"traceSTREAM_BUFFER_RESET(xStreamBuffer) \000"
 8792      65535452 
 8792      45414D5F 
 8792      42554646 
 8792      45525F52 
 8793              	.LASF957:
 8794 5640 78546173 		.ascii	"xTaskHandle TaskHandle_t\000"
 8794      6B48616E 
 8794      646C6520 
 8794      5461736B 
 8794      48616E64 
 8795              	.LASF397:
 8796 5659 5F5F4152 		.ascii	"__ARM_FEATURE_QRDMX\000"
 8796      4D5F4645 
 8796      41545552 
 8796      455F5152 
 8796      444D5800 
 8797              	.LASF747:
 8798 566d 70644652 		.ascii	"pdFREERTOS_ERRNO_EXDEV 18\000"
 8798      45455254 
ARM GAS  /tmp/cc5qDK7o.s 			page 232


 8798      4F535F45 
 8798      52524E4F 
 8798      5F455844 
 8799              	.LASF727:
 8800 5687 65727251 		.ascii	"errQUEUE_EMPTY ( ( BaseType_t ) 0 )\000"
 8800      55455545 
 8800      5F454D50 
 8800      54592028 
 8800      20282042 
 8801              	.LASF989:
 8802 56ab 6C697374 		.ascii	"listSET_LIST_INTEGRITY_CHECK_2_VALUE(pxList) \000"
 8802      5345545F 
 8802      4C495354 
 8802      5F494E54 
 8802      45475249 
 8803              	.LASF419:
 8804 56d9 5F5F4152 		.ascii	"__ARM_ARCH_ISA_THUMB 2\000"
 8804      4D5F4152 
 8804      43485F49 
 8804      53415F54 
 8804      48554D42 
 8805              	.LASF72:
 8806 56f0 5F5F4C4F 		.ascii	"__LONG_LONG_MAX__ 0x7fffffffffffffffLL\000"
 8806      4E475F4C 
 8806      4F4E475F 
 8806      4D41585F 
 8806      5F203078 
 8807              	.LASF1088:
 8808 5717 756C4375 		.ascii	"ulCurrentInterrupt\000"
 8808      7272656E 
 8808      74496E74 
 8808      65727275 
 8808      707400
 8809              	.LASF85:
 8810 572a 5F5F5749 		.ascii	"__WINT_WIDTH__ 32\000"
 8810      4E545F57 
 8810      49445448 
 8810      5F5F2033 
 8810      3200
 8811              	.LASF556:
 8812 573c 6C6F6E67 		.ascii	"long\000"
 8812      00
 8813              	.LASF348:
 8814 5741 5F5F5553 		.ascii	"__USQ_IBIT__ 0\000"
 8814      515F4942 
 8814      49545F5F 
 8814      203000
 8815              	.LASF554:
 8816 5750 73686F72 		.ascii	"short\000"
 8816      7400
 8817              	.LASF853:
 8818 5756 74726163 		.ascii	"traceMOVED_TASK_TO_READY_STATE(pxTCB) \000"
 8818      654D4F56 
 8818      45445F54 
 8818      41534B5F 
 8818      544F5F52 
 8819              	.LASF745:
ARM GAS  /tmp/cc5qDK7o.s 			page 233


 8820 577d 70644652 		.ascii	"pdFREERTOS_ERRNO_EBUSY 16\000"
 8820      45455254 
 8820      4F535F45 
 8820      52524E4F 
 8820      5F454255 
 8821              	.LASF878:
 8822 5797 74726163 		.ascii	"traceTASK_CREATE(pxNewTCB) \000"
 8822      65544153 
 8822      4B5F4352 
 8822      45415445 
 8822      2870784E 
 8823              	.LASF269:
 8824 57b3 5F5F5546 		.ascii	"__UFRACT_IBIT__ 0\000"
 8824      52414354 
 8824      5F494249 
 8824      545F5F20 
 8824      3000
 8825              	.LASF400:
 8826 57c5 5F5F4152 		.ascii	"__ARM_32BIT_STATE 1\000"
 8826      4D5F3332 
 8826      4249545F 
 8826      53544154 
 8826      45203100 
 8827              	.LASF697:
 8828 57d9 636F6E66 		.ascii	"configUSE_CO_ROUTINES 0\000"
 8828      69675553 
 8828      455F434F 
 8828      5F524F55 
 8828      54494E45 
 8829              	.LASF105:
 8830 57f1 5F5F494E 		.ascii	"__INT8_C(c) c\000"
 8830      54385F43 
 8830      28632920 
 8830      6300
 8831              	.LASF1098:
 8832 57ff 76506F72 		.ascii	"vPortSetupTimerInterrupt\000"
 8832      74536574 
 8832      75705469 
 8832      6D657249 
 8832      6E746572 
 8833              	.LASF889:
 8834 5818 74726163 		.ascii	"traceTIMER_CREATE_FAILED() \000"
 8834      6554494D 
 8834      45525F43 
 8834      52454154 
 8834      455F4641 
 8835              	.LASF458:
 8836 5834 5F535444 		.ascii	"_STDDEF_H_ \000"
 8836      4445465F 
 8836      485F2000 
 8837              	.LASF162:
 8838 5840 5F5F4442 		.ascii	"__DBL_MIN_EXP__ (-1021)\000"
 8838      4C5F4D49 
 8838      4E5F4558 
 8838      505F5F20 
 8838      282D3130 
 8839              	.LASF476:
ARM GAS  /tmp/cc5qDK7o.s 			page 234


 8840 5858 5F5F5349 		.ascii	"__SIZE_T \000"
 8840      5A455F54 
 8840      2000
 8841              	.LASF186:
 8842 5862 5F5F4C44 		.ascii	"__LDBL_HAS_DENORM__ 1\000"
 8842      424C5F48 
 8842      41535F44 
 8842      454E4F52 
 8842      4D5F5F20 
 8843              	.LASF817:
 8844 5878 636F6E66 		.ascii	"configUSE_NEWLIB_REENTRANT 0\000"
 8844      69675553 
 8844      455F4E45 
 8844      574C4942 
 8844      5F524545 
 8845              	.LASF456:
 8846 5895 494E435F 		.ascii	"INC_FREERTOS_H \000"
 8846      46524545 
 8846      52544F53 
 8846      5F482000 
 8847              	.LASF1023:
 8848 58a5 78546173 		.ascii	"xTaskNotifyAndQuery(xTaskToNotify,ulValue,eAction,p"
 8848      6B4E6F74 
 8848      69667941 
 8848      6E645175 
 8848      65727928 
 8849 58d8 756C5072 		.ascii	"ulPreviousNotifyValue) xTaskGenericNotify( ( xTaskT"
 8849      6576696F 
 8849      75734E6F 
 8849      74696679 
 8849      56616C75 
 8850 590b 6F4E6F74 		.ascii	"oNotify ), ( ulValue ), ( eAction ), ( pulPreviousN"
 8850      69667920 
 8850      292C2028 
 8850      20756C56 
 8850      616C7565 
 8851 593e 6F746966 		.ascii	"otifyValue ) )\000"
 8851      7956616C 
 8851      75652029 
 8851      202900
 8852              	.LASF1106:
 8853 594d 76506F72 		.ascii	"vPortEnableVFP\000"
 8853      74456E61 
 8853      626C6556 
 8853      465000
 8854              	.LASF694:
 8855 595c 706F7274 		.ascii	"portCONFIGURE_TIMER_FOR_RUN_TIME_STATS() \000"
 8855      434F4E46 
 8855      49475552 
 8855      455F5449 
 8855      4D45525F 
 8856              	.LASF190:
 8857 5986 5F5F464C 		.ascii	"__FLT32_DIG__ 6\000"
 8857      5433325F 
 8857      4449475F 
 8857      5F203600 
 8858              	.LASF663:
ARM GAS  /tmp/cc5qDK7o.s 			page 235


 8859 5996 55494E54 		.ascii	"UINTMAX_C(x) __UINTMAX_C(x)\000"
 8859      4D41585F 
 8859      43287829 
 8859      205F5F55 
 8859      494E544D 
 8860              	.LASF532:
 8861 59b2 5F5F4D49 		.ascii	"__MISC_VISIBLE 1\000"
 8861      53435F56 
 8861      49534942 
 8861      4C452031 
 8861      00
 8862              	.LASF641:
 8863 59c3 55494E54 		.ascii	"UINT_FAST64_MAX (__UINT_FAST64_MAX__)\000"
 8863      5F464153 
 8863      5436345F 
 8863      4D415820 
 8863      285F5F55 
 8864              	.LASF557:
 8865 59e9 7369676E 		.ascii	"signed +0\000"
 8865      6564202B 
 8865      3000
 8866              	.LASF678:
 8867 59f3 636F6E66 		.ascii	"configMAX_PRIORITIES ( 5 )\000"
 8867      69674D41 
 8867      585F5052 
 8867      494F5249 
 8867      54494553 
 8868              	.LASF826:
 8869 5a0e 494E434C 		.ascii	"INCLUDE_xTaskGetCurrentTaskHandle 0\000"
 8869      5544455F 
 8869      78546173 
 8869      6B476574 
 8869      43757272 
 8870              	.LASF375:
 8871 5a32 5F5F4743 		.ascii	"__GCC_HAVE_SYNC_COMPARE_AND_SWAP_4 1\000"
 8871      435F4841 
 8871      56455F53 
 8871      594E435F 
 8871      434F4D50 
 8872              	.LASF908:
 8873 5a57 74726163 		.ascii	"traceQUEUE_REGISTRY_ADD(xQueue,pcQueueName) \000"
 8873      65515545 
 8873      55455F52 
 8873      45474953 
 8873      5452595F 
 8874              	.LASF305:
 8875 5a84 5F5F4143 		.ascii	"__ACCUM_MIN__ (-0X1P15K-0X1P15K)\000"
 8875      43554D5F 
 8875      4D494E5F 
 8875      5F20282D 
 8875      30583150 
 8876              	.LASF395:
 8877 5aa5 5F5F4152 		.ascii	"__ARM_FEATURE_CRYPTO\000"
 8877      4D5F4645 
 8877      41545552 
 8877      455F4352 
 8877      5950544F 
ARM GAS  /tmp/cc5qDK7o.s 			page 236


 8878              	.LASF446:
 8879 5aba 434F4E46 		.ascii	"CONFIG_BENCH 0\000"
 8879      49475F42 
 8879      454E4348 
 8879      203000
 8880              	.LASF49:
 8881 5ac9 5F5F494E 		.ascii	"__INT_LEAST32_TYPE__ long int\000"
 8881      545F4C45 
 8881      41535433 
 8881      325F5459 
 8881      50455F5F 
 8882              	.LASF961:
 8883 5ae7 78517565 		.ascii	"xQueueSetMemberHandle QueueSetMemberHandle_t\000"
 8883      75655365 
 8883      744D656D 
 8883      62657248 
 8883      616E646C 
 8884              	.LASF1030:
 8885 5b14 706F7274 		.ascii	"portNVIC_SYSTICK_LOAD_REG ( * ( ( volatile uint32_t"
 8885      4E564943 
 8885      5F535953 
 8885      5449434B 
 8885      5F4C4F41 
 8886 5b47 202A2029 		.ascii	" * ) 0xe000e014 ) )\000"
 8886      20307865 
 8886      30303065 
 8886      30313420 
 8886      29202900 
 8887              	.LASF882:
 8888 5b5b 74726163 		.ascii	"traceTASK_DELAY() \000"
 8888      65544153 
 8888      4B5F4445 
 8888      4C415928 
 8888      292000
 8889              	.LASF676:
 8890 5b6e 636F6E66 		.ascii	"configUSE_TICK_HOOK 0\000"
 8890      69675553 
 8890      455F5449 
 8890      434B5F48 
 8890      4F4F4B20 
 8891              	.LASF1057:
 8892 5b84 706F7274 		.ascii	"portSTART_ADDRESS_MASK ( ( StackType_t ) 0xfffffffe"
 8892      53544152 
 8892      545F4144 
 8892      44524553 
 8892      535F4D41 
 8893 5bb7 554C2029 		.ascii	"UL )\000"
 8893      00
 8894              	.LASF740:
 8895 5bbc 70644652 		.ascii	"pdFREERTOS_ERRNO_EAGAIN 11\000"
 8895      45455254 
 8895      4F535F45 
 8895      52524E4F 
 8895      5F454147 
 8896              	.LASF122:
 8897 5bd7 5F5F5549 		.ascii	"__UINT_LEAST64_MAX__ 0xffffffffffffffffULL\000"
 8897      4E545F4C 
ARM GAS  /tmp/cc5qDK7o.s 			page 237


 8897      45415354 
 8897      36345F4D 
 8897      41585F5F 
 8898              	.LASF1120:
 8899 5c02 76546173 		.ascii	"vTaskStepTick\000"
 8899      6B537465 
 8899      70546963 
 8899      6B00
 8900              	.LASF264:
 8901 5c10 5F5F4652 		.ascii	"__FRACT_IBIT__ 0\000"
 8901      4143545F 
 8901      49424954 
 8901      5F5F2030 
 8901      00
 8902              	.LASF8:
 8903 5c21 5F5F4154 		.ascii	"__ATOMIC_ACQUIRE 2\000"
 8903      4F4D4943 
 8903      5F414351 
 8903      55495245 
 8903      203200
 8904              	.LASF904:
 8905 5c34 74726163 		.ascii	"traceEVENT_GROUP_SET_BITS_FROM_ISR(xEventGroup,uxBi"
 8905      65455645 
 8905      4E545F47 
 8905      524F5550 
 8905      5F534554 
 8906 5c67 7473546F 		.ascii	"tsToSet) \000"
 8906      53657429 
 8906      2000
 8907              	.LASF81:
 8908 5c71 5F5F494E 		.ascii	"__INT_WIDTH__ 32\000"
 8908      545F5749 
 8908      4454485F 
 8908      5F203332 
 8908      00
 8909              	.LASF516:
 8910 5c82 5F5F4E45 		.ascii	"__NEWLIB_PATCHLEVEL__ 0\000"
 8910      574C4942 
 8910      5F504154 
 8910      43484C45 
 8910      56454C5F 
 8911              	.LASF737:
 8912 5c9a 70644652 		.ascii	"pdFREERTOS_ERRNO_EIO 5\000"
 8912      45455254 
 8912      4F535F45 
 8912      52524E4F 
 8912      5F45494F 
 8913              	.LASF24:
 8914 5cb1 5F5F4F52 		.ascii	"__ORDER_LITTLE_ENDIAN__ 1234\000"
 8914      4445525F 
 8914      4C495454 
 8914      4C455F45 
 8914      4E444941 
 8915              	.LASF239:
 8916 5cce 5F5F4445 		.ascii	"__DEC64_MANT_DIG__ 16\000"
 8916      4336345F 
 8916      4D414E54 
ARM GAS  /tmp/cc5qDK7o.s 			page 238


 8916      5F444947 
 8916      5F5F2031 
 8917              	.LASF1070:
 8918 5ce4 6C6F6E67 		.ascii	"long long unsigned int\000"
 8918      206C6F6E 
 8918      6720756E 
 8918      7369676E 
 8918      65642069 
 8919              	.LASF629:
 8920 5cfb 55494E54 		.ascii	"UINT_LEAST64_MAX (__UINT_LEAST64_MAX__)\000"
 8920      5F4C4541 
 8920      53543634 
 8920      5F4D4158 
 8920      20285F5F 
 8921              	.LASF148:
 8922 5d23 5F5F464C 		.ascii	"__FLT_MIN_10_EXP__ (-37)\000"
 8922      545F4D49 
 8922      4E5F3130 
 8922      5F455850 
 8922      5F5F2028 
 8923              	.LASF984:
 8924 5d3c 6C697374 		.ascii	"listFIRST_LIST_INTEGRITY_CHECK_VALUE \000"
 8924      46495253 
 8924      545F4C49 
 8924      53545F49 
 8924      4E544547 
 8925              	.LASF319:
 8926 5d62 5F5F554C 		.ascii	"__ULACCUM_IBIT__ 32\000"
 8926      41434355 
 8926      4D5F4942 
 8926      49545F5F 
 8926      20333200 
 8927              	.LASF69:
 8928 5d76 5F5F5348 		.ascii	"__SHRT_MAX__ 0x7fff\000"
 8928      52545F4D 
 8928      41585F5F 
 8928      20307837 
 8928      66666600 
 8929              	.LASF1101:
 8930 5d8a 76506F72 		.ascii	"vPortEnterCritical\000"
 8930      74456E74 
 8930      65724372 
 8930      69746963 
 8930      616C00
 8931              	.LASF1111:
 8932 5d9d 78457870 		.ascii	"xExpectedIdleTime\000"
 8932      65637465 
 8932      6449646C 
 8932      6554696D 
 8932      6500
 8933              	.LASF332:
 8934 5daf 5F5F554C 		.ascii	"__ULLACCUM_EPSILON__ 0x1P-32ULLK\000"
 8934      4C414343 
 8934      554D5F45 
 8934      5053494C 
 8934      4F4E5F5F 
 8935              	.LASF480:
ARM GAS  /tmp/cc5qDK7o.s 			page 239


 8936 5dd0 5F53495A 		.ascii	"_SIZE_T_DEFINED \000"
 8936      455F545F 
 8936      44454649 
 8936      4E454420 
 8936      00
 8937              	.LASF339:
 8938 5de1 5F5F4451 		.ascii	"__DQ_FBIT__ 63\000"
 8938      5F464249 
 8938      545F5F20 
 8938      363300
 8939              	.LASF529:
 8940 5df0 5F5F474E 		.ascii	"__GNU_VISIBLE 0\000"
 8940      555F5649 
 8940      5349424C 
 8940      45203000 
 8941              	.LASF294:
 8942 5e00 5F5F5341 		.ascii	"__SACCUM_IBIT__ 8\000"
 8942      4343554D 
 8942      5F494249 
 8942      545F5F20 
 8942      3800
 8943              	.LASF463:
 8944 5e12 5F5F5054 		.ascii	"__PTRDIFF_T \000"
 8944      52444946 
 8944      465F5420 
 8944      00
 8945              	.LASF346:
 8946 5e1f 5F5F5548 		.ascii	"__UHQ_IBIT__ 0\000"
 8946      515F4942 
 8946      49545F5F 
 8946      203000
 8947              	.LASF830:
 8948 5e2e 706F7274 		.ascii	"portCRITICAL_NESTING_IN_TCB 0\000"
 8948      43524954 
 8948      4943414C 
 8948      5F4E4553 
 8948      54494E47 
 8949              	.LASF897:
 8950 5e4c 74726163 		.ascii	"traceEVENT_GROUP_SYNC_BLOCK(xEventGroup,uxBitsToSet"
 8950      65455645 
 8950      4E545F47 
 8950      524F5550 
 8950      5F53594E 
 8951 5e7f 2C757842 		.ascii	",uxBitsToWaitFor) \000"
 8951      69747354 
 8951      6F576169 
 8951      74466F72 
 8951      292000
 8952              	.LASF1082:
 8953 5e92 756C5469 		.ascii	"ulTimerCountsForOneTick\000"
 8953      6D657243 
 8953      6F756E74 
 8953      73466F72 
 8953      4F6E6554 
 8954              	.LASF56:
 8955 5eaa 5F5F494E 		.ascii	"__INT_FAST16_TYPE__ int\000"
 8955      545F4641 
ARM GAS  /tmp/cc5qDK7o.s 			page 240


 8955      53543136 
 8955      5F545950 
 8955      455F5F20 
 8956              	.LASF892:
 8957 5ec2 74726163 		.ascii	"traceTIMER_COMMAND_RECEIVED(pxTimer,xMessageID,xMes"
 8957      6554494D 
 8957      45525F43 
 8957      4F4D4D41 
 8957      4E445F52 
 8958 5ef5 73616765 		.ascii	"sageValue) \000"
 8958      56616C75 
 8958      65292000 
 8959              	.LASF295:
 8960 5f01 5F5F5341 		.ascii	"__SACCUM_MIN__ (-0X1P7HK-0X1P7HK)\000"
 8960      4343554D 
 8960      5F4D494E 
 8960      5F5F2028 
 8960      2D305831 
 8961              	.LASF281:
 8962 5f23 5F5F554C 		.ascii	"__ULFRACT_MAX__ 0XFFFFFFFFP-32ULR\000"
 8962      46524143 
 8962      545F4D41 
 8962      585F5F20 
 8962      30584646 
 8963              	.LASF1121:
 8964 5f45 78546173 		.ascii	"xTaskIncrementTick\000"
 8964      6B496E63 
 8964      72656D65 
 8964      6E745469 
 8964      636B00
 8965              	.LASF788:
 8966 5f58 706F7274 		.ascii	"portMAX_DELAY ( TickType_t ) 0xffffffffUL\000"
 8966      4D41585F 
 8966      44454C41 
 8966      59202820 
 8966      5469636B 
 8967              	.LASF591:
 8968 5f82 5F494E54 		.ascii	"_INTMAX_T_DECLARED \000"
 8968      4D41585F 
 8968      545F4445 
 8968      434C4152 
 8968      45442000 
 8969              	.LASF316:
 8970 5f96 5F5F4C41 		.ascii	"__LACCUM_MAX__ 0X7FFFFFFFFFFFFFFFP-31LK\000"
 8970      4343554D 
 8970      5F4D4158 
 8970      5F5F2030 
 8970      58374646 
 8971              	.LASF36:
 8972 5fbe 5F5F4348 		.ascii	"__CHAR16_TYPE__ short unsigned int\000"
 8972      41523136 
 8972      5F545950 
 8972      455F5F20 
 8972      73686F72 
 8973              	.LASF219:
 8974 5fe1 5F5F464C 		.ascii	"__FLT32X_DIG__ 15\000"
 8974      54333258 
ARM GAS  /tmp/cc5qDK7o.s 			page 241


 8974      5F444947 
 8974      5F5F2031 
 8974      3500
 8975              	.LASF660:
 8976 5ff3 494E5436 		.ascii	"INT64_C(x) __INT64_C(x)\000"
 8976      345F4328 
 8976      7829205F 
 8976      5F494E54 
 8976      36345F43 
 8977              	.LASF913:
 8978 600b 74726163 		.ascii	"traceTASK_NOTIFY() \000"
 8978      65544153 
 8978      4B5F4E4F 
 8978      54494659 
 8978      28292000 
 8979              	.LASF351:
 8980 601f 5F5F5554 		.ascii	"__UTQ_FBIT__ 128\000"
 8980      515F4642 
 8980      49545F5F 
 8980      20313238 
 8980      00
 8981              	.LASF944:
 8982 6030 636F6E66 		.ascii	"configSUPPORT_DYNAMIC_ALLOCATION 1\000"
 8982      69675355 
 8982      50504F52 
 8982      545F4459 
 8982      4E414D49 
 8983              	.LASF1076:
 8984 6053 55426173 		.ascii	"UBaseType_t\000"
 8984      65547970 
 8984      655F7400 
 8985              	.LASF787:
 8986 605f 706F7274 		.ascii	"portBASE_TYPE long\000"
 8986      42415345 
 8986      5F545950 
 8986      45206C6F 
 8986      6E6700
 8987              	.LASF617:
 8988 6072 55494E54 		.ascii	"UINT_LEAST16_MAX (__UINT_LEAST16_MAX__)\000"
 8988      5F4C4541 
 8988      53543136 
 8988      5F4D4158 
 8988      20285F5F 
 8989              	.LASF126:
 8990 609a 5F5F494E 		.ascii	"__INT_FAST16_MAX__ 0x7fffffff\000"
 8990      545F4641 
 8990      53543136 
 8990      5F4D4158 
 8990      5F5F2030 
 8991              	.LASF538:
 8992 60b8 5F5F6861 		.ascii	"__have_longlong64 1\000"
 8992      76655F6C 
 8992      6F6E676C 
 8992      6F6E6736 
 8992      34203100 
 8993              	.LASF17:
 8994 60cc 5F5F5349 		.ascii	"__SIZEOF_SHORT__ 2\000"
ARM GAS  /tmp/cc5qDK7o.s 			page 242


 8994      5A454F46 
 8994      5F53484F 
 8994      52545F5F 
 8994      203200
 8995              	.LASF1003:
 8996 60df 6C697374 		.ascii	"listGET_OWNER_OF_HEAD_ENTRY(pxList) ( (&( ( pxList "
 8996      4745545F 
 8996      4F574E45 
 8996      525F4F46 
 8996      5F484541 
 8997 6112 292D3E78 		.ascii	")->xListEnd ))->pxNext->pvOwner )\000"
 8997      4C697374 
 8997      456E6420 
 8997      29292D3E 
 8997      70784E65 
 8998              	.LASF594:
 8999 6134 5F55494E 		.ascii	"_UINTPTR_T_DECLARED \000"
 8999      54505452 
 8999      5F545F44 
 8999      45434C41 
 8999      52454420 
 9000              	.LASF497:
 9001 6149 5F574348 		.ascii	"_WCHAR_T_DEFINED \000"
 9001      41525F54 
 9001      5F444546 
 9001      494E4544 
 9001      2000
 9002              	.LASF321:
 9003 615b 5F5F554C 		.ascii	"__ULACCUM_MAX__ 0XFFFFFFFFFFFFFFFFP-32ULK\000"
 9003      41434355 
 9003      4D5F4D41 
 9003      585F5F20 
 9003      30584646 
 9004              	.LASF744:
 9005 6185 70644652 		.ascii	"pdFREERTOS_ERRNO_EFAULT 14\000"
 9005      45455254 
 9005      4F535F45 
 9005      52524E4F 
 9005      5F454641 
 9006              	.LASF917:
 9007 61a0 74726163 		.ascii	"traceSTREAM_BUFFER_CREATE_STATIC_FAILED(xReturn,xIs"
 9007      65535452 
 9007      45414D5F 
 9007      42554646 
 9007      45525F43 
 9008 61d3 4D657373 		.ascii	"MessageBuffer) \000"
 9008      61676542 
 9008      75666665 
 9008      72292000 
 9009              	.LASF779:
 9010 61e3 44455052 		.ascii	"DEPRECATED_DEFINITIONS_H \000"
 9010      45434154 
 9010      45445F44 
 9010      4546494E 
 9010      4954494F 
 9011              	.LASF1077:
 9012 61fd 5469636B 		.ascii	"TickType_t\000"
ARM GAS  /tmp/cc5qDK7o.s 			page 243


 9012      54797065 
 9012      5F7400
 9013              	.LASF280:
 9014 6208 5F5F554C 		.ascii	"__ULFRACT_MIN__ 0.0ULR\000"
 9014      46524143 
 9014      545F4D49 
 9014      4E5F5F20 
 9014      302E3055 
 9015              	.LASF983:
 9016 621f 6C697374 		.ascii	"listSECOND_LIST_ITEM_INTEGRITY_CHECK_VALUE \000"
 9016      5345434F 
 9016      4E445F4C 
 9016      4953545F 
 9016      4954454D 
 9017              	.LASF645:
 9018 624b 53495A45 		.ascii	"SIZE_MAX (__SIZE_MAX__)\000"
 9018      5F4D4158 
 9018      20285F5F 
 9018      53495A45 
 9018      5F4D4158 
 9019              	.LASF340:
 9020 6263 5F5F4451 		.ascii	"__DQ_IBIT__ 0\000"
 9020      5F494249 
 9020      545F5F20 
 9020      3000
 9021              	.LASF41:
 9022 6271 5F5F494E 		.ascii	"__INT32_TYPE__ long int\000"
 9022      5433325F 
 9022      54595045 
 9022      5F5F206C 
 9022      6F6E6720 
 9023              	.LASF683:
 9024 6289 636F6E66 		.ascii	"configUSE_16_BIT_TICKS 0\000"
 9024      69675553 
 9024      455F3136 
 9024      5F424954 
 9024      5F544943 
 9025              	.LASF478:
 9026 62a2 5F425344 		.ascii	"_BSD_SIZE_T_ \000"
 9026      5F53495A 
 9026      455F545F 
 9026      2000
 9027              	.LASF1081:
 9028 62b0 75784372 		.ascii	"uxCriticalNesting\000"
 9028      69746963 
 9028      616C4E65 
 9028      7374696E 
 9028      6700
 9029              	.LASF494:
 9030 62c2 5F574348 		.ascii	"_WCHAR_T_ \000"
 9030      41525F54 
 9030      5F2000
 9031              	.LASF588:
 9032 62cd 5F494E54 		.ascii	"_INT64_T_DECLARED \000"
 9032      36345F54 
 9032      5F444543 
 9032      4C415245 
ARM GAS  /tmp/cc5qDK7o.s 			page 244


 9032      442000
 9033              	.LASF756:
 9034 62e0 70644652 		.ascii	"pdFREERTOS_ERRNO_EBADE 50\000"
 9034      45455254 
 9034      4F535F45 
 9034      52524E4F 
 9034      5F454241 
 9035              	.LASF1119:
 9036 62fa 65546173 		.ascii	"eTaskConfirmSleepModeStatus\000"
 9036      6B436F6E 
 9036      6669726D 
 9036      536C6565 
 9036      704D6F64 
 9037              	.LASF1049:
 9038 6316 706F7274 		.ascii	"portPRIORITY_GROUP_MASK ( 0x07UL << 8UL )\000"
 9038      5052494F 
 9038      52495459 
 9038      5F47524F 
 9038      55505F4D 
 9039              	.LASF907:
 9040 6340 74726163 		.ascii	"tracePEND_FUNC_CALL_FROM_ISR(xFunctionToPend,pvPara"
 9040      6550454E 
 9040      445F4655 
 9040      4E435F43 
 9040      414C4C5F 
 9041 6373 6D657465 		.ascii	"meter1,ulParameter2,ret) \000"
 9041      72312C75 
 9041      6C506172 
 9041      616D6574 
 9041      6572322C 
 9042              	.LASF1001:
 9043 638d 6C697374 		.ascii	"listCURRENT_LIST_LENGTH(pxList) ( ( pxList )->uxNum"
 9043      43555252 
 9043      454E545F 
 9043      4C495354 
 9043      5F4C454E 
 9044 63c0 6265724F 		.ascii	"berOfItems )\000"
 9044      66497465 
 9044      6D732029 
 9044      00
 9045              	.LASF857:
 9046 63cd 74726163 		.ascii	"traceCREATE_MUTEX(pxNewQueue) \000"
 9046      65435245 
 9046      4154455F 
 9046      4D555445 
 9046      58287078 
 9047              	.LASF1019:
 9048 63ec 7461736B 		.ascii	"taskSCHEDULER_SUSPENDED ( ( BaseType_t ) 0 )\000"
 9048      53434845 
 9048      44554C45 
 9048      525F5355 
 9048      5350454E 
 9049              	.LASF352:
 9050 6419 5F5F5554 		.ascii	"__UTQ_IBIT__ 0\000"
 9050      515F4942 
 9050      49545F5F 
 9050      203000
ARM GAS  /tmp/cc5qDK7o.s 			page 245


 9051              	.LASF355:
 9052 6428 5F5F5341 		.ascii	"__SA_FBIT__ 15\000"
 9052      5F464249 
 9052      545F5F20 
 9052      313500
 9053              	.LASF500:
 9054 6437 5F5F494E 		.ascii	"__INT_WCHAR_T_H \000"
 9054      545F5743 
 9054      4841525F 
 9054      545F4820 
 9054      00
 9055              	.LASF225:
 9056 6448 5F5F464C 		.ascii	"__FLT32X_MAX__ 1.7976931348623157e+308F32x\000"
 9056      54333258 
 9056      5F4D4158 
 9056      5F5F2031 
 9056      2E373937 
 9057              	.LASF541:
 9058 6473 5F5F5F69 		.ascii	"___int16_t_defined 1\000"
 9058      6E743136 
 9058      5F745F64 
 9058      6566696E 
 9058      65642031 
 9059              	.LASF680:
 9060 6488 636F6E66 		.ascii	"configTOTAL_HEAP_SIZE ( ( size_t ) ( 80 * 1024 ) )\000"
 9060      6967544F 
 9060      54414C5F 
 9060      48454150 
 9060      5F53495A 
 9061              	.LASF444:
 9062 64bb 5F5F454C 		.ascii	"__ELF__ 1\000"
 9062      465F5F20 
 9062      3100
 9063              	.LASF417:
 9064 64c5 5F5F5448 		.ascii	"__THUMBEL__ 1\000"
 9064      554D4245 
 9064      4C5F5F20 
 9064      3100
 9065              	.LASF392:
 9066 64d3 5F5F4152 		.ascii	"__ARM_FEATURE_DSP 1\000"
 9066      4D5F4645 
 9066      41545552 
 9066      455F4453 
 9066      50203100 
 9067              	.LASF801:
 9068 64e7 706F7274 		.ascii	"portENABLE_INTERRUPTS() vPortSetBASEPRI(0)\000"
 9068      454E4142 
 9068      4C455F49 
 9068      4E544552 
 9068      52555054 
 9069              	.LASF1025:
 9070 6512 78546173 		.ascii	"xTaskNotifyAndQueryFromISR(xTaskToNotify,ulValue,eA"
 9070      6B4E6F74 
 9070      69667941 
 9070      6E645175 
 9070      65727946 
 9071 6545 6374696F 		.ascii	"ction,pulPreviousNotificationValue,pxHigherPriority"
ARM GAS  /tmp/cc5qDK7o.s 			page 246


 9071      6E2C7075 
 9071      6C507265 
 9071      76696F75 
 9071      734E6F74 
 9072 6578 5461736B 		.ascii	"TaskWoken) xTaskGenericNotifyFromISR( ( xTaskToNoti"
 9072      576F6B65 
 9072      6E292078 
 9072      5461736B 
 9072      47656E65 
 9073 65ab 66792029 		.ascii	"fy ), ( ulValue ), ( eAction ), ( pulPreviousNotifi"
 9073      2C202820 
 9073      756C5661 
 9073      6C756520 
 9073      292C2028 
 9074 65de 63617469 		.ascii	"cationValue ), ( pxHigherPriorityTaskWoken ) )\000"
 9074      6F6E5661 
 9074      6C756520 
 9074      292C2028 
 9074      20707848 
 9075              	.LASF932:
 9076 660d 636F6E66 		.ascii	"configPRE_SUPPRESS_TICKS_AND_SLEEP_PROCESSING(x) \000"
 9076      69675052 
 9076      455F5355 
 9076      50505245 
 9076      53535F54 
 9077              	.LASF334:
 9078 663f 5F5F5151 		.ascii	"__QQ_IBIT__ 0\000"
 9078      5F494249 
 9078      545F5F20 
 9078      3000
 9079              	.LASF718:
 9080 664d 76506F72 		.ascii	"vPortSVCHandler SVC_Handler\000"
 9080      74535643 
 9080      48616E64 
 9080      6C657220 
 9080      5356435F 
 9081              	.LASF735:
 9082 6669 70644652 		.ascii	"pdFREERTOS_ERRNO_ENOENT 2\000"
 9082      45455254 
 9082      4F535F45 
 9082      52524E4F 
 9082      5F454E4F 
 9083              	.LASF975:
 9084 6683 70645441 		.ascii	"pdTASK_CODE TaskFunction_t\000"
 9084      534B5F43 
 9084      4F444520 
 9084      5461736B 
 9084      46756E63 
 9085              	.LASF661:
 9086 669e 55494E54 		.ascii	"UINT64_C(x) __UINT64_C(x)\000"
 9086      36345F43 
 9086      28782920 
 9086      5F5F5549 
 9086      4E543634 
 9087              	.LASF323:
 9088 66b8 5F5F4C4C 		.ascii	"__LLACCUM_FBIT__ 31\000"
 9088      41434355 
ARM GAS  /tmp/cc5qDK7o.s 			page 247


 9088      4D5F4642 
 9088      49545F5F 
 9088      20333100 
 9089              	.LASF35:
 9090 66cc 5F5F5549 		.ascii	"__UINTMAX_TYPE__ long long unsigned int\000"
 9090      4E544D41 
 9090      585F5459 
 9090      50455F5F 
 9090      206C6F6E 
 9091              	.LASF221:
 9092 66f4 5F5F464C 		.ascii	"__FLT32X_MIN_10_EXP__ (-307)\000"
 9092      54333258 
 9092      5F4D494E 
 9092      5F31305F 
 9092      4558505F 
 9093              	.LASF611:
 9094 6711 55494E54 		.ascii	"UINT_LEAST8_MAX (__UINT_LEAST8_MAX__)\000"
 9094      5F4C4541 
 9094      5354385F 
 9094      4D415820 
 9094      285F5F55 
 9095              	.LASF3:
 9096 6737 5F5F474E 		.ascii	"__GNUC_MINOR__ 2\000"
 9096      55435F4D 
 9096      494E4F52 
 9096      5F5F2032 
 9096      00
 9097              	.LASF800:
 9098 6748 706F7274 		.ascii	"portDISABLE_INTERRUPTS() vPortRaiseBASEPRI()\000"
 9098      44495341 
 9098      424C455F 
 9098      494E5445 
 9098      52525550 
 9099              	.LASF931:
 9100 6775 636F6E66 		.ascii	"configEXPECTED_IDLE_TIME_BEFORE_SLEEP 2\000"
 9100      69674558 
 9100      50454354 
 9100      45445F49 
 9100      444C455F 
 9101              	.LASF53:
 9102 679d 5F5F5549 		.ascii	"__UINT_LEAST32_TYPE__ long unsigned int\000"
 9102      4E545F4C 
 9102      45415354 
 9102      33325F54 
 9102      5950455F 
 9103              	.LASF405:
 9104 67c5 5F5F4152 		.ascii	"__ARM_FEATURE_NUMERIC_MAXMIN\000"
 9104      4D5F4645 
 9104      41545552 
 9104      455F4E55 
 9104      4D455249 
 9105              	.LASF34:
 9106 67e2 5F5F494E 		.ascii	"__INTMAX_TYPE__ long long int\000"
 9106      544D4158 
 9106      5F545950 
 9106      455F5F20 
 9106      6C6F6E67 
ARM GAS  /tmp/cc5qDK7o.s 			page 248


 9107              	.LASF935:
 9108 6800 706F7274 		.ascii	"portTASK_USES_FLOATING_POINT() \000"
 9108      5441534B 
 9108      5F555345 
 9108      535F464C 
 9108      4F415449 
 9109              	.LASF449:
 9110 6820 434F4E46 		.ascii	"CONFIG_AUD_I2S 1\000"
 9110      49475F41 
 9110      55445F49 
 9110      32532031 
 9110      00
 9111              	.LASF382:
 9112 6831 5F5F4743 		.ascii	"__GCC_ATOMIC_INT_LOCK_FREE 2\000"
 9112      435F4154 
 9112      4F4D4943 
 9112      5F494E54 
 9112      5F4C4F43 
 9113              	.LASF946:
 9114 684e 636F6E66 		.ascii	"configINITIAL_TICK_COUNT 0\000"
 9114      6967494E 
 9114      49544941 
 9114      4C5F5449 
 9114      434B5F43 
 9115              	.LASF918:
 9116 6869 74726163 		.ascii	"traceSTREAM_BUFFER_CREATE(pxStreamBuffer,xIsMessage"
 9116      65535452 
 9116      45414D5F 
 9116      42554646 
 9116      45525F43 
 9117 689c 42756666 		.ascii	"Buffer) \000"
 9117      65722920 
 9117      00
 9118              	.LASF862:
 9119 68a5 74726163 		.ascii	"traceTAKE_MUTEX_RECURSIVE_FAILED(pxMutex) \000"
 9119      6554414B 
 9119      455F4D55 
 9119      5445585F 
 9119      52454355 
 9120              	.LASF427:
 9121 68d0 5F5F4152 		.ascii	"__ARM_FEATURE_FP16_SCALAR_ARITHMETIC\000"
 9121      4D5F4645 
 9121      41545552 
 9121      455F4650 
 9121      31365F53 
 9122              	.LASF784:
 9123 68f5 706F7274 		.ascii	"portLONG long\000"
 9123      4C4F4E47 
 9123      206C6F6E 
 9123      6700
 9124              	.LASF302:
 9125 6903 5F5F5553 		.ascii	"__USACCUM_EPSILON__ 0x1P-8UHK\000"
 9125      41434355 
 9125      4D5F4550 
 9125      53494C4F 
 9125      4E5F5F20 
 9126              	.LASF173:
ARM GAS  /tmp/cc5qDK7o.s 			page 249


 9127 6921 5F5F4442 		.ascii	"__DBL_HAS_QUIET_NAN__ 1\000"
 9127      4C5F4841 
 9127      535F5155 
 9127      4945545F 
 9127      4E414E5F 
 9128              	.LASF658:
 9129 6939 494E5433 		.ascii	"INT32_C(x) __INT32_C(x)\000"
 9129      325F4328 
 9129      7829205F 
 9129      5F494E54 
 9129      33325F43 
 9130              	.LASF688:
 9131 6951 636F6E66 		.ascii	"configUSE_RECURSIVE_MUTEXES 1\000"
 9131      69675553 
 9131      455F5245 
 9131      43555253 
 9131      4956455F 
 9132              	.LASF286:
 9133 696f 5F5F4C4C 		.ascii	"__LLFRACT_MAX__ 0X7FFFFFFFFFFFFFFFP-63LLR\000"
 9133      46524143 
 9133      545F4D41 
 9133      585F5F20 
 9133      30583746 
 9134              	.LASF248:
 9135 6999 5F5F4445 		.ascii	"__DEC128_MAX_EXP__ 6145\000"
 9135      43313238 
 9135      5F4D4158 
 9135      5F455850 
 9135      5F5F2036 
 9136              	.LASF1026:
 9137 69b1 78546173 		.ascii	"xTaskNotifyGive(xTaskToNotify) xTaskGenericNotify( "
 9137      6B4E6F74 
 9137      69667947 
 9137      69766528 
 9137      78546173 
 9138 69e4 28207854 		.ascii	"( xTaskToNotify ), ( 0 ), eIncrement, NULL )\000"
 9138      61736B54 
 9138      6F4E6F74 
 9138      69667920 
 9138      292C2028 
 9139              	.LASF623:
 9140 6a11 55494E54 		.ascii	"UINT_LEAST32_MAX (__UINT_LEAST32_MAX__)\000"
 9140      5F4C4541 
 9140      53543332 
 9140      5F4D4158 
 9140      20285F5F 
 9141              	.LASF1010:
 9142 6a39 74736B4B 		.ascii	"tskKERNEL_VERSION_BUILD 1\000"
 9142      45524E45 
 9142      4C5F5645 
 9142      5253494F 
 9142      4E5F4255 
 9143              	.LASF734:
 9144 6a53 70644652 		.ascii	"pdFREERTOS_ERRNO_NONE 0\000"
 9144      45455254 
 9144      4F535F45 
 9144      52524E4F 
ARM GAS  /tmp/cc5qDK7o.s 			page 250


 9144      5F4E4F4E 
 9145              	.LASF706:
 9146 6a6b 494E434C 		.ascii	"INCLUDE_vTaskCleanUpResources 1\000"
 9146      5544455F 
 9146      76546173 
 9146      6B436C65 
 9146      616E5570 
 9147              	.LASF559:
 9148 6a8b 63686172 		.ascii	"char +0\000"
 9148      202B3000 
 9149              	.LASF638:
 9150 6a93 55494E54 		.ascii	"UINT_FAST32_MAX (__UINT_FAST32_MAX__)\000"
 9150      5F464153 
 9150      5433325F 
 9150      4D415820 
 9150      285F5F55 
 9151              	.LASF64:
 9152 6ab9 5F5F5549 		.ascii	"__UINTPTR_TYPE__ unsigned int\000"
 9152      4E545054 
 9152      525F5459 
 9152      50455F5F 
 9152      20756E73 
 9153              	.LASF990:
 9154 6ad7 6C697374 		.ascii	"listTEST_LIST_ITEM_INTEGRITY(pxItem) \000"
 9154      54455354 
 9154      5F4C4953 
 9154      545F4954 
 9154      454D5F49 
 9155              	.LASF872:
 9156 6afd 74726163 		.ascii	"traceQUEUE_SEND_FROM_ISR(pxQueue) \000"
 9156      65515545 
 9156      55455F53 
 9156      454E445F 
 9156      46524F4D 
 9157              	.LASF369:
 9158 6b20 5F5F5245 		.ascii	"__REGISTER_PREFIX__ \000"
 9158      47495354 
 9158      45525F50 
 9158      52454649 
 9158      585F5F20 
 9159              	.LASF196:
 9160 6b35 5F5F464C 		.ascii	"__FLT32_MAX__ 3.4028234663852886e+38F32\000"
 9160      5433325F 
 9160      4D41585F 
 9160      5F20332E 
 9160      34303238 
 9161              	.LASF161:
 9162 6b5d 5F5F4442 		.ascii	"__DBL_DIG__ 15\000"
 9162      4C5F4449 
 9162      475F5F20 
 9162      313500
 9163              	.LASF282:
 9164 6b6c 5F5F554C 		.ascii	"__ULFRACT_EPSILON__ 0x1P-32ULR\000"
 9164      46524143 
 9164      545F4550 
 9164      53494C4F 
 9164      4E5F5F20 
ARM GAS  /tmp/cc5qDK7o.s 			page 251


 9165              	.LASF1034:
 9166 6b8b 706F7274 		.ascii	"portNVIC_SYSTICK_ENABLE_BIT ( 1UL << 0UL )\000"
 9166      4E564943 
 9166      5F535953 
 9166      5449434B 
 9166      5F454E41 
 9167              	.LASF689:
 9168 6bb6 636F6E66 		.ascii	"configUSE_MALLOC_FAILED_HOOK 1\000"
 9168      69675553 
 9168      455F4D41 
 9168      4C4C4F43 
 9168      5F464149 
 9169              	.LASF21:
 9170 6bd5 5F5F5349 		.ascii	"__SIZEOF_SIZE_T__ 4\000"
 9170      5A454F46 
 9170      5F53495A 
 9170      455F545F 
 9170      5F203400 
 9171              	.LASF972:
 9172 6be9 70635175 		.ascii	"pcQueueGetQueueName pcQueueGetName\000"
 9172      65756547 
 9172      65745175 
 9172      6575654E 
 9172      616D6520 
 9173              	.LASF46:
 9174 6c0c 5F5F5549 		.ascii	"__UINT64_TYPE__ long long unsigned int\000"
 9174      4E543634 
 9174      5F545950 
 9174      455F5F20 
 9174      6C6F6E67 
 9175              	.LASF249:
 9176 6c33 5F5F4445 		.ascii	"__DEC128_MIN__ 1E-6143DL\000"
 9176      43313238 
 9176      5F4D494E 
 9176      5F5F2031 
 9176      452D3631 
 9177              	.LASF114:
 9178 6c4c 5F5F494E 		.ascii	"__INT64_C(c) c ## LL\000"
 9178      5436345F 
 9178      43286329 
 9178      20632023 
 9178      23204C4C 
 9179              	.LASF854:
 9180 6c61 74726163 		.ascii	"tracePOST_MOVED_TASK_TO_READY_STATE(pxTCB) \000"
 9180      65504F53 
 9180      545F4D4F 
 9180      5645445F 
 9180      5441534B 
 9181              	.LASF177:
 9182 6c8d 5F5F4C44 		.ascii	"__LDBL_MIN_10_EXP__ (-307)\000"
 9182      424C5F4D 
 9182      494E5F31 
 9182      305F4558 
 9182      505F5F20 
 9183              	.LASF183:
 9184 6ca8 5F5F4C44 		.ascii	"__LDBL_MIN__ 2.2250738585072014e-308L\000"
 9184      424C5F4D 
ARM GAS  /tmp/cc5qDK7o.s 			page 252


 9184      494E5F5F 
 9184      20322E32 
 9184      32353037 
 9185              	.LASF711:
 9186 6cce 494E434C 		.ascii	"INCLUDE_xTimerPendFunctionCall 1\000"
 9186      5544455F 
 9186      7854696D 
 9186      65725065 
 9186      6E644675 
 9187              	.LASF304:
 9188 6cef 5F5F4143 		.ascii	"__ACCUM_IBIT__ 16\000"
 9188      43554D5F 
 9188      49424954 
 9188      5F5F2031 
 9188      3600
 9189              	.LASF965:
 9190 6d01 78546173 		.ascii	"xTaskStatusType TaskStatus_t\000"
 9190      6B537461 
 9190      74757354 
 9190      79706520 
 9190      5461736B 
 9191              	.LASF552:
 9192 6d1e 756E7369 		.ascii	"unsigned\000"
 9192      676E6564 
 9192      00
 9193              	.LASF782:
 9194 6d27 706F7274 		.ascii	"portFLOAT float\000"
 9194      464C4F41 
 9194      5420666C 
 9194      6F617400 
 9195              	.LASF693:
 9196 6d37 636F6E66 		.ascii	"configGENERATE_RUN_TIME_STATS 0\000"
 9196      69674745 
 9196      4E455241 
 9196      54455F52 
 9196      554E5F54 
 9197              	.LASF883:
 9198 6d57 74726163 		.ascii	"traceTASK_PRIORITY_SET(pxTask,uxNewPriority) \000"
 9198      65544153 
 9198      4B5F5052 
 9198      494F5249 
 9198      54595F53 
 9199              	.LASF1063:
 9200 6d85 73686F72 		.ascii	"short int\000"
 9200      7420696E 
 9200      7400
 9201              	.LASF457:
 9202 6d8f 5F535444 		.ascii	"_STDDEF_H \000"
 9202      4445465F 
 9202      482000
 9203              	.LASF861:
 9204 6d9a 74726163 		.ascii	"traceTAKE_MUTEX_RECURSIVE(pxMutex) \000"
 9204      6554414B 
 9204      455F4D55 
 9204      5445585F 
 9204      52454355 
 9205              	.LASF119:
ARM GAS  /tmp/cc5qDK7o.s 			page 253


 9206 6dbe 5F5F5549 		.ascii	"__UINT16_C(c) c\000"
 9206      4E543136 
 9206      5F432863 
 9206      29206300 
 9207              	.LASF366:
 9208 6dce 5F5F5544 		.ascii	"__UDA_IBIT__ 32\000"
 9208      415F4942 
 9208      49545F5F 
 9208      20333200 
 9209              	.LASF575:
 9210 6dde 5F5F4C45 		.ascii	"__LEAST16 \"h\"\000"
 9210      41535431 
 9210      36202268 
 9210      2200
 9211              	.LASF868:
 9212 6dec 74726163 		.ascii	"traceQUEUE_PEEK(pxQueue) \000"
 9212      65515545 
 9212      55455F50 
 9212      45454B28 
 9212      70785175 
 9213              	.LASF804:
 9214 6e06 706F7274 		.ascii	"portTASK_FUNCTION_PROTO(vFunction,pvParameters) voi"
 9214      5441534B 
 9214      5F46554E 
 9214      4354494F 
 9214      4E5F5052 
 9215 6e39 64207646 		.ascii	"d vFunction( void *pvParameters )\000"
 9215      756E6374 
 9215      696F6E28 
 9215      20766F69 
 9215      64202A70 
 9216              	.LASF943:
 9217 6e5b 636F6E66 		.ascii	"configUSE_TASK_NOTIFICATIONS 1\000"
 9217      69675553 
 9217      455F5441 
 9217      534B5F4E 
 9217      4F544946 
 9218              	.LASF894:
 9219 6e7a 74726163 		.ascii	"traceFREE(pvAddress,uiSize) \000"
 9219      65465245 
 9219      45287076 
 9219      41646472 
 9219      6573732C 
 9220              	.LASF624:
 9221 6e97 494E5436 		.ascii	"INT64_MIN (-__INT64_MAX__ - 1)\000"
 9221      345F4D49 
 9221      4E20282D 
 9221      5F5F494E 
 9221      5436345F 
 9222              	.LASF1107:
 9223 6eb6 70727650 		.ascii	"prvPortStartFirstTask\000"
 9223      6F727453 
 9223      74617274 
 9223      46697273 
 9223      74546173 
 9224              	.LASF1104:
 9225 6ecc 70756346 		.ascii	"pucFirstUserPriorityRegister\000"
ARM GAS  /tmp/cc5qDK7o.s 			page 254


 9225      69727374 
 9225      55736572 
 9225      5072696F 
 9225      72697479 
 9226              	.LASF6:
 9227 6ee9 5F5F4154 		.ascii	"__ATOMIC_RELAXED 0\000"
 9227      4F4D4943 
 9227      5F52454C 
 9227      41584544 
 9227      203000
 9228              	.LASF441:
 9229 6efc 5F5F4152 		.ascii	"__ARM_FEATURE_COPROC\000"
 9229      4D5F4645 
 9229      41545552 
 9229      455F434F 
 9229      50524F43 
 9230              	.LASF1002:
 9231 6f11 6C697374 		.ascii	"listGET_OWNER_OF_NEXT_ENTRY(pxTCB,pxList) { List_t "
 9231      4745545F 
 9231      4F574E45 
 9231      525F4F46 
 9231      5F4E4558 
 9232 6f44 2A20636F 		.ascii	"* const pxConstList = ( pxList ); ( pxConstList )->"
 9232      6E737420 
 9232      7078436F 
 9232      6E73744C 
 9232      69737420 
 9233 6f77 7078496E 		.ascii	"pxIndex = ( pxConstList )->pxIndex->pxNext; if( ( v"
 9233      64657820 
 9233      3D202820 
 9233      7078436F 
 9233      6E73744C 
 9234 6faa 6F696420 		.ascii	"oid * ) ( pxConstList )->pxIndex == ( void * ) &( ("
 9234      2A202920 
 9234      28207078 
 9234      436F6E73 
 9234      744C6973 
 9235 6fdd 20707843 		.ascii	" pxConstList )->xListEnd ) ) { ( pxConstList )->pxI"
 9235      6F6E7374 
 9235      4C697374 
 9235      20292D3E 
 9235      784C6973 
 9236 7010 6E646578 		.ascii	"ndex = ( pxConstList )->pxIndex->pxNext; } ( pxTCB "
 9236      203D2028 
 9236      20707843 
 9236      6F6E7374 
 9236      4C697374 
 9237 7043 29203D20 		.ascii	") = ( pxConstList )->pxIndex->pvOwner; }\000"
 9237      28207078 
 9237      436F6E73 
 9237      744C6973 
 9237      7420292D 
 9238              	.LASF212:
 9239 706c 5F5F464C 		.ascii	"__FLT64_MIN__ 2.2250738585072014e-308F64\000"
 9239      5436345F 
 9239      4D494E5F 
 9239      5F20322E 
ARM GAS  /tmp/cc5qDK7o.s 			page 255


 9239      32323530 
 9240              	.LASF172:
 9241 7095 5F5F4442 		.ascii	"__DBL_HAS_INFINITY__ 1\000"
 9241      4C5F4841 
 9241      535F494E 
 9241      46494E49 
 9241      54595F5F 
 9242              	.LASF93:
 9243 70ac 5F5F5349 		.ascii	"__SIG_ATOMIC_MAX__ 0x7fffffff\000"
 9243      475F4154 
 9243      4F4D4943 
 9243      5F4D4158 
 9243      5F5F2030 
 9244              	.LASF626:
 9245 70ca 55494E54 		.ascii	"UINT64_MAX (__UINT64_MAX__)\000"
 9245      36345F4D 
 9245      41582028 
 9245      5F5F5549 
 9245      4E543634 
 9246              	.LASF780:
 9247 70e6 504F5254 		.ascii	"PORTMACRO_H \000"
 9247      4D414352 
 9247      4F5F4820 
 9247      00
 9248              	.LASF895:
 9249 70f3 74726163 		.ascii	"traceEVENT_GROUP_CREATE(xEventGroup) \000"
 9249      65455645 
 9249      4E545F47 
 9249      524F5550 
 9249      5F435245 
 9250              	.LASF771:
 9251 7119 70644652 		.ascii	"pdFREERTOS_ERRNO_ENOMEDIUM 135\000"
 9251      45455254 
 9251      4F535F45 
 9251      52524E4F 
 9251      5F454E4F 
 9252              	.LASF986:
 9253 7138 6C697374 		.ascii	"listSET_FIRST_LIST_ITEM_INTEGRITY_CHECK_VALUE(pxIte"
 9253      5345545F 
 9253      46495253 
 9253      545F4C49 
 9253      53545F49 
 9254 716b 6D292000 		.ascii	"m) \000"
 9255              	.LASF445:
 9256 716f 5F5F5553 		.ascii	"__USES_INITFINI__ 1\000"
 9256      45535F49 
 9256      4E495446 
 9256      494E495F 
 9256      5F203100 
 9257              	.LASF835:
 9258 7183 76517565 		.ascii	"vQueueAddToRegistry(xQueue,pcName) \000"
 9258      75654164 
 9258      64546F52 
 9258      65676973 
 9258      74727928 
 9259              	.LASF579:
 9260 71a7 5F494E54 		.ascii	"_INT8_T_DECLARED \000"
ARM GAS  /tmp/cc5qDK7o.s 			page 256


 9260      385F545F 
 9260      4445434C 
 9260      41524544 
 9260      2000
 9261              	.LASF242:
 9262 71b9 5F5F4445 		.ascii	"__DEC64_MIN__ 1E-383DD\000"
 9262      4336345F 
 9262      4D494E5F 
 9262      5F203145 
 9262      2D333833 
 9263              	.LASF469:
 9264 71d0 5F5F6E65 		.ascii	"__need_ptrdiff_t\000"
 9264      65645F70 
 9264      74726469 
 9264      66665F74 
 9264      00
 9265              	.LASF1116:
 9266 71e1 76506F72 		.ascii	"vPortRaiseBASEPRI\000"
 9266      74526169 
 9266      73654241 
 9266      53455052 
 9266      4900
 9267              	.LASF166:
 9268 71f3 5F5F4442 		.ascii	"__DBL_DECIMAL_DIG__ 17\000"
 9268      4C5F4445 
 9268      43494D41 
 9268      4C5F4449 
 9268      475F5F20 
 9269              	.LASF539:
 9270 720a 5F5F6861 		.ascii	"__have_long32 1\000"
 9270      76655F6C 
 9270      6F6E6733 
 9270      32203100 
 9271              	.LASF1044:
 9272 721a 706F7274 		.ascii	"portNVIC_IP_REGISTERS_OFFSET_16 ( 0xE000E3F0 )\000"
 9272      4E564943 
 9272      5F49505F 
 9272      52454749 
 9272      53544552 
 9273              	.LASF318:
 9274 7249 5F5F554C 		.ascii	"__ULACCUM_FBIT__ 32\000"
 9274      41434355 
 9274      4D5F4642 
 9274      49545F5F 
 9274      20333200 
 9275              	.LASF870:
 9276 725d 74726163 		.ascii	"traceQUEUE_PEEK_FROM_ISR(pxQueue) \000"
 9276      65515545 
 9276      55455F50 
 9276      45454B5F 
 9276      46524F4D 
 9277              	.LASF855:
 9278 7280 74726163 		.ascii	"traceQUEUE_CREATE(pxNewQueue) \000"
 9278      65515545 
 9278      55455F43 
 9278      52454154 
 9278      45287078 
ARM GAS  /tmp/cc5qDK7o.s 			page 257


 9279              	.LASF674:
 9280 729f 636F6E66 		.ascii	"configUSE_PORT_OPTIMISED_TASK_SELECTION 0\000"
 9280      69675553 
 9280      455F504F 
 9280      52545F4F 
 9280      5054494D 
 9281              	.LASF590:
 9282 72c9 5F5F696E 		.ascii	"__int64_t_defined 1\000"
 9282      7436345F 
 9282      745F6465 
 9282      66696E65 
 9282      64203100 
 9283              	.LASF97:
 9284 72dd 5F5F494E 		.ascii	"__INT16_MAX__ 0x7fff\000"
 9284      5431365F 
 9284      4D41585F 
 9284      5F203078 
 9284      37666666 
 9285              	.LASF489:
 9286 72f2 5F5F5743 		.ascii	"__WCHAR_T__ \000"
 9286      4841525F 
 9286      545F5F20 
 9286      00
 9287              	.LASF536:
 9288 72ff 5F5F5353 		.ascii	"__SSP_FORTIFY_LEVEL 0\000"
 9288      505F464F 
 9288      52544946 
 9288      595F4C45 
 9288      56454C20 
 9289              	.LASF406:
 9290 7315 5F5F4152 		.ascii	"__ARM_FEATURE_SIMD32 1\000"
 9290      4D5F4645 
 9290      41545552 
 9290      455F5349 
 9290      4D443332 
 9291              	.LASF535:
 9292 732c 5F5F5853 		.ascii	"__XSI_VISIBLE 0\000"
 9292      495F5649 
 9292      5349424C 
 9292      45203000 
 9293              	.LASF867:
 9294 733c 74726163 		.ascii	"traceQUEUE_RECEIVE(pxQueue) \000"
 9294      65515545 
 9294      55455F52 
 9294      45434549 
 9294      56452870 
 9295              	.LASF838:
 9296 7359 706F7274 		.ascii	"portPOINTER_SIZE_TYPE uint32_t\000"
 9296      504F494E 
 9296      5445525F 
 9296      53495A45 
 9296      5F545950 
 9297              	.LASF670:
 9298 7378 636F6E66 		.ascii	"configCLI_BAUD_RATE 115200\000"
 9298      6967434C 
 9298      495F4241 
 9298      55445F52 
ARM GAS  /tmp/cc5qDK7o.s 			page 258


 9298      41544520 
 9299              	.LASF452:
 9300 7393 434F4E46 		.ascii	"CONFIG_VOC_SWHPF 1\000"
 9300      49475F56 
 9300      4F435F53 
 9300      57485046 
 9300      203100
 9301              	.LASF850:
 9302 73a6 74726163 		.ascii	"traceBLOCKING_ON_QUEUE_SEND(pxQueue) \000"
 9302      65424C4F 
 9302      434B494E 
 9302      475F4F4E 
 9302      5F515545 
 9303              	.LASF929:
 9304 73cc 706F7274 		.ascii	"portPRIVILEGE_BIT ( ( UBaseType_t ) 0x00 )\000"
 9304      50524956 
 9304      494C4547 
 9304      455F4249 
 9304      54202820 
 9305              	.LASF677:
 9306 73f7 636F6E66 		.ascii	"configCPU_CLOCK_HZ 396000000\000"
 9306      69674350 
 9306      555F434C 
 9306      4F434B5F 
 9306      485A2033 
 9307              	.LASF213:
 9308 7414 5F5F464C 		.ascii	"__FLT64_EPSILON__ 2.2204460492503131e-16F64\000"
 9308      5436345F 
 9308      45505349 
 9308      4C4F4E5F 
 9308      5F20322E 
 9309              	.LASF518:
 9310 7440 5F5F474E 		.ascii	"__GNUC_PREREQ__(ma,mi) __GNUC_PREREQ(ma, mi)\000"
 9310      55435F50 
 9310      52455245 
 9310      515F5F28 
 9310      6D612C6D 
 9311              	.LASF1015:
 9312 746d 7461736B 		.ascii	"taskEXIT_CRITICAL() portEXIT_CRITICAL()\000"
 9312      45584954 
 9312      5F435249 
 9312      54494341 
 9312      4C282920 
 9313              	.LASF368:
 9314 7495 5F5F5554 		.ascii	"__UTA_IBIT__ 64\000"
 9314      415F4942 
 9314      49545F5F 
 9314      20363400 
 9315              	.LASF398:
 9316 74a5 5F5F4152 		.ascii	"__ARM_FEATURE_CRC32\000"
 9316      4D5F4645 
 9316      41545552 
 9316      455F4352 
 9316      43333200 
 9317              	.LASF292:
 9318 74b9 5F5F554C 		.ascii	"__ULLFRACT_EPSILON__ 0x1P-64ULLR\000"
 9318      4C465241 
ARM GAS  /tmp/cc5qDK7o.s 			page 259


 9318      43545F45 
 9318      5053494C 
 9318      4F4E5F5F 
 9319              	.LASF1:
 9320 74da 5F5F5354 		.ascii	"__STDC_HOSTED__ 1\000"
 9320      44435F48 
 9320      4F535445 
 9320      445F5F20 
 9320      3100
 9321              	.LASF390:
 9322 74ec 5F5F5349 		.ascii	"__SIZEOF_WINT_T__ 4\000"
 9322      5A454F46 
 9322      5F57494E 
 9322      545F545F 
 9322      5F203400 
 9323              	.LASF1038:
 9324 7500 706F7274 		.ascii	"portCPUID ( * ( ( volatile uint32_t * ) 0xE000ed00 "
 9324      43505549 
 9324      44202820 
 9324      2A202820 
 9324      2820766F 
 9325 7533 29202900 		.ascii	") )\000"
 9326              	.LASF396:
 9327 7537 5F5F4152 		.ascii	"__ARM_FEATURE_UNALIGNED 1\000"
 9327      4D5F4645 
 9327      41545552 
 9327      455F554E 
 9327      414C4947 
 9328              	.LASF0:
 9329 7551 5F5F5354 		.ascii	"__STDC__ 1\000"
 9329      44435F5F 
 9329      203100
 9330              	.LASF181:
 9331 755c 5F5F4C44 		.ascii	"__LDBL_DECIMAL_DIG__ 17\000"
 9331      424C5F44 
 9331      4543494D 
 9331      414C5F44 
 9331      49475F5F 
 9332              	.LASF776:
 9333 7574 70644C49 		.ascii	"pdLITTLE_ENDIAN pdFREERTOS_LITTLE_ENDIAN\000"
 9333      54544C45 
 9333      5F454E44 
 9333      49414E20 
 9333      70644652 
 9334              	.LASF1091:
 9335 759d 76506F72 		.ascii	"vPortSuppressTicksAndSleep\000"
 9335      74537570 
 9335      70726573 
 9335      73546963 
 9335      6B73416E 
 9336              	.LASF315:
 9337 75b8 5F5F4C41 		.ascii	"__LACCUM_MIN__ (-0X1P31LK-0X1P31LK)\000"
 9337      4343554D 
 9337      5F4D494E 
 9337      5F5F2028 
 9337      2D305831 
 9338              	.LASF866:
ARM GAS  /tmp/cc5qDK7o.s 			page 260


 9339 75dc 74726163 		.ascii	"traceQUEUE_SEND_FAILED(pxQueue) \000"
 9339      65515545 
 9339      55455F53 
 9339      454E445F 
 9339      4641494C 
 9340              	.LASF124:
 9341 75fd 5F5F494E 		.ascii	"__INT_FAST8_MAX__ 0x7fffffff\000"
 9341      545F4641 
 9341      5354385F 
 9341      4D41585F 
 9341      5F203078 
 9342              	.LASF200:
 9343 761a 5F5F464C 		.ascii	"__FLT32_HAS_DENORM__ 1\000"
 9343      5433325F 
 9343      4841535F 
 9343      44454E4F 
 9343      524D5F5F 
 9344              	.LASF570:
 9345 7631 5F5F4641 		.ascii	"__FAST8 \000"
 9345      53543820 
 9345      00
 9346              	.LASF330:
 9347 763a 5F5F554C 		.ascii	"__ULLACCUM_MIN__ 0.0ULLK\000"
 9347      4C414343 
 9347      554D5F4D 
 9347      494E5F5F 
 9347      20302E30 
 9348              	.LASF129:
 9349 7653 5F5F494E 		.ascii	"__INT_FAST32_WIDTH__ 32\000"
 9349      545F4641 
 9349      53543332 
 9349      5F574944 
 9349      54485F5F 
 9350              	.LASF499:
 9351 766b 5F5F5F69 		.ascii	"___int_wchar_t_h \000"
 9351      6E745F77 
 9351      63686172 
 9351      5F745F68 
 9351      2000
 9352              	.LASF993:
 9353 767d 6C697374 		.ascii	"listGET_LIST_ITEM_OWNER(pxListItem) ( ( pxListItem "
 9353      4745545F 
 9353      4C495354 
 9353      5F495445 
 9353      4D5F4F57 
 9354 76b0 292D3E70 		.ascii	")->pvOwner )\000"
 9354      764F776E 
 9354      65722029 
 9354      00
 9355              	.LASF719:
 9356 76bd 78506F72 		.ascii	"xPortSysTickHandler SysTick_Handler\000"
 9356      74537973 
 9356      5469636B 
 9356      48616E64 
 9356      6C657220 
 9357              	.LASF809:
 9358 76e1 706F7274 		.ascii	"portINLINE __inline\000"
ARM GAS  /tmp/cc5qDK7o.s 			page 261


 9358      494E4C49 
 9358      4E45205F 
 9358      5F696E6C 
 9358      696E6500 
 9359              	.LASF568:
 9360 76f5 5F5F494E 		.ascii	"__INT32 \"l\"\000"
 9360      54333220 
 9360      226C2200 
 9361              	.LASF440:
 9362 7701 5F5F4152 		.ascii	"__ARM_ASM_SYNTAX_UNIFIED__ 1\000"
 9362      4D5F4153 
 9362      4D5F5359 
 9362      4E544158 
 9362      5F554E49 
 9363              	.LASF45:
 9364 771e 5F5F5549 		.ascii	"__UINT32_TYPE__ long unsigned int\000"
 9364      4E543332 
 9364      5F545950 
 9364      455F5F20 
 9364      6C6F6E67 
 9365              	.LASF399:
 9366 7740 5F5F4152 		.ascii	"__ARM_FEATURE_DOTPROD\000"
 9366      4D5F4645 
 9366      41545552 
 9366      455F444F 
 9366      5450524F 
 9367              	.LASF1126:
 9368 7756 70765061 		.ascii	"pvParameters\000"
 9368      72616D65 
 9368      74657273 
 9368      00
 9369              	.LASF924:
 9370 7763 74726163 		.ascii	"traceSTREAM_BUFFER_SEND_FROM_ISR(xStreamBuffer,xByt"
 9370      65535452 
 9370      45414D5F 
 9370      42554646 
 9370      45525F53 
 9371 7796 65735365 		.ascii	"esSent) \000"
 9371      6E742920 
 9371      00
 9372              	.LASF519:
 9373 779f 5F444546 		.ascii	"_DEFAULT_SOURCE\000"
 9373      41554C54 
 9373      5F534F55 
 9373      52434500 
 9374              	.LASF484:
 9375 77af 5F474343 		.ascii	"_GCC_SIZE_T \000"
 9375      5F53495A 
 9375      455F5420 
 9375      00
 9376              	.LASF808:
 9377 77bc 706F7274 		.ascii	"portNOP() \000"
 9377      4E4F5028 
 9377      292000
 9378              	.LASF290:
 9379 77c7 5F5F554C 		.ascii	"__ULLFRACT_MIN__ 0.0ULLR\000"
 9379      4C465241 
ARM GAS  /tmp/cc5qDK7o.s 			page 262


 9379      43545F4D 
 9379      494E5F5F 
 9379      20302E30 
 9380              	.LASF900:
 9381 77e0 74726163 		.ascii	"traceEVENT_GROUP_WAIT_BITS_END(xEventGroup,uxBitsTo"
 9381      65455645 
 9381      4E545F47 
 9381      524F5550 
 9381      5F574149 
 9382 7813 57616974 		.ascii	"WaitFor,xTimeoutOccurred) ( void ) xTimeoutOccurred"
 9382      466F722C 
 9382      7854696D 
 9382      656F7574 
 9382      4F636375 
 9383 7846 00       		.ascii	"\000"
 9384              	.LASF426:
 9385 7847 5F5F4152 		.ascii	"__ARM_FP16_ARGS\000"
 9385      4D5F4650 
 9385      31365F41 
 9385      52475300 
 9386              	.LASF14:
 9387 7857 5F5F5349 		.ascii	"__SIZEOF_INT__ 4\000"
 9387      5A454F46 
 9387      5F494E54 
 9387      5F5F2034 
 9387      00
 9388              	.LASF503:
 9389 7868 5F425344 		.ascii	"_BSD_WCHAR_T_\000"
 9389      5F574348 
 9389      41525F54 
 9389      5F00
 9390              	.LASF284:
 9391 7876 5F5F4C4C 		.ascii	"__LLFRACT_IBIT__ 0\000"
 9391      46524143 
 9391      545F4942 
 9391      49545F5F 
 9391      203000
 9392              	.LASF1125:
 9393 7889 2F686F6D 		.ascii	"/home/gu/code/last_sz_m4/project/murphy\000"
 9393      652F6775 
 9393      2F636F64 
 9393      652F6C61 
 9393      73745F73 
 9394              	.LASF285:
 9395 78b1 5F5F4C4C 		.ascii	"__LLFRACT_MIN__ (-0.5LLR-0.5LLR)\000"
 9395      46524143 
 9395      545F4D49 
 9395      4E5F5F20 
 9395      282D302E 
 9396              	.LASF1072:
 9397 78d2 75696E74 		.ascii	"uint32_t\000"
 9397      33325F74 
 9397      00
 9398              	.LASF811:
 9399 78db 706F7274 		.ascii	"portBYTE_ALIGNMENT_MASK ( 0x0007 )\000"
 9399      42595445 
 9399      5F414C49 
ARM GAS  /tmp/cc5qDK7o.s 			page 263


 9399      474E4D45 
 9399      4E545F4D 
 9400              	.LASF909:
 9401 78fe 74726163 		.ascii	"traceTASK_NOTIFY_TAKE_BLOCK() \000"
 9401      65544153 
 9401      4B5F4E4F 
 9401      54494659 
 9401      5F54414B 
 9402              	.LASF1040:
 9403 791d 706F7274 		.ascii	"portCORTEX_M7_r0p0_ID ( 0x410FC270UL )\000"
 9403      434F5254 
 9403      45585F4D 
 9403      375F7230 
 9403      70305F49 
 9404              	.LASF1113:
 9405 7944 7078436F 		.ascii	"pxCode\000"
 9405      646500
 9406              	.LASF549:
 9407 794b 5F535953 		.ascii	"_SYS__INTSUP_H \000"
 9407      5F5F494E 
 9407      54535550 
 9407      5F482000 
 9408              	.LASF702:
 9409 795b 636F6E66 		.ascii	"configTIMER_TASK_STACK_DEPTH ( configMINIMAL_STACK_"
 9409      69675449 
 9409      4D45525F 
 9409      5441534B 
 9409      5F535441 
 9410 798e 53495A45 		.ascii	"SIZE )\000"
 9410      202900
 9411              	.LASF297:
 9412 7995 5F5F5341 		.ascii	"__SACCUM_EPSILON__ 0x1P-7HK\000"
 9412      4343554D 
 9412      5F455053 
 9412      494C4F4E 
 9412      5F5F2030 
 9413              	.LASF1086:
 9414 79b1 756C4D61 		.ascii	"ulMaxPRIGROUPValue\000"
 9414      78505249 
 9414      47524F55 
 9414      5056616C 
 9414      756500
 9415              	.LASF910:
 9416 79c4 74726163 		.ascii	"traceTASK_NOTIFY_TAKE() \000"
 9416      65544153 
 9416      4B5F4E4F 
 9416      54494659 
 9416      5F54414B 
 9417              	.LASF640:
 9418 79dd 494E545F 		.ascii	"INT_FAST64_MAX (__INT_FAST64_MAX__)\000"
 9418      46415354 
 9418      36345F4D 
 9418      41582028 
 9418      5F5F494E 
 9419              	.LASF1007:
 9420 7a01 74736B4B 		.ascii	"tskKERNEL_VERSION_NUMBER \"V10.0.1\"\000"
 9420      45524E45 
ARM GAS  /tmp/cc5qDK7o.s 			page 264


 9420      4C5F5645 
 9420      5253494F 
 9420      4E5F4E55 
 9421              	.LASF423:
 9422 7a24 5F5F4152 		.ascii	"__ARM_FP 4\000"
 9422      4D5F4650 
 9422      203400
 9423              	.LASF522:
 9424 7a2f 5F504F53 		.ascii	"_POSIX_SOURCE 1\000"
 9424      49585F53 
 9424      4F555243 
 9424      45203100 
 9425              	.LASF915:
 9426 7a3f 74726163 		.ascii	"traceTASK_NOTIFY_GIVE_FROM_ISR() \000"
 9426      65544153 
 9426      4B5F4E4F 
 9426      54494659 
 9426      5F474956 
 9427              	.LASF1093:
 9428 7a61 756C436F 		.ascii	"ulCompleteTickPeriods\000"
 9428      6D706C65 
 9428      74655469 
 9428      636B5065 
 9428      72696F64 
 9429              	.LASF60:
 9430 7a77 5F5F5549 		.ascii	"__UINT_FAST16_TYPE__ unsigned int\000"
 9430      4E545F46 
 9430      41535431 
 9430      365F5459 
 9430      50455F5F 
 9431              	.LASF362:
 9432 7a99 5F5F5548 		.ascii	"__UHA_IBIT__ 8\000"
 9432      415F4942 
 9432      49545F5F 
 9432      203800
 9433              	.LASF307:
 9434 7aa8 5F5F4143 		.ascii	"__ACCUM_EPSILON__ 0x1P-15K\000"
 9434      43554D5F 
 9434      45505349 
 9434      4C4F4E5F 
 9434      5F203078 
 9435              	.LASF322:
 9436 7ac3 5F5F554C 		.ascii	"__ULACCUM_EPSILON__ 0x1P-32ULK\000"
 9436      41434355 
 9436      4D5F4550 
 9436      53494C4F 
 9436      4E5F5F20 
 9437              	.LASF175:
 9438 7ae2 5F5F4C44 		.ascii	"__LDBL_DIG__ 15\000"
 9438      424C5F44 
 9438      49475F5F 
 9438      20313500 
 9439              	.LASF914:
 9440 7af2 74726163 		.ascii	"traceTASK_NOTIFY_FROM_ISR() \000"
 9440      65544153 
 9440      4B5F4E4F 
 9440      54494659 
ARM GAS  /tmp/cc5qDK7o.s 			page 265


 9440      5F46524F 
 9441              	.LASF1084:
 9442 7b0f 756C5374 		.ascii	"ulStoppedTimerCompensation\000"
 9442      6F707065 
 9442      6454696D 
 9442      6572436F 
 9442      6D70656E 
 9443              	.LASF822:
 9444 7b2a 494E434C 		.ascii	"INCLUDE_xTaskGetHandle 0\000"
 9444      5544455F 
 9444      78546173 
 9444      6B476574 
 9444      48616E64 
 9445              	.LASF1074:
 9446 7b43 53746163 		.ascii	"StackType_t\000"
 9446      6B547970 
 9446      655F7400 
 9447              	.LASF76:
 9448 7b4f 5F5F5749 		.ascii	"__WINT_MIN__ 0U\000"
 9448      4E545F4D 
 9448      494E5F5F 
 9448      20305500 
 9449              	.LASF1090:
 9450 7b5f 76506F72 		.ascii	"vPortValidateInterruptPriority\000"
 9450      7456616C 
 9450      69646174 
 9450      65496E74 
 9450      65727275 
 9451              	.LASF205:
 9452 7b7e 5F5F464C 		.ascii	"__FLT64_DIG__ 15\000"
 9452      5436345F 
 9452      4449475F 
 9452      5F203135 
 9452      00
 9453              	.LASF244:
 9454 7b8f 5F5F4445 		.ascii	"__DEC64_EPSILON__ 1E-15DD\000"
 9454      4336345F 
 9454      45505349 
 9454      4C4F4E5F 
 9454      5F203145 
 9455              	.LASF690:
 9456 7ba9 636F6E66 		.ascii	"configUSE_APPLICATION_TASK_TAG 0\000"
 9456      69675553 
 9456      455F4150 
 9456      504C4943 
 9456      4154494F 
 9457              	.LASF797:
 9458 7bca 706F7274 		.ascii	"portYIELD_FROM_ISR(x) portEND_SWITCHING_ISR( x )\000"
 9458      5949454C 
 9458      445F4652 
 9458      4F4D5F49 
 9458      53522878 
 9459              	.LASF106:
 9460 7bfb 5F5F494E 		.ascii	"__INT_LEAST8_WIDTH__ 8\000"
 9460      545F4C45 
 9460      41535438 
 9460      5F574944 
ARM GAS  /tmp/cc5qDK7o.s 			page 266


 9460      54485F5F 
 9461              	.LASF48:
 9462 7c12 5F5F494E 		.ascii	"__INT_LEAST16_TYPE__ short int\000"
 9462      545F4C45 
 9462      41535431 
 9462      365F5459 
 9462      50455F5F 
 9463              	.LASF333:
 9464 7c31 5F5F5151 		.ascii	"__QQ_FBIT__ 7\000"
 9464      5F464249 
 9464      545F5F20 
 9464      3700
 9465              	.LASF167:
 9466 7c3f 5F5F4442 		.ascii	"__DBL_MAX__ ((double)1.7976931348623157e+308L)\000"
 9466      4C5F4D41 
 9466      585F5F20 
 9466      2828646F 
 9466      75626C65 
 9467              	.LASF1016:
 9468 7c6e 7461736B 		.ascii	"taskEXIT_CRITICAL_FROM_ISR(x) portCLEAR_INTERRUPT_M"
 9468      45584954 
 9468      5F435249 
 9468      54494341 
 9468      4C5F4652 
 9469 7ca1 41534B5F 		.ascii	"ASK_FROM_ISR( x )\000"
 9469      46524F4D 
 9469      5F495352 
 9469      28207820 
 9469      2900
 9470              	.LASF1064:
 9471 7cb3 73686F72 		.ascii	"short unsigned int\000"
 9471      7420756E 
 9471      7369676E 
 9471      65642069 
 9471      6E7400
 9472              	.LASF283:
 9473 7cc6 5F5F4C4C 		.ascii	"__LLFRACT_FBIT__ 63\000"
 9473      46524143 
 9473      545F4642 
 9473      49545F5F 
 9473      20363300 
 9474              	.LASF201:
 9475 7cda 5F5F464C 		.ascii	"__FLT32_HAS_INFINITY__ 1\000"
 9475      5433325F 
 9475      4841535F 
 9475      494E4649 
 9475      4E495459 
 9476              	.LASF415:
 9477 7cf3 5F5F7468 		.ascii	"__thumb__ 1\000"
 9477      756D625F 
 9477      5F203100 
 9478              	.LASF1043:
 9479 7cff 706F7274 		.ascii	"portFIRST_USER_INTERRUPT_NUMBER ( 16 )\000"
 9479      46495253 
 9479      545F5553 
 9479      45525F49 
 9479      4E544552 
ARM GAS  /tmp/cc5qDK7o.s 			page 267


 9480              	.LASF420:
 9481 7d26 5F5F4152 		.ascii	"__ARMEL__ 1\000"
 9481      4D454C5F 
 9481      5F203100 
 9482              	.LASF898:
 9483 7d32 74726163 		.ascii	"traceEVENT_GROUP_SYNC_END(xEventGroup,uxBitsToSet,u"
 9483      65455645 
 9483      4E545F47 
 9483      524F5550 
 9483      5F53594E 
 9484 7d65 78426974 		.ascii	"xBitsToWaitFor,xTimeoutOccurred) ( void ) xTimeoutO"
 9484      73546F57 
 9484      61697446 
 9484      6F722C78 
 9484      54696D65 
 9485 7d98 63637572 		.ascii	"ccurred\000"
 9485      72656400 
 9486              	.LASF938:
 9487 7da0 636F6E66 		.ascii	"configINCLUDE_APPLICATION_DEFINED_PRIVILEGED_FUNCTI"
 9487      6967494E 
 9487      434C5544 
 9487      455F4150 
 9487      504C4943 
 9488 7dd3 4F4E5320 		.ascii	"ONS 0\000"
 9488      3000
 9489              	.LASF335:
 9490 7dd9 5F5F4851 		.ascii	"__HQ_FBIT__ 15\000"
 9490      5F464249 
 9490      545F5F20 
 9490      313500
 9491              	.LASF1008:
 9492 7de8 74736B4B 		.ascii	"tskKERNEL_VERSION_MAJOR 10\000"
 9492      45524E45 
 9492      4C5F5645 
 9492      5253494F 
 9492      4E5F4D41 
 9493              	.LASF565:
 9494 7e03 5F494E54 		.ascii	"_INT32_EQ_LONG \000"
 9494      33325F45 
 9494      515F4C4F 
 9494      4E472000 
 9495              	.LASF751:
 9496 7e13 70644652 		.ascii	"pdFREERTOS_ERRNO_EINVAL 22\000"
 9496      45455254 
 9496      4F535F45 
 9496      52524E4F 
 9496      5F45494E 
 9497              	.LASF78:
 9498 7e2e 5F5F5349 		.ascii	"__SIZE_MAX__ 0xffffffffU\000"
 9498      5A455F4D 
 9498      41585F5F 
 9498      20307866 
 9498      66666666 
 9499              	.LASF1045:
 9500 7e47 706F7274 		.ascii	"portAIRCR_REG ( * ( ( volatile uint32_t * ) 0xE000E"
 9500      41495243 
 9500      525F5245 
ARM GAS  /tmp/cc5qDK7o.s 			page 268


 9500      47202820 
 9500      2A202820 
 9501 7e7a 44304320 		.ascii	"D0C ) )\000"
 9501      29202900 
 9502              	.LASF759:
 9503 7e82 70644652 		.ascii	"pdFREERTOS_ERRNO_ENOTEMPTY 90\000"
 9503      45455254 
 9503      4F535F45 
 9503      52524E4F 
 9503      5F454E4F 
 9504              	.LASF743:
 9505 7ea0 70644652 		.ascii	"pdFREERTOS_ERRNO_EACCES 13\000"
 9505      45455254 
 9505      4F535F45 
 9505      52524E4F 
 9505      5F454143 
 9506              	.LASF412:
 9507 7ebb 5F5F4152 		.ascii	"__ARM_ARCH\000"
 9507      4D5F4152 
 9507      434800
 9508              	.LASF608:
 9509 7ec6 55494E54 		.ascii	"UINT8_MAX (__UINT8_MAX__)\000"
 9509      385F4D41 
 9509      5820285F 
 9509      5F55494E 
 9509      54385F4D 
 9510              	.LASF71:
 9511 7ee0 5F5F4C4F 		.ascii	"__LONG_MAX__ 0x7fffffffL\000"
 9511      4E475F4D 
 9511      41585F5F 
 9511      20307837 
 9511      66666666 
 9512              	.LASF1108:
 9513 7ef9 5356435F 		.ascii	"SVC_Handler\000"
 9513      48616E64 
 9513      6C657200 
 9514              	.LASF632:
 9515 7f05 55494E54 		.ascii	"UINT_FAST8_MAX (__UINT_FAST8_MAX__)\000"
 9515      5F464153 
 9515      54385F4D 
 9515      41582028 
 9515      5F5F5549 
 9516              	.LASF595:
 9517 7f29 5F5F696E 		.ascii	"__int_least8_t_defined 1\000"
 9517      745F6C65 
 9517      61737438 
 9517      5F745F64 
 9517      6566696E 
 9518              	.LASF563:
 9519 7f42 6C6F6E67 		.ascii	"long +4\000"
 9519      202B3400 
 9520              	.LASF871:
 9521 7f4a 74726163 		.ascii	"traceQUEUE_RECEIVE_FAILED(pxQueue) \000"
 9521      65515545 
 9521      55455F52 
 9521      45434549 
 9521      56455F46 
ARM GAS  /tmp/cc5qDK7o.s 			page 269


 9522              	.LASF403:
 9523 7f6e 5F5F4152 		.ascii	"__ARM_FEATURE_LDREX 7\000"
 9523      4D5F4645 
 9523      41545552 
 9523      455F4C44 
 9523      52455820 
 9524              	.LASF667:
 9525 7f84 636F6E66 		.ascii	"configTICK_RATE_HZ ( 1000 )\000"
 9525      69675449 
 9525      434B5F52 
 9525      4154455F 
 9525      485A2028 
 9526              	.LASF903:
 9527 7fa0 74726163 		.ascii	"traceEVENT_GROUP_SET_BITS(xEventGroup,uxBitsToSet) "
 9527      65455645 
 9527      4E545F47 
 9527      524F5550 
 9527      5F534554 
 9528 7fd3 00       		.ascii	"\000"
 9529              	.LASF812:
 9530 7fd4 706F7274 		.ascii	"portNUM_CONFIGURABLE_REGIONS 1\000"
 9530      4E554D5F 
 9530      434F4E46 
 9530      49475552 
 9530      41424C45 
 9531              	.LASF730:
 9532 7ff3 65727251 		.ascii	"errQUEUE_BLOCKED ( -4 )\000"
 9532      55455545 
 9532      5F424C4F 
 9532      434B4544 
 9532      2028202D 
 9533              	.LASF347:
 9534 800b 5F5F5553 		.ascii	"__USQ_FBIT__ 32\000"
 9534      515F4642 
 9534      49545F5F 
 9534      20333200 
 9535              	.LASF726:
 9536 801b 70644641 		.ascii	"pdFAIL ( pdFALSE )\000"
 9536      494C2028 
 9536      20706446 
 9536      414C5345 
 9536      202900
 9537              	.LASF953:
 9538 802e 636F6E66 		.ascii	"configMAX(a,b) ( ( ( a ) > ( b ) ) ? ( a ) : ( b ) "
 9538      69674D41 
 9538      5828612C 
 9538      62292028 
 9538      20282028 
 9539 8061 2900     		.ascii	")\000"
 9540              	.LASF256:
 9541 8063 5F5F5346 		.ascii	"__SFRACT_MAX__ 0X7FP-7HR\000"
 9541      52414354 
 9541      5F4D4158 
 9541      5F5F2030 
 9541      58374650 
 9542              	.LASF218:
 9543 807c 5F5F464C 		.ascii	"__FLT32X_MANT_DIG__ 53\000"
ARM GAS  /tmp/cc5qDK7o.s 			page 270


 9543      54333258 
 9543      5F4D414E 
 9543      545F4449 
 9543      475F5F20 
 9544              	.LASF772:
 9545 8093 70644652 		.ascii	"pdFREERTOS_ERRNO_EILSEQ 138\000"
 9545      45455254 
 9545      4F535F45 
 9545      52524E4F 
 9545      5F45494C 
 9546              	.LASF84:
 9547 80af 5F5F5743 		.ascii	"__WCHAR_WIDTH__ 32\000"
 9547      4841525F 
 9547      57494454 
 9547      485F5F20 
 9547      333200
 9548              	.LASF108:
 9549 80c2 5F5F494E 		.ascii	"__INT16_C(c) c\000"
 9549      5431365F 
 9549      43286329 
 9549      206300
 9550              	.LASF964:
 9551 80d1 78546173 		.ascii	"xTaskParameters TaskParameters_t\000"
 9551      6B506172 
 9551      616D6574 
 9551      65727320 
 9551      5461736B 
 9552              	.LASF358:
 9553 80f2 5F5F4441 		.ascii	"__DA_IBIT__ 32\000"
 9553      5F494249 
 9553      545F5F20 
 9553      333200
 9554              	.LASF995:
 9555 8101 6C697374 		.ascii	"listGET_LIST_ITEM_VALUE(pxListItem) ( ( pxListItem "
 9555      4745545F 
 9555      4C495354 
 9555      5F495445 
 9555      4D5F5641 
 9556 8134 292D3E78 		.ascii	")->xItemValue )\000"
 9556      4974656D 
 9556      56616C75 
 9556      65202900 
 9557              	.LASF259:
 9558 8144 5F5F5553 		.ascii	"__USFRACT_IBIT__ 0\000"
 9558      46524143 
 9558      545F4942 
 9558      49545F5F 
 9558      203000
 9559              	.LASF560:
 9560 8157 73686F72 		.ascii	"short +1\000"
 9560      74202B31 
 9560      00
 9561              	.LASF682:
 9562 8160 636F6E66 		.ascii	"configUSE_TRACE_FACILITY 1\000"
 9562      69675553 
 9562      455F5452 
 9562      4143455F 
ARM GAS  /tmp/cc5qDK7o.s 			page 271


 9562      46414349 
 9563              	.LASF10:
 9564 817b 5F5F4154 		.ascii	"__ATOMIC_ACQ_REL 4\000"
 9564      4F4D4943 
 9564      5F414351 
 9564      5F52454C 
 9564      203400
 9565              	.LASF336:
 9566 818e 5F5F4851 		.ascii	"__HQ_IBIT__ 0\000"
 9566      5F494249 
 9566      545F5F20 
 9566      3000
 9567              	.LASF496:
 9568 819c 5F574348 		.ascii	"_WCHAR_T_DEFINED_ \000"
 9568      41525F54 
 9568      5F444546 
 9568      494E4544 
 9568      5F2000
 9569              	.LASF705:
 9570 81af 494E434C 		.ascii	"INCLUDE_vTaskDelete 1\000"
 9570      5544455F 
 9570      76546173 
 9570      6B44656C 
 9570      65746520 
 9571              	.LASF288:
 9572 81c5 5F5F554C 		.ascii	"__ULLFRACT_FBIT__ 64\000"
 9572      4C465241 
 9572      43545F46 
 9572      4249545F 
 9572      5F203634 
 9573              	.LASF630:
 9574 81da 494E545F 		.ascii	"INT_FAST8_MIN (-__INT_FAST8_MAX__ - 1)\000"
 9574      46415354 
 9574      385F4D49 
 9574      4E20282D 
 9574      5F5F494E 
 9575              	.LASF769:
 9576 8201 70644652 		.ascii	"pdFREERTOS_ERRNO_EISCONN 127\000"
 9576      45455254 
 9576      4F535F45 
 9576      52524E4F 
 9576      5F454953 
 9577              	.LASF555:
 9578 821e 5F5F696E 		.ascii	"__int20\000"
 9578      74323000 
 9579              	.LASF715:
 9580 8226 636F6E66 		.ascii	"configKERNEL_INTERRUPT_PRIORITY ( configLIBRARY_LOW"
 9580      69674B45 
 9580      524E454C 
 9580      5F494E54 
 9580      45525255 
 9581 8259 4553545F 		.ascii	"EST_INTERRUPT_PRIORITY << (8 - configPRIO_BITS) )\000"
 9581      494E5445 
 9581      52525550 
 9581      545F5052 
 9581      494F5249 
 9582              	.LASF637:
ARM GAS  /tmp/cc5qDK7o.s 			page 272


 9583 828b 494E545F 		.ascii	"INT_FAST32_MAX (__INT_FAST32_MAX__)\000"
 9583      46415354 
 9583      33325F4D 
 9583      41582028 
 9583      5F5F494E 
 9584              	.LASF873:
 9585 82af 74726163 		.ascii	"traceQUEUE_SEND_FROM_ISR_FAILED(pxQueue) \000"
 9585      65515545 
 9585      55455F53 
 9585      454E445F 
 9585      46524F4D 
 9586              	.LASF998:
 9587 82d9 6C697374 		.ascii	"listGET_NEXT(pxListItem) ( ( pxListItem )->pxNext )"
 9587      4745545F 
 9587      4E455854 
 9587      2870784C 
 9587      69737449 
 9588 830c 00       		.ascii	"\000"
 9589              	.LASF952:
 9590 830d 636F6E66 		.ascii	"configPRINTF(X) \000"
 9590      69675052 
 9590      494E5446 
 9590      28582920 
 9590      00
 9591              	.LASF523:
 9592 831e 5F504F53 		.ascii	"_POSIX_C_SOURCE\000"
 9592      49585F43 
 9592      5F534F55 
 9592      52434500 
 9593              	.LASF90:
 9594 832e 5F5F5549 		.ascii	"__UINTMAX_MAX__ 0xffffffffffffffffULL\000"
 9594      4E544D41 
 9594      585F4D41 
 9594      585F5F20 
 9594      30786666 
 9595              	.LASF160:
 9596 8354 5F5F4442 		.ascii	"__DBL_MANT_DIG__ 53\000"
 9596      4C5F4D41 
 9596      4E545F44 
 9596      49475F5F 
 9596      20353300 
 9597              	.LASF1051:
 9598 8368 706F7274 		.ascii	"portVECTACTIVE_MASK ( 0xFFUL )\000"
 9598      56454354 
 9598      41435449 
 9598      56455F4D 
 9598      41534B20 
 9599              	.LASF279:
 9600 8387 5F5F554C 		.ascii	"__ULFRACT_IBIT__ 0\000"
 9600      46524143 
 9600      545F4942 
 9600      49545F5F 
 9600      203000
 9601              	.LASF70:
 9602 839a 5F5F494E 		.ascii	"__INT_MAX__ 0x7fffffff\000"
 9602      545F4D41 
 9602      585F5F20 
ARM GAS  /tmp/cc5qDK7o.s 			page 273


 9602      30783766 
 9602      66666666 
 9603              	.LASF50:
 9604 83b1 5F5F494E 		.ascii	"__INT_LEAST64_TYPE__ long long int\000"
 9604      545F4C45 
 9604      41535436 
 9604      345F5459 
 9604      50455F5F 
 9605              	.LASF101:
 9606 83d4 5F5F5549 		.ascii	"__UINT16_MAX__ 0xffff\000"
 9606      4E543136 
 9606      5F4D4158 
 9606      5F5F2030 
 9606      78666666 
 9607              	.LASF876:
 9608 83ea 74726163 		.ascii	"traceQUEUE_PEEK_FROM_ISR_FAILED(pxQueue) \000"
 9608      65515545 
 9608      55455F50 
 9608      45454B5F 
 9608      46524F4D 
 9609              	.LASF666:
 9610 8414 636F6E66 		.ascii	"configCREATE_LOW_POWER_DEMO 0\000"
 9610      69674352 
 9610      45415445 
 9610      5F4C4F57 
 9610      5F504F57 
 9611              	.LASF293:
 9612 8432 5F5F5341 		.ascii	"__SACCUM_FBIT__ 7\000"
 9612      4343554D 
 9612      5F464249 
 9612      545F5F20 
 9612      3700
 9613              	.LASF700:
 9614 8444 636F6E66 		.ascii	"configTIMER_TASK_PRIORITY ( configMAX_PRIORITIES - "
 9614      69675449 
 9614      4D45525F 
 9614      5441534B 
 9614      5F505249 
 9615 8477 31202900 		.ascii	"1 )\000"
 9616              		.ident	"GCC: (GNU Tools for Arm Embedded Processors 8-2018-q4-major) 8.2.1 20181213 (release) [gcc
ARM GAS  /tmp/cc5qDK7o.s 			page 274


DEFINED SYMBOLS
                            *ABS*:0000000000000000 port.c
     /tmp/cc5qDK7o.s:100    .text.prvPortStartFirstTask:0000000000000000 $t
     /tmp/cc5qDK7o.s:108    .text.prvPortStartFirstTask:0000000000000000 prvPortStartFirstTask
     /tmp/cc5qDK7o.s:141    .text.vPortEnableVFP:0000000000000000 $t
     /tmp/cc5qDK7o.s:148    .text.vPortEnableVFP:0000000000000000 vPortEnableVFP
     /tmp/cc5qDK7o.s:173    .text.prvTaskExitError:0000000000000000 $t
     /tmp/cc5qDK7o.s:180    .text.prvTaskExitError:0000000000000000 prvTaskExitError
     /tmp/cc5qDK7o.s:283    .text.prvTaskExitError:000000000000003c $d
     /tmp/cc5qDK7o.s:288    .text.pxPortInitialiseStack:0000000000000000 $t
     /tmp/cc5qDK7o.s:296    .text.pxPortInitialiseStack:0000000000000000 pxPortInitialiseStack
     /tmp/cc5qDK7o.s:360    .text.pxPortInitialiseStack:0000000000000028 $d
     /tmp/cc5qDK7o.s:365    .text.SVC_Handler:0000000000000000 $t
     /tmp/cc5qDK7o.s:373    .text.SVC_Handler:0000000000000000 SVC_Handler
     /tmp/cc5qDK7o.s:394    .text.SVC_Handler:0000000000000020 pxCurrentTCBConst2
     /tmp/cc5qDK7o.s:394    .text.SVC_Handler:0000000000000020 $d
     /tmp/cc5qDK7o.s:405    .text.vPortEndScheduler:0000000000000000 $t
     /tmp/cc5qDK7o.s:413    .text.vPortEndScheduler:0000000000000000 vPortEndScheduler
     /tmp/cc5qDK7o.s:459    .text.vPortEndScheduler:0000000000000020 $d
     /tmp/cc5qDK7o.s:464    .text.vPortEnterCritical:0000000000000000 $t
     /tmp/cc5qDK7o.s:472    .text.vPortEnterCritical:0000000000000000 vPortEnterCritical
     /tmp/cc5qDK7o.s:554    .text.vPortEnterCritical:000000000000003c $d
     /tmp/cc5qDK7o.s:560    .text.vPortExitCritical:0000000000000000 $t
     /tmp/cc5qDK7o.s:568    .text.vPortExitCritical:0000000000000000 vPortExitCritical
     /tmp/cc5qDK7o.s:641    .text.vPortExitCritical:0000000000000024 $d
     /tmp/cc5qDK7o.s:646    .text.PendSV_Handler:0000000000000000 $t
     /tmp/cc5qDK7o.s:654    .text.PendSV_Handler:0000000000000000 PendSV_Handler
     /tmp/cc5qDK7o.s:703    .text.PendSV_Handler:0000000000000060 pxCurrentTCBConst
     /tmp/cc5qDK7o.s:703    .text.PendSV_Handler:0000000000000060 $d
     /tmp/cc5qDK7o.s:714    .text.SysTick_Handler:0000000000000000 $t
     /tmp/cc5qDK7o.s:722    .text.SysTick_Handler:0000000000000000 SysTick_Handler
     /tmp/cc5qDK7o.s:798    .text.SysTick_Handler:0000000000000028 $d
     /tmp/cc5qDK7o.s:803    .text.vPortSuppressTicksAndSleep:0000000000000000 $t
     /tmp/cc5qDK7o.s:811    .text.vPortSuppressTicksAndSleep:0000000000000000 vPortSuppressTicksAndSleep
     /tmp/cc5qDK7o.s:1185   .text.vPortSuppressTicksAndSleep:0000000000000104 $d
     /tmp/cc5qDK7o.s:1196   .text.vPortSetupTimerInterrupt:0000000000000000 $t
     /tmp/cc5qDK7o.s:1204   .text.vPortSetupTimerInterrupt:0000000000000000 vPortSetupTimerInterrupt
     /tmp/cc5qDK7o.s:1287   .text.vPortSetupTimerInterrupt:000000000000002c $d
     /tmp/cc5qDK7o.s:1298   .text.xPortStartScheduler:0000000000000000 $t
     /tmp/cc5qDK7o.s:1306   .text.xPortStartScheduler:0000000000000000 xPortStartScheduler
     /tmp/cc5qDK7o.s:1694   .text.xPortStartScheduler:0000000000000118 $d
     /tmp/cc5qDK7o.s:1707   .text.vPortValidateInterruptPriority:0000000000000000 $t
     /tmp/cc5qDK7o.s:1715   .text.vPortValidateInterruptPriority:0000000000000000 vPortValidateInterruptPriority
     /tmp/cc5qDK7o.s:1823   .text.vPortValidateInterruptPriority:000000000000004c $d
     /tmp/cc5qDK7o.s:1834   .bss.ucMaxSysCallPriority:0000000000000000 ucMaxSysCallPriority
     /tmp/cc5qDK7o.s:1835   .bss.ucMaxSysCallPriority:0000000000000000 $d
     /tmp/cc5qDK7o.s:1837   .bss.ulMaxPRIGROUPValue:0000000000000000 $d
     /tmp/cc5qDK7o.s:1841   .bss.ulMaxPRIGROUPValue:0000000000000000 ulMaxPRIGROUPValue
     /tmp/cc5qDK7o.s:1844   .bss.ulStoppedTimerCompensation:0000000000000000 $d
     /tmp/cc5qDK7o.s:1848   .bss.ulStoppedTimerCompensation:0000000000000000 ulStoppedTimerCompensation
     /tmp/cc5qDK7o.s:1851   .bss.ulTimerCountsForOneTick:0000000000000000 $d
     /tmp/cc5qDK7o.s:1855   .bss.ulTimerCountsForOneTick:0000000000000000 ulTimerCountsForOneTick
     /tmp/cc5qDK7o.s:1858   .bss.xMaximumPossibleSuppressedTicks:0000000000000000 $d
     /tmp/cc5qDK7o.s:1862   .bss.xMaximumPossibleSuppressedTicks:0000000000000000 xMaximumPossibleSuppressedTicks
     /tmp/cc5qDK7o.s:1865   .data.uxCriticalNesting:0000000000000000 $d
     /tmp/cc5qDK7o.s:1869   .data.uxCriticalNesting:0000000000000000 uxCriticalNesting
     /tmp/cc5qDK7o.s:172    .text.vPortEnableVFP:000000000000000e $d
ARM GAS  /tmp/cc5qDK7o.s 			page 275


     /tmp/cc5qDK7o.s:9616   .text.vPortEnableVFP:0000000000000010 $d
     /tmp/cc5qDK7o.s:140    .text.prvPortStartFirstTask:0000000000000022 $d
     /tmp/cc5qDK7o.s:9616   .text.prvPortStartFirstTask:0000000000000024 $d
                           .group:0000000000000000 wm4.0.2d6fdf766c63846a0a39c0f8d0bba653
                           .group:0000000000000000 wm4.stddef.h.39.99b5021e28f91cdb161c889e07266673
                           .group:0000000000000000 wm4._newlib_version.h.4.875b979a44719054cd750d0952ad3fd6
                           .group:0000000000000000 wm4.features.h.33.5bd1eea2d80518b50f7af0b5ce6750e0
                           .group:0000000000000000 wm4._default_types.h.15.247e5cd201eca3442cbf5404108c4935
                           .group:0000000000000000 wm4._intsup.h.10.cce27fed8484c08a33f522034c30d2b5
                           .group:0000000000000000 wm4._stdint.h.10.c24fa3af3bc1706662bb5593a907e841
                           .group:0000000000000000 wm4.stdint.h.23.d53047a68f4a85177f80b422d52785ed
                           .group:0000000000000000 wm4.FreeRTOSConfig.h.72.a340d89ecb65042004b4d15b4973dce0
                           .group:0000000000000000 wm4.projdefs.h.29.3472c8470d131a5f474bc7437ea94609
                           .group:0000000000000000 wm4.portmacro.h.30.110a3580e768a63cdd084aa29b33cb01
                           .group:0000000000000000 wm4.portable.h.64.00b423ba030e23bed354b037664af7a6
                           .group:0000000000000000 wm4.mpu_wrappers.h.29.89d425470b0b1ff39fbd61026b3dc073
                           .group:0000000000000000 wm4.FreeRTOS.h.66.65006175992b5832ef563358bda14c3e
                           .group:0000000000000000 wm4.list.h.61.bafeaa82806d71ae8917c6d7827fc3d2
                           .group:0000000000000000 wm4.task.h.46.0d11769cee96bf77a599bac125eeecf9

UNDEFINED SYMBOLS
pxCurrentTCB
vTaskSwitchContext
xTaskIncrementTick
eTaskConfirmSleepModeStatus
vTaskStepTick
