ARM GAS  /tmp/ccIvB74u.s 			page 1


   1              		.cpu cortex-m4
   2              		.eabi_attribute 27, 1	@ Tag_ABI_HardFP_use
   3              		.eabi_attribute 20, 1	@ Tag_ABI_FP_denormal
   4              		.eabi_attribute 21, 1	@ Tag_ABI_FP_exceptions
   5              		.eabi_attribute 23, 3	@ Tag_ABI_FP_number_model
   6              		.eabi_attribute 24, 1	@ Tag_ABI_align8_needed
   7              		.eabi_attribute 25, 1	@ Tag_ABI_align8_preserved
   8              		.eabi_attribute 26, 1	@ Tag_ABI_enum_size
   9              		.eabi_attribute 30, 2	@ Tag_ABI_optimization_goals
  10              		.eabi_attribute 34, 1	@ Tag_CPU_unaligned_access
  11              		.eabi_attribute 18, 4	@ Tag_ABI_PCS_wchar_t
  12              		.file	"tasks.c"
  13              	@ GNU C89 (GNU Tools for Arm Embedded Processors 8-2018-q4-major) version 8.2.1 20181213 (release) 
  14              	@	compiled by GNU C version 4.8.4, GMP version 6.1.0, MPFR version 3.1.4, MPC version 1.0.3, isl ve
  15              	
  16              	@ GGC heuristics: --param ggc-min-expand=96 --param ggc-min-heapsize=125422
  17              	@ options passed:  -isystem =/include/newlib-nano -I . -I .
  18              	@ -I ../../kernel/FreeRTOS/Source/include
  19              	@ -I ../../kernel/FreeRTOS/Source/portable/GCC/ARM_CM4F
  20              	@ -I ../../kernel/FreeRTOS/Demo/Common/include
  21              	@ -I ../../kernel/FreeRTOS-Plus/Source/FreeRTOS-Plus-CLI
  22              	@ -I ../../peripheral_library/inc -I ../../peripheral_library/hal/m7221/inc
  23              	@ -I ../../CMSIS -I ../../main_full -I ../../3rd/rokid/./ -I /.
  24              	@ -I /../../kernel/FreeRTOS/Source/include
  25              	@ -I /../../kernel/FreeRTOS/Source/portable/GCC/ARM_CM4F
  26              	@ -I /../../kernel/FreeRTOS/Demo/Common/include
  27              	@ -I /../../kernel/FreeRTOS-Plus/Source/FreeRTOS-Plus-CLI
  28              	@ -I /../../peripheral_library/inc
  29              	@ -I /../../peripheral_library/hal/m7221/inc -I /../../CMSIS
  30              	@ -I /../../main_full -I /../../3rd/rokid/./
  31              	@ -imultilib thumb/v7e-m+fp/softfp
  32              	@ -iprefix /home/gu/code/freeRTOS10/vendor/mstar/CM4/tools/gcc-arm-none-eabi-8-2018-q4-major/bin/..
  33              	@ -isysroot /home/gu/code/freeRTOS10/vendor/mstar/CM4/tools/gcc-arm-none-eabi-8-2018-q4-major/bin/.
  34              	@ -MD out/tasks.d -MF out/tasks.d -MP -MQ out/tasks.o -D__USES_INITFINI__
  35              	@ -D CONFIG_BENCH=0 -D CONFIG_SYS_DBG_LEVEL=0xFFFFFFFF -D CONFIG_VOC_MIC=6
  36              	@ -D CONFIG_AUD_I2S -D CONFIG_AUD_AEC -D CONFIG_VOC_MIC_MAPPING
  37              	@ -D CONFIG_VOC_SWHPF -D CONFIG_VOC_SW_SRC48K -D ARM_MATH_CM4
  38              	@ -D BOOTROM_VERSION_ASIC ../../kernel/FreeRTOS/Source/tasks.c
  39              	@ -mcpu=cortex-m4 -mthumb -mthumb-interwork -mfloat-abi=softfp
  40              	@ -mfpu=fpv4-sp-d16 -march=armv7e-m+fp -auxbase-strip out/tasks.o -g -ggdb3
  41              	@ -O3 -Wall -Wstrict-prototypes -Wextra -std=gnu90 -ffunction-sections
  42              	@ -fdata-sections -fno-builtin-printf -fverbose-asm
  43              	@ options enabled:  -faggressive-loop-optimizations -falign-jumps
  44              	@ -falign-labels -falign-loops -fauto-inc-dec -fbranch-count-reg
  45              	@ -fcaller-saves -fchkp-check-incomplete-type -fchkp-check-read
  46              	@ -fchkp-check-write -fchkp-instrument-calls -fchkp-narrow-bounds
  47              	@ -fchkp-optimize -fchkp-store-bounds -fchkp-use-static-bounds
  48              	@ -fchkp-use-static-const-bounds -fchkp-use-wrappers -fcode-hoisting
  49              	@ -fcombine-stack-adjustments -fcommon -fcompare-elim -fcprop-registers
  50              	@ -fcrossjumping -fcse-follow-jumps -fdata-sections -fdefer-pop
  51              	@ -fdelete-null-pointer-checks -fdevirtualize -fdevirtualize-speculatively
  52              	@ -fdwarf2-cfi-asm -fearly-inlining -feliminate-unused-debug-types
  53              	@ -fexpensive-optimizations -fforward-propagate -ffp-int-builtin-inexact
  54              	@ -ffunction-cse -ffunction-sections -fgcse -fgcse-after-reload -fgcse-lm
  55              	@ -fgnu-runtime -fgnu-unique -fguess-branch-probability
  56              	@ -fhoist-adjacent-loads -fident -fif-conversion -fif-conversion2
  57              	@ -findirect-inlining -finline -finline-atomics -finline-functions
ARM GAS  /tmp/ccIvB74u.s 			page 2


  58              	@ -finline-functions-called-once -finline-small-functions -fipa-bit-cp
  59              	@ -fipa-cp -fipa-cp-clone -fipa-icf -fipa-icf-functions -fipa-icf-variables
  60              	@ -fipa-profile -fipa-pure-const -fipa-ra -fipa-reference -fipa-sra
  61              	@ -fipa-vrp -fira-hoist-pressure -fira-share-save-slots
  62              	@ -fira-share-spill-slots -fisolate-erroneous-paths-dereference -fivopts
  63              	@ -fkeep-static-consts -fleading-underscore -flifetime-dse
  64              	@ -floop-interchange -floop-unroll-and-jam -flra-remat
  65              	@ -flto-odr-type-merging -fmath-errno -fmerge-constants
  66              	@ -fmerge-debug-strings -fmove-loop-invariants -fomit-frame-pointer
  67              	@ -foptimize-sibling-calls -foptimize-strlen -fpartial-inlining
  68              	@ -fpeel-loops -fpeephole -fpeephole2 -fplt -fpredictive-commoning
  69              	@ -fprefetch-loop-arrays -freg-struct-return -freorder-blocks
  70              	@ -freorder-functions -frerun-cse-after-loop
  71              	@ -fsched-critical-path-heuristic -fsched-dep-count-heuristic
  72              	@ -fsched-group-heuristic -fsched-interblock -fsched-last-insn-heuristic
  73              	@ -fsched-pressure -fsched-rank-heuristic -fsched-spec
  74              	@ -fsched-spec-insn-heuristic -fsched-stalled-insns-dep -fschedule-insns
  75              	@ -fschedule-insns2 -fsection-anchors -fsemantic-interposition
  76              	@ -fshow-column -fshrink-wrap -fshrink-wrap-separate -fsigned-zeros
  77              	@ -fsplit-ivs-in-unroller -fsplit-loops -fsplit-paths -fsplit-wide-types
  78              	@ -fssa-backprop -fssa-phiopt -fstdarg-opt -fstore-merging
  79              	@ -fstrict-aliasing -fstrict-volatile-bitfields -fsync-libcalls
  80              	@ -fthread-jumps -ftoplevel-reorder -ftrapping-math -ftree-bit-ccp
  81              	@ -ftree-builtin-call-dce -ftree-ccp -ftree-ch -ftree-coalesce-vars
  82              	@ -ftree-copy-prop -ftree-cselim -ftree-dce -ftree-dominator-opts
  83              	@ -ftree-dse -ftree-forwprop -ftree-fre -ftree-loop-distribute-patterns
  84              	@ -ftree-loop-distribution -ftree-loop-if-convert -ftree-loop-im
  85              	@ -ftree-loop-ivcanon -ftree-loop-optimize -ftree-loop-vectorize
  86              	@ -ftree-parallelize-loops= -ftree-partial-pre -ftree-phiprop -ftree-pre
  87              	@ -ftree-pta -ftree-reassoc -ftree-scev-cprop -ftree-sink
  88              	@ -ftree-slp-vectorize -ftree-slsr -ftree-sra -ftree-switch-conversion
  89              	@ -ftree-tail-merge -ftree-ter -ftree-vrp -funit-at-a-time -funswitch-loops
  90              	@ -fvar-tracking -fvar-tracking-assignments -fverbose-asm
  91              	@ -fzero-initialized-in-bss -masm-syntax-unified -mbe32 -mlittle-endian
  92              	@ -mpic-data-is-text-relative -msched-prolog -mthumb -munaligned-access
  93              	@ -mvectorize-with-neon-quad
  94              	
  95              		.text
  96              	.Ltext0:
  97              		.cfi_sections	.debug_frame
  98              		.section	.text.prvAddNewTaskToReadyList,"ax",%progbits
  99              		.align	1
 100              		.p2align 2,,3
 101              		.arch armv7e-m
 102              		.syntax unified
 103              		.thumb
 104              		.thumb_func
 105              		.fpu fpv4-sp-d16
 106              		.type	prvAddNewTaskToReadyList, %function
 107              	prvAddNewTaskToReadyList:
 108              	.LVL0:
 109              	.LFB10:
 110              		.file 1 "../../kernel/FreeRTOS/Source/tasks.c"
   1:../../kernel/FreeRTOS/Source/tasks.c **** /*
   2:../../kernel/FreeRTOS/Source/tasks.c ****  * FreeRTOS Kernel V10.0.1
   3:../../kernel/FreeRTOS/Source/tasks.c ****  * Copyright (C) 2017 Amazon.com, Inc. or its affiliates.  All Rights Reserved.
   4:../../kernel/FreeRTOS/Source/tasks.c ****  *
ARM GAS  /tmp/ccIvB74u.s 			page 3


   5:../../kernel/FreeRTOS/Source/tasks.c ****  * Permission is hereby granted, free of charge, to any person obtaining a copy of
   6:../../kernel/FreeRTOS/Source/tasks.c ****  * this software and associated documentation files (the "Software"), to deal in
   7:../../kernel/FreeRTOS/Source/tasks.c ****  * the Software without restriction, including without limitation the rights to
   8:../../kernel/FreeRTOS/Source/tasks.c ****  * use, copy, modify, merge, publish, distribute, sublicense, and/or sell copies of
   9:../../kernel/FreeRTOS/Source/tasks.c ****  * the Software, and to permit persons to whom the Software is furnished to do so,
  10:../../kernel/FreeRTOS/Source/tasks.c ****  * subject to the following conditions:
  11:../../kernel/FreeRTOS/Source/tasks.c ****  *
  12:../../kernel/FreeRTOS/Source/tasks.c ****  * The above copyright notice and this permission notice shall be included in all
  13:../../kernel/FreeRTOS/Source/tasks.c ****  * copies or substantial portions of the Software.
  14:../../kernel/FreeRTOS/Source/tasks.c ****  *
  15:../../kernel/FreeRTOS/Source/tasks.c ****  * THE SOFTWARE IS PROVIDED "AS IS", WITHOUT WARRANTY OF ANY KIND, EXPRESS OR
  16:../../kernel/FreeRTOS/Source/tasks.c ****  * IMPLIED, INCLUDING BUT NOT LIMITED TO THE WARRANTIES OF MERCHANTABILITY, FITNESS
  17:../../kernel/FreeRTOS/Source/tasks.c ****  * FOR A PARTICULAR PURPOSE AND NONINFRINGEMENT. IN NO EVENT SHALL THE AUTHORS OR
  18:../../kernel/FreeRTOS/Source/tasks.c ****  * COPYRIGHT HOLDERS BE LIABLE FOR ANY CLAIM, DAMAGES OR OTHER LIABILITY, WHETHER
  19:../../kernel/FreeRTOS/Source/tasks.c ****  * IN AN ACTION OF CONTRACT, TORT OR OTHERWISE, ARISING FROM, OUT OF OR IN
  20:../../kernel/FreeRTOS/Source/tasks.c ****  * CONNECTION WITH THE SOFTWARE OR THE USE OR OTHER DEALINGS IN THE SOFTWARE.
  21:../../kernel/FreeRTOS/Source/tasks.c ****  *
  22:../../kernel/FreeRTOS/Source/tasks.c ****  * http://www.FreeRTOS.org
  23:../../kernel/FreeRTOS/Source/tasks.c ****  * http://aws.amazon.com/freertos
  24:../../kernel/FreeRTOS/Source/tasks.c ****  *
  25:../../kernel/FreeRTOS/Source/tasks.c ****  * 1 tab == 4 spaces!
  26:../../kernel/FreeRTOS/Source/tasks.c ****  */
  27:../../kernel/FreeRTOS/Source/tasks.c **** 
  28:../../kernel/FreeRTOS/Source/tasks.c **** /* Standard includes. */
  29:../../kernel/FreeRTOS/Source/tasks.c **** #include <stdlib.h>
  30:../../kernel/FreeRTOS/Source/tasks.c **** #include <string.h>
  31:../../kernel/FreeRTOS/Source/tasks.c **** 
  32:../../kernel/FreeRTOS/Source/tasks.c **** /* Defining MPU_WRAPPERS_INCLUDED_FROM_API_FILE prevents task.h from redefining
  33:../../kernel/FreeRTOS/Source/tasks.c **** all the API functions to use the MPU wrappers.  That should only be done when
  34:../../kernel/FreeRTOS/Source/tasks.c **** task.h is included from an application file. */
  35:../../kernel/FreeRTOS/Source/tasks.c **** #define MPU_WRAPPERS_INCLUDED_FROM_API_FILE
  36:../../kernel/FreeRTOS/Source/tasks.c **** 
  37:../../kernel/FreeRTOS/Source/tasks.c **** /* FreeRTOS includes. */
  38:../../kernel/FreeRTOS/Source/tasks.c **** #include "FreeRTOS.h"
  39:../../kernel/FreeRTOS/Source/tasks.c **** #include "task.h"
  40:../../kernel/FreeRTOS/Source/tasks.c **** #include "timers.h"
  41:../../kernel/FreeRTOS/Source/tasks.c **** #include "stack_macros.h"
  42:../../kernel/FreeRTOS/Source/tasks.c **** 
  43:../../kernel/FreeRTOS/Source/tasks.c **** /* Lint e961 and e750 are suppressed as a MISRA exception justified because the
  44:../../kernel/FreeRTOS/Source/tasks.c **** MPU ports require MPU_WRAPPERS_INCLUDED_FROM_API_FILE to be defined for the
  45:../../kernel/FreeRTOS/Source/tasks.c **** header files above, but not in this file, in order to generate the correct
  46:../../kernel/FreeRTOS/Source/tasks.c **** privileged Vs unprivileged linkage and placement. */
  47:../../kernel/FreeRTOS/Source/tasks.c **** #undef MPU_WRAPPERS_INCLUDED_FROM_API_FILE /*lint !e961 !e750. */
  48:../../kernel/FreeRTOS/Source/tasks.c **** 
  49:../../kernel/FreeRTOS/Source/tasks.c **** /* Set configUSE_STATS_FORMATTING_FUNCTIONS to 2 to include the stats formatting
  50:../../kernel/FreeRTOS/Source/tasks.c **** functions but without including stdio.h here. */
  51:../../kernel/FreeRTOS/Source/tasks.c **** #if ( configUSE_STATS_FORMATTING_FUNCTIONS == 1 )
  52:../../kernel/FreeRTOS/Source/tasks.c **** 	/* At the bottom of this file are two optional functions that can be used
  53:../../kernel/FreeRTOS/Source/tasks.c **** 	to generate human readable text from the raw data generated by the
  54:../../kernel/FreeRTOS/Source/tasks.c **** 	uxTaskGetSystemState() function.  Note the formatting functions are provided
  55:../../kernel/FreeRTOS/Source/tasks.c **** 	for convenience only, and are NOT considered part of the kernel. */
  56:../../kernel/FreeRTOS/Source/tasks.c **** 	#include <stdio.h>
  57:../../kernel/FreeRTOS/Source/tasks.c **** #endif /* configUSE_STATS_FORMATTING_FUNCTIONS == 1 ) */
  58:../../kernel/FreeRTOS/Source/tasks.c **** 
  59:../../kernel/FreeRTOS/Source/tasks.c **** #if( configUSE_PREEMPTION == 0 )
  60:../../kernel/FreeRTOS/Source/tasks.c **** 	/* If the cooperative scheduler is being used then a yield should not be
  61:../../kernel/FreeRTOS/Source/tasks.c **** 	performed just because a higher priority task has been woken. */
ARM GAS  /tmp/ccIvB74u.s 			page 4


  62:../../kernel/FreeRTOS/Source/tasks.c **** 	#define taskYIELD_IF_USING_PREEMPTION()
  63:../../kernel/FreeRTOS/Source/tasks.c **** #else
  64:../../kernel/FreeRTOS/Source/tasks.c **** 	#define taskYIELD_IF_USING_PREEMPTION() portYIELD_WITHIN_API()
  65:../../kernel/FreeRTOS/Source/tasks.c **** #endif
  66:../../kernel/FreeRTOS/Source/tasks.c **** 
  67:../../kernel/FreeRTOS/Source/tasks.c **** /* Values that can be assigned to the ucNotifyState member of the TCB. */
  68:../../kernel/FreeRTOS/Source/tasks.c **** #define taskNOT_WAITING_NOTIFICATION	( ( uint8_t ) 0 )
  69:../../kernel/FreeRTOS/Source/tasks.c **** #define taskWAITING_NOTIFICATION		( ( uint8_t ) 1 )
  70:../../kernel/FreeRTOS/Source/tasks.c **** #define taskNOTIFICATION_RECEIVED		( ( uint8_t ) 2 )
  71:../../kernel/FreeRTOS/Source/tasks.c **** 
  72:../../kernel/FreeRTOS/Source/tasks.c **** /*
  73:../../kernel/FreeRTOS/Source/tasks.c ****  * The value used to fill the stack of a task when the task is created.  This
  74:../../kernel/FreeRTOS/Source/tasks.c ****  * is used purely for checking the high water mark for tasks.
  75:../../kernel/FreeRTOS/Source/tasks.c ****  */
  76:../../kernel/FreeRTOS/Source/tasks.c **** #define tskSTACK_FILL_BYTE	( 0xa5U )
  77:../../kernel/FreeRTOS/Source/tasks.c **** 
  78:../../kernel/FreeRTOS/Source/tasks.c **** /* Sometimes the FreeRTOSConfig.h settings only allow a task to be created using
  79:../../kernel/FreeRTOS/Source/tasks.c **** dynamically allocated RAM, in which case when any task is deleted it is known
  80:../../kernel/FreeRTOS/Source/tasks.c **** that both the task's stack and TCB need to be freed.  Sometimes the
  81:../../kernel/FreeRTOS/Source/tasks.c **** FreeRTOSConfig.h settings only allow a task to be created using statically
  82:../../kernel/FreeRTOS/Source/tasks.c **** allocated RAM, in which case when any task is deleted it is known that neither
  83:../../kernel/FreeRTOS/Source/tasks.c **** the task's stack or TCB should be freed.  Sometimes the FreeRTOSConfig.h
  84:../../kernel/FreeRTOS/Source/tasks.c **** settings allow a task to be created using either statically or dynamically
  85:../../kernel/FreeRTOS/Source/tasks.c **** allocated RAM, in which case a member of the TCB is used to record whether the
  86:../../kernel/FreeRTOS/Source/tasks.c **** stack and/or TCB were allocated statically or dynamically, so when a task is
  87:../../kernel/FreeRTOS/Source/tasks.c **** deleted the RAM that was allocated dynamically is freed again and no attempt is
  88:../../kernel/FreeRTOS/Source/tasks.c **** made to free the RAM that was allocated statically.
  89:../../kernel/FreeRTOS/Source/tasks.c **** tskSTATIC_AND_DYNAMIC_ALLOCATION_POSSIBLE is only true if it is possible for a
  90:../../kernel/FreeRTOS/Source/tasks.c **** task to be created using either statically or dynamically allocated RAM.  Note
  91:../../kernel/FreeRTOS/Source/tasks.c **** that if portUSING_MPU_WRAPPERS is 1 then a protected task can be created with
  92:../../kernel/FreeRTOS/Source/tasks.c **** a statically allocated stack and a dynamically allocated TCB.
  93:../../kernel/FreeRTOS/Source/tasks.c **** !!!NOTE!!! If the definition of tskSTATIC_AND_DYNAMIC_ALLOCATION_POSSIBLE is
  94:../../kernel/FreeRTOS/Source/tasks.c **** changed then the definition of StaticTask_t must also be updated. */
  95:../../kernel/FreeRTOS/Source/tasks.c **** #define tskSTATIC_AND_DYNAMIC_ALLOCATION_POSSIBLE	( ( configSUPPORT_STATIC_ALLOCATION == 1 ) && ( c
  96:../../kernel/FreeRTOS/Source/tasks.c **** #define tskDYNAMICALLY_ALLOCATED_STACK_AND_TCB 		( ( uint8_t ) 0 )
  97:../../kernel/FreeRTOS/Source/tasks.c **** #define tskSTATICALLY_ALLOCATED_STACK_ONLY 			( ( uint8_t ) 1 )
  98:../../kernel/FreeRTOS/Source/tasks.c **** #define tskSTATICALLY_ALLOCATED_STACK_AND_TCB		( ( uint8_t ) 2 )
  99:../../kernel/FreeRTOS/Source/tasks.c **** 
 100:../../kernel/FreeRTOS/Source/tasks.c **** /* If any of the following are set then task stacks are filled with a known
 101:../../kernel/FreeRTOS/Source/tasks.c **** value so the high water mark can be determined.  If none of the following are
 102:../../kernel/FreeRTOS/Source/tasks.c **** set then don't fill the stack so there is no unnecessary dependency on memset. */
 103:../../kernel/FreeRTOS/Source/tasks.c **** #if( ( configCHECK_FOR_STACK_OVERFLOW > 1 ) || ( configUSE_TRACE_FACILITY == 1 ) || ( INCLUDE_uxTas
 104:../../kernel/FreeRTOS/Source/tasks.c **** 	#define tskSET_NEW_STACKS_TO_KNOWN_VALUE	1
 105:../../kernel/FreeRTOS/Source/tasks.c **** #else
 106:../../kernel/FreeRTOS/Source/tasks.c **** 	#define tskSET_NEW_STACKS_TO_KNOWN_VALUE	0
 107:../../kernel/FreeRTOS/Source/tasks.c **** #endif
 108:../../kernel/FreeRTOS/Source/tasks.c **** 
 109:../../kernel/FreeRTOS/Source/tasks.c **** /*
 110:../../kernel/FreeRTOS/Source/tasks.c ****  * Macros used by vListTask to indicate which state a task is in.
 111:../../kernel/FreeRTOS/Source/tasks.c ****  */
 112:../../kernel/FreeRTOS/Source/tasks.c **** #define tskRUNNING_CHAR		( 'X' )
 113:../../kernel/FreeRTOS/Source/tasks.c **** #define tskBLOCKED_CHAR		( 'B' )
 114:../../kernel/FreeRTOS/Source/tasks.c **** #define tskREADY_CHAR		( 'R' )
 115:../../kernel/FreeRTOS/Source/tasks.c **** #define tskDELETED_CHAR		( 'D' )
 116:../../kernel/FreeRTOS/Source/tasks.c **** #define tskSUSPENDED_CHAR	( 'S' )
 117:../../kernel/FreeRTOS/Source/tasks.c **** 
 118:../../kernel/FreeRTOS/Source/tasks.c **** /*
ARM GAS  /tmp/ccIvB74u.s 			page 5


 119:../../kernel/FreeRTOS/Source/tasks.c ****  * Some kernel aware debuggers require the data the debugger needs access to be
 120:../../kernel/FreeRTOS/Source/tasks.c ****  * global, rather than file scope.
 121:../../kernel/FreeRTOS/Source/tasks.c ****  */
 122:../../kernel/FreeRTOS/Source/tasks.c **** #ifdef portREMOVE_STATIC_QUALIFIER
 123:../../kernel/FreeRTOS/Source/tasks.c **** 	#define static
 124:../../kernel/FreeRTOS/Source/tasks.c **** #endif
 125:../../kernel/FreeRTOS/Source/tasks.c **** 
 126:../../kernel/FreeRTOS/Source/tasks.c **** /* The name allocated to the Idle task.  This can be overridden by defining
 127:../../kernel/FreeRTOS/Source/tasks.c **** configIDLE_TASK_NAME in FreeRTOSConfig.h. */
 128:../../kernel/FreeRTOS/Source/tasks.c **** #ifndef configIDLE_TASK_NAME
 129:../../kernel/FreeRTOS/Source/tasks.c **** 	#define configIDLE_TASK_NAME "IDLE"
 130:../../kernel/FreeRTOS/Source/tasks.c **** #endif
 131:../../kernel/FreeRTOS/Source/tasks.c **** 
 132:../../kernel/FreeRTOS/Source/tasks.c **** #if ( configUSE_PORT_OPTIMISED_TASK_SELECTION == 0 )
 133:../../kernel/FreeRTOS/Source/tasks.c **** 
 134:../../kernel/FreeRTOS/Source/tasks.c **** 	/* If configUSE_PORT_OPTIMISED_TASK_SELECTION is 0 then task selection is
 135:../../kernel/FreeRTOS/Source/tasks.c **** 	performed in a generic way that is not optimised to any particular
 136:../../kernel/FreeRTOS/Source/tasks.c **** 	microcontroller architecture. */
 137:../../kernel/FreeRTOS/Source/tasks.c **** 
 138:../../kernel/FreeRTOS/Source/tasks.c **** 	/* uxTopReadyPriority holds the priority of the highest priority ready
 139:../../kernel/FreeRTOS/Source/tasks.c **** 	state task. */
 140:../../kernel/FreeRTOS/Source/tasks.c **** 	#define taskRECORD_READY_PRIORITY( uxPriority )														\
 141:../../kernel/FreeRTOS/Source/tasks.c **** 	{																									\
 142:../../kernel/FreeRTOS/Source/tasks.c **** 		if( ( uxPriority ) > uxTopReadyPriority )														\
 143:../../kernel/FreeRTOS/Source/tasks.c **** 		{																								\
 144:../../kernel/FreeRTOS/Source/tasks.c **** 			uxTopReadyPriority = ( uxPriority );														\
 145:../../kernel/FreeRTOS/Source/tasks.c **** 		}																								\
 146:../../kernel/FreeRTOS/Source/tasks.c **** 	} /* taskRECORD_READY_PRIORITY */
 147:../../kernel/FreeRTOS/Source/tasks.c **** 
 148:../../kernel/FreeRTOS/Source/tasks.c **** 	/*-----------------------------------------------------------*/
 149:../../kernel/FreeRTOS/Source/tasks.c **** 
 150:../../kernel/FreeRTOS/Source/tasks.c **** 	#define taskSELECT_HIGHEST_PRIORITY_TASK()															\
 151:../../kernel/FreeRTOS/Source/tasks.c **** 	{																									\
 152:../../kernel/FreeRTOS/Source/tasks.c **** 	UBaseType_t uxTopPriority = uxTopReadyPriority;														\
 153:../../kernel/FreeRTOS/Source/tasks.c **** 																										\
 154:../../kernel/FreeRTOS/Source/tasks.c **** 		/* Find the highest priority queue that contains ready tasks. */								\
 155:../../kernel/FreeRTOS/Source/tasks.c **** 		while( listLIST_IS_EMPTY( &( pxReadyTasksLists[ uxTopPriority ] ) ) )							\
 156:../../kernel/FreeRTOS/Source/tasks.c **** 		{																								\
 157:../../kernel/FreeRTOS/Source/tasks.c **** 			configASSERT( uxTopPriority );																\
 158:../../kernel/FreeRTOS/Source/tasks.c **** 			--uxTopPriority;																			\
 159:../../kernel/FreeRTOS/Source/tasks.c **** 		}																								\
 160:../../kernel/FreeRTOS/Source/tasks.c **** 																										\
 161:../../kernel/FreeRTOS/Source/tasks.c **** 		/* listGET_OWNER_OF_NEXT_ENTRY indexes through the list, so the tasks of						\
 162:../../kernel/FreeRTOS/Source/tasks.c **** 		the	same priority get an equal share of the processor time. */									\
 163:../../kernel/FreeRTOS/Source/tasks.c **** 		listGET_OWNER_OF_NEXT_ENTRY( pxCurrentTCB, &( pxReadyTasksLists[ uxTopPriority ] ) );			\
 164:../../kernel/FreeRTOS/Source/tasks.c **** 		uxTopReadyPriority = uxTopPriority;																\
 165:../../kernel/FreeRTOS/Source/tasks.c **** 	} /* taskSELECT_HIGHEST_PRIORITY_TASK */
 166:../../kernel/FreeRTOS/Source/tasks.c **** 
 167:../../kernel/FreeRTOS/Source/tasks.c **** 	/*-----------------------------------------------------------*/
 168:../../kernel/FreeRTOS/Source/tasks.c **** 
 169:../../kernel/FreeRTOS/Source/tasks.c **** 	/* Define away taskRESET_READY_PRIORITY() and portRESET_READY_PRIORITY() as
 170:../../kernel/FreeRTOS/Source/tasks.c **** 	they are only required when a port optimised method of task selection is
 171:../../kernel/FreeRTOS/Source/tasks.c **** 	being used. */
 172:../../kernel/FreeRTOS/Source/tasks.c **** 	#define taskRESET_READY_PRIORITY( uxPriority )
 173:../../kernel/FreeRTOS/Source/tasks.c **** 	#define portRESET_READY_PRIORITY( uxPriority, uxTopReadyPriority )
 174:../../kernel/FreeRTOS/Source/tasks.c **** 
 175:../../kernel/FreeRTOS/Source/tasks.c **** #else /* configUSE_PORT_OPTIMISED_TASK_SELECTION */
ARM GAS  /tmp/ccIvB74u.s 			page 6


 176:../../kernel/FreeRTOS/Source/tasks.c **** 
 177:../../kernel/FreeRTOS/Source/tasks.c **** 	/* If configUSE_PORT_OPTIMISED_TASK_SELECTION is 1 then task selection is
 178:../../kernel/FreeRTOS/Source/tasks.c **** 	performed in a way that is tailored to the particular microcontroller
 179:../../kernel/FreeRTOS/Source/tasks.c **** 	architecture being used. */
 180:../../kernel/FreeRTOS/Source/tasks.c **** 
 181:../../kernel/FreeRTOS/Source/tasks.c **** 	/* A port optimised version is provided.  Call the port defined macros. */
 182:../../kernel/FreeRTOS/Source/tasks.c **** 	#define taskRECORD_READY_PRIORITY( uxPriority )	portRECORD_READY_PRIORITY( uxPriority, uxTopReadyP
 183:../../kernel/FreeRTOS/Source/tasks.c **** 
 184:../../kernel/FreeRTOS/Source/tasks.c **** 	/*-----------------------------------------------------------*/
 185:../../kernel/FreeRTOS/Source/tasks.c **** 
 186:../../kernel/FreeRTOS/Source/tasks.c **** 	#define taskSELECT_HIGHEST_PRIORITY_TASK()														\
 187:../../kernel/FreeRTOS/Source/tasks.c **** 	{																								\
 188:../../kernel/FreeRTOS/Source/tasks.c **** 	UBaseType_t uxTopPriority;																		\
 189:../../kernel/FreeRTOS/Source/tasks.c **** 																									\
 190:../../kernel/FreeRTOS/Source/tasks.c **** 		/* Find the highest priority list that contains ready tasks. */								\
 191:../../kernel/FreeRTOS/Source/tasks.c **** 		portGET_HIGHEST_PRIORITY( uxTopPriority, uxTopReadyPriority );								\
 192:../../kernel/FreeRTOS/Source/tasks.c **** 		configASSERT( listCURRENT_LIST_LENGTH( &( pxReadyTasksLists[ uxTopPriority ] ) ) > 0 );		\
 193:../../kernel/FreeRTOS/Source/tasks.c **** 		listGET_OWNER_OF_NEXT_ENTRY( pxCurrentTCB, &( pxReadyTasksLists[ uxTopPriority ] ) );		\
 194:../../kernel/FreeRTOS/Source/tasks.c **** 	} /* taskSELECT_HIGHEST_PRIORITY_TASK() */
 195:../../kernel/FreeRTOS/Source/tasks.c **** 
 196:../../kernel/FreeRTOS/Source/tasks.c **** 	/*-----------------------------------------------------------*/
 197:../../kernel/FreeRTOS/Source/tasks.c **** 
 198:../../kernel/FreeRTOS/Source/tasks.c **** 	/* A port optimised version is provided, call it only if the TCB being reset
 199:../../kernel/FreeRTOS/Source/tasks.c **** 	is being referenced from a ready list.  If it is referenced from a delayed
 200:../../kernel/FreeRTOS/Source/tasks.c **** 	or suspended list then it won't be in a ready list. */
 201:../../kernel/FreeRTOS/Source/tasks.c **** 	#define taskRESET_READY_PRIORITY( uxPriority )														\
 202:../../kernel/FreeRTOS/Source/tasks.c **** 	{																									\
 203:../../kernel/FreeRTOS/Source/tasks.c **** 		if( listCURRENT_LIST_LENGTH( &( pxReadyTasksLists[ ( uxPriority ) ] ) ) == ( UBaseType_t ) 0 )	\
 204:../../kernel/FreeRTOS/Source/tasks.c **** 		{																								\
 205:../../kernel/FreeRTOS/Source/tasks.c **** 			portRESET_READY_PRIORITY( ( uxPriority ), ( uxTopReadyPriority ) );							\
 206:../../kernel/FreeRTOS/Source/tasks.c **** 		}																								\
 207:../../kernel/FreeRTOS/Source/tasks.c **** 	}
 208:../../kernel/FreeRTOS/Source/tasks.c **** 
 209:../../kernel/FreeRTOS/Source/tasks.c **** #endif /* configUSE_PORT_OPTIMISED_TASK_SELECTION */
 210:../../kernel/FreeRTOS/Source/tasks.c **** 
 211:../../kernel/FreeRTOS/Source/tasks.c **** /*-----------------------------------------------------------*/
 212:../../kernel/FreeRTOS/Source/tasks.c **** 
 213:../../kernel/FreeRTOS/Source/tasks.c **** /* pxDelayedTaskList and pxOverflowDelayedTaskList are switched when the tick
 214:../../kernel/FreeRTOS/Source/tasks.c **** count overflows. */
 215:../../kernel/FreeRTOS/Source/tasks.c **** #define taskSWITCH_DELAYED_LISTS()																	\
 216:../../kernel/FreeRTOS/Source/tasks.c **** {																									\
 217:../../kernel/FreeRTOS/Source/tasks.c **** 	List_t *pxTemp;																					\
 218:../../kernel/FreeRTOS/Source/tasks.c **** 																									\
 219:../../kernel/FreeRTOS/Source/tasks.c **** 	/* The delayed tasks list should be empty when the lists are switched. */						\
 220:../../kernel/FreeRTOS/Source/tasks.c **** 	configASSERT( ( listLIST_IS_EMPTY( pxDelayedTaskList ) ) );										\
 221:../../kernel/FreeRTOS/Source/tasks.c **** 																									\
 222:../../kernel/FreeRTOS/Source/tasks.c **** 	pxTemp = pxDelayedTaskList;																		\
 223:../../kernel/FreeRTOS/Source/tasks.c **** 	pxDelayedTaskList = pxOverflowDelayedTaskList;													\
 224:../../kernel/FreeRTOS/Source/tasks.c **** 	pxOverflowDelayedTaskList = pxTemp;																\
 225:../../kernel/FreeRTOS/Source/tasks.c **** 	xNumOfOverflows++;																				\
 226:../../kernel/FreeRTOS/Source/tasks.c **** 	prvResetNextTaskUnblockTime();																	\
 227:../../kernel/FreeRTOS/Source/tasks.c **** }
 228:../../kernel/FreeRTOS/Source/tasks.c **** 
 229:../../kernel/FreeRTOS/Source/tasks.c **** /*-----------------------------------------------------------*/
 230:../../kernel/FreeRTOS/Source/tasks.c **** 
 231:../../kernel/FreeRTOS/Source/tasks.c **** /*
 232:../../kernel/FreeRTOS/Source/tasks.c ****  * Place the task represented by pxTCB into the appropriate ready list for
ARM GAS  /tmp/ccIvB74u.s 			page 7


 233:../../kernel/FreeRTOS/Source/tasks.c ****  * the task.  It is inserted at the end of the list.
 234:../../kernel/FreeRTOS/Source/tasks.c ****  */
 235:../../kernel/FreeRTOS/Source/tasks.c **** #define prvAddTaskToReadyList( pxTCB )																\
 236:../../kernel/FreeRTOS/Source/tasks.c **** 	traceMOVED_TASK_TO_READY_STATE( pxTCB );														\
 237:../../kernel/FreeRTOS/Source/tasks.c **** 	taskRECORD_READY_PRIORITY( ( pxTCB )->uxPriority );												\
 238:../../kernel/FreeRTOS/Source/tasks.c **** 	vListInsertEnd( &( pxReadyTasksLists[ ( pxTCB )->uxPriority ] ), &( ( pxTCB )->xStateListItem ) );
 239:../../kernel/FreeRTOS/Source/tasks.c **** 	tracePOST_MOVED_TASK_TO_READY_STATE( pxTCB )
 240:../../kernel/FreeRTOS/Source/tasks.c **** /*-----------------------------------------------------------*/
 241:../../kernel/FreeRTOS/Source/tasks.c **** 
 242:../../kernel/FreeRTOS/Source/tasks.c **** /*
 243:../../kernel/FreeRTOS/Source/tasks.c ****  * Several functions take an TaskHandle_t parameter that can optionally be NULL,
 244:../../kernel/FreeRTOS/Source/tasks.c ****  * where NULL is used to indicate that the handle of the currently executing
 245:../../kernel/FreeRTOS/Source/tasks.c ****  * task should be used in place of the parameter.  This macro simply checks to
 246:../../kernel/FreeRTOS/Source/tasks.c ****  * see if the parameter is NULL and returns a pointer to the appropriate TCB.
 247:../../kernel/FreeRTOS/Source/tasks.c ****  */
 248:../../kernel/FreeRTOS/Source/tasks.c **** #define prvGetTCBFromHandle( pxHandle ) ( ( ( pxHandle ) == NULL ) ? ( TCB_t * ) pxCurrentTCB : ( T
 249:../../kernel/FreeRTOS/Source/tasks.c **** 
 250:../../kernel/FreeRTOS/Source/tasks.c **** /* The item value of the event list item is normally used to hold the priority
 251:../../kernel/FreeRTOS/Source/tasks.c **** of the task to which it belongs (coded to allow it to be held in reverse
 252:../../kernel/FreeRTOS/Source/tasks.c **** priority order).  However, it is occasionally borrowed for other purposes.  It
 253:../../kernel/FreeRTOS/Source/tasks.c **** is important its value is not updated due to a task priority change while it is
 254:../../kernel/FreeRTOS/Source/tasks.c **** being used for another purpose.  The following bit definition is used to inform
 255:../../kernel/FreeRTOS/Source/tasks.c **** the scheduler that the value should not be changed - in which case it is the
 256:../../kernel/FreeRTOS/Source/tasks.c **** responsibility of whichever module is using the value to ensure it gets set back
 257:../../kernel/FreeRTOS/Source/tasks.c **** to its original value when it is released. */
 258:../../kernel/FreeRTOS/Source/tasks.c **** #if( configUSE_16_BIT_TICKS == 1 )
 259:../../kernel/FreeRTOS/Source/tasks.c **** 	#define taskEVENT_LIST_ITEM_VALUE_IN_USE	0x8000U
 260:../../kernel/FreeRTOS/Source/tasks.c **** #else
 261:../../kernel/FreeRTOS/Source/tasks.c **** 	#define taskEVENT_LIST_ITEM_VALUE_IN_USE	0x80000000UL
 262:../../kernel/FreeRTOS/Source/tasks.c **** #endif
 263:../../kernel/FreeRTOS/Source/tasks.c **** 
 264:../../kernel/FreeRTOS/Source/tasks.c **** /*
 265:../../kernel/FreeRTOS/Source/tasks.c ****  * Task control block.  A task control block (TCB) is allocated for each task,
 266:../../kernel/FreeRTOS/Source/tasks.c ****  * and stores task state information, including a pointer to the task's context
 267:../../kernel/FreeRTOS/Source/tasks.c ****  * (the task's run time environment, including register values)
 268:../../kernel/FreeRTOS/Source/tasks.c ****  */
 269:../../kernel/FreeRTOS/Source/tasks.c **** typedef struct tskTaskControlBlock
 270:../../kernel/FreeRTOS/Source/tasks.c **** {
 271:../../kernel/FreeRTOS/Source/tasks.c **** 	volatile StackType_t	*pxTopOfStack;	/*< Points to the location of the last item placed on the task
 272:../../kernel/FreeRTOS/Source/tasks.c **** 
 273:../../kernel/FreeRTOS/Source/tasks.c **** 	#if ( portUSING_MPU_WRAPPERS == 1 )
 274:../../kernel/FreeRTOS/Source/tasks.c **** 		xMPU_SETTINGS	xMPUSettings;		/*< The MPU settings are defined as part of the port layer.  THIS MU
 275:../../kernel/FreeRTOS/Source/tasks.c **** 	#endif
 276:../../kernel/FreeRTOS/Source/tasks.c **** 
 277:../../kernel/FreeRTOS/Source/tasks.c **** 	ListItem_t			xStateListItem;	/*< The list that the state list item of a task is reference from den
 278:../../kernel/FreeRTOS/Source/tasks.c **** 	ListItem_t			xEventListItem;		/*< Used to reference a task from an event list. */
 279:../../kernel/FreeRTOS/Source/tasks.c **** 	UBaseType_t			uxPriority;			/*< The priority of the task.  0 is the lowest priority. */
 280:../../kernel/FreeRTOS/Source/tasks.c **** 	StackType_t			*pxStack;			/*< Points to the start of the stack. */
 281:../../kernel/FreeRTOS/Source/tasks.c **** 	char				pcTaskName[ configMAX_TASK_NAME_LEN ];/*< Descriptive name given to the task when created.
 282:../../kernel/FreeRTOS/Source/tasks.c **** 
 283:../../kernel/FreeRTOS/Source/tasks.c **** 	#if ( ( portSTACK_GROWTH > 0 ) || ( configRECORD_STACK_HIGH_ADDRESS == 1 ) )
 284:../../kernel/FreeRTOS/Source/tasks.c **** 		StackType_t		*pxEndOfStack;		/*< Points to the highest valid address for the stack. */
 285:../../kernel/FreeRTOS/Source/tasks.c **** 	#endif
 286:../../kernel/FreeRTOS/Source/tasks.c **** 
 287:../../kernel/FreeRTOS/Source/tasks.c **** 	#if ( portCRITICAL_NESTING_IN_TCB == 1 )
 288:../../kernel/FreeRTOS/Source/tasks.c **** 		UBaseType_t		uxCriticalNesting;	/*< Holds the critical section nesting depth for ports that do no
 289:../../kernel/FreeRTOS/Source/tasks.c **** 	#endif
ARM GAS  /tmp/ccIvB74u.s 			page 8


 290:../../kernel/FreeRTOS/Source/tasks.c **** 
 291:../../kernel/FreeRTOS/Source/tasks.c **** 	#if ( configUSE_TRACE_FACILITY == 1 )
 292:../../kernel/FreeRTOS/Source/tasks.c **** 		UBaseType_t		uxTCBNumber;		/*< Stores a number that increments each time a TCB is created.  It al
 293:../../kernel/FreeRTOS/Source/tasks.c **** 		UBaseType_t		uxTaskNumber;		/*< Stores a number specifically for use by third party trace code. *
 294:../../kernel/FreeRTOS/Source/tasks.c **** 	#endif
 295:../../kernel/FreeRTOS/Source/tasks.c **** 
 296:../../kernel/FreeRTOS/Source/tasks.c **** 	#if ( configUSE_MUTEXES == 1 )
 297:../../kernel/FreeRTOS/Source/tasks.c **** 		UBaseType_t		uxBasePriority;		/*< The priority last assigned to the task - used by the priority i
 298:../../kernel/FreeRTOS/Source/tasks.c **** 		UBaseType_t		uxMutexesHeld;
 299:../../kernel/FreeRTOS/Source/tasks.c **** 	#endif
 300:../../kernel/FreeRTOS/Source/tasks.c **** 
 301:../../kernel/FreeRTOS/Source/tasks.c **** 	#if ( configUSE_APPLICATION_TASK_TAG == 1 )
 302:../../kernel/FreeRTOS/Source/tasks.c **** 		TaskHookFunction_t pxTaskTag;
 303:../../kernel/FreeRTOS/Source/tasks.c **** 	#endif
 304:../../kernel/FreeRTOS/Source/tasks.c **** 
 305:../../kernel/FreeRTOS/Source/tasks.c **** 	#if( configNUM_THREAD_LOCAL_STORAGE_POINTERS > 0 )
 306:../../kernel/FreeRTOS/Source/tasks.c **** 		void			*pvThreadLocalStoragePointers[ configNUM_THREAD_LOCAL_STORAGE_POINTERS ];
 307:../../kernel/FreeRTOS/Source/tasks.c **** 	#endif
 308:../../kernel/FreeRTOS/Source/tasks.c **** 
 309:../../kernel/FreeRTOS/Source/tasks.c **** 	#if( configGENERATE_RUN_TIME_STATS == 1 )
 310:../../kernel/FreeRTOS/Source/tasks.c **** 		uint32_t		ulRunTimeCounter;	/*< Stores the amount of time the task has spent in the Running state
 311:../../kernel/FreeRTOS/Source/tasks.c **** 	#endif
 312:../../kernel/FreeRTOS/Source/tasks.c **** 
 313:../../kernel/FreeRTOS/Source/tasks.c **** 	#if ( configUSE_NEWLIB_REENTRANT == 1 )
 314:../../kernel/FreeRTOS/Source/tasks.c **** 		/* Allocate a Newlib reent structure that is specific to this task.
 315:../../kernel/FreeRTOS/Source/tasks.c **** 		Note Newlib support has been included by popular demand, but is not
 316:../../kernel/FreeRTOS/Source/tasks.c **** 		used by the FreeRTOS maintainers themselves.  FreeRTOS is not
 317:../../kernel/FreeRTOS/Source/tasks.c **** 		responsible for resulting newlib operation.  User must be familiar with
 318:../../kernel/FreeRTOS/Source/tasks.c **** 		newlib and must provide system-wide implementations of the necessary
 319:../../kernel/FreeRTOS/Source/tasks.c **** 		stubs. Be warned that (at the time of writing) the current newlib design
 320:../../kernel/FreeRTOS/Source/tasks.c **** 		implements a system-wide malloc() that must be provided with locks. */
 321:../../kernel/FreeRTOS/Source/tasks.c **** 		struct	_reent xNewLib_reent;
 322:../../kernel/FreeRTOS/Source/tasks.c **** 	#endif
 323:../../kernel/FreeRTOS/Source/tasks.c **** 
 324:../../kernel/FreeRTOS/Source/tasks.c **** 	#if( configUSE_TASK_NOTIFICATIONS == 1 )
 325:../../kernel/FreeRTOS/Source/tasks.c **** 		volatile uint32_t ulNotifiedValue;
 326:../../kernel/FreeRTOS/Source/tasks.c **** 		volatile uint8_t ucNotifyState;
 327:../../kernel/FreeRTOS/Source/tasks.c **** 	#endif
 328:../../kernel/FreeRTOS/Source/tasks.c **** 
 329:../../kernel/FreeRTOS/Source/tasks.c **** 	/* See the comments above the definition of
 330:../../kernel/FreeRTOS/Source/tasks.c **** 	tskSTATIC_AND_DYNAMIC_ALLOCATION_POSSIBLE. */
 331:../../kernel/FreeRTOS/Source/tasks.c **** 	#if( tskSTATIC_AND_DYNAMIC_ALLOCATION_POSSIBLE != 0 ) /*lint !e731 Macro has been consolidated for
 332:../../kernel/FreeRTOS/Source/tasks.c **** 		uint8_t	ucStaticallyAllocated; 		/*< Set to pdTRUE if the task is a statically allocated to ensur
 333:../../kernel/FreeRTOS/Source/tasks.c **** 	#endif
 334:../../kernel/FreeRTOS/Source/tasks.c **** 
 335:../../kernel/FreeRTOS/Source/tasks.c **** 	#if( INCLUDE_xTaskAbortDelay == 1 )
 336:../../kernel/FreeRTOS/Source/tasks.c **** 		uint8_t ucDelayAborted;
 337:../../kernel/FreeRTOS/Source/tasks.c **** 	#endif
 338:../../kernel/FreeRTOS/Source/tasks.c **** 
 339:../../kernel/FreeRTOS/Source/tasks.c **** } tskTCB;
 340:../../kernel/FreeRTOS/Source/tasks.c **** 
 341:../../kernel/FreeRTOS/Source/tasks.c **** /* The old tskTCB name is maintained above then typedefed to the new TCB_t name
 342:../../kernel/FreeRTOS/Source/tasks.c **** below to enable the use of older kernel aware debuggers. */
 343:../../kernel/FreeRTOS/Source/tasks.c **** typedef tskTCB TCB_t;
 344:../../kernel/FreeRTOS/Source/tasks.c **** 
 345:../../kernel/FreeRTOS/Source/tasks.c **** /*lint -save -e956 A manual analysis and inspection has been used to determine
 346:../../kernel/FreeRTOS/Source/tasks.c **** which static variables must be declared volatile. */
ARM GAS  /tmp/ccIvB74u.s 			page 9


 347:../../kernel/FreeRTOS/Source/tasks.c **** 
 348:../../kernel/FreeRTOS/Source/tasks.c **** PRIVILEGED_DATA TCB_t * volatile pxCurrentTCB = NULL;
 349:../../kernel/FreeRTOS/Source/tasks.c **** 
 350:../../kernel/FreeRTOS/Source/tasks.c **** /* Lists for ready and blocked tasks. --------------------*/
 351:../../kernel/FreeRTOS/Source/tasks.c **** PRIVILEGED_DATA static List_t pxReadyTasksLists[ configMAX_PRIORITIES ];/*< Prioritised ready tasks
 352:../../kernel/FreeRTOS/Source/tasks.c **** PRIVILEGED_DATA static List_t xDelayedTaskList1;						/*< Delayed tasks. */
 353:../../kernel/FreeRTOS/Source/tasks.c **** PRIVILEGED_DATA static List_t xDelayedTaskList2;						/*< Delayed tasks (two lists are used - one f
 354:../../kernel/FreeRTOS/Source/tasks.c **** PRIVILEGED_DATA static List_t * volatile pxDelayedTaskList;				/*< Points to the delayed task list 
 355:../../kernel/FreeRTOS/Source/tasks.c **** PRIVILEGED_DATA static List_t * volatile pxOverflowDelayedTaskList;		/*< Points to the delayed task
 356:../../kernel/FreeRTOS/Source/tasks.c **** PRIVILEGED_DATA static List_t xPendingReadyList;						/*< Tasks that have been readied while the sc
 357:../../kernel/FreeRTOS/Source/tasks.c **** 
 358:../../kernel/FreeRTOS/Source/tasks.c **** #if( INCLUDE_vTaskDelete == 1 )
 359:../../kernel/FreeRTOS/Source/tasks.c **** 
 360:../../kernel/FreeRTOS/Source/tasks.c **** 	PRIVILEGED_DATA static List_t xTasksWaitingTermination;				/*< Tasks that have been deleted - but 
 361:../../kernel/FreeRTOS/Source/tasks.c **** 	PRIVILEGED_DATA static volatile UBaseType_t uxDeletedTasksWaitingCleanUp = ( UBaseType_t ) 0U;
 362:../../kernel/FreeRTOS/Source/tasks.c **** 
 363:../../kernel/FreeRTOS/Source/tasks.c **** #endif
 364:../../kernel/FreeRTOS/Source/tasks.c **** 
 365:../../kernel/FreeRTOS/Source/tasks.c **** #if ( INCLUDE_vTaskSuspend == 1 )
 366:../../kernel/FreeRTOS/Source/tasks.c **** 
 367:../../kernel/FreeRTOS/Source/tasks.c **** 	PRIVILEGED_DATA static List_t xSuspendedTaskList;					/*< Tasks that are currently suspended. */
 368:../../kernel/FreeRTOS/Source/tasks.c **** 
 369:../../kernel/FreeRTOS/Source/tasks.c **** #endif
 370:../../kernel/FreeRTOS/Source/tasks.c **** 
 371:../../kernel/FreeRTOS/Source/tasks.c **** /* Other file private variables. --------------------------------*/
 372:../../kernel/FreeRTOS/Source/tasks.c **** PRIVILEGED_DATA static volatile UBaseType_t uxCurrentNumberOfTasks 	= ( UBaseType_t ) 0U;
 373:../../kernel/FreeRTOS/Source/tasks.c **** PRIVILEGED_DATA static volatile TickType_t xTickCount 				= ( TickType_t ) configINITIAL_TICK_COUNT
 374:../../kernel/FreeRTOS/Source/tasks.c **** PRIVILEGED_DATA static volatile UBaseType_t uxTopReadyPriority 		= tskIDLE_PRIORITY;
 375:../../kernel/FreeRTOS/Source/tasks.c **** PRIVILEGED_DATA static volatile BaseType_t xSchedulerRunning 		= pdFALSE;
 376:../../kernel/FreeRTOS/Source/tasks.c **** PRIVILEGED_DATA static volatile UBaseType_t uxPendedTicks 			= ( UBaseType_t ) 0U;
 377:../../kernel/FreeRTOS/Source/tasks.c **** PRIVILEGED_DATA static volatile BaseType_t xYieldPending 			= pdFALSE;
 378:../../kernel/FreeRTOS/Source/tasks.c **** PRIVILEGED_DATA static volatile BaseType_t xNumOfOverflows 			= ( BaseType_t ) 0;
 379:../../kernel/FreeRTOS/Source/tasks.c **** PRIVILEGED_DATA static UBaseType_t uxTaskNumber 					= ( UBaseType_t ) 0U;
 380:../../kernel/FreeRTOS/Source/tasks.c **** PRIVILEGED_DATA static volatile TickType_t xNextTaskUnblockTime		= ( TickType_t ) 0U; /* Initialise
 381:../../kernel/FreeRTOS/Source/tasks.c **** PRIVILEGED_DATA static TaskHandle_t xIdleTaskHandle					= NULL;			/*< Holds the handle of the idle 
 382:../../kernel/FreeRTOS/Source/tasks.c **** 
 383:../../kernel/FreeRTOS/Source/tasks.c **** /* Context switches are held pending while the scheduler is suspended.  Also,
 384:../../kernel/FreeRTOS/Source/tasks.c **** interrupts must not manipulate the xStateListItem of a TCB, or any of the
 385:../../kernel/FreeRTOS/Source/tasks.c **** lists the xStateListItem can be referenced from, if the scheduler is suspended.
 386:../../kernel/FreeRTOS/Source/tasks.c **** If an interrupt needs to unblock a task while the scheduler is suspended then it
 387:../../kernel/FreeRTOS/Source/tasks.c **** moves the task's event list item into the xPendingReadyList, ready for the
 388:../../kernel/FreeRTOS/Source/tasks.c **** kernel to move the task from the pending ready list into the real ready list
 389:../../kernel/FreeRTOS/Source/tasks.c **** when the scheduler is unsuspended.  The pending ready list itself can only be
 390:../../kernel/FreeRTOS/Source/tasks.c **** accessed from a critical section. */
 391:../../kernel/FreeRTOS/Source/tasks.c **** PRIVILEGED_DATA static volatile UBaseType_t uxSchedulerSuspended	= ( UBaseType_t ) pdFALSE;
 392:../../kernel/FreeRTOS/Source/tasks.c **** 
 393:../../kernel/FreeRTOS/Source/tasks.c **** #if ( configGENERATE_RUN_TIME_STATS == 1 )
 394:../../kernel/FreeRTOS/Source/tasks.c **** 
 395:../../kernel/FreeRTOS/Source/tasks.c **** 	PRIVILEGED_DATA static uint32_t ulTaskSwitchedInTime = 0UL;	/*< Holds the value of a timer/counter
 396:../../kernel/FreeRTOS/Source/tasks.c **** 	PRIVILEGED_DATA static uint32_t ulTotalRunTime = 0UL;		/*< Holds the total amount of execution tim
 397:../../kernel/FreeRTOS/Source/tasks.c **** 
 398:../../kernel/FreeRTOS/Source/tasks.c **** #endif
 399:../../kernel/FreeRTOS/Source/tasks.c **** 
 400:../../kernel/FreeRTOS/Source/tasks.c **** /*lint -restore */
 401:../../kernel/FreeRTOS/Source/tasks.c **** 
 402:../../kernel/FreeRTOS/Source/tasks.c **** /*-----------------------------------------------------------*/
 403:../../kernel/FreeRTOS/Source/tasks.c **** 
ARM GAS  /tmp/ccIvB74u.s 			page 10


 404:../../kernel/FreeRTOS/Source/tasks.c **** /* Callback function prototypes. --------------------------*/
 405:../../kernel/FreeRTOS/Source/tasks.c **** #if(  configCHECK_FOR_STACK_OVERFLOW > 0 )
 406:../../kernel/FreeRTOS/Source/tasks.c **** 
 407:../../kernel/FreeRTOS/Source/tasks.c **** 	extern void vApplicationStackOverflowHook( TaskHandle_t xTask, char *pcTaskName );
 408:../../kernel/FreeRTOS/Source/tasks.c **** 
 409:../../kernel/FreeRTOS/Source/tasks.c **** #endif
 410:../../kernel/FreeRTOS/Source/tasks.c **** 
 411:../../kernel/FreeRTOS/Source/tasks.c **** #if( configUSE_TICK_HOOK > 0 )
 412:../../kernel/FreeRTOS/Source/tasks.c **** 
 413:../../kernel/FreeRTOS/Source/tasks.c **** 	extern void vApplicationTickHook( void );
 414:../../kernel/FreeRTOS/Source/tasks.c **** 
 415:../../kernel/FreeRTOS/Source/tasks.c **** #endif
 416:../../kernel/FreeRTOS/Source/tasks.c **** 
 417:../../kernel/FreeRTOS/Source/tasks.c **** #if( configSUPPORT_STATIC_ALLOCATION == 1 )
 418:../../kernel/FreeRTOS/Source/tasks.c **** 
 419:../../kernel/FreeRTOS/Source/tasks.c **** 	extern void vApplicationGetIdleTaskMemory( StaticTask_t **ppxIdleTaskTCBBuffer, StackType_t **ppxI
 420:../../kernel/FreeRTOS/Source/tasks.c **** 
 421:../../kernel/FreeRTOS/Source/tasks.c **** #endif
 422:../../kernel/FreeRTOS/Source/tasks.c **** 
 423:../../kernel/FreeRTOS/Source/tasks.c **** /* File private functions. --------------------------------*/
 424:../../kernel/FreeRTOS/Source/tasks.c **** 
 425:../../kernel/FreeRTOS/Source/tasks.c **** /**
 426:../../kernel/FreeRTOS/Source/tasks.c ****  * Utility task that simply returns pdTRUE if the task referenced by xTask is
 427:../../kernel/FreeRTOS/Source/tasks.c ****  * currently in the Suspended state, or pdFALSE if the task referenced by xTask
 428:../../kernel/FreeRTOS/Source/tasks.c ****  * is in any other state.
 429:../../kernel/FreeRTOS/Source/tasks.c ****  */
 430:../../kernel/FreeRTOS/Source/tasks.c **** #if ( INCLUDE_vTaskSuspend == 1 )
 431:../../kernel/FreeRTOS/Source/tasks.c **** 
 432:../../kernel/FreeRTOS/Source/tasks.c **** 	static BaseType_t prvTaskIsTaskSuspended( const TaskHandle_t xTask ) PRIVILEGED_FUNCTION;
 433:../../kernel/FreeRTOS/Source/tasks.c **** 
 434:../../kernel/FreeRTOS/Source/tasks.c **** #endif /* INCLUDE_vTaskSuspend */
 435:../../kernel/FreeRTOS/Source/tasks.c **** 
 436:../../kernel/FreeRTOS/Source/tasks.c **** /*
 437:../../kernel/FreeRTOS/Source/tasks.c ****  * Utility to ready all the lists used by the scheduler.  This is called
 438:../../kernel/FreeRTOS/Source/tasks.c ****  * automatically upon the creation of the first task.
 439:../../kernel/FreeRTOS/Source/tasks.c ****  */
 440:../../kernel/FreeRTOS/Source/tasks.c **** static void prvInitialiseTaskLists( void ) PRIVILEGED_FUNCTION;
 441:../../kernel/FreeRTOS/Source/tasks.c **** 
 442:../../kernel/FreeRTOS/Source/tasks.c **** /*
 443:../../kernel/FreeRTOS/Source/tasks.c ****  * The idle task, which as all tasks is implemented as a never ending loop.
 444:../../kernel/FreeRTOS/Source/tasks.c ****  * The idle task is automatically created and added to the ready lists upon
 445:../../kernel/FreeRTOS/Source/tasks.c ****  * creation of the first user task.
 446:../../kernel/FreeRTOS/Source/tasks.c ****  *
 447:../../kernel/FreeRTOS/Source/tasks.c ****  * The portTASK_FUNCTION_PROTO() macro is used to allow port/compiler specific
 448:../../kernel/FreeRTOS/Source/tasks.c ****  * language extensions.  The equivalent prototype for this function is:
 449:../../kernel/FreeRTOS/Source/tasks.c ****  *
 450:../../kernel/FreeRTOS/Source/tasks.c ****  * void prvIdleTask( void *pvParameters );
 451:../../kernel/FreeRTOS/Source/tasks.c ****  *
 452:../../kernel/FreeRTOS/Source/tasks.c ****  */
 453:../../kernel/FreeRTOS/Source/tasks.c **** static portTASK_FUNCTION_PROTO( prvIdleTask, pvParameters );
 454:../../kernel/FreeRTOS/Source/tasks.c **** 
 455:../../kernel/FreeRTOS/Source/tasks.c **** /*
 456:../../kernel/FreeRTOS/Source/tasks.c ****  * Utility to free all memory allocated by the scheduler to hold a TCB,
 457:../../kernel/FreeRTOS/Source/tasks.c ****  * including the stack pointed to by the TCB.
 458:../../kernel/FreeRTOS/Source/tasks.c ****  *
 459:../../kernel/FreeRTOS/Source/tasks.c ****  * This does not free memory allocated by the task itself (i.e. memory
 460:../../kernel/FreeRTOS/Source/tasks.c ****  * allocated by calls to pvPortMalloc from within the tasks application code).
ARM GAS  /tmp/ccIvB74u.s 			page 11


 461:../../kernel/FreeRTOS/Source/tasks.c ****  */
 462:../../kernel/FreeRTOS/Source/tasks.c **** #if ( INCLUDE_vTaskDelete == 1 )
 463:../../kernel/FreeRTOS/Source/tasks.c **** 
 464:../../kernel/FreeRTOS/Source/tasks.c **** 	static void prvDeleteTCB( TCB_t *pxTCB ) PRIVILEGED_FUNCTION;
 465:../../kernel/FreeRTOS/Source/tasks.c **** 
 466:../../kernel/FreeRTOS/Source/tasks.c **** #endif
 467:../../kernel/FreeRTOS/Source/tasks.c **** 
 468:../../kernel/FreeRTOS/Source/tasks.c **** /*
 469:../../kernel/FreeRTOS/Source/tasks.c ****  * Used only by the idle task.  This checks to see if anything has been placed
 470:../../kernel/FreeRTOS/Source/tasks.c ****  * in the list of tasks waiting to be deleted.  If so the task is cleaned up
 471:../../kernel/FreeRTOS/Source/tasks.c ****  * and its TCB deleted.
 472:../../kernel/FreeRTOS/Source/tasks.c ****  */
 473:../../kernel/FreeRTOS/Source/tasks.c **** static void prvCheckTasksWaitingTermination( void ) PRIVILEGED_FUNCTION;
 474:../../kernel/FreeRTOS/Source/tasks.c **** 
 475:../../kernel/FreeRTOS/Source/tasks.c **** /*
 476:../../kernel/FreeRTOS/Source/tasks.c ****  * The currently executing task is entering the Blocked state.  Add the task to
 477:../../kernel/FreeRTOS/Source/tasks.c ****  * either the current or the overflow delayed task list.
 478:../../kernel/FreeRTOS/Source/tasks.c ****  */
 479:../../kernel/FreeRTOS/Source/tasks.c **** static void prvAddCurrentTaskToDelayedList( TickType_t xTicksToWait, const BaseType_t xCanBlockInde
 480:../../kernel/FreeRTOS/Source/tasks.c **** 
 481:../../kernel/FreeRTOS/Source/tasks.c **** /*
 482:../../kernel/FreeRTOS/Source/tasks.c ****  * Fills an TaskStatus_t structure with information on each task that is
 483:../../kernel/FreeRTOS/Source/tasks.c ****  * referenced from the pxList list (which may be a ready list, a delayed list,
 484:../../kernel/FreeRTOS/Source/tasks.c ****  * a suspended list, etc.).
 485:../../kernel/FreeRTOS/Source/tasks.c ****  *
 486:../../kernel/FreeRTOS/Source/tasks.c ****  * THIS FUNCTION IS INTENDED FOR DEBUGGING ONLY, AND SHOULD NOT BE CALLED FROM
 487:../../kernel/FreeRTOS/Source/tasks.c ****  * NORMAL APPLICATION CODE.
 488:../../kernel/FreeRTOS/Source/tasks.c ****  */
 489:../../kernel/FreeRTOS/Source/tasks.c **** #if ( configUSE_TRACE_FACILITY == 1 )
 490:../../kernel/FreeRTOS/Source/tasks.c **** 
 491:../../kernel/FreeRTOS/Source/tasks.c **** 	static UBaseType_t prvListTasksWithinSingleList( TaskStatus_t *pxTaskStatusArray, List_t *pxList, 
 492:../../kernel/FreeRTOS/Source/tasks.c **** 
 493:../../kernel/FreeRTOS/Source/tasks.c **** #endif
 494:../../kernel/FreeRTOS/Source/tasks.c **** 
 495:../../kernel/FreeRTOS/Source/tasks.c **** /*
 496:../../kernel/FreeRTOS/Source/tasks.c ****  * Searches pxList for a task with name pcNameToQuery - returning a handle to
 497:../../kernel/FreeRTOS/Source/tasks.c ****  * the task if it is found, or NULL if the task is not found.
 498:../../kernel/FreeRTOS/Source/tasks.c ****  */
 499:../../kernel/FreeRTOS/Source/tasks.c **** #if ( INCLUDE_xTaskGetHandle == 1 )
 500:../../kernel/FreeRTOS/Source/tasks.c **** 
 501:../../kernel/FreeRTOS/Source/tasks.c **** 	static TCB_t *prvSearchForNameWithinSingleList( List_t *pxList, const char pcNameToQuery[] ) PRIVI
 502:../../kernel/FreeRTOS/Source/tasks.c **** 
 503:../../kernel/FreeRTOS/Source/tasks.c **** #endif
 504:../../kernel/FreeRTOS/Source/tasks.c **** 
 505:../../kernel/FreeRTOS/Source/tasks.c **** /*
 506:../../kernel/FreeRTOS/Source/tasks.c ****  * When a task is created, the stack of the task is filled with a known value.
 507:../../kernel/FreeRTOS/Source/tasks.c ****  * This function determines the 'high water mark' of the task stack by
 508:../../kernel/FreeRTOS/Source/tasks.c ****  * determining how much of the stack remains at the original preset value.
 509:../../kernel/FreeRTOS/Source/tasks.c ****  */
 510:../../kernel/FreeRTOS/Source/tasks.c **** #if ( ( configUSE_TRACE_FACILITY == 1 ) || ( INCLUDE_uxTaskGetStackHighWaterMark == 1 ) )
 511:../../kernel/FreeRTOS/Source/tasks.c **** 
 512:../../kernel/FreeRTOS/Source/tasks.c **** 	static uint16_t prvTaskCheckFreeStackSpace( const uint8_t * pucStackByte ) PRIVILEGED_FUNCTION;
 513:../../kernel/FreeRTOS/Source/tasks.c **** 
 514:../../kernel/FreeRTOS/Source/tasks.c **** #endif
 515:../../kernel/FreeRTOS/Source/tasks.c **** 
 516:../../kernel/FreeRTOS/Source/tasks.c **** /*
 517:../../kernel/FreeRTOS/Source/tasks.c ****  * Return the amount of time, in ticks, that will pass before the kernel will
ARM GAS  /tmp/ccIvB74u.s 			page 12


 518:../../kernel/FreeRTOS/Source/tasks.c ****  * next move a task from the Blocked state to the Running state.
 519:../../kernel/FreeRTOS/Source/tasks.c ****  *
 520:../../kernel/FreeRTOS/Source/tasks.c ****  * This conditional compilation should use inequality to 0, not equality to 1.
 521:../../kernel/FreeRTOS/Source/tasks.c ****  * This is to ensure portSUPPRESS_TICKS_AND_SLEEP() can be called when user
 522:../../kernel/FreeRTOS/Source/tasks.c ****  * defined low power mode implementations require configUSE_TICKLESS_IDLE to be
 523:../../kernel/FreeRTOS/Source/tasks.c ****  * set to a value other than 1.
 524:../../kernel/FreeRTOS/Source/tasks.c ****  */
 525:../../kernel/FreeRTOS/Source/tasks.c **** #if ( configUSE_TICKLESS_IDLE != 0 )
 526:../../kernel/FreeRTOS/Source/tasks.c **** 
 527:../../kernel/FreeRTOS/Source/tasks.c **** 	static TickType_t prvGetExpectedIdleTime( void ) PRIVILEGED_FUNCTION;
 528:../../kernel/FreeRTOS/Source/tasks.c **** 
 529:../../kernel/FreeRTOS/Source/tasks.c **** #endif
 530:../../kernel/FreeRTOS/Source/tasks.c **** 
 531:../../kernel/FreeRTOS/Source/tasks.c **** /*
 532:../../kernel/FreeRTOS/Source/tasks.c ****  * Set xNextTaskUnblockTime to the time at which the next Blocked state task
 533:../../kernel/FreeRTOS/Source/tasks.c ****  * will exit the Blocked state.
 534:../../kernel/FreeRTOS/Source/tasks.c ****  */
 535:../../kernel/FreeRTOS/Source/tasks.c **** static void prvResetNextTaskUnblockTime( void );
 536:../../kernel/FreeRTOS/Source/tasks.c **** 
 537:../../kernel/FreeRTOS/Source/tasks.c **** #if ( ( configUSE_TRACE_FACILITY == 1 ) && ( configUSE_STATS_FORMATTING_FUNCTIONS > 0 ) )
 538:../../kernel/FreeRTOS/Source/tasks.c **** 
 539:../../kernel/FreeRTOS/Source/tasks.c **** 	/*
 540:../../kernel/FreeRTOS/Source/tasks.c **** 	 * Helper function used to pad task names with spaces when printing out
 541:../../kernel/FreeRTOS/Source/tasks.c **** 	 * human readable tables of task information.
 542:../../kernel/FreeRTOS/Source/tasks.c **** 	 */
 543:../../kernel/FreeRTOS/Source/tasks.c **** 	static char *prvWriteNameToBuffer( char *pcBuffer, const char *pcTaskName ) PRIVILEGED_FUNCTION;
 544:../../kernel/FreeRTOS/Source/tasks.c **** 
 545:../../kernel/FreeRTOS/Source/tasks.c **** #endif
 546:../../kernel/FreeRTOS/Source/tasks.c **** 
 547:../../kernel/FreeRTOS/Source/tasks.c **** /*
 548:../../kernel/FreeRTOS/Source/tasks.c ****  * Called after a Task_t structure has been allocated either statically or
 549:../../kernel/FreeRTOS/Source/tasks.c ****  * dynamically to fill in the structure's members.
 550:../../kernel/FreeRTOS/Source/tasks.c ****  */
 551:../../kernel/FreeRTOS/Source/tasks.c **** static void prvInitialiseNewTask( 	TaskFunction_t pxTaskCode,
 552:../../kernel/FreeRTOS/Source/tasks.c **** 									const char * const pcName, 		/*lint !e971 Unqualified char types are allowed for strings a
 553:../../kernel/FreeRTOS/Source/tasks.c **** 									const uint32_t ulStackDepth,
 554:../../kernel/FreeRTOS/Source/tasks.c **** 									void * const pvParameters,
 555:../../kernel/FreeRTOS/Source/tasks.c **** 									UBaseType_t uxPriority,
 556:../../kernel/FreeRTOS/Source/tasks.c **** 									TaskHandle_t * const pxCreatedTask,
 557:../../kernel/FreeRTOS/Source/tasks.c **** 									TCB_t *pxNewTCB,
 558:../../kernel/FreeRTOS/Source/tasks.c **** 									const MemoryRegion_t * const xRegions ) PRIVILEGED_FUNCTION;
 559:../../kernel/FreeRTOS/Source/tasks.c **** 
 560:../../kernel/FreeRTOS/Source/tasks.c **** /*
 561:../../kernel/FreeRTOS/Source/tasks.c ****  * Called after a new task has been created and initialised to place the task
 562:../../kernel/FreeRTOS/Source/tasks.c ****  * under the control of the scheduler.
 563:../../kernel/FreeRTOS/Source/tasks.c ****  */
 564:../../kernel/FreeRTOS/Source/tasks.c **** static void prvAddNewTaskToReadyList( TCB_t *pxNewTCB ) PRIVILEGED_FUNCTION;
 565:../../kernel/FreeRTOS/Source/tasks.c **** 
 566:../../kernel/FreeRTOS/Source/tasks.c **** /*
 567:../../kernel/FreeRTOS/Source/tasks.c ****  * freertos_tasks_c_additions_init() should only be called if the user definable
 568:../../kernel/FreeRTOS/Source/tasks.c ****  * macro FREERTOS_TASKS_C_ADDITIONS_INIT() is defined, as that is the only macro
 569:../../kernel/FreeRTOS/Source/tasks.c ****  * called by the function.
 570:../../kernel/FreeRTOS/Source/tasks.c ****  */
 571:../../kernel/FreeRTOS/Source/tasks.c **** #ifdef FREERTOS_TASKS_C_ADDITIONS_INIT
 572:../../kernel/FreeRTOS/Source/tasks.c **** 
 573:../../kernel/FreeRTOS/Source/tasks.c **** 	static void freertos_tasks_c_additions_init( void ) PRIVILEGED_FUNCTION;
 574:../../kernel/FreeRTOS/Source/tasks.c **** 
ARM GAS  /tmp/ccIvB74u.s 			page 13


 575:../../kernel/FreeRTOS/Source/tasks.c **** #endif
 576:../../kernel/FreeRTOS/Source/tasks.c **** 
 577:../../kernel/FreeRTOS/Source/tasks.c **** /*-----------------------------------------------------------*/
 578:../../kernel/FreeRTOS/Source/tasks.c **** 
 579:../../kernel/FreeRTOS/Source/tasks.c **** #if( configSUPPORT_STATIC_ALLOCATION == 1 )
 580:../../kernel/FreeRTOS/Source/tasks.c **** 
 581:../../kernel/FreeRTOS/Source/tasks.c **** 	TaskHandle_t xTaskCreateStatic(	TaskFunction_t pxTaskCode,
 582:../../kernel/FreeRTOS/Source/tasks.c **** 									const char * const pcName,		/*lint !e971 Unqualified char types are allowed for strings an
 583:../../kernel/FreeRTOS/Source/tasks.c **** 									const uint32_t ulStackDepth,
 584:../../kernel/FreeRTOS/Source/tasks.c **** 									void * const pvParameters,
 585:../../kernel/FreeRTOS/Source/tasks.c **** 									UBaseType_t uxPriority,
 586:../../kernel/FreeRTOS/Source/tasks.c **** 									StackType_t * const puxStackBuffer,
 587:../../kernel/FreeRTOS/Source/tasks.c **** 									StaticTask_t * const pxTaskBuffer )
 588:../../kernel/FreeRTOS/Source/tasks.c **** 	{
 589:../../kernel/FreeRTOS/Source/tasks.c **** 	TCB_t *pxNewTCB;
 590:../../kernel/FreeRTOS/Source/tasks.c **** 	TaskHandle_t xReturn;
 591:../../kernel/FreeRTOS/Source/tasks.c **** 
 592:../../kernel/FreeRTOS/Source/tasks.c **** 		configASSERT( puxStackBuffer != NULL );
 593:../../kernel/FreeRTOS/Source/tasks.c **** 		configASSERT( pxTaskBuffer != NULL );
 594:../../kernel/FreeRTOS/Source/tasks.c **** 
 595:../../kernel/FreeRTOS/Source/tasks.c **** 		#if( configASSERT_DEFINED == 1 )
 596:../../kernel/FreeRTOS/Source/tasks.c **** 		{
 597:../../kernel/FreeRTOS/Source/tasks.c **** 			/* Sanity check that the size of the structure used to declare a
 598:../../kernel/FreeRTOS/Source/tasks.c **** 			variable of type StaticTask_t equals the size of the real task
 599:../../kernel/FreeRTOS/Source/tasks.c **** 			structure. */
 600:../../kernel/FreeRTOS/Source/tasks.c **** 			volatile size_t xSize = sizeof( StaticTask_t );
 601:../../kernel/FreeRTOS/Source/tasks.c **** 			configASSERT( xSize == sizeof( TCB_t ) );
 602:../../kernel/FreeRTOS/Source/tasks.c **** 		}
 603:../../kernel/FreeRTOS/Source/tasks.c **** 		#endif /* configASSERT_DEFINED */
 604:../../kernel/FreeRTOS/Source/tasks.c **** 
 605:../../kernel/FreeRTOS/Source/tasks.c **** 
 606:../../kernel/FreeRTOS/Source/tasks.c **** 		if( ( pxTaskBuffer != NULL ) && ( puxStackBuffer != NULL ) )
 607:../../kernel/FreeRTOS/Source/tasks.c **** 		{
 608:../../kernel/FreeRTOS/Source/tasks.c **** 			/* The memory used for the task's TCB and stack are passed into this
 609:../../kernel/FreeRTOS/Source/tasks.c **** 			function - use them. */
 610:../../kernel/FreeRTOS/Source/tasks.c **** 			pxNewTCB = ( TCB_t * ) pxTaskBuffer; /*lint !e740 Unusual cast is ok as the structures are desig
 611:../../kernel/FreeRTOS/Source/tasks.c **** 			pxNewTCB->pxStack = ( StackType_t * ) puxStackBuffer;
 612:../../kernel/FreeRTOS/Source/tasks.c **** 
 613:../../kernel/FreeRTOS/Source/tasks.c **** 			#if( tskSTATIC_AND_DYNAMIC_ALLOCATION_POSSIBLE != 0 ) /*lint !e731 Macro has been consolidated f
 614:../../kernel/FreeRTOS/Source/tasks.c **** 			{
 615:../../kernel/FreeRTOS/Source/tasks.c **** 				/* Tasks can be created statically or dynamically, so note this
 616:../../kernel/FreeRTOS/Source/tasks.c **** 				task was created statically in case the task is later deleted. */
 617:../../kernel/FreeRTOS/Source/tasks.c **** 				pxNewTCB->ucStaticallyAllocated = tskSTATICALLY_ALLOCATED_STACK_AND_TCB;
 618:../../kernel/FreeRTOS/Source/tasks.c **** 			}
 619:../../kernel/FreeRTOS/Source/tasks.c **** 			#endif /* configSUPPORT_DYNAMIC_ALLOCATION */
 620:../../kernel/FreeRTOS/Source/tasks.c **** 
 621:../../kernel/FreeRTOS/Source/tasks.c **** 			prvInitialiseNewTask( pxTaskCode, pcName, ulStackDepth, pvParameters, uxPriority, &xReturn, pxNe
 622:../../kernel/FreeRTOS/Source/tasks.c **** 			prvAddNewTaskToReadyList( pxNewTCB );
 623:../../kernel/FreeRTOS/Source/tasks.c **** 		}
 624:../../kernel/FreeRTOS/Source/tasks.c **** 		else
 625:../../kernel/FreeRTOS/Source/tasks.c **** 		{
 626:../../kernel/FreeRTOS/Source/tasks.c **** 			xReturn = NULL;
 627:../../kernel/FreeRTOS/Source/tasks.c **** 		}
 628:../../kernel/FreeRTOS/Source/tasks.c **** 
 629:../../kernel/FreeRTOS/Source/tasks.c **** 		return xReturn;
 630:../../kernel/FreeRTOS/Source/tasks.c **** 	}
 631:../../kernel/FreeRTOS/Source/tasks.c **** 
ARM GAS  /tmp/ccIvB74u.s 			page 14


 632:../../kernel/FreeRTOS/Source/tasks.c **** #endif /* SUPPORT_STATIC_ALLOCATION */
 633:../../kernel/FreeRTOS/Source/tasks.c **** /*-----------------------------------------------------------*/
 634:../../kernel/FreeRTOS/Source/tasks.c **** 
 635:../../kernel/FreeRTOS/Source/tasks.c **** #if( ( portUSING_MPU_WRAPPERS == 1 ) && ( configSUPPORT_STATIC_ALLOCATION == 1 ) )
 636:../../kernel/FreeRTOS/Source/tasks.c **** 
 637:../../kernel/FreeRTOS/Source/tasks.c **** 	BaseType_t xTaskCreateRestrictedStatic( const TaskParameters_t * const pxTaskDefinition, TaskHandl
 638:../../kernel/FreeRTOS/Source/tasks.c **** 	{
 639:../../kernel/FreeRTOS/Source/tasks.c **** 	TCB_t *pxNewTCB;
 640:../../kernel/FreeRTOS/Source/tasks.c **** 	BaseType_t xReturn = errCOULD_NOT_ALLOCATE_REQUIRED_MEMORY;
 641:../../kernel/FreeRTOS/Source/tasks.c **** 
 642:../../kernel/FreeRTOS/Source/tasks.c **** 		configASSERT( pxTaskDefinition->puxStackBuffer != NULL );
 643:../../kernel/FreeRTOS/Source/tasks.c **** 		configASSERT( pxTaskDefinition->pxTaskBuffer != NULL );
 644:../../kernel/FreeRTOS/Source/tasks.c **** 
 645:../../kernel/FreeRTOS/Source/tasks.c **** 		if( ( pxTaskDefinition->puxStackBuffer != NULL ) && ( pxTaskDefinition->pxTaskBuffer != NULL ) )
 646:../../kernel/FreeRTOS/Source/tasks.c **** 		{
 647:../../kernel/FreeRTOS/Source/tasks.c **** 			/* Allocate space for the TCB.  Where the memory comes from depends
 648:../../kernel/FreeRTOS/Source/tasks.c **** 			on the implementation of the port malloc function and whether or
 649:../../kernel/FreeRTOS/Source/tasks.c **** 			not static allocation is being used. */
 650:../../kernel/FreeRTOS/Source/tasks.c **** 			pxNewTCB = ( TCB_t * ) pxTaskDefinition->pxTaskBuffer;
 651:../../kernel/FreeRTOS/Source/tasks.c **** 
 652:../../kernel/FreeRTOS/Source/tasks.c **** 			/* Store the stack location in the TCB. */
 653:../../kernel/FreeRTOS/Source/tasks.c **** 			pxNewTCB->pxStack = pxTaskDefinition->puxStackBuffer;
 654:../../kernel/FreeRTOS/Source/tasks.c **** 
 655:../../kernel/FreeRTOS/Source/tasks.c **** 			#if( tskSTATIC_AND_DYNAMIC_ALLOCATION_POSSIBLE != 0 )
 656:../../kernel/FreeRTOS/Source/tasks.c **** 			{
 657:../../kernel/FreeRTOS/Source/tasks.c **** 				/* Tasks can be created statically or dynamically, so note this
 658:../../kernel/FreeRTOS/Source/tasks.c **** 				task was created statically in case the task is later deleted. */
 659:../../kernel/FreeRTOS/Source/tasks.c **** 				pxNewTCB->ucStaticallyAllocated = tskSTATICALLY_ALLOCATED_STACK_AND_TCB;
 660:../../kernel/FreeRTOS/Source/tasks.c **** 			}
 661:../../kernel/FreeRTOS/Source/tasks.c **** 			#endif /* configSUPPORT_DYNAMIC_ALLOCATION */
 662:../../kernel/FreeRTOS/Source/tasks.c **** 
 663:../../kernel/FreeRTOS/Source/tasks.c **** 			prvInitialiseNewTask(	pxTaskDefinition->pvTaskCode,
 664:../../kernel/FreeRTOS/Source/tasks.c **** 									pxTaskDefinition->pcName,
 665:../../kernel/FreeRTOS/Source/tasks.c **** 									( uint32_t ) pxTaskDefinition->usStackDepth,
 666:../../kernel/FreeRTOS/Source/tasks.c **** 									pxTaskDefinition->pvParameters,
 667:../../kernel/FreeRTOS/Source/tasks.c **** 									pxTaskDefinition->uxPriority,
 668:../../kernel/FreeRTOS/Source/tasks.c **** 									pxCreatedTask, pxNewTCB,
 669:../../kernel/FreeRTOS/Source/tasks.c **** 									pxTaskDefinition->xRegions );
 670:../../kernel/FreeRTOS/Source/tasks.c **** 
 671:../../kernel/FreeRTOS/Source/tasks.c **** 			prvAddNewTaskToReadyList( pxNewTCB );
 672:../../kernel/FreeRTOS/Source/tasks.c **** 			xReturn = pdPASS;
 673:../../kernel/FreeRTOS/Source/tasks.c **** 		}
 674:../../kernel/FreeRTOS/Source/tasks.c **** 
 675:../../kernel/FreeRTOS/Source/tasks.c **** 		return xReturn;
 676:../../kernel/FreeRTOS/Source/tasks.c **** 	}
 677:../../kernel/FreeRTOS/Source/tasks.c **** 
 678:../../kernel/FreeRTOS/Source/tasks.c **** #endif /* ( portUSING_MPU_WRAPPERS == 1 ) && ( configSUPPORT_STATIC_ALLOCATION == 1 ) */
 679:../../kernel/FreeRTOS/Source/tasks.c **** /*-----------------------------------------------------------*/
 680:../../kernel/FreeRTOS/Source/tasks.c **** 
 681:../../kernel/FreeRTOS/Source/tasks.c **** #if( ( portUSING_MPU_WRAPPERS == 1 ) && ( configSUPPORT_DYNAMIC_ALLOCATION == 1 ) )
 682:../../kernel/FreeRTOS/Source/tasks.c **** 
 683:../../kernel/FreeRTOS/Source/tasks.c **** 	BaseType_t xTaskCreateRestricted( const TaskParameters_t * const pxTaskDefinition, TaskHandle_t *p
 684:../../kernel/FreeRTOS/Source/tasks.c **** 	{
 685:../../kernel/FreeRTOS/Source/tasks.c **** 	TCB_t *pxNewTCB;
 686:../../kernel/FreeRTOS/Source/tasks.c **** 	BaseType_t xReturn = errCOULD_NOT_ALLOCATE_REQUIRED_MEMORY;
 687:../../kernel/FreeRTOS/Source/tasks.c **** 
 688:../../kernel/FreeRTOS/Source/tasks.c **** 		configASSERT( pxTaskDefinition->puxStackBuffer );
ARM GAS  /tmp/ccIvB74u.s 			page 15


 689:../../kernel/FreeRTOS/Source/tasks.c **** 
 690:../../kernel/FreeRTOS/Source/tasks.c **** 		if( pxTaskDefinition->puxStackBuffer != NULL )
 691:../../kernel/FreeRTOS/Source/tasks.c **** 		{
 692:../../kernel/FreeRTOS/Source/tasks.c **** 			/* Allocate space for the TCB.  Where the memory comes from depends
 693:../../kernel/FreeRTOS/Source/tasks.c **** 			on the implementation of the port malloc function and whether or
 694:../../kernel/FreeRTOS/Source/tasks.c **** 			not static allocation is being used. */
 695:../../kernel/FreeRTOS/Source/tasks.c **** 			pxNewTCB = ( TCB_t * ) pvPortMalloc( sizeof( TCB_t ) );
 696:../../kernel/FreeRTOS/Source/tasks.c **** 
 697:../../kernel/FreeRTOS/Source/tasks.c **** 			if( pxNewTCB != NULL )
 698:../../kernel/FreeRTOS/Source/tasks.c **** 			{
 699:../../kernel/FreeRTOS/Source/tasks.c **** 				/* Store the stack location in the TCB. */
 700:../../kernel/FreeRTOS/Source/tasks.c **** 				pxNewTCB->pxStack = pxTaskDefinition->puxStackBuffer;
 701:../../kernel/FreeRTOS/Source/tasks.c **** 
 702:../../kernel/FreeRTOS/Source/tasks.c **** 				#if( configSUPPORT_STATIC_ALLOCATION == 1 )
 703:../../kernel/FreeRTOS/Source/tasks.c **** 				{
 704:../../kernel/FreeRTOS/Source/tasks.c **** 					/* Tasks can be created statically or dynamically, so note
 705:../../kernel/FreeRTOS/Source/tasks.c **** 					this task had a statically allocated stack in case it is
 706:../../kernel/FreeRTOS/Source/tasks.c **** 					later deleted.  The TCB was allocated dynamically. */
 707:../../kernel/FreeRTOS/Source/tasks.c **** 					pxNewTCB->ucStaticallyAllocated = tskSTATICALLY_ALLOCATED_STACK_ONLY;
 708:../../kernel/FreeRTOS/Source/tasks.c **** 				}
 709:../../kernel/FreeRTOS/Source/tasks.c **** 				#endif
 710:../../kernel/FreeRTOS/Source/tasks.c **** 
 711:../../kernel/FreeRTOS/Source/tasks.c **** 				prvInitialiseNewTask(	pxTaskDefinition->pvTaskCode,
 712:../../kernel/FreeRTOS/Source/tasks.c **** 										pxTaskDefinition->pcName,
 713:../../kernel/FreeRTOS/Source/tasks.c **** 										( uint32_t ) pxTaskDefinition->usStackDepth,
 714:../../kernel/FreeRTOS/Source/tasks.c **** 										pxTaskDefinition->pvParameters,
 715:../../kernel/FreeRTOS/Source/tasks.c **** 										pxTaskDefinition->uxPriority,
 716:../../kernel/FreeRTOS/Source/tasks.c **** 										pxCreatedTask, pxNewTCB,
 717:../../kernel/FreeRTOS/Source/tasks.c **** 										pxTaskDefinition->xRegions );
 718:../../kernel/FreeRTOS/Source/tasks.c **** 
 719:../../kernel/FreeRTOS/Source/tasks.c **** 				prvAddNewTaskToReadyList( pxNewTCB );
 720:../../kernel/FreeRTOS/Source/tasks.c **** 				xReturn = pdPASS;
 721:../../kernel/FreeRTOS/Source/tasks.c **** 			}
 722:../../kernel/FreeRTOS/Source/tasks.c **** 		}
 723:../../kernel/FreeRTOS/Source/tasks.c **** 
 724:../../kernel/FreeRTOS/Source/tasks.c **** 		return xReturn;
 725:../../kernel/FreeRTOS/Source/tasks.c **** 	}
 726:../../kernel/FreeRTOS/Source/tasks.c **** 
 727:../../kernel/FreeRTOS/Source/tasks.c **** #endif /* portUSING_MPU_WRAPPERS */
 728:../../kernel/FreeRTOS/Source/tasks.c **** /*-----------------------------------------------------------*/
 729:../../kernel/FreeRTOS/Source/tasks.c **** 
 730:../../kernel/FreeRTOS/Source/tasks.c **** #if( configSUPPORT_DYNAMIC_ALLOCATION == 1 )
 731:../../kernel/FreeRTOS/Source/tasks.c **** 
 732:../../kernel/FreeRTOS/Source/tasks.c **** 	BaseType_t xTaskCreate(	TaskFunction_t pxTaskCode,
 733:../../kernel/FreeRTOS/Source/tasks.c **** 							const char * const pcName,		/*lint !e971 Unqualified char types are allowed for strings and 
 734:../../kernel/FreeRTOS/Source/tasks.c **** 							const configSTACK_DEPTH_TYPE usStackDepth,
 735:../../kernel/FreeRTOS/Source/tasks.c **** 							void * const pvParameters,
 736:../../kernel/FreeRTOS/Source/tasks.c **** 							UBaseType_t uxPriority,
 737:../../kernel/FreeRTOS/Source/tasks.c **** 							TaskHandle_t * const pxCreatedTask )
 738:../../kernel/FreeRTOS/Source/tasks.c **** 	{
 739:../../kernel/FreeRTOS/Source/tasks.c **** 	TCB_t *pxNewTCB;
 740:../../kernel/FreeRTOS/Source/tasks.c **** 	BaseType_t xReturn;
 741:../../kernel/FreeRTOS/Source/tasks.c **** 
 742:../../kernel/FreeRTOS/Source/tasks.c **** 		/* If the stack grows down then allocate the stack then the TCB so the stack
 743:../../kernel/FreeRTOS/Source/tasks.c **** 		does not grow into the TCB.  Likewise if the stack grows up then allocate
 744:../../kernel/FreeRTOS/Source/tasks.c **** 		the TCB then the stack. */
 745:../../kernel/FreeRTOS/Source/tasks.c **** 		#if( portSTACK_GROWTH > 0 )
ARM GAS  /tmp/ccIvB74u.s 			page 16


 746:../../kernel/FreeRTOS/Source/tasks.c **** 		{
 747:../../kernel/FreeRTOS/Source/tasks.c **** 			/* Allocate space for the TCB.  Where the memory comes from depends on
 748:../../kernel/FreeRTOS/Source/tasks.c **** 			the implementation of the port malloc function and whether or not static
 749:../../kernel/FreeRTOS/Source/tasks.c **** 			allocation is being used. */
 750:../../kernel/FreeRTOS/Source/tasks.c **** 			pxNewTCB = ( TCB_t * ) pvPortMalloc( sizeof( TCB_t ) );
 751:../../kernel/FreeRTOS/Source/tasks.c **** 
 752:../../kernel/FreeRTOS/Source/tasks.c **** 			if( pxNewTCB != NULL )
 753:../../kernel/FreeRTOS/Source/tasks.c **** 			{
 754:../../kernel/FreeRTOS/Source/tasks.c **** 				/* Allocate space for the stack used by the task being created.
 755:../../kernel/FreeRTOS/Source/tasks.c **** 				The base of the stack memory stored in the TCB so the task can
 756:../../kernel/FreeRTOS/Source/tasks.c **** 				be deleted later if required. */
 757:../../kernel/FreeRTOS/Source/tasks.c **** 				pxNewTCB->pxStack = ( StackType_t * ) pvPortMalloc( ( ( ( size_t ) usStackDepth ) * sizeof( Sta
 758:../../kernel/FreeRTOS/Source/tasks.c **** 
 759:../../kernel/FreeRTOS/Source/tasks.c **** 				if( pxNewTCB->pxStack == NULL )
 760:../../kernel/FreeRTOS/Source/tasks.c **** 				{
 761:../../kernel/FreeRTOS/Source/tasks.c **** 					/* Could not allocate the stack.  Delete the allocated TCB. */
 762:../../kernel/FreeRTOS/Source/tasks.c **** 					vPortFree( pxNewTCB );
 763:../../kernel/FreeRTOS/Source/tasks.c **** 					pxNewTCB = NULL;
 764:../../kernel/FreeRTOS/Source/tasks.c **** 				}
 765:../../kernel/FreeRTOS/Source/tasks.c **** 			}
 766:../../kernel/FreeRTOS/Source/tasks.c **** 		}
 767:../../kernel/FreeRTOS/Source/tasks.c **** 		#else /* portSTACK_GROWTH */
 768:../../kernel/FreeRTOS/Source/tasks.c **** 		{
 769:../../kernel/FreeRTOS/Source/tasks.c **** 		StackType_t *pxStack;
 770:../../kernel/FreeRTOS/Source/tasks.c **** 
 771:../../kernel/FreeRTOS/Source/tasks.c **** 			/* Allocate space for the stack used by the task being created. */
 772:../../kernel/FreeRTOS/Source/tasks.c **** 			pxStack = ( StackType_t * ) pvPortMalloc( ( ( ( size_t ) usStackDepth ) * sizeof( StackType_t ) 
 773:../../kernel/FreeRTOS/Source/tasks.c **** 
 774:../../kernel/FreeRTOS/Source/tasks.c **** 			if( pxStack != NULL )
 775:../../kernel/FreeRTOS/Source/tasks.c **** 			{
 776:../../kernel/FreeRTOS/Source/tasks.c **** 				/* Allocate space for the TCB. */
 777:../../kernel/FreeRTOS/Source/tasks.c **** 				pxNewTCB = ( TCB_t * ) pvPortMalloc( sizeof( TCB_t ) ); /*lint !e961 MISRA exception as the cas
 778:../../kernel/FreeRTOS/Source/tasks.c **** 
 779:../../kernel/FreeRTOS/Source/tasks.c **** 				if( pxNewTCB != NULL )
 780:../../kernel/FreeRTOS/Source/tasks.c **** 				{
 781:../../kernel/FreeRTOS/Source/tasks.c **** 					/* Store the stack location in the TCB. */
 782:../../kernel/FreeRTOS/Source/tasks.c **** 					pxNewTCB->pxStack = pxStack;
 783:../../kernel/FreeRTOS/Source/tasks.c **** 				}
 784:../../kernel/FreeRTOS/Source/tasks.c **** 				else
 785:../../kernel/FreeRTOS/Source/tasks.c **** 				{
 786:../../kernel/FreeRTOS/Source/tasks.c **** 					/* The stack cannot be used as the TCB was not created.  Free
 787:../../kernel/FreeRTOS/Source/tasks.c **** 					it again. */
 788:../../kernel/FreeRTOS/Source/tasks.c **** 					vPortFree( pxStack );
 789:../../kernel/FreeRTOS/Source/tasks.c **** 				}
 790:../../kernel/FreeRTOS/Source/tasks.c **** 			}
 791:../../kernel/FreeRTOS/Source/tasks.c **** 			else
 792:../../kernel/FreeRTOS/Source/tasks.c **** 			{
 793:../../kernel/FreeRTOS/Source/tasks.c **** 				pxNewTCB = NULL;
 794:../../kernel/FreeRTOS/Source/tasks.c **** 			}
 795:../../kernel/FreeRTOS/Source/tasks.c **** 		}
 796:../../kernel/FreeRTOS/Source/tasks.c **** 		#endif /* portSTACK_GROWTH */
 797:../../kernel/FreeRTOS/Source/tasks.c **** 
 798:../../kernel/FreeRTOS/Source/tasks.c **** 		if( pxNewTCB != NULL )
 799:../../kernel/FreeRTOS/Source/tasks.c **** 		{
 800:../../kernel/FreeRTOS/Source/tasks.c **** 			#if( tskSTATIC_AND_DYNAMIC_ALLOCATION_POSSIBLE != 0 ) /*lint !e731 Macro has been consolidated f
 801:../../kernel/FreeRTOS/Source/tasks.c **** 			{
 802:../../kernel/FreeRTOS/Source/tasks.c **** 				/* Tasks can be created statically or dynamically, so note this
ARM GAS  /tmp/ccIvB74u.s 			page 17


 803:../../kernel/FreeRTOS/Source/tasks.c **** 				task was created dynamically in case it is later deleted. */
 804:../../kernel/FreeRTOS/Source/tasks.c **** 				pxNewTCB->ucStaticallyAllocated = tskDYNAMICALLY_ALLOCATED_STACK_AND_TCB;
 805:../../kernel/FreeRTOS/Source/tasks.c **** 			}
 806:../../kernel/FreeRTOS/Source/tasks.c **** 			#endif /* configSUPPORT_STATIC_ALLOCATION */
 807:../../kernel/FreeRTOS/Source/tasks.c **** 
 808:../../kernel/FreeRTOS/Source/tasks.c **** 			prvInitialiseNewTask( pxTaskCode, pcName, ( uint32_t ) usStackDepth, pvParameters, uxPriority, p
 809:../../kernel/FreeRTOS/Source/tasks.c **** 			prvAddNewTaskToReadyList( pxNewTCB );
 810:../../kernel/FreeRTOS/Source/tasks.c **** 			xReturn = pdPASS;
 811:../../kernel/FreeRTOS/Source/tasks.c **** 		}
 812:../../kernel/FreeRTOS/Source/tasks.c **** 		else
 813:../../kernel/FreeRTOS/Source/tasks.c **** 		{
 814:../../kernel/FreeRTOS/Source/tasks.c **** 			xReturn = errCOULD_NOT_ALLOCATE_REQUIRED_MEMORY;
 815:../../kernel/FreeRTOS/Source/tasks.c **** 		}
 816:../../kernel/FreeRTOS/Source/tasks.c **** 
 817:../../kernel/FreeRTOS/Source/tasks.c **** 		return xReturn;
 818:../../kernel/FreeRTOS/Source/tasks.c **** 	}
 819:../../kernel/FreeRTOS/Source/tasks.c **** 
 820:../../kernel/FreeRTOS/Source/tasks.c **** #endif /* configSUPPORT_DYNAMIC_ALLOCATION */
 821:../../kernel/FreeRTOS/Source/tasks.c **** /*-----------------------------------------------------------*/
 822:../../kernel/FreeRTOS/Source/tasks.c **** 
 823:../../kernel/FreeRTOS/Source/tasks.c **** static void prvInitialiseNewTask( 	TaskFunction_t pxTaskCode,
 824:../../kernel/FreeRTOS/Source/tasks.c **** 									const char * const pcName,		/*lint !e971 Unqualified char types are allowed for strings an
 825:../../kernel/FreeRTOS/Source/tasks.c **** 									const uint32_t ulStackDepth,
 826:../../kernel/FreeRTOS/Source/tasks.c **** 									void * const pvParameters,
 827:../../kernel/FreeRTOS/Source/tasks.c **** 									UBaseType_t uxPriority,
 828:../../kernel/FreeRTOS/Source/tasks.c **** 									TaskHandle_t * const pxCreatedTask,
 829:../../kernel/FreeRTOS/Source/tasks.c **** 									TCB_t *pxNewTCB,
 830:../../kernel/FreeRTOS/Source/tasks.c **** 									const MemoryRegion_t * const xRegions )
 831:../../kernel/FreeRTOS/Source/tasks.c **** {
 832:../../kernel/FreeRTOS/Source/tasks.c **** StackType_t *pxTopOfStack;
 833:../../kernel/FreeRTOS/Source/tasks.c **** UBaseType_t x;
 834:../../kernel/FreeRTOS/Source/tasks.c **** 
 835:../../kernel/FreeRTOS/Source/tasks.c **** 	#if( portUSING_MPU_WRAPPERS == 1 )
 836:../../kernel/FreeRTOS/Source/tasks.c **** 		/* Should the task be created in privileged mode? */
 837:../../kernel/FreeRTOS/Source/tasks.c **** 		BaseType_t xRunPrivileged;
 838:../../kernel/FreeRTOS/Source/tasks.c **** 		if( ( uxPriority & portPRIVILEGE_BIT ) != 0U )
 839:../../kernel/FreeRTOS/Source/tasks.c **** 		{
 840:../../kernel/FreeRTOS/Source/tasks.c **** 			xRunPrivileged = pdTRUE;
 841:../../kernel/FreeRTOS/Source/tasks.c **** 		}
 842:../../kernel/FreeRTOS/Source/tasks.c **** 		else
 843:../../kernel/FreeRTOS/Source/tasks.c **** 		{
 844:../../kernel/FreeRTOS/Source/tasks.c **** 			xRunPrivileged = pdFALSE;
 845:../../kernel/FreeRTOS/Source/tasks.c **** 		}
 846:../../kernel/FreeRTOS/Source/tasks.c **** 		uxPriority &= ~portPRIVILEGE_BIT;
 847:../../kernel/FreeRTOS/Source/tasks.c **** 	#endif /* portUSING_MPU_WRAPPERS == 1 */
 848:../../kernel/FreeRTOS/Source/tasks.c **** 
 849:../../kernel/FreeRTOS/Source/tasks.c **** 	/* Avoid dependency on memset() if it is not required. */
 850:../../kernel/FreeRTOS/Source/tasks.c **** 	#if( tskSET_NEW_STACKS_TO_KNOWN_VALUE == 1 )
 851:../../kernel/FreeRTOS/Source/tasks.c **** 	{
 852:../../kernel/FreeRTOS/Source/tasks.c **** 		/* Fill the stack with a known value to assist debugging. */
 853:../../kernel/FreeRTOS/Source/tasks.c **** 		( void ) memset( pxNewTCB->pxStack, ( int ) tskSTACK_FILL_BYTE, ( size_t ) ulStackDepth * sizeof(
 854:../../kernel/FreeRTOS/Source/tasks.c **** 	}
 855:../../kernel/FreeRTOS/Source/tasks.c **** 	#endif /* tskSET_NEW_STACKS_TO_KNOWN_VALUE */
 856:../../kernel/FreeRTOS/Source/tasks.c **** 
 857:../../kernel/FreeRTOS/Source/tasks.c **** 	/* Calculate the top of stack address.  This depends on whether the stack
 858:../../kernel/FreeRTOS/Source/tasks.c **** 	grows from high memory to low (as per the 80x86) or vice versa.
 859:../../kernel/FreeRTOS/Source/tasks.c **** 	portSTACK_GROWTH is used to make the result positive or negative as required
ARM GAS  /tmp/ccIvB74u.s 			page 18


 860:../../kernel/FreeRTOS/Source/tasks.c **** 	by the port. */
 861:../../kernel/FreeRTOS/Source/tasks.c **** 	#if( portSTACK_GROWTH < 0 )
 862:../../kernel/FreeRTOS/Source/tasks.c **** 	{
 863:../../kernel/FreeRTOS/Source/tasks.c **** 		pxTopOfStack = pxNewTCB->pxStack + ( ulStackDepth - ( uint32_t ) 1 );
 864:../../kernel/FreeRTOS/Source/tasks.c **** 		pxTopOfStack = ( StackType_t * ) ( ( ( portPOINTER_SIZE_TYPE ) pxTopOfStack ) & ( ~( ( portPOINTE
 865:../../kernel/FreeRTOS/Source/tasks.c **** 
 866:../../kernel/FreeRTOS/Source/tasks.c **** 		/* Check the alignment of the calculated top of stack is correct. */
 867:../../kernel/FreeRTOS/Source/tasks.c **** 		configASSERT( ( ( ( portPOINTER_SIZE_TYPE ) pxTopOfStack & ( portPOINTER_SIZE_TYPE ) portBYTE_ALI
 868:../../kernel/FreeRTOS/Source/tasks.c **** 
 869:../../kernel/FreeRTOS/Source/tasks.c **** 		#if( configRECORD_STACK_HIGH_ADDRESS == 1 )
 870:../../kernel/FreeRTOS/Source/tasks.c **** 		{
 871:../../kernel/FreeRTOS/Source/tasks.c **** 			/* Also record the stack's high address, which may assist
 872:../../kernel/FreeRTOS/Source/tasks.c **** 			debugging. */
 873:../../kernel/FreeRTOS/Source/tasks.c **** 			pxNewTCB->pxEndOfStack = pxTopOfStack;
 874:../../kernel/FreeRTOS/Source/tasks.c **** 		}
 875:../../kernel/FreeRTOS/Source/tasks.c **** 		#endif /* configRECORD_STACK_HIGH_ADDRESS */
 876:../../kernel/FreeRTOS/Source/tasks.c **** 	}
 877:../../kernel/FreeRTOS/Source/tasks.c **** 	#else /* portSTACK_GROWTH */
 878:../../kernel/FreeRTOS/Source/tasks.c **** 	{
 879:../../kernel/FreeRTOS/Source/tasks.c **** 		pxTopOfStack = pxNewTCB->pxStack;
 880:../../kernel/FreeRTOS/Source/tasks.c **** 
 881:../../kernel/FreeRTOS/Source/tasks.c **** 		/* Check the alignment of the stack buffer is correct. */
 882:../../kernel/FreeRTOS/Source/tasks.c **** 		configASSERT( ( ( ( portPOINTER_SIZE_TYPE ) pxNewTCB->pxStack & ( portPOINTER_SIZE_TYPE ) portBYT
 883:../../kernel/FreeRTOS/Source/tasks.c **** 
 884:../../kernel/FreeRTOS/Source/tasks.c **** 		/* The other extreme of the stack space is required if stack checking is
 885:../../kernel/FreeRTOS/Source/tasks.c **** 		performed. */
 886:../../kernel/FreeRTOS/Source/tasks.c **** 		pxNewTCB->pxEndOfStack = pxNewTCB->pxStack + ( ulStackDepth - ( uint32_t ) 1 );
 887:../../kernel/FreeRTOS/Source/tasks.c **** 	}
 888:../../kernel/FreeRTOS/Source/tasks.c **** 	#endif /* portSTACK_GROWTH */
 889:../../kernel/FreeRTOS/Source/tasks.c **** 
 890:../../kernel/FreeRTOS/Source/tasks.c **** 	/* Store the task name in the TCB. */
 891:../../kernel/FreeRTOS/Source/tasks.c **** 	for( x = ( UBaseType_t ) 0; x < ( UBaseType_t ) configMAX_TASK_NAME_LEN; x++ )
 892:../../kernel/FreeRTOS/Source/tasks.c **** 	{
 893:../../kernel/FreeRTOS/Source/tasks.c **** 		pxNewTCB->pcTaskName[ x ] = pcName[ x ];
 894:../../kernel/FreeRTOS/Source/tasks.c **** 
 895:../../kernel/FreeRTOS/Source/tasks.c **** 		/* Don't copy all configMAX_TASK_NAME_LEN if the string is shorter than
 896:../../kernel/FreeRTOS/Source/tasks.c **** 		configMAX_TASK_NAME_LEN characters just in case the memory after the
 897:../../kernel/FreeRTOS/Source/tasks.c **** 		string is not accessible (extremely unlikely). */
 898:../../kernel/FreeRTOS/Source/tasks.c **** 		if( pcName[ x ] == 0x00 )
 899:../../kernel/FreeRTOS/Source/tasks.c **** 		{
 900:../../kernel/FreeRTOS/Source/tasks.c **** 			break;
 901:../../kernel/FreeRTOS/Source/tasks.c **** 		}
 902:../../kernel/FreeRTOS/Source/tasks.c **** 		else
 903:../../kernel/FreeRTOS/Source/tasks.c **** 		{
 904:../../kernel/FreeRTOS/Source/tasks.c **** 			mtCOVERAGE_TEST_MARKER();
 905:../../kernel/FreeRTOS/Source/tasks.c **** 		}
 906:../../kernel/FreeRTOS/Source/tasks.c **** 	}
 907:../../kernel/FreeRTOS/Source/tasks.c **** 
 908:../../kernel/FreeRTOS/Source/tasks.c **** 	/* Ensure the name string is terminated in the case that the string length
 909:../../kernel/FreeRTOS/Source/tasks.c **** 	was greater or equal to configMAX_TASK_NAME_LEN. */
 910:../../kernel/FreeRTOS/Source/tasks.c **** 	pxNewTCB->pcTaskName[ configMAX_TASK_NAME_LEN - 1 ] = '\0';
 911:../../kernel/FreeRTOS/Source/tasks.c **** 
 912:../../kernel/FreeRTOS/Source/tasks.c **** 	/* This is used as an array index so must ensure it's not too large.  First
 913:../../kernel/FreeRTOS/Source/tasks.c **** 	remove the privilege bit if one is present. */
 914:../../kernel/FreeRTOS/Source/tasks.c **** 	if( uxPriority >= ( UBaseType_t ) configMAX_PRIORITIES )
 915:../../kernel/FreeRTOS/Source/tasks.c **** 	{
 916:../../kernel/FreeRTOS/Source/tasks.c **** 		uxPriority = ( UBaseType_t ) configMAX_PRIORITIES - ( UBaseType_t ) 1U;
ARM GAS  /tmp/ccIvB74u.s 			page 19


 917:../../kernel/FreeRTOS/Source/tasks.c **** 	}
 918:../../kernel/FreeRTOS/Source/tasks.c **** 	else
 919:../../kernel/FreeRTOS/Source/tasks.c **** 	{
 920:../../kernel/FreeRTOS/Source/tasks.c **** 		mtCOVERAGE_TEST_MARKER();
 921:../../kernel/FreeRTOS/Source/tasks.c **** 	}
 922:../../kernel/FreeRTOS/Source/tasks.c **** 
 923:../../kernel/FreeRTOS/Source/tasks.c **** 	pxNewTCB->uxPriority = uxPriority;
 924:../../kernel/FreeRTOS/Source/tasks.c **** 	#if ( configUSE_MUTEXES == 1 )
 925:../../kernel/FreeRTOS/Source/tasks.c **** 	{
 926:../../kernel/FreeRTOS/Source/tasks.c **** 		pxNewTCB->uxBasePriority = uxPriority;
 927:../../kernel/FreeRTOS/Source/tasks.c **** 		pxNewTCB->uxMutexesHeld = 0;
 928:../../kernel/FreeRTOS/Source/tasks.c **** 	}
 929:../../kernel/FreeRTOS/Source/tasks.c **** 	#endif /* configUSE_MUTEXES */
 930:../../kernel/FreeRTOS/Source/tasks.c **** 
 931:../../kernel/FreeRTOS/Source/tasks.c **** 	vListInitialiseItem( &( pxNewTCB->xStateListItem ) );
 932:../../kernel/FreeRTOS/Source/tasks.c **** 	vListInitialiseItem( &( pxNewTCB->xEventListItem ) );
 933:../../kernel/FreeRTOS/Source/tasks.c **** 
 934:../../kernel/FreeRTOS/Source/tasks.c **** 	/* Set the pxNewTCB as a link back from the ListItem_t.  This is so we can get
 935:../../kernel/FreeRTOS/Source/tasks.c **** 	back to	the containing TCB from a generic item in a list. */
 936:../../kernel/FreeRTOS/Source/tasks.c **** 	listSET_LIST_ITEM_OWNER( &( pxNewTCB->xStateListItem ), pxNewTCB );
 937:../../kernel/FreeRTOS/Source/tasks.c **** 
 938:../../kernel/FreeRTOS/Source/tasks.c **** 	/* Event lists are always in priority order. */
 939:../../kernel/FreeRTOS/Source/tasks.c **** 	listSET_LIST_ITEM_VALUE( &( pxNewTCB->xEventListItem ), ( TickType_t ) configMAX_PRIORITIES - ( Ti
 940:../../kernel/FreeRTOS/Source/tasks.c **** 	listSET_LIST_ITEM_OWNER( &( pxNewTCB->xEventListItem ), pxNewTCB );
 941:../../kernel/FreeRTOS/Source/tasks.c **** 
 942:../../kernel/FreeRTOS/Source/tasks.c **** 	#if ( portCRITICAL_NESTING_IN_TCB == 1 )
 943:../../kernel/FreeRTOS/Source/tasks.c **** 	{
 944:../../kernel/FreeRTOS/Source/tasks.c **** 		pxNewTCB->uxCriticalNesting = ( UBaseType_t ) 0U;
 945:../../kernel/FreeRTOS/Source/tasks.c **** 	}
 946:../../kernel/FreeRTOS/Source/tasks.c **** 	#endif /* portCRITICAL_NESTING_IN_TCB */
 947:../../kernel/FreeRTOS/Source/tasks.c **** 
 948:../../kernel/FreeRTOS/Source/tasks.c **** 	#if ( configUSE_APPLICATION_TASK_TAG == 1 )
 949:../../kernel/FreeRTOS/Source/tasks.c **** 	{
 950:../../kernel/FreeRTOS/Source/tasks.c **** 		pxNewTCB->pxTaskTag = NULL;
 951:../../kernel/FreeRTOS/Source/tasks.c **** 	}
 952:../../kernel/FreeRTOS/Source/tasks.c **** 	#endif /* configUSE_APPLICATION_TASK_TAG */
 953:../../kernel/FreeRTOS/Source/tasks.c **** 
 954:../../kernel/FreeRTOS/Source/tasks.c **** 	#if ( configGENERATE_RUN_TIME_STATS == 1 )
 955:../../kernel/FreeRTOS/Source/tasks.c **** 	{
 956:../../kernel/FreeRTOS/Source/tasks.c **** 		pxNewTCB->ulRunTimeCounter = 0UL;
 957:../../kernel/FreeRTOS/Source/tasks.c **** 	}
 958:../../kernel/FreeRTOS/Source/tasks.c **** 	#endif /* configGENERATE_RUN_TIME_STATS */
 959:../../kernel/FreeRTOS/Source/tasks.c **** 
 960:../../kernel/FreeRTOS/Source/tasks.c **** 	#if ( portUSING_MPU_WRAPPERS == 1 )
 961:../../kernel/FreeRTOS/Source/tasks.c **** 	{
 962:../../kernel/FreeRTOS/Source/tasks.c **** 		vPortStoreTaskMPUSettings( &( pxNewTCB->xMPUSettings ), xRegions, pxNewTCB->pxStack, ulStackDepth
 963:../../kernel/FreeRTOS/Source/tasks.c **** 	}
 964:../../kernel/FreeRTOS/Source/tasks.c **** 	#else
 965:../../kernel/FreeRTOS/Source/tasks.c **** 	{
 966:../../kernel/FreeRTOS/Source/tasks.c **** 		/* Avoid compiler warning about unreferenced parameter. */
 967:../../kernel/FreeRTOS/Source/tasks.c **** 		( void ) xRegions;
 968:../../kernel/FreeRTOS/Source/tasks.c **** 	}
 969:../../kernel/FreeRTOS/Source/tasks.c **** 	#endif
 970:../../kernel/FreeRTOS/Source/tasks.c **** 
 971:../../kernel/FreeRTOS/Source/tasks.c **** 	#if( configNUM_THREAD_LOCAL_STORAGE_POINTERS != 0 )
 972:../../kernel/FreeRTOS/Source/tasks.c **** 	{
 973:../../kernel/FreeRTOS/Source/tasks.c **** 		for( x = 0; x < ( UBaseType_t ) configNUM_THREAD_LOCAL_STORAGE_POINTERS; x++ )
ARM GAS  /tmp/ccIvB74u.s 			page 20


 974:../../kernel/FreeRTOS/Source/tasks.c **** 		{
 975:../../kernel/FreeRTOS/Source/tasks.c **** 			pxNewTCB->pvThreadLocalStoragePointers[ x ] = NULL;
 976:../../kernel/FreeRTOS/Source/tasks.c **** 		}
 977:../../kernel/FreeRTOS/Source/tasks.c **** 	}
 978:../../kernel/FreeRTOS/Source/tasks.c **** 	#endif
 979:../../kernel/FreeRTOS/Source/tasks.c **** 
 980:../../kernel/FreeRTOS/Source/tasks.c **** 	#if ( configUSE_TASK_NOTIFICATIONS == 1 )
 981:../../kernel/FreeRTOS/Source/tasks.c **** 	{
 982:../../kernel/FreeRTOS/Source/tasks.c **** 		pxNewTCB->ulNotifiedValue = 0;
 983:../../kernel/FreeRTOS/Source/tasks.c **** 		pxNewTCB->ucNotifyState = taskNOT_WAITING_NOTIFICATION;
 984:../../kernel/FreeRTOS/Source/tasks.c **** 	}
 985:../../kernel/FreeRTOS/Source/tasks.c **** 	#endif
 986:../../kernel/FreeRTOS/Source/tasks.c **** 
 987:../../kernel/FreeRTOS/Source/tasks.c **** 	#if ( configUSE_NEWLIB_REENTRANT == 1 )
 988:../../kernel/FreeRTOS/Source/tasks.c **** 	{
 989:../../kernel/FreeRTOS/Source/tasks.c **** 		/* Initialise this task's Newlib reent structure. */
 990:../../kernel/FreeRTOS/Source/tasks.c **** 		_REENT_INIT_PTR( ( &( pxNewTCB->xNewLib_reent ) ) );
 991:../../kernel/FreeRTOS/Source/tasks.c **** 	}
 992:../../kernel/FreeRTOS/Source/tasks.c **** 	#endif
 993:../../kernel/FreeRTOS/Source/tasks.c **** 
 994:../../kernel/FreeRTOS/Source/tasks.c **** 	#if( INCLUDE_xTaskAbortDelay == 1 )
 995:../../kernel/FreeRTOS/Source/tasks.c **** 	{
 996:../../kernel/FreeRTOS/Source/tasks.c **** 		pxNewTCB->ucDelayAborted = pdFALSE;
 997:../../kernel/FreeRTOS/Source/tasks.c **** 	}
 998:../../kernel/FreeRTOS/Source/tasks.c **** 	#endif
 999:../../kernel/FreeRTOS/Source/tasks.c **** 
1000:../../kernel/FreeRTOS/Source/tasks.c **** 	/* Initialize the TCB stack to look as if the task was already running,
1001:../../kernel/FreeRTOS/Source/tasks.c **** 	but had been interrupted by the scheduler.  The return address is set
1002:../../kernel/FreeRTOS/Source/tasks.c **** 	to the start of the task function. Once the stack has been initialised
1003:../../kernel/FreeRTOS/Source/tasks.c **** 	the top of stack variable is updated. */
1004:../../kernel/FreeRTOS/Source/tasks.c **** 	#if( portUSING_MPU_WRAPPERS == 1 )
1005:../../kernel/FreeRTOS/Source/tasks.c **** 	{
1006:../../kernel/FreeRTOS/Source/tasks.c **** 		pxNewTCB->pxTopOfStack = pxPortInitialiseStack( pxTopOfStack, pxTaskCode, pvParameters, xRunPrivi
1007:../../kernel/FreeRTOS/Source/tasks.c **** 	}
1008:../../kernel/FreeRTOS/Source/tasks.c **** 	#else /* portUSING_MPU_WRAPPERS */
1009:../../kernel/FreeRTOS/Source/tasks.c **** 	{
1010:../../kernel/FreeRTOS/Source/tasks.c **** 		pxNewTCB->pxTopOfStack = pxPortInitialiseStack( pxTopOfStack, pxTaskCode, pvParameters );
1011:../../kernel/FreeRTOS/Source/tasks.c **** 	}
1012:../../kernel/FreeRTOS/Source/tasks.c **** 	#endif /* portUSING_MPU_WRAPPERS */
1013:../../kernel/FreeRTOS/Source/tasks.c **** 
1014:../../kernel/FreeRTOS/Source/tasks.c **** 	if( ( void * ) pxCreatedTask != NULL )
1015:../../kernel/FreeRTOS/Source/tasks.c **** 	{
1016:../../kernel/FreeRTOS/Source/tasks.c **** 		/* Pass the handle out in an anonymous way.  The handle can be used to
1017:../../kernel/FreeRTOS/Source/tasks.c **** 		change the created task's priority, delete the created task, etc.*/
1018:../../kernel/FreeRTOS/Source/tasks.c **** 		*pxCreatedTask = ( TaskHandle_t ) pxNewTCB;
1019:../../kernel/FreeRTOS/Source/tasks.c **** 	}
1020:../../kernel/FreeRTOS/Source/tasks.c **** 	else
1021:../../kernel/FreeRTOS/Source/tasks.c **** 	{
1022:../../kernel/FreeRTOS/Source/tasks.c **** 		mtCOVERAGE_TEST_MARKER();
1023:../../kernel/FreeRTOS/Source/tasks.c **** 	}
1024:../../kernel/FreeRTOS/Source/tasks.c **** }
1025:../../kernel/FreeRTOS/Source/tasks.c **** /*-----------------------------------------------------------*/
1026:../../kernel/FreeRTOS/Source/tasks.c **** 
1027:../../kernel/FreeRTOS/Source/tasks.c **** static void prvAddNewTaskToReadyList( TCB_t *pxNewTCB )
1028:../../kernel/FreeRTOS/Source/tasks.c **** {
 111              		.loc 1 1028 1 view -0
 112              		.cfi_startproc
ARM GAS  /tmp/ccIvB74u.s 			page 21


 113              		@ args = 0, pretend = 0, frame = 0
 114              		@ frame_needed = 0, uses_anonymous_args = 0
1029:../../kernel/FreeRTOS/Source/tasks.c **** 	/* Ensure interrupts don't access the task lists while the lists are being
1030:../../kernel/FreeRTOS/Source/tasks.c **** 	updated. */
1031:../../kernel/FreeRTOS/Source/tasks.c **** 	taskENTER_CRITICAL();
 115              		.loc 1 1031 2 view .LVU1
 116              	@ ../../kernel/FreeRTOS/Source/tasks.c:1028: {
1028:../../kernel/FreeRTOS/Source/tasks.c **** 	/* Ensure interrupts don't access the task lists while the lists are being
 117              		.loc 1 1028 1 is_stmt 0 view .LVU2
 118 0000 2DE9F041 		push	{r4, r5, r6, r7, r8, lr}	@
 119              		.cfi_def_cfa_offset 24
 120              		.cfi_offset 4, -24
 121              		.cfi_offset 5, -20
 122              		.cfi_offset 6, -16
 123              		.cfi_offset 7, -12
 124              		.cfi_offset 8, -8
 125              		.cfi_offset 14, -4
 126              	@ ../../kernel/FreeRTOS/Source/tasks.c:1028: {
1028:../../kernel/FreeRTOS/Source/tasks.c **** 	/* Ensure interrupts don't access the task lists while the lists are being
 127              		.loc 1 1028 1 view .LVU3
 128 0004 0446     		mov	r4, r0	@ pxNewTCB, pxNewTCB
 129              	@ ../../kernel/FreeRTOS/Source/tasks.c:1031: 	taskENTER_CRITICAL();
 130              		.loc 1 1031 2 view .LVU4
 131 0006 FFF7FEFF 		bl	vPortEnterCritical		@
 132              	.LVL1:
1032:../../kernel/FreeRTOS/Source/tasks.c **** 	{
1033:../../kernel/FreeRTOS/Source/tasks.c **** 		uxCurrentNumberOfTasks++;
 133              		.loc 1 1033 3 is_stmt 1 view .LVU5
 134              	@ ../../kernel/FreeRTOS/Source/tasks.c:1033: 		uxCurrentNumberOfTasks++;
 135              		.loc 1 1033 25 is_stmt 0 view .LVU6
 136 000a 334A     		ldr	r2, .L14	@ tmp129,
 137              	@ ../../kernel/FreeRTOS/Source/tasks.c:1034: 		if( pxCurrentTCB == NULL )
1034:../../kernel/FreeRTOS/Source/tasks.c **** 		if( pxCurrentTCB == NULL )
 138              		.loc 1 1034 20 view .LVU7
 139 000c 334D     		ldr	r5, .L14+4	@ tmp174,
 140              	@ ../../kernel/FreeRTOS/Source/tasks.c:1033: 		uxCurrentNumberOfTasks++;
1033:../../kernel/FreeRTOS/Source/tasks.c **** 		if( pxCurrentTCB == NULL )
 141              		.loc 1 1033 25 view .LVU8
 142 000e 1368     		ldr	r3, [r2]	@ uxCurrentNumberOfTasks.3_1, uxCurrentNumberOfTasks
 143 0010 0133     		adds	r3, r3, #1	@ _2, uxCurrentNumberOfTasks.3_1,
 144 0012 1360     		str	r3, [r2]	@ _2, uxCurrentNumberOfTasks
 145              		.loc 1 1034 3 is_stmt 1 view .LVU9
 146              	@ ../../kernel/FreeRTOS/Source/tasks.c:1034: 		if( pxCurrentTCB == NULL )
 147              		.loc 1 1034 20 is_stmt 0 view .LVU10
 148 0014 2B68     		ldr	r3, [r5]	@ pxCurrentTCB.4_3, pxCurrentTCB
 149              	@ ../../kernel/FreeRTOS/Source/tasks.c:1034: 		if( pxCurrentTCB == NULL )
 150              		.loc 1 1034 5 view .LVU11
 151 0016 002B     		cmp	r3, #0	@ pxCurrentTCB.4_3
 152 0018 2ED0     		beq	.L12	@
1035:../../kernel/FreeRTOS/Source/tasks.c **** 		{
1036:../../kernel/FreeRTOS/Source/tasks.c **** 			/* There are no other tasks, or all the other tasks are in
1037:../../kernel/FreeRTOS/Source/tasks.c **** 			the suspended state - make this the current task. */
1038:../../kernel/FreeRTOS/Source/tasks.c **** 			pxCurrentTCB = pxNewTCB;
1039:../../kernel/FreeRTOS/Source/tasks.c **** 
1040:../../kernel/FreeRTOS/Source/tasks.c **** 			if( uxCurrentNumberOfTasks == ( UBaseType_t ) 1 )
1041:../../kernel/FreeRTOS/Source/tasks.c **** 			{
1042:../../kernel/FreeRTOS/Source/tasks.c **** 				/* This is the first task to be created so do the preliminary
ARM GAS  /tmp/ccIvB74u.s 			page 22


1043:../../kernel/FreeRTOS/Source/tasks.c **** 				initialisation required.  We will not recover if this call
1044:../../kernel/FreeRTOS/Source/tasks.c **** 				fails, but we will report the failure. */
1045:../../kernel/FreeRTOS/Source/tasks.c **** 				prvInitialiseTaskLists();
1046:../../kernel/FreeRTOS/Source/tasks.c **** 			}
1047:../../kernel/FreeRTOS/Source/tasks.c **** 			else
1048:../../kernel/FreeRTOS/Source/tasks.c **** 			{
1049:../../kernel/FreeRTOS/Source/tasks.c **** 				mtCOVERAGE_TEST_MARKER();
1050:../../kernel/FreeRTOS/Source/tasks.c **** 			}
1051:../../kernel/FreeRTOS/Source/tasks.c **** 		}
1052:../../kernel/FreeRTOS/Source/tasks.c **** 		else
1053:../../kernel/FreeRTOS/Source/tasks.c **** 		{
1054:../../kernel/FreeRTOS/Source/tasks.c **** 			/* If the scheduler is not already running, make this task the
1055:../../kernel/FreeRTOS/Source/tasks.c **** 			current task if it is the highest priority task to be created
1056:../../kernel/FreeRTOS/Source/tasks.c **** 			so far. */
1057:../../kernel/FreeRTOS/Source/tasks.c **** 			if( xSchedulerRunning == pdFALSE )
 153              		.loc 1 1057 4 is_stmt 1 view .LVU12
 154              	@ ../../kernel/FreeRTOS/Source/tasks.c:1057: 			if( xSchedulerRunning == pdFALSE )
 155              		.loc 1 1057 26 is_stmt 0 view .LVU13
 156 001a 314E     		ldr	r6, .L14+8	@ tmp175,
 157 001c E36A     		ldr	r3, [r4, #44]	@ prephitmp_60, pxNewTCB_25(D)->uxPriority
 158 001e 3268     		ldr	r2, [r6]	@ xSchedulerRunning.6_5, xSchedulerRunning
 159              	@ ../../kernel/FreeRTOS/Source/tasks.c:1057: 			if( xSchedulerRunning == pdFALSE )
 160              		.loc 1 1057 6 view .LVU14
 161 0020 22B3     		cbz	r2, .L13	@ xSchedulerRunning.6_5,
 162              	.L4:
1058:../../kernel/FreeRTOS/Source/tasks.c **** 			{
1059:../../kernel/FreeRTOS/Source/tasks.c **** 				if( pxCurrentTCB->uxPriority <= pxNewTCB->uxPriority )
1060:../../kernel/FreeRTOS/Source/tasks.c **** 				{
1061:../../kernel/FreeRTOS/Source/tasks.c **** 					pxCurrentTCB = pxNewTCB;
1062:../../kernel/FreeRTOS/Source/tasks.c **** 				}
1063:../../kernel/FreeRTOS/Source/tasks.c **** 				else
1064:../../kernel/FreeRTOS/Source/tasks.c **** 				{
1065:../../kernel/FreeRTOS/Source/tasks.c **** 					mtCOVERAGE_TEST_MARKER();
1066:../../kernel/FreeRTOS/Source/tasks.c **** 				}
1067:../../kernel/FreeRTOS/Source/tasks.c **** 			}
1068:../../kernel/FreeRTOS/Source/tasks.c **** 			else
1069:../../kernel/FreeRTOS/Source/tasks.c **** 			{
1070:../../kernel/FreeRTOS/Source/tasks.c **** 				mtCOVERAGE_TEST_MARKER();
 163              		.loc 1 1070 29 is_stmt 1 view .LVU15
1071:../../kernel/FreeRTOS/Source/tasks.c **** 			}
1072:../../kernel/FreeRTOS/Source/tasks.c **** 		}
1073:../../kernel/FreeRTOS/Source/tasks.c **** 
1074:../../kernel/FreeRTOS/Source/tasks.c **** 		uxTaskNumber++;
 164              		.loc 1 1074 3 view .LVU16
 165              	@ ../../kernel/FreeRTOS/Source/tasks.c:1084: 		prvAddTaskToReadyList( pxNewTCB );
1075:../../kernel/FreeRTOS/Source/tasks.c **** 
1076:../../kernel/FreeRTOS/Source/tasks.c **** 		#if ( configUSE_TRACE_FACILITY == 1 )
1077:../../kernel/FreeRTOS/Source/tasks.c **** 		{
1078:../../kernel/FreeRTOS/Source/tasks.c **** 			/* Add a counter into the TCB for tracing only. */
1079:../../kernel/FreeRTOS/Source/tasks.c **** 			pxNewTCB->uxTCBNumber = uxTaskNumber;
1080:../../kernel/FreeRTOS/Source/tasks.c **** 		}
1081:../../kernel/FreeRTOS/Source/tasks.c **** 		#endif /* configUSE_TRACE_FACILITY */
1082:../../kernel/FreeRTOS/Source/tasks.c **** 		traceTASK_CREATE( pxNewTCB );
1083:../../kernel/FreeRTOS/Source/tasks.c **** 
1084:../../kernel/FreeRTOS/Source/tasks.c **** 		prvAddTaskToReadyList( pxNewTCB );
 166              		.loc 1 1084 3 is_stmt 0 view .LVU17
 167 0022 3048     		ldr	r0, .L14+12	@ tmp159,
ARM GAS  /tmp/ccIvB74u.s 			page 23


 168              	@ ../../kernel/FreeRTOS/Source/tasks.c:1074: 		uxTaskNumber++;
1074:../../kernel/FreeRTOS/Source/tasks.c **** 
 169              		.loc 1 1074 15 view .LVU18
 170 0024 3049     		ldr	r1, .L14+16	@ tmp156,
 171              	@ ../../kernel/FreeRTOS/Source/tasks.c:1084: 		prvAddTaskToReadyList( pxNewTCB );
 172              		.loc 1 1084 3 view .LVU19
 173 0026 0768     		ldr	r7, [r0]	@ uxTopReadyPriority.10_12, uxTopReadyPriority
 174              	@ ../../kernel/FreeRTOS/Source/tasks.c:1074: 		uxTaskNumber++;
1074:../../kernel/FreeRTOS/Source/tasks.c **** 
 175              		.loc 1 1074 15 view .LVU20
 176 0028 0A68     		ldr	r2, [r1]	@ uxTaskNumber, uxTaskNumber
 177              	@ ../../kernel/FreeRTOS/Source/tasks.c:1084: 		prvAddTaskToReadyList( pxNewTCB );
 178              		.loc 1 1084 3 view .LVU21
 179 002a 9F42     		cmp	r7, r3	@ uxTopReadyPriority.10_12, prephitmp_60
 180 002c 38BF     		it	cc
 181 002e 0360     		strcc	r3, [r0]	@ prephitmp_60, uxTopReadyPriority
 182 0030 2E48     		ldr	r0, .L14+20	@ tmp162,
 183              	@ ../../kernel/FreeRTOS/Source/tasks.c:1074: 		uxTaskNumber++;
1074:../../kernel/FreeRTOS/Source/tasks.c **** 
 184              		.loc 1 1074 15 view .LVU22
 185 0032 0132     		adds	r2, r2, #1	@ _10, uxTaskNumber,
 186              	@ ../../kernel/FreeRTOS/Source/tasks.c:1084: 		prvAddTaskToReadyList( pxNewTCB );
 187              		.loc 1 1084 3 view .LVU23
 188 0034 03EB8303 		add	r3, r3, r3, lsl #2	@ tmp165, prephitmp_60, prephitmp_60,
 189              	@ ../../kernel/FreeRTOS/Source/tasks.c:1074: 		uxTaskNumber++;
1074:../../kernel/FreeRTOS/Source/tasks.c **** 
 190              		.loc 1 1074 15 view .LVU24
 191 0038 0A60     		str	r2, [r1]	@ _10, uxTaskNumber
1079:../../kernel/FreeRTOS/Source/tasks.c **** 		}
 192              		.loc 1 1079 4 is_stmt 1 view .LVU25
 193              	@ ../../kernel/FreeRTOS/Source/tasks.c:1084: 		prvAddTaskToReadyList( pxNewTCB );
 194              		.loc 1 1084 3 is_stmt 0 view .LVU26
 195 003a 00EB8300 		add	r0, r0, r3, lsl #2	@, tmp162, tmp165,
 196              	@ ../../kernel/FreeRTOS/Source/tasks.c:1079: 			pxNewTCB->uxTCBNumber = uxTaskNumber;
1079:../../kernel/FreeRTOS/Source/tasks.c **** 		}
 197              		.loc 1 1079 26 view .LVU27
 198 003e 2264     		str	r2, [r4, #64]	@ _10, pxNewTCB_25(D)->uxTCBNumber
1082:../../kernel/FreeRTOS/Source/tasks.c **** 
 199              		.loc 1 1082 31 is_stmt 1 view .LVU28
 200              		.loc 1 1084 3 view .LVU29
 201              		.loc 1 1084 3 view .LVU30
 202              		.loc 1 1084 3 view .LVU31
 203              		.loc 1 1084 3 view .LVU32
 204              		.loc 1 1084 3 view .LVU33
 205 0040 211D     		adds	r1, r4, #4	@, pxNewTCB,
 206 0042 FFF7FEFF 		bl	vListInsertEnd		@
 207              	.LVL2:
 208              		.loc 1 1084 36 view .LVU34
1085:../../kernel/FreeRTOS/Source/tasks.c **** 
1086:../../kernel/FreeRTOS/Source/tasks.c **** 		portSETUP_TCB( pxNewTCB );
 209              		.loc 1 1086 3 view .LVU35
1087:../../kernel/FreeRTOS/Source/tasks.c **** 	}
1088:../../kernel/FreeRTOS/Source/tasks.c **** 	taskEXIT_CRITICAL();
 210              		.loc 1 1088 2 view .LVU36
 211 0046 FFF7FEFF 		bl	vPortExitCritical		@
 212              	.LVL3:
1089:../../kernel/FreeRTOS/Source/tasks.c **** 
ARM GAS  /tmp/ccIvB74u.s 			page 24


1090:../../kernel/FreeRTOS/Source/tasks.c **** 	if( xSchedulerRunning != pdFALSE )
 213              		.loc 1 1090 2 view .LVU37
 214              	@ ../../kernel/FreeRTOS/Source/tasks.c:1090: 	if( xSchedulerRunning != pdFALSE )
 215              		.loc 1 1090 24 is_stmt 0 view .LVU38
 216 004a 3368     		ldr	r3, [r6]	@ xSchedulerRunning.11_15, xSchedulerRunning
 217              	@ ../../kernel/FreeRTOS/Source/tasks.c:1090: 	if( xSchedulerRunning != pdFALSE )
 218              		.loc 1 1090 4 view .LVU39
 219 004c 63B1     		cbz	r3, .L1	@ xSchedulerRunning.11_15,
1091:../../kernel/FreeRTOS/Source/tasks.c **** 	{
1092:../../kernel/FreeRTOS/Source/tasks.c **** 		/* If the created task is of a higher priority than the current task
1093:../../kernel/FreeRTOS/Source/tasks.c **** 		then it should run now. */
1094:../../kernel/FreeRTOS/Source/tasks.c **** 		if( pxCurrentTCB->uxPriority < pxNewTCB->uxPriority )
 220              		.loc 1 1094 3 is_stmt 1 view .LVU40
 221              	@ ../../kernel/FreeRTOS/Source/tasks.c:1094: 		if( pxCurrentTCB->uxPriority < pxNewTCB->uxPriority 
 222              		.loc 1 1094 19 is_stmt 0 view .LVU41
 223 004e 2A68     		ldr	r2, [r5]	@ pxCurrentTCB.12_16, pxCurrentTCB
 224              	@ ../../kernel/FreeRTOS/Source/tasks.c:1094: 		if( pxCurrentTCB->uxPriority < pxNewTCB->uxPriority 
 225              		.loc 1 1094 5 view .LVU42
 226 0050 E36A     		ldr	r3, [r4, #44]	@ pxNewTCB_25(D)->uxPriority, pxNewTCB_25(D)->uxPriority
 227 0052 D26A     		ldr	r2, [r2, #44]	@ pxCurrentTCB.12_16->uxPriority, pxCurrentTCB.12_16->uxPriority
 228 0054 9A42     		cmp	r2, r3	@ pxCurrentTCB.12_16->uxPriority, pxNewTCB_25(D)->uxPriority
 229 0056 07D2     		bcs	.L1		@,
1095:../../kernel/FreeRTOS/Source/tasks.c **** 		{
1096:../../kernel/FreeRTOS/Source/tasks.c **** 			taskYIELD_IF_USING_PREEMPTION();
 230              		.loc 1 1096 4 is_stmt 1 view .LVU43
 231 0058 254B     		ldr	r3, .L14+24	@ tmp172,
 232 005a 4FF08052 		mov	r2, #268435456	@ tmp173,
 233 005e 1A60     		str	r2, [r3]	@ tmp173, MEM[(volatile uint32_t *)3758157060B]
 234              		.loc 1 1096 4 view .LVU44
 235              		.syntax unified
 236              	@ 1096 "../../kernel/FreeRTOS/Source/tasks.c" 1
 237 0060 BFF34F8F 		dsb	
 238              	@ 0 "" 2
 239              		.loc 1 1096 4 view .LVU45
 240              	@ 1096 "../../kernel/FreeRTOS/Source/tasks.c" 1
 241 0064 BFF36F8F 		isb
 242              	@ 0 "" 2
 243              		.loc 1 1096 35 view .LVU46
1097:../../kernel/FreeRTOS/Source/tasks.c **** 		}
1098:../../kernel/FreeRTOS/Source/tasks.c **** 		else
1099:../../kernel/FreeRTOS/Source/tasks.c **** 		{
1100:../../kernel/FreeRTOS/Source/tasks.c **** 			mtCOVERAGE_TEST_MARKER();
1101:../../kernel/FreeRTOS/Source/tasks.c **** 		}
1102:../../kernel/FreeRTOS/Source/tasks.c **** 	}
1103:../../kernel/FreeRTOS/Source/tasks.c **** 	else
1104:../../kernel/FreeRTOS/Source/tasks.c **** 	{
1105:../../kernel/FreeRTOS/Source/tasks.c **** 		mtCOVERAGE_TEST_MARKER();
 244              		.loc 1 1105 27 view .LVU47
 245              		.thumb
 246              		.syntax unified
 247              	.L1:
 248              	@ ../../kernel/FreeRTOS/Source/tasks.c:1107: }
1106:../../kernel/FreeRTOS/Source/tasks.c **** 	}
1107:../../kernel/FreeRTOS/Source/tasks.c **** }
 249              		.loc 1 1107 1 is_stmt 0 view .LVU48
 250 0068 BDE8F081 		pop	{r4, r5, r6, r7, r8, pc}	@
 251              	.LVL4:
ARM GAS  /tmp/ccIvB74u.s 			page 25


 252              	.L13:
1059:../../kernel/FreeRTOS/Source/tasks.c **** 				{
 253              		.loc 1 1059 5 is_stmt 1 view .LVU49
 254              	@ ../../kernel/FreeRTOS/Source/tasks.c:1059: 				if( pxCurrentTCB->uxPriority <= pxNewTCB->uxPriori
1059:../../kernel/FreeRTOS/Source/tasks.c **** 				{
 255              		.loc 1 1059 21 is_stmt 0 view .LVU50
 256 006c 2A68     		ldr	r2, [r5]	@ pxCurrentTCB.7_6, pxCurrentTCB
 257              	@ ../../kernel/FreeRTOS/Source/tasks.c:1059: 				if( pxCurrentTCB->uxPriority <= pxNewTCB->uxPriori
1059:../../kernel/FreeRTOS/Source/tasks.c **** 				{
 258              		.loc 1 1059 7 view .LVU51
 259 006e D26A     		ldr	r2, [r2, #44]	@ pxCurrentTCB.7_6->uxPriority, pxCurrentTCB.7_6->uxPriority
 260 0070 9A42     		cmp	r2, r3	@ pxCurrentTCB.7_6->uxPriority, prephitmp_60
1061:../../kernel/FreeRTOS/Source/tasks.c **** 				}
 261              		.loc 1 1061 6 is_stmt 1 view .LVU52
 262              	@ ../../kernel/FreeRTOS/Source/tasks.c:1061: 					pxCurrentTCB = pxNewTCB;
1061:../../kernel/FreeRTOS/Source/tasks.c **** 				}
 263              		.loc 1 1061 19 is_stmt 0 view .LVU53
 264 0072 98BF     		it	ls
 265 0074 2C60     		strls	r4, [r5]	@ pxNewTCB, pxCurrentTCB
 266 0076 D4E7     		b	.L4		@
 267              	.L12:
1038:../../kernel/FreeRTOS/Source/tasks.c **** 
 268              		.loc 1 1038 4 is_stmt 1 view .LVU54
 269              	@ ../../kernel/FreeRTOS/Source/tasks.c:1038: 			pxCurrentTCB = pxNewTCB;
1038:../../kernel/FreeRTOS/Source/tasks.c **** 
 270              		.loc 1 1038 17 is_stmt 0 view .LVU55
 271 0078 2C60     		str	r4, [r5]	@ pxNewTCB, pxCurrentTCB
1040:../../kernel/FreeRTOS/Source/tasks.c **** 			{
 272              		.loc 1 1040 4 is_stmt 1 view .LVU56
 273              	@ ../../kernel/FreeRTOS/Source/tasks.c:1040: 			if( uxCurrentNumberOfTasks == ( UBaseType_t ) 1 )
1040:../../kernel/FreeRTOS/Source/tasks.c **** 			{
 274              		.loc 1 1040 31 is_stmt 0 view .LVU57
 275 007a 1368     		ldr	r3, [r2]	@ uxCurrentNumberOfTasks.5_4, uxCurrentNumberOfTasks
 276              	@ ../../kernel/FreeRTOS/Source/tasks.c:1040: 			if( uxCurrentNumberOfTasks == ( UBaseType_t ) 1 )
1040:../../kernel/FreeRTOS/Source/tasks.c **** 			{
 277              		.loc 1 1040 6 view .LVU58
 278 007c 012B     		cmp	r3, #1	@ uxCurrentNumberOfTasks.5_4,
 279 007e 02D0     		beq	.L3		@,
1040:../../kernel/FreeRTOS/Source/tasks.c **** 			{
 280              		.loc 1 1040 6 view .LVU59
 281 0080 E36A     		ldr	r3, [r4, #44]	@ prephitmp_60, pxNewTCB_25(D)->uxPriority
 282 0082 174E     		ldr	r6, .L14+8	@ tmp175,
 283 0084 CDE7     		b	.L4		@
 284              	.L3:
 285              	.LVL5:
 286              	.LBB224:
 287              	.LBB225:
1108:../../kernel/FreeRTOS/Source/tasks.c **** /*-----------------------------------------------------------*/
1109:../../kernel/FreeRTOS/Source/tasks.c **** 
1110:../../kernel/FreeRTOS/Source/tasks.c **** #if ( INCLUDE_vTaskDelete == 1 )
1111:../../kernel/FreeRTOS/Source/tasks.c **** 
1112:../../kernel/FreeRTOS/Source/tasks.c **** 	void vTaskDelete( TaskHandle_t xTaskToDelete )
1113:../../kernel/FreeRTOS/Source/tasks.c **** 	{
1114:../../kernel/FreeRTOS/Source/tasks.c **** 	TCB_t *pxTCB;
1115:../../kernel/FreeRTOS/Source/tasks.c **** 
1116:../../kernel/FreeRTOS/Source/tasks.c **** 		taskENTER_CRITICAL();
1117:../../kernel/FreeRTOS/Source/tasks.c **** 		{
ARM GAS  /tmp/ccIvB74u.s 			page 26


1118:../../kernel/FreeRTOS/Source/tasks.c **** 			/* If null is passed in here then it is the calling task that is
1119:../../kernel/FreeRTOS/Source/tasks.c **** 			being deleted. */
1120:../../kernel/FreeRTOS/Source/tasks.c **** 			pxTCB = prvGetTCBFromHandle( xTaskToDelete );
1121:../../kernel/FreeRTOS/Source/tasks.c **** 
1122:../../kernel/FreeRTOS/Source/tasks.c **** 			/* Remove task from the ready list. */
1123:../../kernel/FreeRTOS/Source/tasks.c **** 			if( uxListRemove( &( pxTCB->xStateListItem ) ) == ( UBaseType_t ) 0 )
1124:../../kernel/FreeRTOS/Source/tasks.c **** 			{
1125:../../kernel/FreeRTOS/Source/tasks.c **** 				taskRESET_READY_PRIORITY( pxTCB->uxPriority );
1126:../../kernel/FreeRTOS/Source/tasks.c **** 			}
1127:../../kernel/FreeRTOS/Source/tasks.c **** 			else
1128:../../kernel/FreeRTOS/Source/tasks.c **** 			{
1129:../../kernel/FreeRTOS/Source/tasks.c **** 				mtCOVERAGE_TEST_MARKER();
1130:../../kernel/FreeRTOS/Source/tasks.c **** 			}
1131:../../kernel/FreeRTOS/Source/tasks.c **** 
1132:../../kernel/FreeRTOS/Source/tasks.c **** 			/* Is the task waiting on an event also? */
1133:../../kernel/FreeRTOS/Source/tasks.c **** 			if( listLIST_ITEM_CONTAINER( &( pxTCB->xEventListItem ) ) != NULL )
1134:../../kernel/FreeRTOS/Source/tasks.c **** 			{
1135:../../kernel/FreeRTOS/Source/tasks.c **** 				( void ) uxListRemove( &( pxTCB->xEventListItem ) );
1136:../../kernel/FreeRTOS/Source/tasks.c **** 			}
1137:../../kernel/FreeRTOS/Source/tasks.c **** 			else
1138:../../kernel/FreeRTOS/Source/tasks.c **** 			{
1139:../../kernel/FreeRTOS/Source/tasks.c **** 				mtCOVERAGE_TEST_MARKER();
1140:../../kernel/FreeRTOS/Source/tasks.c **** 			}
1141:../../kernel/FreeRTOS/Source/tasks.c **** 
1142:../../kernel/FreeRTOS/Source/tasks.c **** 			/* Increment the uxTaskNumber also so kernel aware debuggers can
1143:../../kernel/FreeRTOS/Source/tasks.c **** 			detect that the task lists need re-generating.  This is done before
1144:../../kernel/FreeRTOS/Source/tasks.c **** 			portPRE_TASK_DELETE_HOOK() as in the Windows port that macro will
1145:../../kernel/FreeRTOS/Source/tasks.c **** 			not return. */
1146:../../kernel/FreeRTOS/Source/tasks.c **** 			uxTaskNumber++;
1147:../../kernel/FreeRTOS/Source/tasks.c **** 
1148:../../kernel/FreeRTOS/Source/tasks.c **** 			if( pxTCB == pxCurrentTCB )
1149:../../kernel/FreeRTOS/Source/tasks.c **** 			{
1150:../../kernel/FreeRTOS/Source/tasks.c **** 				/* A task is deleting itself.  This cannot complete within the
1151:../../kernel/FreeRTOS/Source/tasks.c **** 				task itself, as a context switch to another task is required.
1152:../../kernel/FreeRTOS/Source/tasks.c **** 				Place the task in the termination list.  The idle task will
1153:../../kernel/FreeRTOS/Source/tasks.c **** 				check the termination list and free up any memory allocated by
1154:../../kernel/FreeRTOS/Source/tasks.c **** 				the scheduler for the TCB and stack of the deleted task. */
1155:../../kernel/FreeRTOS/Source/tasks.c **** 				vListInsertEnd( &xTasksWaitingTermination, &( pxTCB->xStateListItem ) );
1156:../../kernel/FreeRTOS/Source/tasks.c **** 
1157:../../kernel/FreeRTOS/Source/tasks.c **** 				/* Increment the ucTasksDeleted variable so the idle task knows
1158:../../kernel/FreeRTOS/Source/tasks.c **** 				there is a task that has been deleted and that it should therefore
1159:../../kernel/FreeRTOS/Source/tasks.c **** 				check the xTasksWaitingTermination list. */
1160:../../kernel/FreeRTOS/Source/tasks.c **** 				++uxDeletedTasksWaitingCleanUp;
1161:../../kernel/FreeRTOS/Source/tasks.c **** 
1162:../../kernel/FreeRTOS/Source/tasks.c **** 				/* The pre-delete hook is primarily for the Windows simulator,
1163:../../kernel/FreeRTOS/Source/tasks.c **** 				in which Windows specific clean up operations are performed,
1164:../../kernel/FreeRTOS/Source/tasks.c **** 				after which it is not possible to yield away from this task -
1165:../../kernel/FreeRTOS/Source/tasks.c **** 				hence xYieldPending is used to latch that a context switch is
1166:../../kernel/FreeRTOS/Source/tasks.c **** 				required. */
1167:../../kernel/FreeRTOS/Source/tasks.c **** 				portPRE_TASK_DELETE_HOOK( pxTCB, &xYieldPending );
1168:../../kernel/FreeRTOS/Source/tasks.c **** 			}
1169:../../kernel/FreeRTOS/Source/tasks.c **** 			else
1170:../../kernel/FreeRTOS/Source/tasks.c **** 			{
1171:../../kernel/FreeRTOS/Source/tasks.c **** 				--uxCurrentNumberOfTasks;
1172:../../kernel/FreeRTOS/Source/tasks.c **** 				prvDeleteTCB( pxTCB );
1173:../../kernel/FreeRTOS/Source/tasks.c **** 
1174:../../kernel/FreeRTOS/Source/tasks.c **** 				/* Reset the next expected unblock time in case it referred to
ARM GAS  /tmp/ccIvB74u.s 			page 27


1175:../../kernel/FreeRTOS/Source/tasks.c **** 				the task that has just been deleted. */
1176:../../kernel/FreeRTOS/Source/tasks.c **** 				prvResetNextTaskUnblockTime();
1177:../../kernel/FreeRTOS/Source/tasks.c **** 			}
1178:../../kernel/FreeRTOS/Source/tasks.c **** 
1179:../../kernel/FreeRTOS/Source/tasks.c **** 			traceTASK_DELETE( pxTCB );
1180:../../kernel/FreeRTOS/Source/tasks.c **** 		}
1181:../../kernel/FreeRTOS/Source/tasks.c **** 		taskEXIT_CRITICAL();
1182:../../kernel/FreeRTOS/Source/tasks.c **** 
1183:../../kernel/FreeRTOS/Source/tasks.c **** 		/* Force a reschedule if it is the currently running task that has just
1184:../../kernel/FreeRTOS/Source/tasks.c **** 		been deleted. */
1185:../../kernel/FreeRTOS/Source/tasks.c **** 		if( xSchedulerRunning != pdFALSE )
1186:../../kernel/FreeRTOS/Source/tasks.c **** 		{
1187:../../kernel/FreeRTOS/Source/tasks.c **** 			if( pxTCB == pxCurrentTCB )
1188:../../kernel/FreeRTOS/Source/tasks.c **** 			{
1189:../../kernel/FreeRTOS/Source/tasks.c **** 				configASSERT( uxSchedulerSuspended == 0 );
1190:../../kernel/FreeRTOS/Source/tasks.c **** 				portYIELD_WITHIN_API();
1191:../../kernel/FreeRTOS/Source/tasks.c **** 			}
1192:../../kernel/FreeRTOS/Source/tasks.c **** 			else
1193:../../kernel/FreeRTOS/Source/tasks.c **** 			{
1194:../../kernel/FreeRTOS/Source/tasks.c **** 				mtCOVERAGE_TEST_MARKER();
1195:../../kernel/FreeRTOS/Source/tasks.c **** 			}
1196:../../kernel/FreeRTOS/Source/tasks.c **** 		}
1197:../../kernel/FreeRTOS/Source/tasks.c **** 	}
1198:../../kernel/FreeRTOS/Source/tasks.c **** 
1199:../../kernel/FreeRTOS/Source/tasks.c **** #endif /* INCLUDE_vTaskDelete */
1200:../../kernel/FreeRTOS/Source/tasks.c **** /*-----------------------------------------------------------*/
1201:../../kernel/FreeRTOS/Source/tasks.c **** 
1202:../../kernel/FreeRTOS/Source/tasks.c **** #if ( INCLUDE_vTaskDelayUntil == 1 )
1203:../../kernel/FreeRTOS/Source/tasks.c **** 
1204:../../kernel/FreeRTOS/Source/tasks.c **** 	void vTaskDelayUntil( TickType_t * const pxPreviousWakeTime, const TickType_t xTimeIncrement )
1205:../../kernel/FreeRTOS/Source/tasks.c **** 	{
1206:../../kernel/FreeRTOS/Source/tasks.c **** 	TickType_t xTimeToWake;
1207:../../kernel/FreeRTOS/Source/tasks.c **** 	BaseType_t xAlreadyYielded, xShouldDelay = pdFALSE;
1208:../../kernel/FreeRTOS/Source/tasks.c **** 
1209:../../kernel/FreeRTOS/Source/tasks.c **** 		configASSERT( pxPreviousWakeTime );
1210:../../kernel/FreeRTOS/Source/tasks.c **** 		configASSERT( ( xTimeIncrement > 0U ) );
1211:../../kernel/FreeRTOS/Source/tasks.c **** 		configASSERT( uxSchedulerSuspended == 0 );
1212:../../kernel/FreeRTOS/Source/tasks.c **** 
1213:../../kernel/FreeRTOS/Source/tasks.c **** 		vTaskSuspendAll();
1214:../../kernel/FreeRTOS/Source/tasks.c **** 		{
1215:../../kernel/FreeRTOS/Source/tasks.c **** 			/* Minor optimisation.  The tick count cannot change in this
1216:../../kernel/FreeRTOS/Source/tasks.c **** 			block. */
1217:../../kernel/FreeRTOS/Source/tasks.c **** 			const TickType_t xConstTickCount = xTickCount;
1218:../../kernel/FreeRTOS/Source/tasks.c **** 
1219:../../kernel/FreeRTOS/Source/tasks.c **** 			/* Generate the tick time at which the task wants to wake. */
1220:../../kernel/FreeRTOS/Source/tasks.c **** 			xTimeToWake = *pxPreviousWakeTime + xTimeIncrement;
1221:../../kernel/FreeRTOS/Source/tasks.c **** 
1222:../../kernel/FreeRTOS/Source/tasks.c **** 			if( xConstTickCount < *pxPreviousWakeTime )
1223:../../kernel/FreeRTOS/Source/tasks.c **** 			{
1224:../../kernel/FreeRTOS/Source/tasks.c **** 				/* The tick count has overflowed since this function was
1225:../../kernel/FreeRTOS/Source/tasks.c **** 				lasted called.  In this case the only time we should ever
1226:../../kernel/FreeRTOS/Source/tasks.c **** 				actually delay is if the wake time has also	overflowed,
1227:../../kernel/FreeRTOS/Source/tasks.c **** 				and the wake time is greater than the tick time.  When this
1228:../../kernel/FreeRTOS/Source/tasks.c **** 				is the case it is as if neither time had overflowed. */
1229:../../kernel/FreeRTOS/Source/tasks.c **** 				if( ( xTimeToWake < *pxPreviousWakeTime ) && ( xTimeToWake > xConstTickCount ) )
1230:../../kernel/FreeRTOS/Source/tasks.c **** 				{
1231:../../kernel/FreeRTOS/Source/tasks.c **** 					xShouldDelay = pdTRUE;
ARM GAS  /tmp/ccIvB74u.s 			page 28


1232:../../kernel/FreeRTOS/Source/tasks.c **** 				}
1233:../../kernel/FreeRTOS/Source/tasks.c **** 				else
1234:../../kernel/FreeRTOS/Source/tasks.c **** 				{
1235:../../kernel/FreeRTOS/Source/tasks.c **** 					mtCOVERAGE_TEST_MARKER();
1236:../../kernel/FreeRTOS/Source/tasks.c **** 				}
1237:../../kernel/FreeRTOS/Source/tasks.c **** 			}
1238:../../kernel/FreeRTOS/Source/tasks.c **** 			else
1239:../../kernel/FreeRTOS/Source/tasks.c **** 			{
1240:../../kernel/FreeRTOS/Source/tasks.c **** 				/* The tick time has not overflowed.  In this case we will
1241:../../kernel/FreeRTOS/Source/tasks.c **** 				delay if either the wake time has overflowed, and/or the
1242:../../kernel/FreeRTOS/Source/tasks.c **** 				tick time is less than the wake time. */
1243:../../kernel/FreeRTOS/Source/tasks.c **** 				if( ( xTimeToWake < *pxPreviousWakeTime ) || ( xTimeToWake > xConstTickCount ) )
1244:../../kernel/FreeRTOS/Source/tasks.c **** 				{
1245:../../kernel/FreeRTOS/Source/tasks.c **** 					xShouldDelay = pdTRUE;
1246:../../kernel/FreeRTOS/Source/tasks.c **** 				}
1247:../../kernel/FreeRTOS/Source/tasks.c **** 				else
1248:../../kernel/FreeRTOS/Source/tasks.c **** 				{
1249:../../kernel/FreeRTOS/Source/tasks.c **** 					mtCOVERAGE_TEST_MARKER();
1250:../../kernel/FreeRTOS/Source/tasks.c **** 				}
1251:../../kernel/FreeRTOS/Source/tasks.c **** 			}
1252:../../kernel/FreeRTOS/Source/tasks.c **** 
1253:../../kernel/FreeRTOS/Source/tasks.c **** 			/* Update the wake time ready for the next call. */
1254:../../kernel/FreeRTOS/Source/tasks.c **** 			*pxPreviousWakeTime = xTimeToWake;
1255:../../kernel/FreeRTOS/Source/tasks.c **** 
1256:../../kernel/FreeRTOS/Source/tasks.c **** 			if( xShouldDelay != pdFALSE )
1257:../../kernel/FreeRTOS/Source/tasks.c **** 			{
1258:../../kernel/FreeRTOS/Source/tasks.c **** 				traceTASK_DELAY_UNTIL( xTimeToWake );
1259:../../kernel/FreeRTOS/Source/tasks.c **** 
1260:../../kernel/FreeRTOS/Source/tasks.c **** 				/* prvAddCurrentTaskToDelayedList() needs the block time, not
1261:../../kernel/FreeRTOS/Source/tasks.c **** 				the time to wake, so subtract the current tick count. */
1262:../../kernel/FreeRTOS/Source/tasks.c **** 				prvAddCurrentTaskToDelayedList( xTimeToWake - xConstTickCount, pdFALSE );
1263:../../kernel/FreeRTOS/Source/tasks.c **** 			}
1264:../../kernel/FreeRTOS/Source/tasks.c **** 			else
1265:../../kernel/FreeRTOS/Source/tasks.c **** 			{
1266:../../kernel/FreeRTOS/Source/tasks.c **** 				mtCOVERAGE_TEST_MARKER();
1267:../../kernel/FreeRTOS/Source/tasks.c **** 			}
1268:../../kernel/FreeRTOS/Source/tasks.c **** 		}
1269:../../kernel/FreeRTOS/Source/tasks.c **** 		xAlreadyYielded = xTaskResumeAll();
1270:../../kernel/FreeRTOS/Source/tasks.c **** 
1271:../../kernel/FreeRTOS/Source/tasks.c **** 		/* Force a reschedule if xTaskResumeAll has not already done so, we may
1272:../../kernel/FreeRTOS/Source/tasks.c **** 		have put ourselves to sleep. */
1273:../../kernel/FreeRTOS/Source/tasks.c **** 		if( xAlreadyYielded == pdFALSE )
1274:../../kernel/FreeRTOS/Source/tasks.c **** 		{
1275:../../kernel/FreeRTOS/Source/tasks.c **** 			portYIELD_WITHIN_API();
1276:../../kernel/FreeRTOS/Source/tasks.c **** 		}
1277:../../kernel/FreeRTOS/Source/tasks.c **** 		else
1278:../../kernel/FreeRTOS/Source/tasks.c **** 		{
1279:../../kernel/FreeRTOS/Source/tasks.c **** 			mtCOVERAGE_TEST_MARKER();
1280:../../kernel/FreeRTOS/Source/tasks.c **** 		}
1281:../../kernel/FreeRTOS/Source/tasks.c **** 	}
1282:../../kernel/FreeRTOS/Source/tasks.c **** 
1283:../../kernel/FreeRTOS/Source/tasks.c **** #endif /* INCLUDE_vTaskDelayUntil */
1284:../../kernel/FreeRTOS/Source/tasks.c **** /*-----------------------------------------------------------*/
1285:../../kernel/FreeRTOS/Source/tasks.c **** 
1286:../../kernel/FreeRTOS/Source/tasks.c **** #if ( INCLUDE_vTaskDelay == 1 )
1287:../../kernel/FreeRTOS/Source/tasks.c **** 
1288:../../kernel/FreeRTOS/Source/tasks.c **** 	void vTaskDelay( const TickType_t xTicksToDelay )
ARM GAS  /tmp/ccIvB74u.s 			page 29


1289:../../kernel/FreeRTOS/Source/tasks.c **** 	{
1290:../../kernel/FreeRTOS/Source/tasks.c **** 	BaseType_t xAlreadyYielded = pdFALSE;
1291:../../kernel/FreeRTOS/Source/tasks.c **** 
1292:../../kernel/FreeRTOS/Source/tasks.c **** 		/* A delay time of zero just forces a reschedule. */
1293:../../kernel/FreeRTOS/Source/tasks.c **** 		if( xTicksToDelay > ( TickType_t ) 0U )
1294:../../kernel/FreeRTOS/Source/tasks.c **** 		{
1295:../../kernel/FreeRTOS/Source/tasks.c **** 			configASSERT( uxSchedulerSuspended == 0 );
1296:../../kernel/FreeRTOS/Source/tasks.c **** 			vTaskSuspendAll();
1297:../../kernel/FreeRTOS/Source/tasks.c **** 			{
1298:../../kernel/FreeRTOS/Source/tasks.c **** 				traceTASK_DELAY();
1299:../../kernel/FreeRTOS/Source/tasks.c **** 
1300:../../kernel/FreeRTOS/Source/tasks.c **** 				/* A task that is removed from the event list while the
1301:../../kernel/FreeRTOS/Source/tasks.c **** 				scheduler is suspended will not get placed in the ready
1302:../../kernel/FreeRTOS/Source/tasks.c **** 				list or removed from the blocked list until the scheduler
1303:../../kernel/FreeRTOS/Source/tasks.c **** 				is resumed.
1304:../../kernel/FreeRTOS/Source/tasks.c **** 
1305:../../kernel/FreeRTOS/Source/tasks.c **** 				This task cannot be in an event list as it is the currently
1306:../../kernel/FreeRTOS/Source/tasks.c **** 				executing task. */
1307:../../kernel/FreeRTOS/Source/tasks.c **** 				prvAddCurrentTaskToDelayedList( xTicksToDelay, pdFALSE );
1308:../../kernel/FreeRTOS/Source/tasks.c **** 			}
1309:../../kernel/FreeRTOS/Source/tasks.c **** 			xAlreadyYielded = xTaskResumeAll();
1310:../../kernel/FreeRTOS/Source/tasks.c **** 		}
1311:../../kernel/FreeRTOS/Source/tasks.c **** 		else
1312:../../kernel/FreeRTOS/Source/tasks.c **** 		{
1313:../../kernel/FreeRTOS/Source/tasks.c **** 			mtCOVERAGE_TEST_MARKER();
1314:../../kernel/FreeRTOS/Source/tasks.c **** 		}
1315:../../kernel/FreeRTOS/Source/tasks.c **** 
1316:../../kernel/FreeRTOS/Source/tasks.c **** 		/* Force a reschedule if xTaskResumeAll has not already done so, we may
1317:../../kernel/FreeRTOS/Source/tasks.c **** 		have put ourselves to sleep. */
1318:../../kernel/FreeRTOS/Source/tasks.c **** 		if( xAlreadyYielded == pdFALSE )
1319:../../kernel/FreeRTOS/Source/tasks.c **** 		{
1320:../../kernel/FreeRTOS/Source/tasks.c **** 			portYIELD_WITHIN_API();
1321:../../kernel/FreeRTOS/Source/tasks.c **** 		}
1322:../../kernel/FreeRTOS/Source/tasks.c **** 		else
1323:../../kernel/FreeRTOS/Source/tasks.c **** 		{
1324:../../kernel/FreeRTOS/Source/tasks.c **** 			mtCOVERAGE_TEST_MARKER();
1325:../../kernel/FreeRTOS/Source/tasks.c **** 		}
1326:../../kernel/FreeRTOS/Source/tasks.c **** 	}
1327:../../kernel/FreeRTOS/Source/tasks.c **** 
1328:../../kernel/FreeRTOS/Source/tasks.c **** #endif /* INCLUDE_vTaskDelay */
1329:../../kernel/FreeRTOS/Source/tasks.c **** /*-----------------------------------------------------------*/
1330:../../kernel/FreeRTOS/Source/tasks.c **** 
1331:../../kernel/FreeRTOS/Source/tasks.c **** #if( ( INCLUDE_eTaskGetState == 1 ) || ( configUSE_TRACE_FACILITY == 1 ) )
1332:../../kernel/FreeRTOS/Source/tasks.c **** 
1333:../../kernel/FreeRTOS/Source/tasks.c **** 	eTaskState eTaskGetState( TaskHandle_t xTask )
1334:../../kernel/FreeRTOS/Source/tasks.c **** 	{
1335:../../kernel/FreeRTOS/Source/tasks.c **** 	eTaskState eReturn;
1336:../../kernel/FreeRTOS/Source/tasks.c **** 	List_t *pxStateList;
1337:../../kernel/FreeRTOS/Source/tasks.c **** 	const TCB_t * const pxTCB = ( TCB_t * ) xTask;
1338:../../kernel/FreeRTOS/Source/tasks.c **** 
1339:../../kernel/FreeRTOS/Source/tasks.c **** 		configASSERT( pxTCB );
1340:../../kernel/FreeRTOS/Source/tasks.c **** 
1341:../../kernel/FreeRTOS/Source/tasks.c **** 		if( pxTCB == pxCurrentTCB )
1342:../../kernel/FreeRTOS/Source/tasks.c **** 		{
1343:../../kernel/FreeRTOS/Source/tasks.c **** 			/* The task calling this function is querying its own state. */
1344:../../kernel/FreeRTOS/Source/tasks.c **** 			eReturn = eRunning;
1345:../../kernel/FreeRTOS/Source/tasks.c **** 		}
ARM GAS  /tmp/ccIvB74u.s 			page 30


1346:../../kernel/FreeRTOS/Source/tasks.c **** 		else
1347:../../kernel/FreeRTOS/Source/tasks.c **** 		{
1348:../../kernel/FreeRTOS/Source/tasks.c **** 			taskENTER_CRITICAL();
1349:../../kernel/FreeRTOS/Source/tasks.c **** 			{
1350:../../kernel/FreeRTOS/Source/tasks.c **** 				pxStateList = ( List_t * ) listLIST_ITEM_CONTAINER( &( pxTCB->xStateListItem ) );
1351:../../kernel/FreeRTOS/Source/tasks.c **** 			}
1352:../../kernel/FreeRTOS/Source/tasks.c **** 			taskEXIT_CRITICAL();
1353:../../kernel/FreeRTOS/Source/tasks.c **** 
1354:../../kernel/FreeRTOS/Source/tasks.c **** 			if( ( pxStateList == pxDelayedTaskList ) || ( pxStateList == pxOverflowDelayedTaskList ) )
1355:../../kernel/FreeRTOS/Source/tasks.c **** 			{
1356:../../kernel/FreeRTOS/Source/tasks.c **** 				/* The task being queried is referenced from one of the Blocked
1357:../../kernel/FreeRTOS/Source/tasks.c **** 				lists. */
1358:../../kernel/FreeRTOS/Source/tasks.c **** 				eReturn = eBlocked;
1359:../../kernel/FreeRTOS/Source/tasks.c **** 			}
1360:../../kernel/FreeRTOS/Source/tasks.c **** 
1361:../../kernel/FreeRTOS/Source/tasks.c **** 			#if ( INCLUDE_vTaskSuspend == 1 )
1362:../../kernel/FreeRTOS/Source/tasks.c **** 				else if( pxStateList == &xSuspendedTaskList )
1363:../../kernel/FreeRTOS/Source/tasks.c **** 				{
1364:../../kernel/FreeRTOS/Source/tasks.c **** 					/* The task being queried is referenced from the suspended
1365:../../kernel/FreeRTOS/Source/tasks.c **** 					list.  Is it genuinely suspended or is it block
1366:../../kernel/FreeRTOS/Source/tasks.c **** 					indefinitely? */
1367:../../kernel/FreeRTOS/Source/tasks.c **** 					if( listLIST_ITEM_CONTAINER( &( pxTCB->xEventListItem ) ) == NULL )
1368:../../kernel/FreeRTOS/Source/tasks.c **** 					{
1369:../../kernel/FreeRTOS/Source/tasks.c **** 						eReturn = eSuspended;
1370:../../kernel/FreeRTOS/Source/tasks.c **** 					}
1371:../../kernel/FreeRTOS/Source/tasks.c **** 					else
1372:../../kernel/FreeRTOS/Source/tasks.c **** 					{
1373:../../kernel/FreeRTOS/Source/tasks.c **** 						eReturn = eBlocked;
1374:../../kernel/FreeRTOS/Source/tasks.c **** 					}
1375:../../kernel/FreeRTOS/Source/tasks.c **** 				}
1376:../../kernel/FreeRTOS/Source/tasks.c **** 			#endif
1377:../../kernel/FreeRTOS/Source/tasks.c **** 
1378:../../kernel/FreeRTOS/Source/tasks.c **** 			#if ( INCLUDE_vTaskDelete == 1 )
1379:../../kernel/FreeRTOS/Source/tasks.c **** 				else if( ( pxStateList == &xTasksWaitingTermination ) || ( pxStateList == NULL ) )
1380:../../kernel/FreeRTOS/Source/tasks.c **** 				{
1381:../../kernel/FreeRTOS/Source/tasks.c **** 					/* The task being queried is referenced from the deleted
1382:../../kernel/FreeRTOS/Source/tasks.c **** 					tasks list, or it is not referenced from any lists at
1383:../../kernel/FreeRTOS/Source/tasks.c **** 					all. */
1384:../../kernel/FreeRTOS/Source/tasks.c **** 					eReturn = eDeleted;
1385:../../kernel/FreeRTOS/Source/tasks.c **** 				}
1386:../../kernel/FreeRTOS/Source/tasks.c **** 			#endif
1387:../../kernel/FreeRTOS/Source/tasks.c **** 
1388:../../kernel/FreeRTOS/Source/tasks.c **** 			else /*lint !e525 Negative indentation is intended to make use of pre-processor clearer. */
1389:../../kernel/FreeRTOS/Source/tasks.c **** 			{
1390:../../kernel/FreeRTOS/Source/tasks.c **** 				/* If the task is not in any other state, it must be in the
1391:../../kernel/FreeRTOS/Source/tasks.c **** 				Ready (including pending ready) state. */
1392:../../kernel/FreeRTOS/Source/tasks.c **** 				eReturn = eReady;
1393:../../kernel/FreeRTOS/Source/tasks.c **** 			}
1394:../../kernel/FreeRTOS/Source/tasks.c **** 		}
1395:../../kernel/FreeRTOS/Source/tasks.c **** 
1396:../../kernel/FreeRTOS/Source/tasks.c **** 		return eReturn;
1397:../../kernel/FreeRTOS/Source/tasks.c **** 	} /*lint !e818 xTask cannot be a pointer to const because it is a typedef. */
1398:../../kernel/FreeRTOS/Source/tasks.c **** 
1399:../../kernel/FreeRTOS/Source/tasks.c **** #endif /* INCLUDE_eTaskGetState */
1400:../../kernel/FreeRTOS/Source/tasks.c **** /*-----------------------------------------------------------*/
1401:../../kernel/FreeRTOS/Source/tasks.c **** 
1402:../../kernel/FreeRTOS/Source/tasks.c **** #if ( INCLUDE_uxTaskPriorityGet == 1 )
ARM GAS  /tmp/ccIvB74u.s 			page 31


1403:../../kernel/FreeRTOS/Source/tasks.c **** 
1404:../../kernel/FreeRTOS/Source/tasks.c **** 	UBaseType_t uxTaskPriorityGet( TaskHandle_t xTask )
1405:../../kernel/FreeRTOS/Source/tasks.c **** 	{
1406:../../kernel/FreeRTOS/Source/tasks.c **** 	TCB_t *pxTCB;
1407:../../kernel/FreeRTOS/Source/tasks.c **** 	UBaseType_t uxReturn;
1408:../../kernel/FreeRTOS/Source/tasks.c **** 
1409:../../kernel/FreeRTOS/Source/tasks.c **** 		taskENTER_CRITICAL();
1410:../../kernel/FreeRTOS/Source/tasks.c **** 		{
1411:../../kernel/FreeRTOS/Source/tasks.c **** 			/* If null is passed in here then it is the priority of the that
1412:../../kernel/FreeRTOS/Source/tasks.c **** 			called uxTaskPriorityGet() that is being queried. */
1413:../../kernel/FreeRTOS/Source/tasks.c **** 			pxTCB = prvGetTCBFromHandle( xTask );
1414:../../kernel/FreeRTOS/Source/tasks.c **** 			uxReturn = pxTCB->uxPriority;
1415:../../kernel/FreeRTOS/Source/tasks.c **** 		}
1416:../../kernel/FreeRTOS/Source/tasks.c **** 		taskEXIT_CRITICAL();
1417:../../kernel/FreeRTOS/Source/tasks.c **** 
1418:../../kernel/FreeRTOS/Source/tasks.c **** 		return uxReturn;
1419:../../kernel/FreeRTOS/Source/tasks.c **** 	}
1420:../../kernel/FreeRTOS/Source/tasks.c **** 
1421:../../kernel/FreeRTOS/Source/tasks.c **** #endif /* INCLUDE_uxTaskPriorityGet */
1422:../../kernel/FreeRTOS/Source/tasks.c **** /*-----------------------------------------------------------*/
1423:../../kernel/FreeRTOS/Source/tasks.c **** 
1424:../../kernel/FreeRTOS/Source/tasks.c **** #if ( INCLUDE_uxTaskPriorityGet == 1 )
1425:../../kernel/FreeRTOS/Source/tasks.c **** 
1426:../../kernel/FreeRTOS/Source/tasks.c **** 	UBaseType_t uxTaskPriorityGetFromISR( TaskHandle_t xTask )
1427:../../kernel/FreeRTOS/Source/tasks.c **** 	{
1428:../../kernel/FreeRTOS/Source/tasks.c **** 	TCB_t *pxTCB;
1429:../../kernel/FreeRTOS/Source/tasks.c **** 	UBaseType_t uxReturn, uxSavedInterruptState;
1430:../../kernel/FreeRTOS/Source/tasks.c **** 
1431:../../kernel/FreeRTOS/Source/tasks.c **** 		/* RTOS ports that support interrupt nesting have the concept of a
1432:../../kernel/FreeRTOS/Source/tasks.c **** 		maximum	system call (or maximum API call) interrupt priority.
1433:../../kernel/FreeRTOS/Source/tasks.c **** 		Interrupts that are	above the maximum system call priority are keep
1434:../../kernel/FreeRTOS/Source/tasks.c **** 		permanently enabled, even when the RTOS kernel is in a critical section,
1435:../../kernel/FreeRTOS/Source/tasks.c **** 		but cannot make any calls to FreeRTOS API functions.  If configASSERT()
1436:../../kernel/FreeRTOS/Source/tasks.c **** 		is defined in FreeRTOSConfig.h then
1437:../../kernel/FreeRTOS/Source/tasks.c **** 		portASSERT_IF_INTERRUPT_PRIORITY_INVALID() will result in an assertion
1438:../../kernel/FreeRTOS/Source/tasks.c **** 		failure if a FreeRTOS API function is called from an interrupt that has
1439:../../kernel/FreeRTOS/Source/tasks.c **** 		been assigned a priority above the configured maximum system call
1440:../../kernel/FreeRTOS/Source/tasks.c **** 		priority.  Only FreeRTOS functions that end in FromISR can be called
1441:../../kernel/FreeRTOS/Source/tasks.c **** 		from interrupts	that have been assigned a priority at or (logically)
1442:../../kernel/FreeRTOS/Source/tasks.c **** 		below the maximum system call interrupt priority.  FreeRTOS maintains a
1443:../../kernel/FreeRTOS/Source/tasks.c **** 		separate interrupt safe API to ensure interrupt entry is as fast and as
1444:../../kernel/FreeRTOS/Source/tasks.c **** 		simple as possible.  More information (albeit Cortex-M specific) is
1445:../../kernel/FreeRTOS/Source/tasks.c **** 		provided on the following link:
1446:../../kernel/FreeRTOS/Source/tasks.c **** 		http://www.freertos.org/RTOS-Cortex-M3-M4.html */
1447:../../kernel/FreeRTOS/Source/tasks.c **** 		portASSERT_IF_INTERRUPT_PRIORITY_INVALID();
1448:../../kernel/FreeRTOS/Source/tasks.c **** 
1449:../../kernel/FreeRTOS/Source/tasks.c **** 		uxSavedInterruptState = portSET_INTERRUPT_MASK_FROM_ISR();
1450:../../kernel/FreeRTOS/Source/tasks.c **** 		{
1451:../../kernel/FreeRTOS/Source/tasks.c **** 			/* If null is passed in here then it is the priority of the calling
1452:../../kernel/FreeRTOS/Source/tasks.c **** 			task that is being queried. */
1453:../../kernel/FreeRTOS/Source/tasks.c **** 			pxTCB = prvGetTCBFromHandle( xTask );
1454:../../kernel/FreeRTOS/Source/tasks.c **** 			uxReturn = pxTCB->uxPriority;
1455:../../kernel/FreeRTOS/Source/tasks.c **** 		}
1456:../../kernel/FreeRTOS/Source/tasks.c **** 		portCLEAR_INTERRUPT_MASK_FROM_ISR( uxSavedInterruptState );
1457:../../kernel/FreeRTOS/Source/tasks.c **** 
1458:../../kernel/FreeRTOS/Source/tasks.c **** 		return uxReturn;
1459:../../kernel/FreeRTOS/Source/tasks.c **** 	}
ARM GAS  /tmp/ccIvB74u.s 			page 32


1460:../../kernel/FreeRTOS/Source/tasks.c **** 
1461:../../kernel/FreeRTOS/Source/tasks.c **** #endif /* INCLUDE_uxTaskPriorityGet */
1462:../../kernel/FreeRTOS/Source/tasks.c **** /*-----------------------------------------------------------*/
1463:../../kernel/FreeRTOS/Source/tasks.c **** 
1464:../../kernel/FreeRTOS/Source/tasks.c **** #if ( INCLUDE_vTaskPrioritySet == 1 )
1465:../../kernel/FreeRTOS/Source/tasks.c **** 
1466:../../kernel/FreeRTOS/Source/tasks.c **** 	void vTaskPrioritySet( TaskHandle_t xTask, UBaseType_t uxNewPriority )
1467:../../kernel/FreeRTOS/Source/tasks.c **** 	{
1468:../../kernel/FreeRTOS/Source/tasks.c **** 	TCB_t *pxTCB;
1469:../../kernel/FreeRTOS/Source/tasks.c **** 	UBaseType_t uxCurrentBasePriority, uxPriorityUsedOnEntry;
1470:../../kernel/FreeRTOS/Source/tasks.c **** 	BaseType_t xYieldRequired = pdFALSE;
1471:../../kernel/FreeRTOS/Source/tasks.c **** 
1472:../../kernel/FreeRTOS/Source/tasks.c **** 		configASSERT( ( uxNewPriority < configMAX_PRIORITIES ) );
1473:../../kernel/FreeRTOS/Source/tasks.c **** 
1474:../../kernel/FreeRTOS/Source/tasks.c **** 		/* Ensure the new priority is valid. */
1475:../../kernel/FreeRTOS/Source/tasks.c **** 		if( uxNewPriority >= ( UBaseType_t ) configMAX_PRIORITIES )
1476:../../kernel/FreeRTOS/Source/tasks.c **** 		{
1477:../../kernel/FreeRTOS/Source/tasks.c **** 			uxNewPriority = ( UBaseType_t ) configMAX_PRIORITIES - ( UBaseType_t ) 1U;
1478:../../kernel/FreeRTOS/Source/tasks.c **** 		}
1479:../../kernel/FreeRTOS/Source/tasks.c **** 		else
1480:../../kernel/FreeRTOS/Source/tasks.c **** 		{
1481:../../kernel/FreeRTOS/Source/tasks.c **** 			mtCOVERAGE_TEST_MARKER();
1482:../../kernel/FreeRTOS/Source/tasks.c **** 		}
1483:../../kernel/FreeRTOS/Source/tasks.c **** 
1484:../../kernel/FreeRTOS/Source/tasks.c **** 		taskENTER_CRITICAL();
1485:../../kernel/FreeRTOS/Source/tasks.c **** 		{
1486:../../kernel/FreeRTOS/Source/tasks.c **** 			/* If null is passed in here then it is the priority of the calling
1487:../../kernel/FreeRTOS/Source/tasks.c **** 			task that is being changed. */
1488:../../kernel/FreeRTOS/Source/tasks.c **** 			pxTCB = prvGetTCBFromHandle( xTask );
1489:../../kernel/FreeRTOS/Source/tasks.c **** 
1490:../../kernel/FreeRTOS/Source/tasks.c **** 			traceTASK_PRIORITY_SET( pxTCB, uxNewPriority );
1491:../../kernel/FreeRTOS/Source/tasks.c **** 
1492:../../kernel/FreeRTOS/Source/tasks.c **** 			#if ( configUSE_MUTEXES == 1 )
1493:../../kernel/FreeRTOS/Source/tasks.c **** 			{
1494:../../kernel/FreeRTOS/Source/tasks.c **** 				uxCurrentBasePriority = pxTCB->uxBasePriority;
1495:../../kernel/FreeRTOS/Source/tasks.c **** 			}
1496:../../kernel/FreeRTOS/Source/tasks.c **** 			#else
1497:../../kernel/FreeRTOS/Source/tasks.c **** 			{
1498:../../kernel/FreeRTOS/Source/tasks.c **** 				uxCurrentBasePriority = pxTCB->uxPriority;
1499:../../kernel/FreeRTOS/Source/tasks.c **** 			}
1500:../../kernel/FreeRTOS/Source/tasks.c **** 			#endif
1501:../../kernel/FreeRTOS/Source/tasks.c **** 
1502:../../kernel/FreeRTOS/Source/tasks.c **** 			if( uxCurrentBasePriority != uxNewPriority )
1503:../../kernel/FreeRTOS/Source/tasks.c **** 			{
1504:../../kernel/FreeRTOS/Source/tasks.c **** 				/* The priority change may have readied a task of higher
1505:../../kernel/FreeRTOS/Source/tasks.c **** 				priority than the calling task. */
1506:../../kernel/FreeRTOS/Source/tasks.c **** 				if( uxNewPriority > uxCurrentBasePriority )
1507:../../kernel/FreeRTOS/Source/tasks.c **** 				{
1508:../../kernel/FreeRTOS/Source/tasks.c **** 					if( pxTCB != pxCurrentTCB )
1509:../../kernel/FreeRTOS/Source/tasks.c **** 					{
1510:../../kernel/FreeRTOS/Source/tasks.c **** 						/* The priority of a task other than the currently
1511:../../kernel/FreeRTOS/Source/tasks.c **** 						running task is being raised.  Is the priority being
1512:../../kernel/FreeRTOS/Source/tasks.c **** 						raised above that of the running task? */
1513:../../kernel/FreeRTOS/Source/tasks.c **** 						if( uxNewPriority >= pxCurrentTCB->uxPriority )
1514:../../kernel/FreeRTOS/Source/tasks.c **** 						{
1515:../../kernel/FreeRTOS/Source/tasks.c **** 							xYieldRequired = pdTRUE;
1516:../../kernel/FreeRTOS/Source/tasks.c **** 						}
ARM GAS  /tmp/ccIvB74u.s 			page 33


1517:../../kernel/FreeRTOS/Source/tasks.c **** 						else
1518:../../kernel/FreeRTOS/Source/tasks.c **** 						{
1519:../../kernel/FreeRTOS/Source/tasks.c **** 							mtCOVERAGE_TEST_MARKER();
1520:../../kernel/FreeRTOS/Source/tasks.c **** 						}
1521:../../kernel/FreeRTOS/Source/tasks.c **** 					}
1522:../../kernel/FreeRTOS/Source/tasks.c **** 					else
1523:../../kernel/FreeRTOS/Source/tasks.c **** 					{
1524:../../kernel/FreeRTOS/Source/tasks.c **** 						/* The priority of the running task is being raised,
1525:../../kernel/FreeRTOS/Source/tasks.c **** 						but the running task must already be the highest
1526:../../kernel/FreeRTOS/Source/tasks.c **** 						priority task able to run so no yield is required. */
1527:../../kernel/FreeRTOS/Source/tasks.c **** 					}
1528:../../kernel/FreeRTOS/Source/tasks.c **** 				}
1529:../../kernel/FreeRTOS/Source/tasks.c **** 				else if( pxTCB == pxCurrentTCB )
1530:../../kernel/FreeRTOS/Source/tasks.c **** 				{
1531:../../kernel/FreeRTOS/Source/tasks.c **** 					/* Setting the priority of the running task down means
1532:../../kernel/FreeRTOS/Source/tasks.c **** 					there may now be another task of higher priority that
1533:../../kernel/FreeRTOS/Source/tasks.c **** 					is ready to execute. */
1534:../../kernel/FreeRTOS/Source/tasks.c **** 					xYieldRequired = pdTRUE;
1535:../../kernel/FreeRTOS/Source/tasks.c **** 				}
1536:../../kernel/FreeRTOS/Source/tasks.c **** 				else
1537:../../kernel/FreeRTOS/Source/tasks.c **** 				{
1538:../../kernel/FreeRTOS/Source/tasks.c **** 					/* Setting the priority of any other task down does not
1539:../../kernel/FreeRTOS/Source/tasks.c **** 					require a yield as the running task must be above the
1540:../../kernel/FreeRTOS/Source/tasks.c **** 					new priority of the task being modified. */
1541:../../kernel/FreeRTOS/Source/tasks.c **** 				}
1542:../../kernel/FreeRTOS/Source/tasks.c **** 
1543:../../kernel/FreeRTOS/Source/tasks.c **** 				/* Remember the ready list the task might be referenced from
1544:../../kernel/FreeRTOS/Source/tasks.c **** 				before its uxPriority member is changed so the
1545:../../kernel/FreeRTOS/Source/tasks.c **** 				taskRESET_READY_PRIORITY() macro can function correctly. */
1546:../../kernel/FreeRTOS/Source/tasks.c **** 				uxPriorityUsedOnEntry = pxTCB->uxPriority;
1547:../../kernel/FreeRTOS/Source/tasks.c **** 
1548:../../kernel/FreeRTOS/Source/tasks.c **** 				#if ( configUSE_MUTEXES == 1 )
1549:../../kernel/FreeRTOS/Source/tasks.c **** 				{
1550:../../kernel/FreeRTOS/Source/tasks.c **** 					/* Only change the priority being used if the task is not
1551:../../kernel/FreeRTOS/Source/tasks.c **** 					currently using an inherited priority. */
1552:../../kernel/FreeRTOS/Source/tasks.c **** 					if( pxTCB->uxBasePriority == pxTCB->uxPriority )
1553:../../kernel/FreeRTOS/Source/tasks.c **** 					{
1554:../../kernel/FreeRTOS/Source/tasks.c **** 						pxTCB->uxPriority = uxNewPriority;
1555:../../kernel/FreeRTOS/Source/tasks.c **** 					}
1556:../../kernel/FreeRTOS/Source/tasks.c **** 					else
1557:../../kernel/FreeRTOS/Source/tasks.c **** 					{
1558:../../kernel/FreeRTOS/Source/tasks.c **** 						mtCOVERAGE_TEST_MARKER();
1559:../../kernel/FreeRTOS/Source/tasks.c **** 					}
1560:../../kernel/FreeRTOS/Source/tasks.c **** 
1561:../../kernel/FreeRTOS/Source/tasks.c **** 					/* The base priority gets set whatever. */
1562:../../kernel/FreeRTOS/Source/tasks.c **** 					pxTCB->uxBasePriority = uxNewPriority;
1563:../../kernel/FreeRTOS/Source/tasks.c **** 				}
1564:../../kernel/FreeRTOS/Source/tasks.c **** 				#else
1565:../../kernel/FreeRTOS/Source/tasks.c **** 				{
1566:../../kernel/FreeRTOS/Source/tasks.c **** 					pxTCB->uxPriority = uxNewPriority;
1567:../../kernel/FreeRTOS/Source/tasks.c **** 				}
1568:../../kernel/FreeRTOS/Source/tasks.c **** 				#endif
1569:../../kernel/FreeRTOS/Source/tasks.c **** 
1570:../../kernel/FreeRTOS/Source/tasks.c **** 				/* Only reset the event list item value if the value is not
1571:../../kernel/FreeRTOS/Source/tasks.c **** 				being used for anything else. */
1572:../../kernel/FreeRTOS/Source/tasks.c **** 				if( ( listGET_LIST_ITEM_VALUE( &( pxTCB->xEventListItem ) ) & taskEVENT_LIST_ITEM_VALUE_IN_USE 
1573:../../kernel/FreeRTOS/Source/tasks.c **** 				{
ARM GAS  /tmp/ccIvB74u.s 			page 34


1574:../../kernel/FreeRTOS/Source/tasks.c **** 					listSET_LIST_ITEM_VALUE( &( pxTCB->xEventListItem ), ( ( TickType_t ) configMAX_PRIORITIES - (
1575:../../kernel/FreeRTOS/Source/tasks.c **** 				}
1576:../../kernel/FreeRTOS/Source/tasks.c **** 				else
1577:../../kernel/FreeRTOS/Source/tasks.c **** 				{
1578:../../kernel/FreeRTOS/Source/tasks.c **** 					mtCOVERAGE_TEST_MARKER();
1579:../../kernel/FreeRTOS/Source/tasks.c **** 				}
1580:../../kernel/FreeRTOS/Source/tasks.c **** 
1581:../../kernel/FreeRTOS/Source/tasks.c **** 				/* If the task is in the blocked or suspended list we need do
1582:../../kernel/FreeRTOS/Source/tasks.c **** 				nothing more than change its priority variable. However, if
1583:../../kernel/FreeRTOS/Source/tasks.c **** 				the task is in a ready list it needs to be removed and placed
1584:../../kernel/FreeRTOS/Source/tasks.c **** 				in the list appropriate to its new priority. */
1585:../../kernel/FreeRTOS/Source/tasks.c **** 				if( listIS_CONTAINED_WITHIN( &( pxReadyTasksLists[ uxPriorityUsedOnEntry ] ), &( pxTCB->xStateL
1586:../../kernel/FreeRTOS/Source/tasks.c **** 				{
1587:../../kernel/FreeRTOS/Source/tasks.c **** 					/* The task is currently in its ready list - remove before
1588:../../kernel/FreeRTOS/Source/tasks.c **** 					adding it to it's new ready list.  As we are in a critical
1589:../../kernel/FreeRTOS/Source/tasks.c **** 					section we can do this even if the scheduler is suspended. */
1590:../../kernel/FreeRTOS/Source/tasks.c **** 					if( uxListRemove( &( pxTCB->xStateListItem ) ) == ( UBaseType_t ) 0 )
1591:../../kernel/FreeRTOS/Source/tasks.c **** 					{
1592:../../kernel/FreeRTOS/Source/tasks.c **** 						/* It is known that the task is in its ready list so
1593:../../kernel/FreeRTOS/Source/tasks.c **** 						there is no need to check again and the port level
1594:../../kernel/FreeRTOS/Source/tasks.c **** 						reset macro can be called directly. */
1595:../../kernel/FreeRTOS/Source/tasks.c **** 						portRESET_READY_PRIORITY( uxPriorityUsedOnEntry, uxTopReadyPriority );
1596:../../kernel/FreeRTOS/Source/tasks.c **** 					}
1597:../../kernel/FreeRTOS/Source/tasks.c **** 					else
1598:../../kernel/FreeRTOS/Source/tasks.c **** 					{
1599:../../kernel/FreeRTOS/Source/tasks.c **** 						mtCOVERAGE_TEST_MARKER();
1600:../../kernel/FreeRTOS/Source/tasks.c **** 					}
1601:../../kernel/FreeRTOS/Source/tasks.c **** 					prvAddTaskToReadyList( pxTCB );
1602:../../kernel/FreeRTOS/Source/tasks.c **** 				}
1603:../../kernel/FreeRTOS/Source/tasks.c **** 				else
1604:../../kernel/FreeRTOS/Source/tasks.c **** 				{
1605:../../kernel/FreeRTOS/Source/tasks.c **** 					mtCOVERAGE_TEST_MARKER();
1606:../../kernel/FreeRTOS/Source/tasks.c **** 				}
1607:../../kernel/FreeRTOS/Source/tasks.c **** 
1608:../../kernel/FreeRTOS/Source/tasks.c **** 				if( xYieldRequired != pdFALSE )
1609:../../kernel/FreeRTOS/Source/tasks.c **** 				{
1610:../../kernel/FreeRTOS/Source/tasks.c **** 					taskYIELD_IF_USING_PREEMPTION();
1611:../../kernel/FreeRTOS/Source/tasks.c **** 				}
1612:../../kernel/FreeRTOS/Source/tasks.c **** 				else
1613:../../kernel/FreeRTOS/Source/tasks.c **** 				{
1614:../../kernel/FreeRTOS/Source/tasks.c **** 					mtCOVERAGE_TEST_MARKER();
1615:../../kernel/FreeRTOS/Source/tasks.c **** 				}
1616:../../kernel/FreeRTOS/Source/tasks.c **** 
1617:../../kernel/FreeRTOS/Source/tasks.c **** 				/* Remove compiler warning about unused variables when the port
1618:../../kernel/FreeRTOS/Source/tasks.c **** 				optimised task selection is not being used. */
1619:../../kernel/FreeRTOS/Source/tasks.c **** 				( void ) uxPriorityUsedOnEntry;
1620:../../kernel/FreeRTOS/Source/tasks.c **** 			}
1621:../../kernel/FreeRTOS/Source/tasks.c **** 		}
1622:../../kernel/FreeRTOS/Source/tasks.c **** 		taskEXIT_CRITICAL();
1623:../../kernel/FreeRTOS/Source/tasks.c **** 	}
1624:../../kernel/FreeRTOS/Source/tasks.c **** 
1625:../../kernel/FreeRTOS/Source/tasks.c **** #endif /* INCLUDE_vTaskPrioritySet */
1626:../../kernel/FreeRTOS/Source/tasks.c **** /*-----------------------------------------------------------*/
1627:../../kernel/FreeRTOS/Source/tasks.c **** 
1628:../../kernel/FreeRTOS/Source/tasks.c **** #if ( INCLUDE_vTaskSuspend == 1 )
1629:../../kernel/FreeRTOS/Source/tasks.c **** 
1630:../../kernel/FreeRTOS/Source/tasks.c **** 	void vTaskSuspend( TaskHandle_t xTaskToSuspend )
ARM GAS  /tmp/ccIvB74u.s 			page 35


1631:../../kernel/FreeRTOS/Source/tasks.c **** 	{
1632:../../kernel/FreeRTOS/Source/tasks.c **** 	TCB_t *pxTCB;
1633:../../kernel/FreeRTOS/Source/tasks.c **** 
1634:../../kernel/FreeRTOS/Source/tasks.c **** 		taskENTER_CRITICAL();
1635:../../kernel/FreeRTOS/Source/tasks.c **** 		{
1636:../../kernel/FreeRTOS/Source/tasks.c **** 			/* If null is passed in here then it is the running task that is
1637:../../kernel/FreeRTOS/Source/tasks.c **** 			being suspended. */
1638:../../kernel/FreeRTOS/Source/tasks.c **** 			pxTCB = prvGetTCBFromHandle( xTaskToSuspend );
1639:../../kernel/FreeRTOS/Source/tasks.c **** 
1640:../../kernel/FreeRTOS/Source/tasks.c **** 			traceTASK_SUSPEND( pxTCB );
1641:../../kernel/FreeRTOS/Source/tasks.c **** 
1642:../../kernel/FreeRTOS/Source/tasks.c **** 			/* Remove task from the ready/delayed list and place in the
1643:../../kernel/FreeRTOS/Source/tasks.c **** 			suspended list. */
1644:../../kernel/FreeRTOS/Source/tasks.c **** 			if( uxListRemove( &( pxTCB->xStateListItem ) ) == ( UBaseType_t ) 0 )
1645:../../kernel/FreeRTOS/Source/tasks.c **** 			{
1646:../../kernel/FreeRTOS/Source/tasks.c **** 				taskRESET_READY_PRIORITY( pxTCB->uxPriority );
1647:../../kernel/FreeRTOS/Source/tasks.c **** 			}
1648:../../kernel/FreeRTOS/Source/tasks.c **** 			else
1649:../../kernel/FreeRTOS/Source/tasks.c **** 			{
1650:../../kernel/FreeRTOS/Source/tasks.c **** 				mtCOVERAGE_TEST_MARKER();
1651:../../kernel/FreeRTOS/Source/tasks.c **** 			}
1652:../../kernel/FreeRTOS/Source/tasks.c **** 
1653:../../kernel/FreeRTOS/Source/tasks.c **** 			/* Is the task waiting on an event also? */
1654:../../kernel/FreeRTOS/Source/tasks.c **** 			if( listLIST_ITEM_CONTAINER( &( pxTCB->xEventListItem ) ) != NULL )
1655:../../kernel/FreeRTOS/Source/tasks.c **** 			{
1656:../../kernel/FreeRTOS/Source/tasks.c **** 				( void ) uxListRemove( &( pxTCB->xEventListItem ) );
1657:../../kernel/FreeRTOS/Source/tasks.c **** 			}
1658:../../kernel/FreeRTOS/Source/tasks.c **** 			else
1659:../../kernel/FreeRTOS/Source/tasks.c **** 			{
1660:../../kernel/FreeRTOS/Source/tasks.c **** 				mtCOVERAGE_TEST_MARKER();
1661:../../kernel/FreeRTOS/Source/tasks.c **** 			}
1662:../../kernel/FreeRTOS/Source/tasks.c **** 
1663:../../kernel/FreeRTOS/Source/tasks.c **** 			vListInsertEnd( &xSuspendedTaskList, &( pxTCB->xStateListItem ) );
1664:../../kernel/FreeRTOS/Source/tasks.c **** 
1665:../../kernel/FreeRTOS/Source/tasks.c **** 			#if( configUSE_TASK_NOTIFICATIONS == 1 )
1666:../../kernel/FreeRTOS/Source/tasks.c **** 			{
1667:../../kernel/FreeRTOS/Source/tasks.c **** 				if( pxTCB->ucNotifyState == taskWAITING_NOTIFICATION )
1668:../../kernel/FreeRTOS/Source/tasks.c **** 				{
1669:../../kernel/FreeRTOS/Source/tasks.c **** 					/* The task was blocked to wait for a notification, but is
1670:../../kernel/FreeRTOS/Source/tasks.c **** 					now suspended, so no notification was received. */
1671:../../kernel/FreeRTOS/Source/tasks.c **** 					pxTCB->ucNotifyState = taskNOT_WAITING_NOTIFICATION;
1672:../../kernel/FreeRTOS/Source/tasks.c **** 				}
1673:../../kernel/FreeRTOS/Source/tasks.c **** 			}
1674:../../kernel/FreeRTOS/Source/tasks.c **** 			#endif
1675:../../kernel/FreeRTOS/Source/tasks.c **** 		}
1676:../../kernel/FreeRTOS/Source/tasks.c **** 		taskEXIT_CRITICAL();
1677:../../kernel/FreeRTOS/Source/tasks.c **** 
1678:../../kernel/FreeRTOS/Source/tasks.c **** 		if( xSchedulerRunning != pdFALSE )
1679:../../kernel/FreeRTOS/Source/tasks.c **** 		{
1680:../../kernel/FreeRTOS/Source/tasks.c **** 			/* Reset the next expected unblock time in case it referred to the
1681:../../kernel/FreeRTOS/Source/tasks.c **** 			task that is now in the Suspended state. */
1682:../../kernel/FreeRTOS/Source/tasks.c **** 			taskENTER_CRITICAL();
1683:../../kernel/FreeRTOS/Source/tasks.c **** 			{
1684:../../kernel/FreeRTOS/Source/tasks.c **** 				prvResetNextTaskUnblockTime();
1685:../../kernel/FreeRTOS/Source/tasks.c **** 			}
1686:../../kernel/FreeRTOS/Source/tasks.c **** 			taskEXIT_CRITICAL();
1687:../../kernel/FreeRTOS/Source/tasks.c **** 		}
ARM GAS  /tmp/ccIvB74u.s 			page 36


1688:../../kernel/FreeRTOS/Source/tasks.c **** 		else
1689:../../kernel/FreeRTOS/Source/tasks.c **** 		{
1690:../../kernel/FreeRTOS/Source/tasks.c **** 			mtCOVERAGE_TEST_MARKER();
1691:../../kernel/FreeRTOS/Source/tasks.c **** 		}
1692:../../kernel/FreeRTOS/Source/tasks.c **** 
1693:../../kernel/FreeRTOS/Source/tasks.c **** 		if( pxTCB == pxCurrentTCB )
1694:../../kernel/FreeRTOS/Source/tasks.c **** 		{
1695:../../kernel/FreeRTOS/Source/tasks.c **** 			if( xSchedulerRunning != pdFALSE )
1696:../../kernel/FreeRTOS/Source/tasks.c **** 			{
1697:../../kernel/FreeRTOS/Source/tasks.c **** 				/* The current task has just been suspended. */
1698:../../kernel/FreeRTOS/Source/tasks.c **** 				configASSERT( uxSchedulerSuspended == 0 );
1699:../../kernel/FreeRTOS/Source/tasks.c **** 				portYIELD_WITHIN_API();
1700:../../kernel/FreeRTOS/Source/tasks.c **** 			}
1701:../../kernel/FreeRTOS/Source/tasks.c **** 			else
1702:../../kernel/FreeRTOS/Source/tasks.c **** 			{
1703:../../kernel/FreeRTOS/Source/tasks.c **** 				/* The scheduler is not running, but the task that was pointed
1704:../../kernel/FreeRTOS/Source/tasks.c **** 				to by pxCurrentTCB has just been suspended and pxCurrentTCB
1705:../../kernel/FreeRTOS/Source/tasks.c **** 				must be adjusted to point to a different task. */
1706:../../kernel/FreeRTOS/Source/tasks.c **** 				if( listCURRENT_LIST_LENGTH( &xSuspendedTaskList ) == uxCurrentNumberOfTasks )
1707:../../kernel/FreeRTOS/Source/tasks.c **** 				{
1708:../../kernel/FreeRTOS/Source/tasks.c **** 					/* No other tasks are ready, so set pxCurrentTCB back to
1709:../../kernel/FreeRTOS/Source/tasks.c **** 					NULL so when the next task is created pxCurrentTCB will
1710:../../kernel/FreeRTOS/Source/tasks.c **** 					be set to point to it no matter what its relative priority
1711:../../kernel/FreeRTOS/Source/tasks.c **** 					is. */
1712:../../kernel/FreeRTOS/Source/tasks.c **** 					pxCurrentTCB = NULL;
1713:../../kernel/FreeRTOS/Source/tasks.c **** 				}
1714:../../kernel/FreeRTOS/Source/tasks.c **** 				else
1715:../../kernel/FreeRTOS/Source/tasks.c **** 				{
1716:../../kernel/FreeRTOS/Source/tasks.c **** 					vTaskSwitchContext();
1717:../../kernel/FreeRTOS/Source/tasks.c **** 				}
1718:../../kernel/FreeRTOS/Source/tasks.c **** 			}
1719:../../kernel/FreeRTOS/Source/tasks.c **** 		}
1720:../../kernel/FreeRTOS/Source/tasks.c **** 		else
1721:../../kernel/FreeRTOS/Source/tasks.c **** 		{
1722:../../kernel/FreeRTOS/Source/tasks.c **** 			mtCOVERAGE_TEST_MARKER();
1723:../../kernel/FreeRTOS/Source/tasks.c **** 		}
1724:../../kernel/FreeRTOS/Source/tasks.c **** 	}
1725:../../kernel/FreeRTOS/Source/tasks.c **** 
1726:../../kernel/FreeRTOS/Source/tasks.c **** #endif /* INCLUDE_vTaskSuspend */
1727:../../kernel/FreeRTOS/Source/tasks.c **** /*-----------------------------------------------------------*/
1728:../../kernel/FreeRTOS/Source/tasks.c **** 
1729:../../kernel/FreeRTOS/Source/tasks.c **** #if ( INCLUDE_vTaskSuspend == 1 )
1730:../../kernel/FreeRTOS/Source/tasks.c **** 
1731:../../kernel/FreeRTOS/Source/tasks.c **** 	static BaseType_t prvTaskIsTaskSuspended( const TaskHandle_t xTask )
1732:../../kernel/FreeRTOS/Source/tasks.c **** 	{
1733:../../kernel/FreeRTOS/Source/tasks.c **** 	BaseType_t xReturn = pdFALSE;
1734:../../kernel/FreeRTOS/Source/tasks.c **** 	const TCB_t * const pxTCB = ( TCB_t * ) xTask;
1735:../../kernel/FreeRTOS/Source/tasks.c **** 
1736:../../kernel/FreeRTOS/Source/tasks.c **** 		/* Accesses xPendingReadyList so must be called from a critical
1737:../../kernel/FreeRTOS/Source/tasks.c **** 		section. */
1738:../../kernel/FreeRTOS/Source/tasks.c **** 
1739:../../kernel/FreeRTOS/Source/tasks.c **** 		/* It does not make sense to check if the calling task is suspended. */
1740:../../kernel/FreeRTOS/Source/tasks.c **** 		configASSERT( xTask );
1741:../../kernel/FreeRTOS/Source/tasks.c **** 
1742:../../kernel/FreeRTOS/Source/tasks.c **** 		/* Is the task being resumed actually in the suspended list? */
1743:../../kernel/FreeRTOS/Source/tasks.c **** 		if( listIS_CONTAINED_WITHIN( &xSuspendedTaskList, &( pxTCB->xStateListItem ) ) != pdFALSE )
1744:../../kernel/FreeRTOS/Source/tasks.c **** 		{
ARM GAS  /tmp/ccIvB74u.s 			page 37


1745:../../kernel/FreeRTOS/Source/tasks.c **** 			/* Has the task already been resumed from within an ISR? */
1746:../../kernel/FreeRTOS/Source/tasks.c **** 			if( listIS_CONTAINED_WITHIN( &xPendingReadyList, &( pxTCB->xEventListItem ) ) == pdFALSE )
1747:../../kernel/FreeRTOS/Source/tasks.c **** 			{
1748:../../kernel/FreeRTOS/Source/tasks.c **** 				/* Is it in the suspended list because it is in the	Suspended
1749:../../kernel/FreeRTOS/Source/tasks.c **** 				state, or because is is blocked with no timeout? */
1750:../../kernel/FreeRTOS/Source/tasks.c **** 				if( listIS_CONTAINED_WITHIN( NULL, &( pxTCB->xEventListItem ) ) != pdFALSE ) /*lint !e961.  The
1751:../../kernel/FreeRTOS/Source/tasks.c **** 				{
1752:../../kernel/FreeRTOS/Source/tasks.c **** 					xReturn = pdTRUE;
1753:../../kernel/FreeRTOS/Source/tasks.c **** 				}
1754:../../kernel/FreeRTOS/Source/tasks.c **** 				else
1755:../../kernel/FreeRTOS/Source/tasks.c **** 				{
1756:../../kernel/FreeRTOS/Source/tasks.c **** 					mtCOVERAGE_TEST_MARKER();
1757:../../kernel/FreeRTOS/Source/tasks.c **** 				}
1758:../../kernel/FreeRTOS/Source/tasks.c **** 			}
1759:../../kernel/FreeRTOS/Source/tasks.c **** 			else
1760:../../kernel/FreeRTOS/Source/tasks.c **** 			{
1761:../../kernel/FreeRTOS/Source/tasks.c **** 				mtCOVERAGE_TEST_MARKER();
1762:../../kernel/FreeRTOS/Source/tasks.c **** 			}
1763:../../kernel/FreeRTOS/Source/tasks.c **** 		}
1764:../../kernel/FreeRTOS/Source/tasks.c **** 		else
1765:../../kernel/FreeRTOS/Source/tasks.c **** 		{
1766:../../kernel/FreeRTOS/Source/tasks.c **** 			mtCOVERAGE_TEST_MARKER();
1767:../../kernel/FreeRTOS/Source/tasks.c **** 		}
1768:../../kernel/FreeRTOS/Source/tasks.c **** 
1769:../../kernel/FreeRTOS/Source/tasks.c **** 		return xReturn;
1770:../../kernel/FreeRTOS/Source/tasks.c **** 	} /*lint !e818 xTask cannot be a pointer to const because it is a typedef. */
1771:../../kernel/FreeRTOS/Source/tasks.c **** 
1772:../../kernel/FreeRTOS/Source/tasks.c **** #endif /* INCLUDE_vTaskSuspend */
1773:../../kernel/FreeRTOS/Source/tasks.c **** /*-----------------------------------------------------------*/
1774:../../kernel/FreeRTOS/Source/tasks.c **** 
1775:../../kernel/FreeRTOS/Source/tasks.c **** #if ( INCLUDE_vTaskSuspend == 1 )
1776:../../kernel/FreeRTOS/Source/tasks.c **** 
1777:../../kernel/FreeRTOS/Source/tasks.c **** 	void vTaskResume( TaskHandle_t xTaskToResume )
1778:../../kernel/FreeRTOS/Source/tasks.c **** 	{
1779:../../kernel/FreeRTOS/Source/tasks.c **** 	TCB_t * const pxTCB = ( TCB_t * ) xTaskToResume;
1780:../../kernel/FreeRTOS/Source/tasks.c **** 
1781:../../kernel/FreeRTOS/Source/tasks.c **** 		/* It does not make sense to resume the calling task. */
1782:../../kernel/FreeRTOS/Source/tasks.c **** 		configASSERT( xTaskToResume );
1783:../../kernel/FreeRTOS/Source/tasks.c **** 
1784:../../kernel/FreeRTOS/Source/tasks.c **** 		/* The parameter cannot be NULL as it is impossible to resume the
1785:../../kernel/FreeRTOS/Source/tasks.c **** 		currently executing task. */
1786:../../kernel/FreeRTOS/Source/tasks.c **** 		if( ( pxTCB != NULL ) && ( pxTCB != pxCurrentTCB ) )
1787:../../kernel/FreeRTOS/Source/tasks.c **** 		{
1788:../../kernel/FreeRTOS/Source/tasks.c **** 			taskENTER_CRITICAL();
1789:../../kernel/FreeRTOS/Source/tasks.c **** 			{
1790:../../kernel/FreeRTOS/Source/tasks.c **** 				if( prvTaskIsTaskSuspended( pxTCB ) != pdFALSE )
1791:../../kernel/FreeRTOS/Source/tasks.c **** 				{
1792:../../kernel/FreeRTOS/Source/tasks.c **** 					traceTASK_RESUME( pxTCB );
1793:../../kernel/FreeRTOS/Source/tasks.c **** 
1794:../../kernel/FreeRTOS/Source/tasks.c **** 					/* The ready list can be accessed even if the scheduler is
1795:../../kernel/FreeRTOS/Source/tasks.c **** 					suspended because this is inside a critical section. */
1796:../../kernel/FreeRTOS/Source/tasks.c **** 					( void ) uxListRemove(  &( pxTCB->xStateListItem ) );
1797:../../kernel/FreeRTOS/Source/tasks.c **** 					prvAddTaskToReadyList( pxTCB );
1798:../../kernel/FreeRTOS/Source/tasks.c **** 
1799:../../kernel/FreeRTOS/Source/tasks.c **** 					/* A higher priority task may have just been resumed. */
1800:../../kernel/FreeRTOS/Source/tasks.c **** 					if( pxTCB->uxPriority >= pxCurrentTCB->uxPriority )
1801:../../kernel/FreeRTOS/Source/tasks.c **** 					{
ARM GAS  /tmp/ccIvB74u.s 			page 38


1802:../../kernel/FreeRTOS/Source/tasks.c **** 						/* This yield may not cause the task just resumed to run,
1803:../../kernel/FreeRTOS/Source/tasks.c **** 						but will leave the lists in the correct state for the
1804:../../kernel/FreeRTOS/Source/tasks.c **** 						next yield. */
1805:../../kernel/FreeRTOS/Source/tasks.c **** 						taskYIELD_IF_USING_PREEMPTION();
1806:../../kernel/FreeRTOS/Source/tasks.c **** 					}
1807:../../kernel/FreeRTOS/Source/tasks.c **** 					else
1808:../../kernel/FreeRTOS/Source/tasks.c **** 					{
1809:../../kernel/FreeRTOS/Source/tasks.c **** 						mtCOVERAGE_TEST_MARKER();
1810:../../kernel/FreeRTOS/Source/tasks.c **** 					}
1811:../../kernel/FreeRTOS/Source/tasks.c **** 				}
1812:../../kernel/FreeRTOS/Source/tasks.c **** 				else
1813:../../kernel/FreeRTOS/Source/tasks.c **** 				{
1814:../../kernel/FreeRTOS/Source/tasks.c **** 					mtCOVERAGE_TEST_MARKER();
1815:../../kernel/FreeRTOS/Source/tasks.c **** 				}
1816:../../kernel/FreeRTOS/Source/tasks.c **** 			}
1817:../../kernel/FreeRTOS/Source/tasks.c **** 			taskEXIT_CRITICAL();
1818:../../kernel/FreeRTOS/Source/tasks.c **** 		}
1819:../../kernel/FreeRTOS/Source/tasks.c **** 		else
1820:../../kernel/FreeRTOS/Source/tasks.c **** 		{
1821:../../kernel/FreeRTOS/Source/tasks.c **** 			mtCOVERAGE_TEST_MARKER();
1822:../../kernel/FreeRTOS/Source/tasks.c **** 		}
1823:../../kernel/FreeRTOS/Source/tasks.c **** 	}
1824:../../kernel/FreeRTOS/Source/tasks.c **** 
1825:../../kernel/FreeRTOS/Source/tasks.c **** #endif /* INCLUDE_vTaskSuspend */
1826:../../kernel/FreeRTOS/Source/tasks.c **** 
1827:../../kernel/FreeRTOS/Source/tasks.c **** /*-----------------------------------------------------------*/
1828:../../kernel/FreeRTOS/Source/tasks.c **** 
1829:../../kernel/FreeRTOS/Source/tasks.c **** #if ( ( INCLUDE_xTaskResumeFromISR == 1 ) && ( INCLUDE_vTaskSuspend == 1 ) )
1830:../../kernel/FreeRTOS/Source/tasks.c **** 
1831:../../kernel/FreeRTOS/Source/tasks.c **** 	BaseType_t xTaskResumeFromISR( TaskHandle_t xTaskToResume )
1832:../../kernel/FreeRTOS/Source/tasks.c **** 	{
1833:../../kernel/FreeRTOS/Source/tasks.c **** 	BaseType_t xYieldRequired = pdFALSE;
1834:../../kernel/FreeRTOS/Source/tasks.c **** 	TCB_t * const pxTCB = ( TCB_t * ) xTaskToResume;
1835:../../kernel/FreeRTOS/Source/tasks.c **** 	UBaseType_t uxSavedInterruptStatus;
1836:../../kernel/FreeRTOS/Source/tasks.c **** 
1837:../../kernel/FreeRTOS/Source/tasks.c **** 		configASSERT( xTaskToResume );
1838:../../kernel/FreeRTOS/Source/tasks.c **** 
1839:../../kernel/FreeRTOS/Source/tasks.c **** 		/* RTOS ports that support interrupt nesting have the concept of a
1840:../../kernel/FreeRTOS/Source/tasks.c **** 		maximum	system call (or maximum API call) interrupt priority.
1841:../../kernel/FreeRTOS/Source/tasks.c **** 		Interrupts that are	above the maximum system call priority are keep
1842:../../kernel/FreeRTOS/Source/tasks.c **** 		permanently enabled, even when the RTOS kernel is in a critical section,
1843:../../kernel/FreeRTOS/Source/tasks.c **** 		but cannot make any calls to FreeRTOS API functions.  If configASSERT()
1844:../../kernel/FreeRTOS/Source/tasks.c **** 		is defined in FreeRTOSConfig.h then
1845:../../kernel/FreeRTOS/Source/tasks.c **** 		portASSERT_IF_INTERRUPT_PRIORITY_INVALID() will result in an assertion
1846:../../kernel/FreeRTOS/Source/tasks.c **** 		failure if a FreeRTOS API function is called from an interrupt that has
1847:../../kernel/FreeRTOS/Source/tasks.c **** 		been assigned a priority above the configured maximum system call
1848:../../kernel/FreeRTOS/Source/tasks.c **** 		priority.  Only FreeRTOS functions that end in FromISR can be called
1849:../../kernel/FreeRTOS/Source/tasks.c **** 		from interrupts	that have been assigned a priority at or (logically)
1850:../../kernel/FreeRTOS/Source/tasks.c **** 		below the maximum system call interrupt priority.  FreeRTOS maintains a
1851:../../kernel/FreeRTOS/Source/tasks.c **** 		separate interrupt safe API to ensure interrupt entry is as fast and as
1852:../../kernel/FreeRTOS/Source/tasks.c **** 		simple as possible.  More information (albeit Cortex-M specific) is
1853:../../kernel/FreeRTOS/Source/tasks.c **** 		provided on the following link:
1854:../../kernel/FreeRTOS/Source/tasks.c **** 		http://www.freertos.org/RTOS-Cortex-M3-M4.html */
1855:../../kernel/FreeRTOS/Source/tasks.c **** 		portASSERT_IF_INTERRUPT_PRIORITY_INVALID();
1856:../../kernel/FreeRTOS/Source/tasks.c **** 
1857:../../kernel/FreeRTOS/Source/tasks.c **** 		uxSavedInterruptStatus = portSET_INTERRUPT_MASK_FROM_ISR();
1858:../../kernel/FreeRTOS/Source/tasks.c **** 		{
ARM GAS  /tmp/ccIvB74u.s 			page 39


1859:../../kernel/FreeRTOS/Source/tasks.c **** 			if( prvTaskIsTaskSuspended( pxTCB ) != pdFALSE )
1860:../../kernel/FreeRTOS/Source/tasks.c **** 			{
1861:../../kernel/FreeRTOS/Source/tasks.c **** 				traceTASK_RESUME_FROM_ISR( pxTCB );
1862:../../kernel/FreeRTOS/Source/tasks.c **** 
1863:../../kernel/FreeRTOS/Source/tasks.c **** 				/* Check the ready lists can be accessed. */
1864:../../kernel/FreeRTOS/Source/tasks.c **** 				if( uxSchedulerSuspended == ( UBaseType_t ) pdFALSE )
1865:../../kernel/FreeRTOS/Source/tasks.c **** 				{
1866:../../kernel/FreeRTOS/Source/tasks.c **** 					/* Ready lists can be accessed so move the task from the
1867:../../kernel/FreeRTOS/Source/tasks.c **** 					suspended list to the ready list directly. */
1868:../../kernel/FreeRTOS/Source/tasks.c **** 					if( pxTCB->uxPriority >= pxCurrentTCB->uxPriority )
1869:../../kernel/FreeRTOS/Source/tasks.c **** 					{
1870:../../kernel/FreeRTOS/Source/tasks.c **** 						xYieldRequired = pdTRUE;
1871:../../kernel/FreeRTOS/Source/tasks.c **** 					}
1872:../../kernel/FreeRTOS/Source/tasks.c **** 					else
1873:../../kernel/FreeRTOS/Source/tasks.c **** 					{
1874:../../kernel/FreeRTOS/Source/tasks.c **** 						mtCOVERAGE_TEST_MARKER();
1875:../../kernel/FreeRTOS/Source/tasks.c **** 					}
1876:../../kernel/FreeRTOS/Source/tasks.c **** 
1877:../../kernel/FreeRTOS/Source/tasks.c **** 					( void ) uxListRemove( &( pxTCB->xStateListItem ) );
1878:../../kernel/FreeRTOS/Source/tasks.c **** 					prvAddTaskToReadyList( pxTCB );
1879:../../kernel/FreeRTOS/Source/tasks.c **** 				}
1880:../../kernel/FreeRTOS/Source/tasks.c **** 				else
1881:../../kernel/FreeRTOS/Source/tasks.c **** 				{
1882:../../kernel/FreeRTOS/Source/tasks.c **** 					/* The delayed or ready lists cannot be accessed so the task
1883:../../kernel/FreeRTOS/Source/tasks.c **** 					is held in the pending ready list until the scheduler is
1884:../../kernel/FreeRTOS/Source/tasks.c **** 					unsuspended. */
1885:../../kernel/FreeRTOS/Source/tasks.c **** 					vListInsertEnd( &( xPendingReadyList ), &( pxTCB->xEventListItem ) );
1886:../../kernel/FreeRTOS/Source/tasks.c **** 				}
1887:../../kernel/FreeRTOS/Source/tasks.c **** 			}
1888:../../kernel/FreeRTOS/Source/tasks.c **** 			else
1889:../../kernel/FreeRTOS/Source/tasks.c **** 			{
1890:../../kernel/FreeRTOS/Source/tasks.c **** 				mtCOVERAGE_TEST_MARKER();
1891:../../kernel/FreeRTOS/Source/tasks.c **** 			}
1892:../../kernel/FreeRTOS/Source/tasks.c **** 		}
1893:../../kernel/FreeRTOS/Source/tasks.c **** 		portCLEAR_INTERRUPT_MASK_FROM_ISR( uxSavedInterruptStatus );
1894:../../kernel/FreeRTOS/Source/tasks.c **** 
1895:../../kernel/FreeRTOS/Source/tasks.c **** 		return xYieldRequired;
1896:../../kernel/FreeRTOS/Source/tasks.c **** 	}
1897:../../kernel/FreeRTOS/Source/tasks.c **** 
1898:../../kernel/FreeRTOS/Source/tasks.c **** #endif /* ( ( INCLUDE_xTaskResumeFromISR == 1 ) && ( INCLUDE_vTaskSuspend == 1 ) ) */
1899:../../kernel/FreeRTOS/Source/tasks.c **** /*-----------------------------------------------------------*/
1900:../../kernel/FreeRTOS/Source/tasks.c **** 
1901:../../kernel/FreeRTOS/Source/tasks.c **** void vTaskStartScheduler( void )
1902:../../kernel/FreeRTOS/Source/tasks.c **** {
1903:../../kernel/FreeRTOS/Source/tasks.c **** BaseType_t xReturn;
1904:../../kernel/FreeRTOS/Source/tasks.c **** 
1905:../../kernel/FreeRTOS/Source/tasks.c **** 	/* Add the idle task at the lowest priority. */
1906:../../kernel/FreeRTOS/Source/tasks.c **** 	#if( configSUPPORT_STATIC_ALLOCATION == 1 )
1907:../../kernel/FreeRTOS/Source/tasks.c **** 	{
1908:../../kernel/FreeRTOS/Source/tasks.c **** 		StaticTask_t *pxIdleTaskTCBBuffer = NULL;
1909:../../kernel/FreeRTOS/Source/tasks.c **** 		StackType_t *pxIdleTaskStackBuffer = NULL;
1910:../../kernel/FreeRTOS/Source/tasks.c **** 		uint32_t ulIdleTaskStackSize;
1911:../../kernel/FreeRTOS/Source/tasks.c **** 
1912:../../kernel/FreeRTOS/Source/tasks.c **** 		/* The Idle task is created using user provided RAM - obtain the
1913:../../kernel/FreeRTOS/Source/tasks.c **** 		address of the RAM then create the idle task. */
1914:../../kernel/FreeRTOS/Source/tasks.c **** 		vApplicationGetIdleTaskMemory( &pxIdleTaskTCBBuffer, &pxIdleTaskStackBuffer, &ulIdleTaskStackSize
1915:../../kernel/FreeRTOS/Source/tasks.c **** 		xIdleTaskHandle = xTaskCreateStatic(	prvIdleTask,
ARM GAS  /tmp/ccIvB74u.s 			page 40


1916:../../kernel/FreeRTOS/Source/tasks.c **** 												configIDLE_TASK_NAME,
1917:../../kernel/FreeRTOS/Source/tasks.c **** 												ulIdleTaskStackSize,
1918:../../kernel/FreeRTOS/Source/tasks.c **** 												( void * ) NULL, /*lint !e961.  The cast is not redundant for all compilers. */
1919:../../kernel/FreeRTOS/Source/tasks.c **** 												( tskIDLE_PRIORITY | portPRIVILEGE_BIT ),
1920:../../kernel/FreeRTOS/Source/tasks.c **** 												pxIdleTaskStackBuffer,
1921:../../kernel/FreeRTOS/Source/tasks.c **** 												pxIdleTaskTCBBuffer ); /*lint !e961 MISRA exception, justified as it is not a redundant
1922:../../kernel/FreeRTOS/Source/tasks.c **** 
1923:../../kernel/FreeRTOS/Source/tasks.c **** 		if( xIdleTaskHandle != NULL )
1924:../../kernel/FreeRTOS/Source/tasks.c **** 		{
1925:../../kernel/FreeRTOS/Source/tasks.c **** 			xReturn = pdPASS;
1926:../../kernel/FreeRTOS/Source/tasks.c **** 		}
1927:../../kernel/FreeRTOS/Source/tasks.c **** 		else
1928:../../kernel/FreeRTOS/Source/tasks.c **** 		{
1929:../../kernel/FreeRTOS/Source/tasks.c **** 			xReturn = pdFAIL;
1930:../../kernel/FreeRTOS/Source/tasks.c **** 		}
1931:../../kernel/FreeRTOS/Source/tasks.c **** 	}
1932:../../kernel/FreeRTOS/Source/tasks.c **** 	#else
1933:../../kernel/FreeRTOS/Source/tasks.c **** 	{
1934:../../kernel/FreeRTOS/Source/tasks.c **** 		/* The Idle task is being created using dynamically allocated RAM. */
1935:../../kernel/FreeRTOS/Source/tasks.c **** 		xReturn = xTaskCreate(	prvIdleTask,
1936:../../kernel/FreeRTOS/Source/tasks.c **** 								configIDLE_TASK_NAME,
1937:../../kernel/FreeRTOS/Source/tasks.c **** 								configMINIMAL_STACK_SIZE,
1938:../../kernel/FreeRTOS/Source/tasks.c **** 								( void * ) NULL,
1939:../../kernel/FreeRTOS/Source/tasks.c **** 								( tskIDLE_PRIORITY | portPRIVILEGE_BIT ),
1940:../../kernel/FreeRTOS/Source/tasks.c **** 								&xIdleTaskHandle ); /*lint !e961 MISRA exception, justified as it is not a redundant explic
1941:../../kernel/FreeRTOS/Source/tasks.c **** 	}
1942:../../kernel/FreeRTOS/Source/tasks.c **** 	#endif /* configSUPPORT_STATIC_ALLOCATION */
1943:../../kernel/FreeRTOS/Source/tasks.c **** 
1944:../../kernel/FreeRTOS/Source/tasks.c **** 	#if ( configUSE_TIMERS == 1 )
1945:../../kernel/FreeRTOS/Source/tasks.c **** 	{
1946:../../kernel/FreeRTOS/Source/tasks.c **** 		if( xReturn == pdPASS )
1947:../../kernel/FreeRTOS/Source/tasks.c **** 		{
1948:../../kernel/FreeRTOS/Source/tasks.c **** 			xReturn = xTimerCreateTimerTask();
1949:../../kernel/FreeRTOS/Source/tasks.c **** 		}
1950:../../kernel/FreeRTOS/Source/tasks.c **** 		else
1951:../../kernel/FreeRTOS/Source/tasks.c **** 		{
1952:../../kernel/FreeRTOS/Source/tasks.c **** 			mtCOVERAGE_TEST_MARKER();
1953:../../kernel/FreeRTOS/Source/tasks.c **** 		}
1954:../../kernel/FreeRTOS/Source/tasks.c **** 	}
1955:../../kernel/FreeRTOS/Source/tasks.c **** 	#endif /* configUSE_TIMERS */
1956:../../kernel/FreeRTOS/Source/tasks.c **** 
1957:../../kernel/FreeRTOS/Source/tasks.c **** 	if( xReturn == pdPASS )
1958:../../kernel/FreeRTOS/Source/tasks.c **** 	{
1959:../../kernel/FreeRTOS/Source/tasks.c **** 		/* freertos_tasks_c_additions_init() should only be called if the user
1960:../../kernel/FreeRTOS/Source/tasks.c **** 		definable macro FREERTOS_TASKS_C_ADDITIONS_INIT() is defined, as that is
1961:../../kernel/FreeRTOS/Source/tasks.c **** 		the only macro called by the function. */
1962:../../kernel/FreeRTOS/Source/tasks.c **** 		#ifdef FREERTOS_TASKS_C_ADDITIONS_INIT
1963:../../kernel/FreeRTOS/Source/tasks.c **** 		{
1964:../../kernel/FreeRTOS/Source/tasks.c **** 			freertos_tasks_c_additions_init();
1965:../../kernel/FreeRTOS/Source/tasks.c **** 		}
1966:../../kernel/FreeRTOS/Source/tasks.c **** 		#endif
1967:../../kernel/FreeRTOS/Source/tasks.c **** 
1968:../../kernel/FreeRTOS/Source/tasks.c **** 		/* Interrupts are turned off here, to ensure a tick does not occur
1969:../../kernel/FreeRTOS/Source/tasks.c **** 		before or during the call to xPortStartScheduler().  The stacks of
1970:../../kernel/FreeRTOS/Source/tasks.c **** 		the created tasks contain a status word with interrupts switched on
1971:../../kernel/FreeRTOS/Source/tasks.c **** 		so interrupts will automatically get re-enabled when the first task
1972:../../kernel/FreeRTOS/Source/tasks.c **** 		starts to run. */
ARM GAS  /tmp/ccIvB74u.s 			page 41


1973:../../kernel/FreeRTOS/Source/tasks.c **** 		portDISABLE_INTERRUPTS();
1974:../../kernel/FreeRTOS/Source/tasks.c **** 
1975:../../kernel/FreeRTOS/Source/tasks.c **** 		#if ( configUSE_NEWLIB_REENTRANT == 1 )
1976:../../kernel/FreeRTOS/Source/tasks.c **** 		{
1977:../../kernel/FreeRTOS/Source/tasks.c **** 			/* Switch Newlib's _impure_ptr variable to point to the _reent
1978:../../kernel/FreeRTOS/Source/tasks.c **** 			structure specific to the task that will run first. */
1979:../../kernel/FreeRTOS/Source/tasks.c **** 			_impure_ptr = &( pxCurrentTCB->xNewLib_reent );
1980:../../kernel/FreeRTOS/Source/tasks.c **** 		}
1981:../../kernel/FreeRTOS/Source/tasks.c **** 		#endif /* configUSE_NEWLIB_REENTRANT */
1982:../../kernel/FreeRTOS/Source/tasks.c **** 
1983:../../kernel/FreeRTOS/Source/tasks.c **** 		xNextTaskUnblockTime = portMAX_DELAY;
1984:../../kernel/FreeRTOS/Source/tasks.c **** 		xSchedulerRunning = pdTRUE;
1985:../../kernel/FreeRTOS/Source/tasks.c **** 		xTickCount = ( TickType_t ) 0U;
1986:../../kernel/FreeRTOS/Source/tasks.c **** 
1987:../../kernel/FreeRTOS/Source/tasks.c **** 		/* If configGENERATE_RUN_TIME_STATS is defined then the following
1988:../../kernel/FreeRTOS/Source/tasks.c **** 		macro must be defined to configure the timer/counter used to generate
1989:../../kernel/FreeRTOS/Source/tasks.c **** 		the run time counter time base.   NOTE:  If configGENERATE_RUN_TIME_STATS
1990:../../kernel/FreeRTOS/Source/tasks.c **** 		is set to 0 and the following line fails to build then ensure you do not
1991:../../kernel/FreeRTOS/Source/tasks.c **** 		have portCONFIGURE_TIMER_FOR_RUN_TIME_STATS() defined in your
1992:../../kernel/FreeRTOS/Source/tasks.c **** 		FreeRTOSConfig.h file. */
1993:../../kernel/FreeRTOS/Source/tasks.c **** 		portCONFIGURE_TIMER_FOR_RUN_TIME_STATS();
1994:../../kernel/FreeRTOS/Source/tasks.c **** 
1995:../../kernel/FreeRTOS/Source/tasks.c **** 		/* Setting up the timer tick is hardware specific and thus in the
1996:../../kernel/FreeRTOS/Source/tasks.c **** 		portable interface. */
1997:../../kernel/FreeRTOS/Source/tasks.c **** 		if( xPortStartScheduler() != pdFALSE )
1998:../../kernel/FreeRTOS/Source/tasks.c **** 		{
1999:../../kernel/FreeRTOS/Source/tasks.c **** 			/* Should not reach here as if the scheduler is running the
2000:../../kernel/FreeRTOS/Source/tasks.c **** 			function will not return. */
2001:../../kernel/FreeRTOS/Source/tasks.c **** 		}
2002:../../kernel/FreeRTOS/Source/tasks.c **** 		else
2003:../../kernel/FreeRTOS/Source/tasks.c **** 		{
2004:../../kernel/FreeRTOS/Source/tasks.c **** 			/* Should only reach here if a task calls xTaskEndScheduler(). */
2005:../../kernel/FreeRTOS/Source/tasks.c **** 		}
2006:../../kernel/FreeRTOS/Source/tasks.c **** 	}
2007:../../kernel/FreeRTOS/Source/tasks.c **** 	else
2008:../../kernel/FreeRTOS/Source/tasks.c **** 	{
2009:../../kernel/FreeRTOS/Source/tasks.c **** 		/* This line will only be reached if the kernel could not be started,
2010:../../kernel/FreeRTOS/Source/tasks.c **** 		because there was not enough FreeRTOS heap to create the idle task
2011:../../kernel/FreeRTOS/Source/tasks.c **** 		or the timer task. */
2012:../../kernel/FreeRTOS/Source/tasks.c **** 		configASSERT( xReturn != errCOULD_NOT_ALLOCATE_REQUIRED_MEMORY );
2013:../../kernel/FreeRTOS/Source/tasks.c **** 	}
2014:../../kernel/FreeRTOS/Source/tasks.c **** 
2015:../../kernel/FreeRTOS/Source/tasks.c **** 	/* Prevent compiler warnings if INCLUDE_xTaskGetIdleTaskHandle is set to 0,
2016:../../kernel/FreeRTOS/Source/tasks.c **** 	meaning xIdleTaskHandle is not used anywhere else. */
2017:../../kernel/FreeRTOS/Source/tasks.c **** 	( void ) xIdleTaskHandle;
2018:../../kernel/FreeRTOS/Source/tasks.c **** }
2019:../../kernel/FreeRTOS/Source/tasks.c **** /*-----------------------------------------------------------*/
2020:../../kernel/FreeRTOS/Source/tasks.c **** 
2021:../../kernel/FreeRTOS/Source/tasks.c **** void vTaskEndScheduler( void )
2022:../../kernel/FreeRTOS/Source/tasks.c **** {
2023:../../kernel/FreeRTOS/Source/tasks.c **** 	/* Stop the scheduler interrupts and call the portable scheduler end
2024:../../kernel/FreeRTOS/Source/tasks.c **** 	routine so the original ISRs can be restored if necessary.  The port
2025:../../kernel/FreeRTOS/Source/tasks.c **** 	layer must ensure interrupts enable	bit is left in the correct state. */
2026:../../kernel/FreeRTOS/Source/tasks.c **** 	portDISABLE_INTERRUPTS();
2027:../../kernel/FreeRTOS/Source/tasks.c **** 	xSchedulerRunning = pdFALSE;
2028:../../kernel/FreeRTOS/Source/tasks.c **** 	vPortEndScheduler();
2029:../../kernel/FreeRTOS/Source/tasks.c **** }
ARM GAS  /tmp/ccIvB74u.s 			page 42


2030:../../kernel/FreeRTOS/Source/tasks.c **** /*----------------------------------------------------------*/
2031:../../kernel/FreeRTOS/Source/tasks.c **** 
2032:../../kernel/FreeRTOS/Source/tasks.c **** void vTaskSuspendAll( void )
2033:../../kernel/FreeRTOS/Source/tasks.c **** {
2034:../../kernel/FreeRTOS/Source/tasks.c **** 	/* A critical section is not required as the variable is of type
2035:../../kernel/FreeRTOS/Source/tasks.c **** 	BaseType_t.  Please read Richard Barry's reply in the following link to a
2036:../../kernel/FreeRTOS/Source/tasks.c **** 	post in the FreeRTOS support forum before reporting this as a bug! -
2037:../../kernel/FreeRTOS/Source/tasks.c **** 	http://goo.gl/wu4acr */
2038:../../kernel/FreeRTOS/Source/tasks.c **** 	++uxSchedulerSuspended;
2039:../../kernel/FreeRTOS/Source/tasks.c **** }
2040:../../kernel/FreeRTOS/Source/tasks.c **** /*----------------------------------------------------------*/
2041:../../kernel/FreeRTOS/Source/tasks.c **** 
2042:../../kernel/FreeRTOS/Source/tasks.c **** #if ( configUSE_TICKLESS_IDLE != 0 )
2043:../../kernel/FreeRTOS/Source/tasks.c **** 
2044:../../kernel/FreeRTOS/Source/tasks.c **** 	static TickType_t prvGetExpectedIdleTime( void )
2045:../../kernel/FreeRTOS/Source/tasks.c **** 	{
2046:../../kernel/FreeRTOS/Source/tasks.c **** 	TickType_t xReturn;
2047:../../kernel/FreeRTOS/Source/tasks.c **** 	UBaseType_t uxHigherPriorityReadyTasks = pdFALSE;
2048:../../kernel/FreeRTOS/Source/tasks.c **** 
2049:../../kernel/FreeRTOS/Source/tasks.c **** 		/* uxHigherPriorityReadyTasks takes care of the case where
2050:../../kernel/FreeRTOS/Source/tasks.c **** 		configUSE_PREEMPTION is 0, so there may be tasks above the idle priority
2051:../../kernel/FreeRTOS/Source/tasks.c **** 		task that are in the Ready state, even though the idle task is
2052:../../kernel/FreeRTOS/Source/tasks.c **** 		running. */
2053:../../kernel/FreeRTOS/Source/tasks.c **** 		#if( configUSE_PORT_OPTIMISED_TASK_SELECTION == 0 )
2054:../../kernel/FreeRTOS/Source/tasks.c **** 		{
2055:../../kernel/FreeRTOS/Source/tasks.c **** 			if( uxTopReadyPriority > tskIDLE_PRIORITY )
2056:../../kernel/FreeRTOS/Source/tasks.c **** 			{
2057:../../kernel/FreeRTOS/Source/tasks.c **** 				uxHigherPriorityReadyTasks = pdTRUE;
2058:../../kernel/FreeRTOS/Source/tasks.c **** 			}
2059:../../kernel/FreeRTOS/Source/tasks.c **** 		}
2060:../../kernel/FreeRTOS/Source/tasks.c **** 		#else
2061:../../kernel/FreeRTOS/Source/tasks.c **** 		{
2062:../../kernel/FreeRTOS/Source/tasks.c **** 			const UBaseType_t uxLeastSignificantBit = ( UBaseType_t ) 0x01;
2063:../../kernel/FreeRTOS/Source/tasks.c **** 
2064:../../kernel/FreeRTOS/Source/tasks.c **** 			/* When port optimised task selection is used the uxTopReadyPriority
2065:../../kernel/FreeRTOS/Source/tasks.c **** 			variable is used as a bit map.  If bits other than the least
2066:../../kernel/FreeRTOS/Source/tasks.c **** 			significant bit are set then there are tasks that have a priority
2067:../../kernel/FreeRTOS/Source/tasks.c **** 			above the idle priority that are in the Ready state.  This takes
2068:../../kernel/FreeRTOS/Source/tasks.c **** 			care of the case where the co-operative scheduler is in use. */
2069:../../kernel/FreeRTOS/Source/tasks.c **** 			if( uxTopReadyPriority > uxLeastSignificantBit )
2070:../../kernel/FreeRTOS/Source/tasks.c **** 			{
2071:../../kernel/FreeRTOS/Source/tasks.c **** 				uxHigherPriorityReadyTasks = pdTRUE;
2072:../../kernel/FreeRTOS/Source/tasks.c **** 			}
2073:../../kernel/FreeRTOS/Source/tasks.c **** 		}
2074:../../kernel/FreeRTOS/Source/tasks.c **** 		#endif
2075:../../kernel/FreeRTOS/Source/tasks.c **** 
2076:../../kernel/FreeRTOS/Source/tasks.c **** 		if( pxCurrentTCB->uxPriority > tskIDLE_PRIORITY )
2077:../../kernel/FreeRTOS/Source/tasks.c **** 		{
2078:../../kernel/FreeRTOS/Source/tasks.c **** 			xReturn = 0;
2079:../../kernel/FreeRTOS/Source/tasks.c **** 		}
2080:../../kernel/FreeRTOS/Source/tasks.c **** 		else if( listCURRENT_LIST_LENGTH( &( pxReadyTasksLists[ tskIDLE_PRIORITY ] ) ) > 1 )
2081:../../kernel/FreeRTOS/Source/tasks.c **** 		{
2082:../../kernel/FreeRTOS/Source/tasks.c **** 			/* There are other idle priority tasks in the ready state.  If
2083:../../kernel/FreeRTOS/Source/tasks.c **** 			time slicing is used then the very next tick interrupt must be
2084:../../kernel/FreeRTOS/Source/tasks.c **** 			processed. */
2085:../../kernel/FreeRTOS/Source/tasks.c **** 			xReturn = 0;
2086:../../kernel/FreeRTOS/Source/tasks.c **** 		}
ARM GAS  /tmp/ccIvB74u.s 			page 43


2087:../../kernel/FreeRTOS/Source/tasks.c **** 		else if( uxHigherPriorityReadyTasks != pdFALSE )
2088:../../kernel/FreeRTOS/Source/tasks.c **** 		{
2089:../../kernel/FreeRTOS/Source/tasks.c **** 			/* There are tasks in the Ready state that have a priority above the
2090:../../kernel/FreeRTOS/Source/tasks.c **** 			idle priority.  This path can only be reached if
2091:../../kernel/FreeRTOS/Source/tasks.c **** 			configUSE_PREEMPTION is 0. */
2092:../../kernel/FreeRTOS/Source/tasks.c **** 			xReturn = 0;
2093:../../kernel/FreeRTOS/Source/tasks.c **** 		}
2094:../../kernel/FreeRTOS/Source/tasks.c **** 		else
2095:../../kernel/FreeRTOS/Source/tasks.c **** 		{
2096:../../kernel/FreeRTOS/Source/tasks.c **** 			xReturn = xNextTaskUnblockTime - xTickCount;
2097:../../kernel/FreeRTOS/Source/tasks.c **** 		}
2098:../../kernel/FreeRTOS/Source/tasks.c **** 
2099:../../kernel/FreeRTOS/Source/tasks.c **** 		return xReturn;
2100:../../kernel/FreeRTOS/Source/tasks.c **** 	}
2101:../../kernel/FreeRTOS/Source/tasks.c **** 
2102:../../kernel/FreeRTOS/Source/tasks.c **** #endif /* configUSE_TICKLESS_IDLE */
2103:../../kernel/FreeRTOS/Source/tasks.c **** /*----------------------------------------------------------*/
2104:../../kernel/FreeRTOS/Source/tasks.c **** 
2105:../../kernel/FreeRTOS/Source/tasks.c **** BaseType_t xTaskResumeAll( void )
2106:../../kernel/FreeRTOS/Source/tasks.c **** {
2107:../../kernel/FreeRTOS/Source/tasks.c **** TCB_t *pxTCB = NULL;
2108:../../kernel/FreeRTOS/Source/tasks.c **** BaseType_t xAlreadyYielded = pdFALSE;
2109:../../kernel/FreeRTOS/Source/tasks.c **** 
2110:../../kernel/FreeRTOS/Source/tasks.c **** 	/* If uxSchedulerSuspended is zero then this function does not match a
2111:../../kernel/FreeRTOS/Source/tasks.c **** 	previous call to vTaskSuspendAll(). */
2112:../../kernel/FreeRTOS/Source/tasks.c **** 	configASSERT( uxSchedulerSuspended );
2113:../../kernel/FreeRTOS/Source/tasks.c **** 
2114:../../kernel/FreeRTOS/Source/tasks.c **** 	/* It is possible that an ISR caused a task to be removed from an event
2115:../../kernel/FreeRTOS/Source/tasks.c **** 	list while the scheduler was suspended.  If this was the case then the
2116:../../kernel/FreeRTOS/Source/tasks.c **** 	removed task will have been added to the xPendingReadyList.  Once the
2117:../../kernel/FreeRTOS/Source/tasks.c **** 	scheduler has been resumed it is safe to move all the pending ready
2118:../../kernel/FreeRTOS/Source/tasks.c **** 	tasks from this list into their appropriate ready list. */
2119:../../kernel/FreeRTOS/Source/tasks.c **** 	taskENTER_CRITICAL();
2120:../../kernel/FreeRTOS/Source/tasks.c **** 	{
2121:../../kernel/FreeRTOS/Source/tasks.c **** 		--uxSchedulerSuspended;
2122:../../kernel/FreeRTOS/Source/tasks.c **** 
2123:../../kernel/FreeRTOS/Source/tasks.c **** 		if( uxSchedulerSuspended == ( UBaseType_t ) pdFALSE )
2124:../../kernel/FreeRTOS/Source/tasks.c **** 		{
2125:../../kernel/FreeRTOS/Source/tasks.c **** 			if( uxCurrentNumberOfTasks > ( UBaseType_t ) 0U )
2126:../../kernel/FreeRTOS/Source/tasks.c **** 			{
2127:../../kernel/FreeRTOS/Source/tasks.c **** 				/* Move any readied tasks from the pending list into the
2128:../../kernel/FreeRTOS/Source/tasks.c **** 				appropriate ready list. */
2129:../../kernel/FreeRTOS/Source/tasks.c **** 				while( listLIST_IS_EMPTY( &xPendingReadyList ) == pdFALSE )
2130:../../kernel/FreeRTOS/Source/tasks.c **** 				{
2131:../../kernel/FreeRTOS/Source/tasks.c **** 					pxTCB = ( TCB_t * ) listGET_OWNER_OF_HEAD_ENTRY( ( &xPendingReadyList ) );
2132:../../kernel/FreeRTOS/Source/tasks.c **** 					( void ) uxListRemove( &( pxTCB->xEventListItem ) );
2133:../../kernel/FreeRTOS/Source/tasks.c **** 					( void ) uxListRemove( &( pxTCB->xStateListItem ) );
2134:../../kernel/FreeRTOS/Source/tasks.c **** 					prvAddTaskToReadyList( pxTCB );
2135:../../kernel/FreeRTOS/Source/tasks.c **** 
2136:../../kernel/FreeRTOS/Source/tasks.c **** 					/* If the moved task has a priority higher than the current
2137:../../kernel/FreeRTOS/Source/tasks.c **** 					task then a yield must be performed. */
2138:../../kernel/FreeRTOS/Source/tasks.c **** 					if( pxTCB->uxPriority >= pxCurrentTCB->uxPriority )
2139:../../kernel/FreeRTOS/Source/tasks.c **** 					{
2140:../../kernel/FreeRTOS/Source/tasks.c **** 						xYieldPending = pdTRUE;
2141:../../kernel/FreeRTOS/Source/tasks.c **** 					}
2142:../../kernel/FreeRTOS/Source/tasks.c **** 					else
2143:../../kernel/FreeRTOS/Source/tasks.c **** 					{
ARM GAS  /tmp/ccIvB74u.s 			page 44


2144:../../kernel/FreeRTOS/Source/tasks.c **** 						mtCOVERAGE_TEST_MARKER();
2145:../../kernel/FreeRTOS/Source/tasks.c **** 					}
2146:../../kernel/FreeRTOS/Source/tasks.c **** 				}
2147:../../kernel/FreeRTOS/Source/tasks.c **** 
2148:../../kernel/FreeRTOS/Source/tasks.c **** 				if( pxTCB != NULL )
2149:../../kernel/FreeRTOS/Source/tasks.c **** 				{
2150:../../kernel/FreeRTOS/Source/tasks.c **** 					/* A task was unblocked while the scheduler was suspended,
2151:../../kernel/FreeRTOS/Source/tasks.c **** 					which may have prevented the next unblock time from being
2152:../../kernel/FreeRTOS/Source/tasks.c **** 					re-calculated, in which case re-calculate it now.  Mainly
2153:../../kernel/FreeRTOS/Source/tasks.c **** 					important for low power tickless implementations, where
2154:../../kernel/FreeRTOS/Source/tasks.c **** 					this can prevent an unnecessary exit from low power
2155:../../kernel/FreeRTOS/Source/tasks.c **** 					state. */
2156:../../kernel/FreeRTOS/Source/tasks.c **** 					prvResetNextTaskUnblockTime();
2157:../../kernel/FreeRTOS/Source/tasks.c **** 				}
2158:../../kernel/FreeRTOS/Source/tasks.c **** 
2159:../../kernel/FreeRTOS/Source/tasks.c **** 				/* If any ticks occurred while the scheduler was suspended then
2160:../../kernel/FreeRTOS/Source/tasks.c **** 				they should be processed now.  This ensures the tick count does
2161:../../kernel/FreeRTOS/Source/tasks.c **** 				not	slip, and that any delayed tasks are resumed at the correct
2162:../../kernel/FreeRTOS/Source/tasks.c **** 				time. */
2163:../../kernel/FreeRTOS/Source/tasks.c **** 				{
2164:../../kernel/FreeRTOS/Source/tasks.c **** 					UBaseType_t uxPendedCounts = uxPendedTicks; /* Non-volatile copy. */
2165:../../kernel/FreeRTOS/Source/tasks.c **** 
2166:../../kernel/FreeRTOS/Source/tasks.c **** 					if( uxPendedCounts > ( UBaseType_t ) 0U )
2167:../../kernel/FreeRTOS/Source/tasks.c **** 					{
2168:../../kernel/FreeRTOS/Source/tasks.c **** 						do
2169:../../kernel/FreeRTOS/Source/tasks.c **** 						{
2170:../../kernel/FreeRTOS/Source/tasks.c **** 							if( xTaskIncrementTick() != pdFALSE )
2171:../../kernel/FreeRTOS/Source/tasks.c **** 							{
2172:../../kernel/FreeRTOS/Source/tasks.c **** 								xYieldPending = pdTRUE;
2173:../../kernel/FreeRTOS/Source/tasks.c **** 							}
2174:../../kernel/FreeRTOS/Source/tasks.c **** 							else
2175:../../kernel/FreeRTOS/Source/tasks.c **** 							{
2176:../../kernel/FreeRTOS/Source/tasks.c **** 								mtCOVERAGE_TEST_MARKER();
2177:../../kernel/FreeRTOS/Source/tasks.c **** 							}
2178:../../kernel/FreeRTOS/Source/tasks.c **** 							--uxPendedCounts;
2179:../../kernel/FreeRTOS/Source/tasks.c **** 						} while( uxPendedCounts > ( UBaseType_t ) 0U );
2180:../../kernel/FreeRTOS/Source/tasks.c **** 
2181:../../kernel/FreeRTOS/Source/tasks.c **** 						uxPendedTicks = 0;
2182:../../kernel/FreeRTOS/Source/tasks.c **** 					}
2183:../../kernel/FreeRTOS/Source/tasks.c **** 					else
2184:../../kernel/FreeRTOS/Source/tasks.c **** 					{
2185:../../kernel/FreeRTOS/Source/tasks.c **** 						mtCOVERAGE_TEST_MARKER();
2186:../../kernel/FreeRTOS/Source/tasks.c **** 					}
2187:../../kernel/FreeRTOS/Source/tasks.c **** 				}
2188:../../kernel/FreeRTOS/Source/tasks.c **** 
2189:../../kernel/FreeRTOS/Source/tasks.c **** 				if( xYieldPending != pdFALSE )
2190:../../kernel/FreeRTOS/Source/tasks.c **** 				{
2191:../../kernel/FreeRTOS/Source/tasks.c **** 					#if( configUSE_PREEMPTION != 0 )
2192:../../kernel/FreeRTOS/Source/tasks.c **** 					{
2193:../../kernel/FreeRTOS/Source/tasks.c **** 						xAlreadyYielded = pdTRUE;
2194:../../kernel/FreeRTOS/Source/tasks.c **** 					}
2195:../../kernel/FreeRTOS/Source/tasks.c **** 					#endif
2196:../../kernel/FreeRTOS/Source/tasks.c **** 					taskYIELD_IF_USING_PREEMPTION();
2197:../../kernel/FreeRTOS/Source/tasks.c **** 				}
2198:../../kernel/FreeRTOS/Source/tasks.c **** 				else
2199:../../kernel/FreeRTOS/Source/tasks.c **** 				{
2200:../../kernel/FreeRTOS/Source/tasks.c **** 					mtCOVERAGE_TEST_MARKER();
ARM GAS  /tmp/ccIvB74u.s 			page 45


2201:../../kernel/FreeRTOS/Source/tasks.c **** 				}
2202:../../kernel/FreeRTOS/Source/tasks.c **** 			}
2203:../../kernel/FreeRTOS/Source/tasks.c **** 		}
2204:../../kernel/FreeRTOS/Source/tasks.c **** 		else
2205:../../kernel/FreeRTOS/Source/tasks.c **** 		{
2206:../../kernel/FreeRTOS/Source/tasks.c **** 			mtCOVERAGE_TEST_MARKER();
2207:../../kernel/FreeRTOS/Source/tasks.c **** 		}
2208:../../kernel/FreeRTOS/Source/tasks.c **** 	}
2209:../../kernel/FreeRTOS/Source/tasks.c **** 	taskEXIT_CRITICAL();
2210:../../kernel/FreeRTOS/Source/tasks.c **** 
2211:../../kernel/FreeRTOS/Source/tasks.c **** 	return xAlreadyYielded;
2212:../../kernel/FreeRTOS/Source/tasks.c **** }
2213:../../kernel/FreeRTOS/Source/tasks.c **** /*-----------------------------------------------------------*/
2214:../../kernel/FreeRTOS/Source/tasks.c **** 
2215:../../kernel/FreeRTOS/Source/tasks.c **** TickType_t xTaskGetTickCount( void )
2216:../../kernel/FreeRTOS/Source/tasks.c **** {
2217:../../kernel/FreeRTOS/Source/tasks.c **** TickType_t xTicks;
2218:../../kernel/FreeRTOS/Source/tasks.c **** 
2219:../../kernel/FreeRTOS/Source/tasks.c **** 	/* Critical section required if running on a 16 bit processor. */
2220:../../kernel/FreeRTOS/Source/tasks.c **** 	portTICK_TYPE_ENTER_CRITICAL();
2221:../../kernel/FreeRTOS/Source/tasks.c **** 	{
2222:../../kernel/FreeRTOS/Source/tasks.c **** 		xTicks = xTickCount;
2223:../../kernel/FreeRTOS/Source/tasks.c **** 	}
2224:../../kernel/FreeRTOS/Source/tasks.c **** 	portTICK_TYPE_EXIT_CRITICAL();
2225:../../kernel/FreeRTOS/Source/tasks.c **** 
2226:../../kernel/FreeRTOS/Source/tasks.c **** 	return xTicks;
2227:../../kernel/FreeRTOS/Source/tasks.c **** }
2228:../../kernel/FreeRTOS/Source/tasks.c **** /*-----------------------------------------------------------*/
2229:../../kernel/FreeRTOS/Source/tasks.c **** 
2230:../../kernel/FreeRTOS/Source/tasks.c **** TickType_t xTaskGetTickCountFromISR( void )
2231:../../kernel/FreeRTOS/Source/tasks.c **** {
2232:../../kernel/FreeRTOS/Source/tasks.c **** TickType_t xReturn;
2233:../../kernel/FreeRTOS/Source/tasks.c **** UBaseType_t uxSavedInterruptStatus;
2234:../../kernel/FreeRTOS/Source/tasks.c **** 
2235:../../kernel/FreeRTOS/Source/tasks.c **** 	/* RTOS ports that support interrupt nesting have the concept of a maximum
2236:../../kernel/FreeRTOS/Source/tasks.c **** 	system call (or maximum API call) interrupt priority.  Interrupts that are
2237:../../kernel/FreeRTOS/Source/tasks.c **** 	above the maximum system call priority are kept permanently enabled, even
2238:../../kernel/FreeRTOS/Source/tasks.c **** 	when the RTOS kernel is in a critical section, but cannot make any calls to
2239:../../kernel/FreeRTOS/Source/tasks.c **** 	FreeRTOS API functions.  If configASSERT() is defined in FreeRTOSConfig.h
2240:../../kernel/FreeRTOS/Source/tasks.c **** 	then portASSERT_IF_INTERRUPT_PRIORITY_INVALID() will result in an assertion
2241:../../kernel/FreeRTOS/Source/tasks.c **** 	failure if a FreeRTOS API function is called from an interrupt that has been
2242:../../kernel/FreeRTOS/Source/tasks.c **** 	assigned a priority above the configured maximum system call priority.
2243:../../kernel/FreeRTOS/Source/tasks.c **** 	Only FreeRTOS functions that end in FromISR can be called from interrupts
2244:../../kernel/FreeRTOS/Source/tasks.c **** 	that have been assigned a priority at or (logically) below the maximum
2245:../../kernel/FreeRTOS/Source/tasks.c **** 	system call	interrupt priority.  FreeRTOS maintains a separate interrupt
2246:../../kernel/FreeRTOS/Source/tasks.c **** 	safe API to ensure interrupt entry is as fast and as simple as possible.
2247:../../kernel/FreeRTOS/Source/tasks.c **** 	More information (albeit Cortex-M specific) is provided on the following
2248:../../kernel/FreeRTOS/Source/tasks.c **** 	link: http://www.freertos.org/RTOS-Cortex-M3-M4.html */
2249:../../kernel/FreeRTOS/Source/tasks.c **** 	portASSERT_IF_INTERRUPT_PRIORITY_INVALID();
2250:../../kernel/FreeRTOS/Source/tasks.c **** 
2251:../../kernel/FreeRTOS/Source/tasks.c **** 	uxSavedInterruptStatus = portTICK_TYPE_SET_INTERRUPT_MASK_FROM_ISR();
2252:../../kernel/FreeRTOS/Source/tasks.c **** 	{
2253:../../kernel/FreeRTOS/Source/tasks.c **** 		xReturn = xTickCount;
2254:../../kernel/FreeRTOS/Source/tasks.c **** 	}
2255:../../kernel/FreeRTOS/Source/tasks.c **** 	portTICK_TYPE_CLEAR_INTERRUPT_MASK_FROM_ISR( uxSavedInterruptStatus );
2256:../../kernel/FreeRTOS/Source/tasks.c **** 
2257:../../kernel/FreeRTOS/Source/tasks.c **** 	return xReturn;
ARM GAS  /tmp/ccIvB74u.s 			page 46


2258:../../kernel/FreeRTOS/Source/tasks.c **** }
2259:../../kernel/FreeRTOS/Source/tasks.c **** /*-----------------------------------------------------------*/
2260:../../kernel/FreeRTOS/Source/tasks.c **** 
2261:../../kernel/FreeRTOS/Source/tasks.c **** UBaseType_t uxTaskGetNumberOfTasks( void )
2262:../../kernel/FreeRTOS/Source/tasks.c **** {
2263:../../kernel/FreeRTOS/Source/tasks.c **** 	/* A critical section is not required because the variables are of type
2264:../../kernel/FreeRTOS/Source/tasks.c **** 	BaseType_t. */
2265:../../kernel/FreeRTOS/Source/tasks.c **** 	return uxCurrentNumberOfTasks;
2266:../../kernel/FreeRTOS/Source/tasks.c **** }
2267:../../kernel/FreeRTOS/Source/tasks.c **** /*-----------------------------------------------------------*/
2268:../../kernel/FreeRTOS/Source/tasks.c **** 
2269:../../kernel/FreeRTOS/Source/tasks.c **** char *pcTaskGetName( TaskHandle_t xTaskToQuery ) /*lint !e971 Unqualified char types are allowed fo
2270:../../kernel/FreeRTOS/Source/tasks.c **** {
2271:../../kernel/FreeRTOS/Source/tasks.c **** TCB_t *pxTCB;
2272:../../kernel/FreeRTOS/Source/tasks.c **** 
2273:../../kernel/FreeRTOS/Source/tasks.c **** 	/* If null is passed in here then the name of the calling task is being
2274:../../kernel/FreeRTOS/Source/tasks.c **** 	queried. */
2275:../../kernel/FreeRTOS/Source/tasks.c **** 	pxTCB = prvGetTCBFromHandle( xTaskToQuery );
2276:../../kernel/FreeRTOS/Source/tasks.c **** 	configASSERT( pxTCB );
2277:../../kernel/FreeRTOS/Source/tasks.c **** 	return &( pxTCB->pcTaskName[ 0 ] );
2278:../../kernel/FreeRTOS/Source/tasks.c **** }
2279:../../kernel/FreeRTOS/Source/tasks.c **** /*-----------------------------------------------------------*/
2280:../../kernel/FreeRTOS/Source/tasks.c **** 
2281:../../kernel/FreeRTOS/Source/tasks.c **** #if ( INCLUDE_xTaskGetHandle == 1 )
2282:../../kernel/FreeRTOS/Source/tasks.c **** 
2283:../../kernel/FreeRTOS/Source/tasks.c **** 	static TCB_t *prvSearchForNameWithinSingleList( List_t *pxList, const char pcNameToQuery[] )
2284:../../kernel/FreeRTOS/Source/tasks.c **** 	{
2285:../../kernel/FreeRTOS/Source/tasks.c **** 	TCB_t *pxNextTCB, *pxFirstTCB, *pxReturn = NULL;
2286:../../kernel/FreeRTOS/Source/tasks.c **** 	UBaseType_t x;
2287:../../kernel/FreeRTOS/Source/tasks.c **** 	char cNextChar;
2288:../../kernel/FreeRTOS/Source/tasks.c **** 
2289:../../kernel/FreeRTOS/Source/tasks.c **** 		/* This function is called with the scheduler suspended. */
2290:../../kernel/FreeRTOS/Source/tasks.c **** 
2291:../../kernel/FreeRTOS/Source/tasks.c **** 		if( listCURRENT_LIST_LENGTH( pxList ) > ( UBaseType_t ) 0 )
2292:../../kernel/FreeRTOS/Source/tasks.c **** 		{
2293:../../kernel/FreeRTOS/Source/tasks.c **** 			listGET_OWNER_OF_NEXT_ENTRY( pxFirstTCB, pxList );
2294:../../kernel/FreeRTOS/Source/tasks.c **** 
2295:../../kernel/FreeRTOS/Source/tasks.c **** 			do
2296:../../kernel/FreeRTOS/Source/tasks.c **** 			{
2297:../../kernel/FreeRTOS/Source/tasks.c **** 				listGET_OWNER_OF_NEXT_ENTRY( pxNextTCB, pxList );
2298:../../kernel/FreeRTOS/Source/tasks.c **** 
2299:../../kernel/FreeRTOS/Source/tasks.c **** 				/* Check each character in the name looking for a match or
2300:../../kernel/FreeRTOS/Source/tasks.c **** 				mismatch. */
2301:../../kernel/FreeRTOS/Source/tasks.c **** 				for( x = ( UBaseType_t ) 0; x < ( UBaseType_t ) configMAX_TASK_NAME_LEN; x++ )
2302:../../kernel/FreeRTOS/Source/tasks.c **** 				{
2303:../../kernel/FreeRTOS/Source/tasks.c **** 					cNextChar = pxNextTCB->pcTaskName[ x ];
2304:../../kernel/FreeRTOS/Source/tasks.c **** 
2305:../../kernel/FreeRTOS/Source/tasks.c **** 					if( cNextChar != pcNameToQuery[ x ] )
2306:../../kernel/FreeRTOS/Source/tasks.c **** 					{
2307:../../kernel/FreeRTOS/Source/tasks.c **** 						/* Characters didn't match. */
2308:../../kernel/FreeRTOS/Source/tasks.c **** 						break;
2309:../../kernel/FreeRTOS/Source/tasks.c **** 					}
2310:../../kernel/FreeRTOS/Source/tasks.c **** 					else if( cNextChar == 0x00 )
2311:../../kernel/FreeRTOS/Source/tasks.c **** 					{
2312:../../kernel/FreeRTOS/Source/tasks.c **** 						/* Both strings terminated, a match must have been
2313:../../kernel/FreeRTOS/Source/tasks.c **** 						found. */
2314:../../kernel/FreeRTOS/Source/tasks.c **** 						pxReturn = pxNextTCB;
ARM GAS  /tmp/ccIvB74u.s 			page 47


2315:../../kernel/FreeRTOS/Source/tasks.c **** 						break;
2316:../../kernel/FreeRTOS/Source/tasks.c **** 					}
2317:../../kernel/FreeRTOS/Source/tasks.c **** 					else
2318:../../kernel/FreeRTOS/Source/tasks.c **** 					{
2319:../../kernel/FreeRTOS/Source/tasks.c **** 						mtCOVERAGE_TEST_MARKER();
2320:../../kernel/FreeRTOS/Source/tasks.c **** 					}
2321:../../kernel/FreeRTOS/Source/tasks.c **** 				}
2322:../../kernel/FreeRTOS/Source/tasks.c **** 
2323:../../kernel/FreeRTOS/Source/tasks.c **** 				if( pxReturn != NULL )
2324:../../kernel/FreeRTOS/Source/tasks.c **** 				{
2325:../../kernel/FreeRTOS/Source/tasks.c **** 					/* The handle has been found. */
2326:../../kernel/FreeRTOS/Source/tasks.c **** 					break;
2327:../../kernel/FreeRTOS/Source/tasks.c **** 				}
2328:../../kernel/FreeRTOS/Source/tasks.c **** 
2329:../../kernel/FreeRTOS/Source/tasks.c **** 			} while( pxNextTCB != pxFirstTCB );
2330:../../kernel/FreeRTOS/Source/tasks.c **** 		}
2331:../../kernel/FreeRTOS/Source/tasks.c **** 		else
2332:../../kernel/FreeRTOS/Source/tasks.c **** 		{
2333:../../kernel/FreeRTOS/Source/tasks.c **** 			mtCOVERAGE_TEST_MARKER();
2334:../../kernel/FreeRTOS/Source/tasks.c **** 		}
2335:../../kernel/FreeRTOS/Source/tasks.c **** 
2336:../../kernel/FreeRTOS/Source/tasks.c **** 		return pxReturn;
2337:../../kernel/FreeRTOS/Source/tasks.c **** 	}
2338:../../kernel/FreeRTOS/Source/tasks.c **** 
2339:../../kernel/FreeRTOS/Source/tasks.c **** #endif /* INCLUDE_xTaskGetHandle */
2340:../../kernel/FreeRTOS/Source/tasks.c **** /*-----------------------------------------------------------*/
2341:../../kernel/FreeRTOS/Source/tasks.c **** 
2342:../../kernel/FreeRTOS/Source/tasks.c **** #if ( INCLUDE_xTaskGetHandle == 1 )
2343:../../kernel/FreeRTOS/Source/tasks.c **** 
2344:../../kernel/FreeRTOS/Source/tasks.c **** 	TaskHandle_t xTaskGetHandle( const char *pcNameToQuery ) /*lint !e971 Unqualified char types are a
2345:../../kernel/FreeRTOS/Source/tasks.c **** 	{
2346:../../kernel/FreeRTOS/Source/tasks.c **** 	UBaseType_t uxQueue = configMAX_PRIORITIES;
2347:../../kernel/FreeRTOS/Source/tasks.c **** 	TCB_t* pxTCB;
2348:../../kernel/FreeRTOS/Source/tasks.c **** 
2349:../../kernel/FreeRTOS/Source/tasks.c **** 		/* Task names will be truncated to configMAX_TASK_NAME_LEN - 1 bytes. */
2350:../../kernel/FreeRTOS/Source/tasks.c **** 		configASSERT( strlen( pcNameToQuery ) < configMAX_TASK_NAME_LEN );
2351:../../kernel/FreeRTOS/Source/tasks.c **** 
2352:../../kernel/FreeRTOS/Source/tasks.c **** 		vTaskSuspendAll();
2353:../../kernel/FreeRTOS/Source/tasks.c **** 		{
2354:../../kernel/FreeRTOS/Source/tasks.c **** 			/* Search the ready lists. */
2355:../../kernel/FreeRTOS/Source/tasks.c **** 			do
2356:../../kernel/FreeRTOS/Source/tasks.c **** 			{
2357:../../kernel/FreeRTOS/Source/tasks.c **** 				uxQueue--;
2358:../../kernel/FreeRTOS/Source/tasks.c **** 				pxTCB = prvSearchForNameWithinSingleList( ( List_t * ) &( pxReadyTasksLists[ uxQueue ] ), pcNam
2359:../../kernel/FreeRTOS/Source/tasks.c **** 
2360:../../kernel/FreeRTOS/Source/tasks.c **** 				if( pxTCB != NULL )
2361:../../kernel/FreeRTOS/Source/tasks.c **** 				{
2362:../../kernel/FreeRTOS/Source/tasks.c **** 					/* Found the handle. */
2363:../../kernel/FreeRTOS/Source/tasks.c **** 					break;
2364:../../kernel/FreeRTOS/Source/tasks.c **** 				}
2365:../../kernel/FreeRTOS/Source/tasks.c **** 
2366:../../kernel/FreeRTOS/Source/tasks.c **** 			} while( uxQueue > ( UBaseType_t ) tskIDLE_PRIORITY ); /*lint !e961 MISRA exception as the casts
2367:../../kernel/FreeRTOS/Source/tasks.c **** 
2368:../../kernel/FreeRTOS/Source/tasks.c **** 			/* Search the delayed lists. */
2369:../../kernel/FreeRTOS/Source/tasks.c **** 			if( pxTCB == NULL )
2370:../../kernel/FreeRTOS/Source/tasks.c **** 			{
2371:../../kernel/FreeRTOS/Source/tasks.c **** 				pxTCB = prvSearchForNameWithinSingleList( ( List_t * ) pxDelayedTaskList, pcNameToQuery );
ARM GAS  /tmp/ccIvB74u.s 			page 48


2372:../../kernel/FreeRTOS/Source/tasks.c **** 			}
2373:../../kernel/FreeRTOS/Source/tasks.c **** 
2374:../../kernel/FreeRTOS/Source/tasks.c **** 			if( pxTCB == NULL )
2375:../../kernel/FreeRTOS/Source/tasks.c **** 			{
2376:../../kernel/FreeRTOS/Source/tasks.c **** 				pxTCB = prvSearchForNameWithinSingleList( ( List_t * ) pxOverflowDelayedTaskList, pcNameToQuery
2377:../../kernel/FreeRTOS/Source/tasks.c **** 			}
2378:../../kernel/FreeRTOS/Source/tasks.c **** 
2379:../../kernel/FreeRTOS/Source/tasks.c **** 			#if ( INCLUDE_vTaskSuspend == 1 )
2380:../../kernel/FreeRTOS/Source/tasks.c **** 			{
2381:../../kernel/FreeRTOS/Source/tasks.c **** 				if( pxTCB == NULL )
2382:../../kernel/FreeRTOS/Source/tasks.c **** 				{
2383:../../kernel/FreeRTOS/Source/tasks.c **** 					/* Search the suspended list. */
2384:../../kernel/FreeRTOS/Source/tasks.c **** 					pxTCB = prvSearchForNameWithinSingleList( &xSuspendedTaskList, pcNameToQuery );
2385:../../kernel/FreeRTOS/Source/tasks.c **** 				}
2386:../../kernel/FreeRTOS/Source/tasks.c **** 			}
2387:../../kernel/FreeRTOS/Source/tasks.c **** 			#endif
2388:../../kernel/FreeRTOS/Source/tasks.c **** 
2389:../../kernel/FreeRTOS/Source/tasks.c **** 			#if( INCLUDE_vTaskDelete == 1 )
2390:../../kernel/FreeRTOS/Source/tasks.c **** 			{
2391:../../kernel/FreeRTOS/Source/tasks.c **** 				if( pxTCB == NULL )
2392:../../kernel/FreeRTOS/Source/tasks.c **** 				{
2393:../../kernel/FreeRTOS/Source/tasks.c **** 					/* Search the deleted list. */
2394:../../kernel/FreeRTOS/Source/tasks.c **** 					pxTCB = prvSearchForNameWithinSingleList( &xTasksWaitingTermination, pcNameToQuery );
2395:../../kernel/FreeRTOS/Source/tasks.c **** 				}
2396:../../kernel/FreeRTOS/Source/tasks.c **** 			}
2397:../../kernel/FreeRTOS/Source/tasks.c **** 			#endif
2398:../../kernel/FreeRTOS/Source/tasks.c **** 		}
2399:../../kernel/FreeRTOS/Source/tasks.c **** 		( void ) xTaskResumeAll();
2400:../../kernel/FreeRTOS/Source/tasks.c **** 
2401:../../kernel/FreeRTOS/Source/tasks.c **** 		return ( TaskHandle_t ) pxTCB;
2402:../../kernel/FreeRTOS/Source/tasks.c **** 	}
2403:../../kernel/FreeRTOS/Source/tasks.c **** 
2404:../../kernel/FreeRTOS/Source/tasks.c **** #endif /* INCLUDE_xTaskGetHandle */
2405:../../kernel/FreeRTOS/Source/tasks.c **** /*-----------------------------------------------------------*/
2406:../../kernel/FreeRTOS/Source/tasks.c **** 
2407:../../kernel/FreeRTOS/Source/tasks.c **** #if ( configUSE_TRACE_FACILITY == 1 )
2408:../../kernel/FreeRTOS/Source/tasks.c **** 
2409:../../kernel/FreeRTOS/Source/tasks.c **** 	UBaseType_t uxTaskGetSystemState( TaskStatus_t * const pxTaskStatusArray, const UBaseType_t uxArra
2410:../../kernel/FreeRTOS/Source/tasks.c **** 	{
2411:../../kernel/FreeRTOS/Source/tasks.c **** 	UBaseType_t uxTask = 0, uxQueue = configMAX_PRIORITIES;
2412:../../kernel/FreeRTOS/Source/tasks.c **** 
2413:../../kernel/FreeRTOS/Source/tasks.c **** 		vTaskSuspendAll();
2414:../../kernel/FreeRTOS/Source/tasks.c **** 		{
2415:../../kernel/FreeRTOS/Source/tasks.c **** 			/* Is there a space in the array for each task in the system? */
2416:../../kernel/FreeRTOS/Source/tasks.c **** 			if( uxArraySize >= uxCurrentNumberOfTasks )
2417:../../kernel/FreeRTOS/Source/tasks.c **** 			{
2418:../../kernel/FreeRTOS/Source/tasks.c **** 				/* Fill in an TaskStatus_t structure with information on each
2419:../../kernel/FreeRTOS/Source/tasks.c **** 				task in the Ready state. */
2420:../../kernel/FreeRTOS/Source/tasks.c **** 				do
2421:../../kernel/FreeRTOS/Source/tasks.c **** 				{
2422:../../kernel/FreeRTOS/Source/tasks.c **** 					uxQueue--;
2423:../../kernel/FreeRTOS/Source/tasks.c **** 					uxTask += prvListTasksWithinSingleList( &( pxTaskStatusArray[ uxTask ] ), &( pxReadyTasksLists
2424:../../kernel/FreeRTOS/Source/tasks.c **** 
2425:../../kernel/FreeRTOS/Source/tasks.c **** 				} while( uxQueue > ( UBaseType_t ) tskIDLE_PRIORITY ); /*lint !e961 MISRA exception as the cast
2426:../../kernel/FreeRTOS/Source/tasks.c **** 
2427:../../kernel/FreeRTOS/Source/tasks.c **** 				/* Fill in an TaskStatus_t structure with information on each
2428:../../kernel/FreeRTOS/Source/tasks.c **** 				task in the Blocked state. */
ARM GAS  /tmp/ccIvB74u.s 			page 49


2429:../../kernel/FreeRTOS/Source/tasks.c **** 				uxTask += prvListTasksWithinSingleList( &( pxTaskStatusArray[ uxTask ] ), ( List_t * ) pxDelaye
2430:../../kernel/FreeRTOS/Source/tasks.c **** 				uxTask += prvListTasksWithinSingleList( &( pxTaskStatusArray[ uxTask ] ), ( List_t * ) pxOverfl
2431:../../kernel/FreeRTOS/Source/tasks.c **** 
2432:../../kernel/FreeRTOS/Source/tasks.c **** 				#if( INCLUDE_vTaskDelete == 1 )
2433:../../kernel/FreeRTOS/Source/tasks.c **** 				{
2434:../../kernel/FreeRTOS/Source/tasks.c **** 					/* Fill in an TaskStatus_t structure with information on
2435:../../kernel/FreeRTOS/Source/tasks.c **** 					each task that has been deleted but not yet cleaned up. */
2436:../../kernel/FreeRTOS/Source/tasks.c **** 					uxTask += prvListTasksWithinSingleList( &( pxTaskStatusArray[ uxTask ] ), &xTasksWaitingTermin
2437:../../kernel/FreeRTOS/Source/tasks.c **** 				}
2438:../../kernel/FreeRTOS/Source/tasks.c **** 				#endif
2439:../../kernel/FreeRTOS/Source/tasks.c **** 
2440:../../kernel/FreeRTOS/Source/tasks.c **** 				#if ( INCLUDE_vTaskSuspend == 1 )
2441:../../kernel/FreeRTOS/Source/tasks.c **** 				{
2442:../../kernel/FreeRTOS/Source/tasks.c **** 					/* Fill in an TaskStatus_t structure with information on
2443:../../kernel/FreeRTOS/Source/tasks.c **** 					each task in the Suspended state. */
2444:../../kernel/FreeRTOS/Source/tasks.c **** 					uxTask += prvListTasksWithinSingleList( &( pxTaskStatusArray[ uxTask ] ), &xSuspendedTaskList,
2445:../../kernel/FreeRTOS/Source/tasks.c **** 				}
2446:../../kernel/FreeRTOS/Source/tasks.c **** 				#endif
2447:../../kernel/FreeRTOS/Source/tasks.c **** 
2448:../../kernel/FreeRTOS/Source/tasks.c **** 				#if ( configGENERATE_RUN_TIME_STATS == 1)
2449:../../kernel/FreeRTOS/Source/tasks.c **** 				{
2450:../../kernel/FreeRTOS/Source/tasks.c **** 					if( pulTotalRunTime != NULL )
2451:../../kernel/FreeRTOS/Source/tasks.c **** 					{
2452:../../kernel/FreeRTOS/Source/tasks.c **** 						#ifdef portALT_GET_RUN_TIME_COUNTER_VALUE
2453:../../kernel/FreeRTOS/Source/tasks.c **** 							portALT_GET_RUN_TIME_COUNTER_VALUE( ( *pulTotalRunTime ) );
2454:../../kernel/FreeRTOS/Source/tasks.c **** 						#else
2455:../../kernel/FreeRTOS/Source/tasks.c **** 							*pulTotalRunTime = portGET_RUN_TIME_COUNTER_VALUE();
2456:../../kernel/FreeRTOS/Source/tasks.c **** 						#endif
2457:../../kernel/FreeRTOS/Source/tasks.c **** 					}
2458:../../kernel/FreeRTOS/Source/tasks.c **** 				}
2459:../../kernel/FreeRTOS/Source/tasks.c **** 				#else
2460:../../kernel/FreeRTOS/Source/tasks.c **** 				{
2461:../../kernel/FreeRTOS/Source/tasks.c **** 					if( pulTotalRunTime != NULL )
2462:../../kernel/FreeRTOS/Source/tasks.c **** 					{
2463:../../kernel/FreeRTOS/Source/tasks.c **** 						*pulTotalRunTime = 0;
2464:../../kernel/FreeRTOS/Source/tasks.c **** 					}
2465:../../kernel/FreeRTOS/Source/tasks.c **** 				}
2466:../../kernel/FreeRTOS/Source/tasks.c **** 				#endif
2467:../../kernel/FreeRTOS/Source/tasks.c **** 			}
2468:../../kernel/FreeRTOS/Source/tasks.c **** 			else
2469:../../kernel/FreeRTOS/Source/tasks.c **** 			{
2470:../../kernel/FreeRTOS/Source/tasks.c **** 				mtCOVERAGE_TEST_MARKER();
2471:../../kernel/FreeRTOS/Source/tasks.c **** 			}
2472:../../kernel/FreeRTOS/Source/tasks.c **** 		}
2473:../../kernel/FreeRTOS/Source/tasks.c **** 		( void ) xTaskResumeAll();
2474:../../kernel/FreeRTOS/Source/tasks.c **** 
2475:../../kernel/FreeRTOS/Source/tasks.c **** 		return uxTask;
2476:../../kernel/FreeRTOS/Source/tasks.c **** 	}
2477:../../kernel/FreeRTOS/Source/tasks.c **** 
2478:../../kernel/FreeRTOS/Source/tasks.c **** #endif /* configUSE_TRACE_FACILITY */
2479:../../kernel/FreeRTOS/Source/tasks.c **** /*----------------------------------------------------------*/
2480:../../kernel/FreeRTOS/Source/tasks.c **** 
2481:../../kernel/FreeRTOS/Source/tasks.c **** #if ( INCLUDE_xTaskGetIdleTaskHandle == 1 )
2482:../../kernel/FreeRTOS/Source/tasks.c **** 
2483:../../kernel/FreeRTOS/Source/tasks.c **** 	TaskHandle_t xTaskGetIdleTaskHandle( void )
2484:../../kernel/FreeRTOS/Source/tasks.c **** 	{
2485:../../kernel/FreeRTOS/Source/tasks.c **** 		/* If xTaskGetIdleTaskHandle() is called before the scheduler has been
ARM GAS  /tmp/ccIvB74u.s 			page 50


2486:../../kernel/FreeRTOS/Source/tasks.c **** 		started, then xIdleTaskHandle will be NULL. */
2487:../../kernel/FreeRTOS/Source/tasks.c **** 		configASSERT( ( xIdleTaskHandle != NULL ) );
2488:../../kernel/FreeRTOS/Source/tasks.c **** 		return xIdleTaskHandle;
2489:../../kernel/FreeRTOS/Source/tasks.c **** 	}
2490:../../kernel/FreeRTOS/Source/tasks.c **** 
2491:../../kernel/FreeRTOS/Source/tasks.c **** #endif /* INCLUDE_xTaskGetIdleTaskHandle */
2492:../../kernel/FreeRTOS/Source/tasks.c **** /*----------------------------------------------------------*/
2493:../../kernel/FreeRTOS/Source/tasks.c **** 
2494:../../kernel/FreeRTOS/Source/tasks.c **** /* This conditional compilation should use inequality to 0, not equality to 1.
2495:../../kernel/FreeRTOS/Source/tasks.c **** This is to ensure vTaskStepTick() is available when user defined low power mode
2496:../../kernel/FreeRTOS/Source/tasks.c **** implementations require configUSE_TICKLESS_IDLE to be set to a value other than
2497:../../kernel/FreeRTOS/Source/tasks.c **** 1. */
2498:../../kernel/FreeRTOS/Source/tasks.c **** #if ( configUSE_TICKLESS_IDLE != 0 )
2499:../../kernel/FreeRTOS/Source/tasks.c **** 
2500:../../kernel/FreeRTOS/Source/tasks.c **** 	void vTaskStepTick( const TickType_t xTicksToJump )
2501:../../kernel/FreeRTOS/Source/tasks.c **** 	{
2502:../../kernel/FreeRTOS/Source/tasks.c **** 		/* Correct the tick count value after a period during which the tick
2503:../../kernel/FreeRTOS/Source/tasks.c **** 		was suppressed.  Note this does *not* call the tick hook function for
2504:../../kernel/FreeRTOS/Source/tasks.c **** 		each stepped tick. */
2505:../../kernel/FreeRTOS/Source/tasks.c **** 		configASSERT( ( xTickCount + xTicksToJump ) <= xNextTaskUnblockTime );
2506:../../kernel/FreeRTOS/Source/tasks.c **** 		xTickCount += xTicksToJump;
2507:../../kernel/FreeRTOS/Source/tasks.c **** 		traceINCREASE_TICK_COUNT( xTicksToJump );
2508:../../kernel/FreeRTOS/Source/tasks.c **** 	}
2509:../../kernel/FreeRTOS/Source/tasks.c **** 
2510:../../kernel/FreeRTOS/Source/tasks.c **** #endif /* configUSE_TICKLESS_IDLE */
2511:../../kernel/FreeRTOS/Source/tasks.c **** /*----------------------------------------------------------*/
2512:../../kernel/FreeRTOS/Source/tasks.c **** 
2513:../../kernel/FreeRTOS/Source/tasks.c **** #if ( INCLUDE_xTaskAbortDelay == 1 )
2514:../../kernel/FreeRTOS/Source/tasks.c **** 
2515:../../kernel/FreeRTOS/Source/tasks.c **** 	BaseType_t xTaskAbortDelay( TaskHandle_t xTask )
2516:../../kernel/FreeRTOS/Source/tasks.c **** 	{
2517:../../kernel/FreeRTOS/Source/tasks.c **** 	TCB_t *pxTCB = ( TCB_t * ) xTask;
2518:../../kernel/FreeRTOS/Source/tasks.c **** 	BaseType_t xReturn;
2519:../../kernel/FreeRTOS/Source/tasks.c **** 
2520:../../kernel/FreeRTOS/Source/tasks.c **** 		configASSERT( pxTCB );
2521:../../kernel/FreeRTOS/Source/tasks.c **** 
2522:../../kernel/FreeRTOS/Source/tasks.c **** 		vTaskSuspendAll();
2523:../../kernel/FreeRTOS/Source/tasks.c **** 		{
2524:../../kernel/FreeRTOS/Source/tasks.c **** 			/* A task can only be prematurely removed from the Blocked state if
2525:../../kernel/FreeRTOS/Source/tasks.c **** 			it is actually in the Blocked state. */
2526:../../kernel/FreeRTOS/Source/tasks.c **** 			if( eTaskGetState( xTask ) == eBlocked )
2527:../../kernel/FreeRTOS/Source/tasks.c **** 			{
2528:../../kernel/FreeRTOS/Source/tasks.c **** 				xReturn = pdPASS;
2529:../../kernel/FreeRTOS/Source/tasks.c **** 
2530:../../kernel/FreeRTOS/Source/tasks.c **** 				/* Remove the reference to the task from the blocked list.  An
2531:../../kernel/FreeRTOS/Source/tasks.c **** 				interrupt won't touch the xStateListItem because the
2532:../../kernel/FreeRTOS/Source/tasks.c **** 				scheduler is suspended. */
2533:../../kernel/FreeRTOS/Source/tasks.c **** 				( void ) uxListRemove( &( pxTCB->xStateListItem ) );
2534:../../kernel/FreeRTOS/Source/tasks.c **** 
2535:../../kernel/FreeRTOS/Source/tasks.c **** 				/* Is the task waiting on an event also?  If so remove it from
2536:../../kernel/FreeRTOS/Source/tasks.c **** 				the event list too.  Interrupts can touch the event list item,
2537:../../kernel/FreeRTOS/Source/tasks.c **** 				even though the scheduler is suspended, so a critical section
2538:../../kernel/FreeRTOS/Source/tasks.c **** 				is used. */
2539:../../kernel/FreeRTOS/Source/tasks.c **** 				taskENTER_CRITICAL();
2540:../../kernel/FreeRTOS/Source/tasks.c **** 				{
2541:../../kernel/FreeRTOS/Source/tasks.c **** 					if( listLIST_ITEM_CONTAINER( &( pxTCB->xEventListItem ) ) != NULL )
2542:../../kernel/FreeRTOS/Source/tasks.c **** 					{
ARM GAS  /tmp/ccIvB74u.s 			page 51


2543:../../kernel/FreeRTOS/Source/tasks.c **** 						( void ) uxListRemove( &( pxTCB->xEventListItem ) );
2544:../../kernel/FreeRTOS/Source/tasks.c **** 						pxTCB->ucDelayAborted = pdTRUE;
2545:../../kernel/FreeRTOS/Source/tasks.c **** 					}
2546:../../kernel/FreeRTOS/Source/tasks.c **** 					else
2547:../../kernel/FreeRTOS/Source/tasks.c **** 					{
2548:../../kernel/FreeRTOS/Source/tasks.c **** 						mtCOVERAGE_TEST_MARKER();
2549:../../kernel/FreeRTOS/Source/tasks.c **** 					}
2550:../../kernel/FreeRTOS/Source/tasks.c **** 				}
2551:../../kernel/FreeRTOS/Source/tasks.c **** 				taskEXIT_CRITICAL();
2552:../../kernel/FreeRTOS/Source/tasks.c **** 
2553:../../kernel/FreeRTOS/Source/tasks.c **** 				/* Place the unblocked task into the appropriate ready list. */
2554:../../kernel/FreeRTOS/Source/tasks.c **** 				prvAddTaskToReadyList( pxTCB );
2555:../../kernel/FreeRTOS/Source/tasks.c **** 
2556:../../kernel/FreeRTOS/Source/tasks.c **** 				/* A task being unblocked cannot cause an immediate context
2557:../../kernel/FreeRTOS/Source/tasks.c **** 				switch if preemption is turned off. */
2558:../../kernel/FreeRTOS/Source/tasks.c **** 				#if (  configUSE_PREEMPTION == 1 )
2559:../../kernel/FreeRTOS/Source/tasks.c **** 				{
2560:../../kernel/FreeRTOS/Source/tasks.c **** 					/* Preemption is on, but a context switch should only be
2561:../../kernel/FreeRTOS/Source/tasks.c **** 					performed if the unblocked task has a priority that is
2562:../../kernel/FreeRTOS/Source/tasks.c **** 					equal to or higher than the currently executing task. */
2563:../../kernel/FreeRTOS/Source/tasks.c **** 					if( pxTCB->uxPriority > pxCurrentTCB->uxPriority )
2564:../../kernel/FreeRTOS/Source/tasks.c **** 					{
2565:../../kernel/FreeRTOS/Source/tasks.c **** 						/* Pend the yield to be performed when the scheduler
2566:../../kernel/FreeRTOS/Source/tasks.c **** 						is unsuspended. */
2567:../../kernel/FreeRTOS/Source/tasks.c **** 						xYieldPending = pdTRUE;
2568:../../kernel/FreeRTOS/Source/tasks.c **** 					}
2569:../../kernel/FreeRTOS/Source/tasks.c **** 					else
2570:../../kernel/FreeRTOS/Source/tasks.c **** 					{
2571:../../kernel/FreeRTOS/Source/tasks.c **** 						mtCOVERAGE_TEST_MARKER();
2572:../../kernel/FreeRTOS/Source/tasks.c **** 					}
2573:../../kernel/FreeRTOS/Source/tasks.c **** 				}
2574:../../kernel/FreeRTOS/Source/tasks.c **** 				#endif /* configUSE_PREEMPTION */
2575:../../kernel/FreeRTOS/Source/tasks.c **** 			}
2576:../../kernel/FreeRTOS/Source/tasks.c **** 			else
2577:../../kernel/FreeRTOS/Source/tasks.c **** 			{
2578:../../kernel/FreeRTOS/Source/tasks.c **** 				xReturn = pdFAIL;
2579:../../kernel/FreeRTOS/Source/tasks.c **** 			}
2580:../../kernel/FreeRTOS/Source/tasks.c **** 		}
2581:../../kernel/FreeRTOS/Source/tasks.c **** 		( void ) xTaskResumeAll();
2582:../../kernel/FreeRTOS/Source/tasks.c **** 
2583:../../kernel/FreeRTOS/Source/tasks.c **** 		return xReturn;
2584:../../kernel/FreeRTOS/Source/tasks.c **** 	}
2585:../../kernel/FreeRTOS/Source/tasks.c **** 
2586:../../kernel/FreeRTOS/Source/tasks.c **** #endif /* INCLUDE_xTaskAbortDelay */
2587:../../kernel/FreeRTOS/Source/tasks.c **** /*----------------------------------------------------------*/
2588:../../kernel/FreeRTOS/Source/tasks.c **** 
2589:../../kernel/FreeRTOS/Source/tasks.c **** BaseType_t xTaskIncrementTick( void )
2590:../../kernel/FreeRTOS/Source/tasks.c **** {
2591:../../kernel/FreeRTOS/Source/tasks.c **** TCB_t * pxTCB;
2592:../../kernel/FreeRTOS/Source/tasks.c **** TickType_t xItemValue;
2593:../../kernel/FreeRTOS/Source/tasks.c **** BaseType_t xSwitchRequired = pdFALSE;
2594:../../kernel/FreeRTOS/Source/tasks.c **** 
2595:../../kernel/FreeRTOS/Source/tasks.c **** 	/* Called by the portable layer each time a tick interrupt occurs.
2596:../../kernel/FreeRTOS/Source/tasks.c **** 	Increments the tick then checks to see if the new tick value will cause any
2597:../../kernel/FreeRTOS/Source/tasks.c **** 	tasks to be unblocked. */
2598:../../kernel/FreeRTOS/Source/tasks.c **** 	traceTASK_INCREMENT_TICK( xTickCount );
2599:../../kernel/FreeRTOS/Source/tasks.c **** 	if( uxSchedulerSuspended == ( UBaseType_t ) pdFALSE )
ARM GAS  /tmp/ccIvB74u.s 			page 52


2600:../../kernel/FreeRTOS/Source/tasks.c **** 	{
2601:../../kernel/FreeRTOS/Source/tasks.c **** 		/* Minor optimisation.  The tick count cannot change in this
2602:../../kernel/FreeRTOS/Source/tasks.c **** 		block. */
2603:../../kernel/FreeRTOS/Source/tasks.c **** 		const TickType_t xConstTickCount = xTickCount + ( TickType_t ) 1;
2604:../../kernel/FreeRTOS/Source/tasks.c **** 
2605:../../kernel/FreeRTOS/Source/tasks.c **** 		/* Increment the RTOS tick, switching the delayed and overflowed
2606:../../kernel/FreeRTOS/Source/tasks.c **** 		delayed lists if it wraps to 0. */
2607:../../kernel/FreeRTOS/Source/tasks.c **** 		xTickCount = xConstTickCount;
2608:../../kernel/FreeRTOS/Source/tasks.c **** 
2609:../../kernel/FreeRTOS/Source/tasks.c **** 		if( xConstTickCount == ( TickType_t ) 0U ) /*lint !e774 'if' does not always evaluate to false as
2610:../../kernel/FreeRTOS/Source/tasks.c **** 		{
2611:../../kernel/FreeRTOS/Source/tasks.c **** 			taskSWITCH_DELAYED_LISTS();
2612:../../kernel/FreeRTOS/Source/tasks.c **** 		}
2613:../../kernel/FreeRTOS/Source/tasks.c **** 		else
2614:../../kernel/FreeRTOS/Source/tasks.c **** 		{
2615:../../kernel/FreeRTOS/Source/tasks.c **** 			mtCOVERAGE_TEST_MARKER();
2616:../../kernel/FreeRTOS/Source/tasks.c **** 		}
2617:../../kernel/FreeRTOS/Source/tasks.c **** 
2618:../../kernel/FreeRTOS/Source/tasks.c **** 		/* See if this tick has made a timeout expire.  Tasks are stored in
2619:../../kernel/FreeRTOS/Source/tasks.c **** 		the	queue in the order of their wake time - meaning once one task
2620:../../kernel/FreeRTOS/Source/tasks.c **** 		has been found whose block time has not expired there is no need to
2621:../../kernel/FreeRTOS/Source/tasks.c **** 		look any further down the list. */
2622:../../kernel/FreeRTOS/Source/tasks.c **** 		if( xConstTickCount >= xNextTaskUnblockTime )
2623:../../kernel/FreeRTOS/Source/tasks.c **** 		{
2624:../../kernel/FreeRTOS/Source/tasks.c **** 			for( ;; )
2625:../../kernel/FreeRTOS/Source/tasks.c **** 			{
2626:../../kernel/FreeRTOS/Source/tasks.c **** 				if( listLIST_IS_EMPTY( pxDelayedTaskList ) != pdFALSE )
2627:../../kernel/FreeRTOS/Source/tasks.c **** 				{
2628:../../kernel/FreeRTOS/Source/tasks.c **** 					/* The delayed list is empty.  Set xNextTaskUnblockTime
2629:../../kernel/FreeRTOS/Source/tasks.c **** 					to the maximum possible value so it is extremely
2630:../../kernel/FreeRTOS/Source/tasks.c **** 					unlikely that the
2631:../../kernel/FreeRTOS/Source/tasks.c **** 					if( xTickCount >= xNextTaskUnblockTime ) test will pass
2632:../../kernel/FreeRTOS/Source/tasks.c **** 					next time through. */
2633:../../kernel/FreeRTOS/Source/tasks.c **** 					xNextTaskUnblockTime = portMAX_DELAY; /*lint !e961 MISRA exception as the casts are only redun
2634:../../kernel/FreeRTOS/Source/tasks.c **** 					break;
2635:../../kernel/FreeRTOS/Source/tasks.c **** 				}
2636:../../kernel/FreeRTOS/Source/tasks.c **** 				else
2637:../../kernel/FreeRTOS/Source/tasks.c **** 				{
2638:../../kernel/FreeRTOS/Source/tasks.c **** 					/* The delayed list is not empty, get the value of the
2639:../../kernel/FreeRTOS/Source/tasks.c **** 					item at the head of the delayed list.  This is the time
2640:../../kernel/FreeRTOS/Source/tasks.c **** 					at which the task at the head of the delayed list must
2641:../../kernel/FreeRTOS/Source/tasks.c **** 					be removed from the Blocked state. */
2642:../../kernel/FreeRTOS/Source/tasks.c **** 					pxTCB = ( TCB_t * ) listGET_OWNER_OF_HEAD_ENTRY( pxDelayedTaskList );
2643:../../kernel/FreeRTOS/Source/tasks.c **** 					xItemValue = listGET_LIST_ITEM_VALUE( &( pxTCB->xStateListItem ) );
2644:../../kernel/FreeRTOS/Source/tasks.c **** 
2645:../../kernel/FreeRTOS/Source/tasks.c **** 					if( xConstTickCount < xItemValue )
2646:../../kernel/FreeRTOS/Source/tasks.c **** 					{
2647:../../kernel/FreeRTOS/Source/tasks.c **** 						/* It is not time to unblock this item yet, but the
2648:../../kernel/FreeRTOS/Source/tasks.c **** 						item value is the time at which the task at the head
2649:../../kernel/FreeRTOS/Source/tasks.c **** 						of the blocked list must be removed from the Blocked
2650:../../kernel/FreeRTOS/Source/tasks.c **** 						state -	so record the item value in
2651:../../kernel/FreeRTOS/Source/tasks.c **** 						xNextTaskUnblockTime. */
2652:../../kernel/FreeRTOS/Source/tasks.c **** 						xNextTaskUnblockTime = xItemValue;
2653:../../kernel/FreeRTOS/Source/tasks.c **** 						break;
2654:../../kernel/FreeRTOS/Source/tasks.c **** 					}
2655:../../kernel/FreeRTOS/Source/tasks.c **** 					else
2656:../../kernel/FreeRTOS/Source/tasks.c **** 					{
ARM GAS  /tmp/ccIvB74u.s 			page 53


2657:../../kernel/FreeRTOS/Source/tasks.c **** 						mtCOVERAGE_TEST_MARKER();
2658:../../kernel/FreeRTOS/Source/tasks.c **** 					}
2659:../../kernel/FreeRTOS/Source/tasks.c **** 
2660:../../kernel/FreeRTOS/Source/tasks.c **** 					/* It is time to remove the item from the Blocked state. */
2661:../../kernel/FreeRTOS/Source/tasks.c **** 					( void ) uxListRemove( &( pxTCB->xStateListItem ) );
2662:../../kernel/FreeRTOS/Source/tasks.c **** 
2663:../../kernel/FreeRTOS/Source/tasks.c **** 					/* Is the task waiting on an event also?  If so remove
2664:../../kernel/FreeRTOS/Source/tasks.c **** 					it from the event list. */
2665:../../kernel/FreeRTOS/Source/tasks.c **** 					if( listLIST_ITEM_CONTAINER( &( pxTCB->xEventListItem ) ) != NULL )
2666:../../kernel/FreeRTOS/Source/tasks.c **** 					{
2667:../../kernel/FreeRTOS/Source/tasks.c **** 						( void ) uxListRemove( &( pxTCB->xEventListItem ) );
2668:../../kernel/FreeRTOS/Source/tasks.c **** 					}
2669:../../kernel/FreeRTOS/Source/tasks.c **** 					else
2670:../../kernel/FreeRTOS/Source/tasks.c **** 					{
2671:../../kernel/FreeRTOS/Source/tasks.c **** 						mtCOVERAGE_TEST_MARKER();
2672:../../kernel/FreeRTOS/Source/tasks.c **** 					}
2673:../../kernel/FreeRTOS/Source/tasks.c **** 
2674:../../kernel/FreeRTOS/Source/tasks.c **** 					/* Place the unblocked task into the appropriate ready
2675:../../kernel/FreeRTOS/Source/tasks.c **** 					list. */
2676:../../kernel/FreeRTOS/Source/tasks.c **** 					prvAddTaskToReadyList( pxTCB );
2677:../../kernel/FreeRTOS/Source/tasks.c **** 
2678:../../kernel/FreeRTOS/Source/tasks.c **** 					/* A task being unblocked cannot cause an immediate
2679:../../kernel/FreeRTOS/Source/tasks.c **** 					context switch if preemption is turned off. */
2680:../../kernel/FreeRTOS/Source/tasks.c **** 					#if (  configUSE_PREEMPTION == 1 )
2681:../../kernel/FreeRTOS/Source/tasks.c **** 					{
2682:../../kernel/FreeRTOS/Source/tasks.c **** 						/* Preemption is on, but a context switch should
2683:../../kernel/FreeRTOS/Source/tasks.c **** 						only be performed if the unblocked task has a
2684:../../kernel/FreeRTOS/Source/tasks.c **** 						priority that is equal to or higher than the
2685:../../kernel/FreeRTOS/Source/tasks.c **** 						currently executing task. */
2686:../../kernel/FreeRTOS/Source/tasks.c **** 						if( pxTCB->uxPriority >= pxCurrentTCB->uxPriority )
2687:../../kernel/FreeRTOS/Source/tasks.c **** 						{
2688:../../kernel/FreeRTOS/Source/tasks.c **** 							xSwitchRequired = pdTRUE;
2689:../../kernel/FreeRTOS/Source/tasks.c **** 						}
2690:../../kernel/FreeRTOS/Source/tasks.c **** 						else
2691:../../kernel/FreeRTOS/Source/tasks.c **** 						{
2692:../../kernel/FreeRTOS/Source/tasks.c **** 							mtCOVERAGE_TEST_MARKER();
2693:../../kernel/FreeRTOS/Source/tasks.c **** 						}
2694:../../kernel/FreeRTOS/Source/tasks.c **** 					}
2695:../../kernel/FreeRTOS/Source/tasks.c **** 					#endif /* configUSE_PREEMPTION */
2696:../../kernel/FreeRTOS/Source/tasks.c **** 				}
2697:../../kernel/FreeRTOS/Source/tasks.c **** 			}
2698:../../kernel/FreeRTOS/Source/tasks.c **** 		}
2699:../../kernel/FreeRTOS/Source/tasks.c **** 
2700:../../kernel/FreeRTOS/Source/tasks.c **** 		/* Tasks of equal priority to the currently running task will share
2701:../../kernel/FreeRTOS/Source/tasks.c **** 		processing time (time slice) if preemption is on, and the application
2702:../../kernel/FreeRTOS/Source/tasks.c **** 		writer has not explicitly turned time slicing off. */
2703:../../kernel/FreeRTOS/Source/tasks.c **** 		#if ( ( configUSE_PREEMPTION == 1 ) && ( configUSE_TIME_SLICING == 1 ) )
2704:../../kernel/FreeRTOS/Source/tasks.c **** 		{
2705:../../kernel/FreeRTOS/Source/tasks.c **** 			if( listCURRENT_LIST_LENGTH( &( pxReadyTasksLists[ pxCurrentTCB->uxPriority ] ) ) > ( UBaseType_
2706:../../kernel/FreeRTOS/Source/tasks.c **** 			{
2707:../../kernel/FreeRTOS/Source/tasks.c **** 				xSwitchRequired = pdTRUE;
2708:../../kernel/FreeRTOS/Source/tasks.c **** 			}
2709:../../kernel/FreeRTOS/Source/tasks.c **** 			else
2710:../../kernel/FreeRTOS/Source/tasks.c **** 			{
2711:../../kernel/FreeRTOS/Source/tasks.c **** 				mtCOVERAGE_TEST_MARKER();
2712:../../kernel/FreeRTOS/Source/tasks.c **** 			}
2713:../../kernel/FreeRTOS/Source/tasks.c **** 		}
ARM GAS  /tmp/ccIvB74u.s 			page 54


2714:../../kernel/FreeRTOS/Source/tasks.c **** 		#endif /* ( ( configUSE_PREEMPTION == 1 ) && ( configUSE_TIME_SLICING == 1 ) ) */
2715:../../kernel/FreeRTOS/Source/tasks.c **** 
2716:../../kernel/FreeRTOS/Source/tasks.c **** 		#if ( configUSE_TICK_HOOK == 1 )
2717:../../kernel/FreeRTOS/Source/tasks.c **** 		{
2718:../../kernel/FreeRTOS/Source/tasks.c **** 			/* Guard against the tick hook being called when the pended tick
2719:../../kernel/FreeRTOS/Source/tasks.c **** 			count is being unwound (when the scheduler is being unlocked). */
2720:../../kernel/FreeRTOS/Source/tasks.c **** 			if( uxPendedTicks == ( UBaseType_t ) 0U )
2721:../../kernel/FreeRTOS/Source/tasks.c **** 			{
2722:../../kernel/FreeRTOS/Source/tasks.c **** 				vApplicationTickHook();
2723:../../kernel/FreeRTOS/Source/tasks.c **** 			}
2724:../../kernel/FreeRTOS/Source/tasks.c **** 			else
2725:../../kernel/FreeRTOS/Source/tasks.c **** 			{
2726:../../kernel/FreeRTOS/Source/tasks.c **** 				mtCOVERAGE_TEST_MARKER();
2727:../../kernel/FreeRTOS/Source/tasks.c **** 			}
2728:../../kernel/FreeRTOS/Source/tasks.c **** 		}
2729:../../kernel/FreeRTOS/Source/tasks.c **** 		#endif /* configUSE_TICK_HOOK */
2730:../../kernel/FreeRTOS/Source/tasks.c **** 	}
2731:../../kernel/FreeRTOS/Source/tasks.c **** 	else
2732:../../kernel/FreeRTOS/Source/tasks.c **** 	{
2733:../../kernel/FreeRTOS/Source/tasks.c **** 		++uxPendedTicks;
2734:../../kernel/FreeRTOS/Source/tasks.c **** 
2735:../../kernel/FreeRTOS/Source/tasks.c **** 		/* The tick hook gets called at regular intervals, even if the
2736:../../kernel/FreeRTOS/Source/tasks.c **** 		scheduler is locked. */
2737:../../kernel/FreeRTOS/Source/tasks.c **** 		#if ( configUSE_TICK_HOOK == 1 )
2738:../../kernel/FreeRTOS/Source/tasks.c **** 		{
2739:../../kernel/FreeRTOS/Source/tasks.c **** 			vApplicationTickHook();
2740:../../kernel/FreeRTOS/Source/tasks.c **** 		}
2741:../../kernel/FreeRTOS/Source/tasks.c **** 		#endif
2742:../../kernel/FreeRTOS/Source/tasks.c **** 	}
2743:../../kernel/FreeRTOS/Source/tasks.c **** 
2744:../../kernel/FreeRTOS/Source/tasks.c **** 	#if ( configUSE_PREEMPTION == 1 )
2745:../../kernel/FreeRTOS/Source/tasks.c **** 	{
2746:../../kernel/FreeRTOS/Source/tasks.c **** 		if( xYieldPending != pdFALSE )
2747:../../kernel/FreeRTOS/Source/tasks.c **** 		{
2748:../../kernel/FreeRTOS/Source/tasks.c **** 			xSwitchRequired = pdTRUE;
2749:../../kernel/FreeRTOS/Source/tasks.c **** 		}
2750:../../kernel/FreeRTOS/Source/tasks.c **** 		else
2751:../../kernel/FreeRTOS/Source/tasks.c **** 		{
2752:../../kernel/FreeRTOS/Source/tasks.c **** 			mtCOVERAGE_TEST_MARKER();
2753:../../kernel/FreeRTOS/Source/tasks.c **** 		}
2754:../../kernel/FreeRTOS/Source/tasks.c **** 	}
2755:../../kernel/FreeRTOS/Source/tasks.c **** 	#endif /* configUSE_PREEMPTION */
2756:../../kernel/FreeRTOS/Source/tasks.c **** 
2757:../../kernel/FreeRTOS/Source/tasks.c **** 	return xSwitchRequired;
2758:../../kernel/FreeRTOS/Source/tasks.c **** }
2759:../../kernel/FreeRTOS/Source/tasks.c **** /*-----------------------------------------------------------*/
2760:../../kernel/FreeRTOS/Source/tasks.c **** 
2761:../../kernel/FreeRTOS/Source/tasks.c **** #if ( configUSE_APPLICATION_TASK_TAG == 1 )
2762:../../kernel/FreeRTOS/Source/tasks.c **** 
2763:../../kernel/FreeRTOS/Source/tasks.c **** 	void vTaskSetApplicationTaskTag( TaskHandle_t xTask, TaskHookFunction_t pxHookFunction )
2764:../../kernel/FreeRTOS/Source/tasks.c **** 	{
2765:../../kernel/FreeRTOS/Source/tasks.c **** 	TCB_t *xTCB;
2766:../../kernel/FreeRTOS/Source/tasks.c **** 
2767:../../kernel/FreeRTOS/Source/tasks.c **** 		/* If xTask is NULL then it is the task hook of the calling task that is
2768:../../kernel/FreeRTOS/Source/tasks.c **** 		getting set. */
2769:../../kernel/FreeRTOS/Source/tasks.c **** 		if( xTask == NULL )
2770:../../kernel/FreeRTOS/Source/tasks.c **** 		{
ARM GAS  /tmp/ccIvB74u.s 			page 55


2771:../../kernel/FreeRTOS/Source/tasks.c **** 			xTCB = ( TCB_t * ) pxCurrentTCB;
2772:../../kernel/FreeRTOS/Source/tasks.c **** 		}
2773:../../kernel/FreeRTOS/Source/tasks.c **** 		else
2774:../../kernel/FreeRTOS/Source/tasks.c **** 		{
2775:../../kernel/FreeRTOS/Source/tasks.c **** 			xTCB = ( TCB_t * ) xTask;
2776:../../kernel/FreeRTOS/Source/tasks.c **** 		}
2777:../../kernel/FreeRTOS/Source/tasks.c **** 
2778:../../kernel/FreeRTOS/Source/tasks.c **** 		/* Save the hook function in the TCB.  A critical section is required as
2779:../../kernel/FreeRTOS/Source/tasks.c **** 		the value can be accessed from an interrupt. */
2780:../../kernel/FreeRTOS/Source/tasks.c **** 		taskENTER_CRITICAL();
2781:../../kernel/FreeRTOS/Source/tasks.c **** 			xTCB->pxTaskTag = pxHookFunction;
2782:../../kernel/FreeRTOS/Source/tasks.c **** 		taskEXIT_CRITICAL();
2783:../../kernel/FreeRTOS/Source/tasks.c **** 	}
2784:../../kernel/FreeRTOS/Source/tasks.c **** 
2785:../../kernel/FreeRTOS/Source/tasks.c **** #endif /* configUSE_APPLICATION_TASK_TAG */
2786:../../kernel/FreeRTOS/Source/tasks.c **** /*-----------------------------------------------------------*/
2787:../../kernel/FreeRTOS/Source/tasks.c **** 
2788:../../kernel/FreeRTOS/Source/tasks.c **** #if ( configUSE_APPLICATION_TASK_TAG == 1 )
2789:../../kernel/FreeRTOS/Source/tasks.c **** 
2790:../../kernel/FreeRTOS/Source/tasks.c **** 	TaskHookFunction_t xTaskGetApplicationTaskTag( TaskHandle_t xTask )
2791:../../kernel/FreeRTOS/Source/tasks.c **** 	{
2792:../../kernel/FreeRTOS/Source/tasks.c **** 	TCB_t *xTCB;
2793:../../kernel/FreeRTOS/Source/tasks.c **** 	TaskHookFunction_t xReturn;
2794:../../kernel/FreeRTOS/Source/tasks.c **** 
2795:../../kernel/FreeRTOS/Source/tasks.c **** 		/* If xTask is NULL then we are setting our own task hook. */
2796:../../kernel/FreeRTOS/Source/tasks.c **** 		if( xTask == NULL )
2797:../../kernel/FreeRTOS/Source/tasks.c **** 		{
2798:../../kernel/FreeRTOS/Source/tasks.c **** 			xTCB = ( TCB_t * ) pxCurrentTCB;
2799:../../kernel/FreeRTOS/Source/tasks.c **** 		}
2800:../../kernel/FreeRTOS/Source/tasks.c **** 		else
2801:../../kernel/FreeRTOS/Source/tasks.c **** 		{
2802:../../kernel/FreeRTOS/Source/tasks.c **** 			xTCB = ( TCB_t * ) xTask;
2803:../../kernel/FreeRTOS/Source/tasks.c **** 		}
2804:../../kernel/FreeRTOS/Source/tasks.c **** 
2805:../../kernel/FreeRTOS/Source/tasks.c **** 		/* Save the hook function in the TCB.  A critical section is required as
2806:../../kernel/FreeRTOS/Source/tasks.c **** 		the value can be accessed from an interrupt. */
2807:../../kernel/FreeRTOS/Source/tasks.c **** 		taskENTER_CRITICAL();
2808:../../kernel/FreeRTOS/Source/tasks.c **** 		{
2809:../../kernel/FreeRTOS/Source/tasks.c **** 			xReturn = xTCB->pxTaskTag;
2810:../../kernel/FreeRTOS/Source/tasks.c **** 		}
2811:../../kernel/FreeRTOS/Source/tasks.c **** 		taskEXIT_CRITICAL();
2812:../../kernel/FreeRTOS/Source/tasks.c **** 
2813:../../kernel/FreeRTOS/Source/tasks.c **** 		return xReturn;
2814:../../kernel/FreeRTOS/Source/tasks.c **** 	}
2815:../../kernel/FreeRTOS/Source/tasks.c **** 
2816:../../kernel/FreeRTOS/Source/tasks.c **** #endif /* configUSE_APPLICATION_TASK_TAG */
2817:../../kernel/FreeRTOS/Source/tasks.c **** /*-----------------------------------------------------------*/
2818:../../kernel/FreeRTOS/Source/tasks.c **** 
2819:../../kernel/FreeRTOS/Source/tasks.c **** #if ( configUSE_APPLICATION_TASK_TAG == 1 )
2820:../../kernel/FreeRTOS/Source/tasks.c **** 
2821:../../kernel/FreeRTOS/Source/tasks.c **** 	BaseType_t xTaskCallApplicationTaskHook( TaskHandle_t xTask, void *pvParameter )
2822:../../kernel/FreeRTOS/Source/tasks.c **** 	{
2823:../../kernel/FreeRTOS/Source/tasks.c **** 	TCB_t *xTCB;
2824:../../kernel/FreeRTOS/Source/tasks.c **** 	BaseType_t xReturn;
2825:../../kernel/FreeRTOS/Source/tasks.c **** 
2826:../../kernel/FreeRTOS/Source/tasks.c **** 		/* If xTask is NULL then we are calling our own task hook. */
2827:../../kernel/FreeRTOS/Source/tasks.c **** 		if( xTask == NULL )
ARM GAS  /tmp/ccIvB74u.s 			page 56


2828:../../kernel/FreeRTOS/Source/tasks.c **** 		{
2829:../../kernel/FreeRTOS/Source/tasks.c **** 			xTCB = ( TCB_t * ) pxCurrentTCB;
2830:../../kernel/FreeRTOS/Source/tasks.c **** 		}
2831:../../kernel/FreeRTOS/Source/tasks.c **** 		else
2832:../../kernel/FreeRTOS/Source/tasks.c **** 		{
2833:../../kernel/FreeRTOS/Source/tasks.c **** 			xTCB = ( TCB_t * ) xTask;
2834:../../kernel/FreeRTOS/Source/tasks.c **** 		}
2835:../../kernel/FreeRTOS/Source/tasks.c **** 
2836:../../kernel/FreeRTOS/Source/tasks.c **** 		if( xTCB->pxTaskTag != NULL )
2837:../../kernel/FreeRTOS/Source/tasks.c **** 		{
2838:../../kernel/FreeRTOS/Source/tasks.c **** 			xReturn = xTCB->pxTaskTag( pvParameter );
2839:../../kernel/FreeRTOS/Source/tasks.c **** 		}
2840:../../kernel/FreeRTOS/Source/tasks.c **** 		else
2841:../../kernel/FreeRTOS/Source/tasks.c **** 		{
2842:../../kernel/FreeRTOS/Source/tasks.c **** 			xReturn = pdFAIL;
2843:../../kernel/FreeRTOS/Source/tasks.c **** 		}
2844:../../kernel/FreeRTOS/Source/tasks.c **** 
2845:../../kernel/FreeRTOS/Source/tasks.c **** 		return xReturn;
2846:../../kernel/FreeRTOS/Source/tasks.c **** 	}
2847:../../kernel/FreeRTOS/Source/tasks.c **** 
2848:../../kernel/FreeRTOS/Source/tasks.c **** #endif /* configUSE_APPLICATION_TASK_TAG */
2849:../../kernel/FreeRTOS/Source/tasks.c **** /*-----------------------------------------------------------*/
2850:../../kernel/FreeRTOS/Source/tasks.c **** 
2851:../../kernel/FreeRTOS/Source/tasks.c **** void vTaskSwitchContext( void )
2852:../../kernel/FreeRTOS/Source/tasks.c **** {
2853:../../kernel/FreeRTOS/Source/tasks.c **** 	if( uxSchedulerSuspended != ( UBaseType_t ) pdFALSE )
2854:../../kernel/FreeRTOS/Source/tasks.c **** 	{
2855:../../kernel/FreeRTOS/Source/tasks.c **** 		/* The scheduler is currently suspended - do not allow a context
2856:../../kernel/FreeRTOS/Source/tasks.c **** 		switch. */
2857:../../kernel/FreeRTOS/Source/tasks.c **** 		xYieldPending = pdTRUE;
2858:../../kernel/FreeRTOS/Source/tasks.c **** 	}
2859:../../kernel/FreeRTOS/Source/tasks.c **** 	else
2860:../../kernel/FreeRTOS/Source/tasks.c **** 	{
2861:../../kernel/FreeRTOS/Source/tasks.c **** 		xYieldPending = pdFALSE;
2862:../../kernel/FreeRTOS/Source/tasks.c **** 		traceTASK_SWITCHED_OUT();
2863:../../kernel/FreeRTOS/Source/tasks.c **** 
2864:../../kernel/FreeRTOS/Source/tasks.c **** 		#if ( configGENERATE_RUN_TIME_STATS == 1 )
2865:../../kernel/FreeRTOS/Source/tasks.c **** 		{
2866:../../kernel/FreeRTOS/Source/tasks.c **** 				#ifdef portALT_GET_RUN_TIME_COUNTER_VALUE
2867:../../kernel/FreeRTOS/Source/tasks.c **** 					portALT_GET_RUN_TIME_COUNTER_VALUE( ulTotalRunTime );
2868:../../kernel/FreeRTOS/Source/tasks.c **** 				#else
2869:../../kernel/FreeRTOS/Source/tasks.c **** 					ulTotalRunTime = portGET_RUN_TIME_COUNTER_VALUE();
2870:../../kernel/FreeRTOS/Source/tasks.c **** 				#endif
2871:../../kernel/FreeRTOS/Source/tasks.c **** 
2872:../../kernel/FreeRTOS/Source/tasks.c **** 				/* Add the amount of time the task has been running to the
2873:../../kernel/FreeRTOS/Source/tasks.c **** 				accumulated time so far.  The time the task started running was
2874:../../kernel/FreeRTOS/Source/tasks.c **** 				stored in ulTaskSwitchedInTime.  Note that there is no overflow
2875:../../kernel/FreeRTOS/Source/tasks.c **** 				protection here so count values are only valid until the timer
2876:../../kernel/FreeRTOS/Source/tasks.c **** 				overflows.  The guard against negative values is to protect
2877:../../kernel/FreeRTOS/Source/tasks.c **** 				against suspect run time stat counter implementations - which
2878:../../kernel/FreeRTOS/Source/tasks.c **** 				are provided by the application, not the kernel. */
2879:../../kernel/FreeRTOS/Source/tasks.c **** 				if( ulTotalRunTime > ulTaskSwitchedInTime )
2880:../../kernel/FreeRTOS/Source/tasks.c **** 				{
2881:../../kernel/FreeRTOS/Source/tasks.c **** 					pxCurrentTCB->ulRunTimeCounter += ( ulTotalRunTime - ulTaskSwitchedInTime );
2882:../../kernel/FreeRTOS/Source/tasks.c **** 				}
2883:../../kernel/FreeRTOS/Source/tasks.c **** 				else
2884:../../kernel/FreeRTOS/Source/tasks.c **** 				{
ARM GAS  /tmp/ccIvB74u.s 			page 57


2885:../../kernel/FreeRTOS/Source/tasks.c **** 					mtCOVERAGE_TEST_MARKER();
2886:../../kernel/FreeRTOS/Source/tasks.c **** 				}
2887:../../kernel/FreeRTOS/Source/tasks.c **** 				ulTaskSwitchedInTime = ulTotalRunTime;
2888:../../kernel/FreeRTOS/Source/tasks.c **** 		}
2889:../../kernel/FreeRTOS/Source/tasks.c **** 		#endif /* configGENERATE_RUN_TIME_STATS */
2890:../../kernel/FreeRTOS/Source/tasks.c **** 
2891:../../kernel/FreeRTOS/Source/tasks.c **** 		/* Check for stack overflow, if configured. */
2892:../../kernel/FreeRTOS/Source/tasks.c **** 		taskCHECK_FOR_STACK_OVERFLOW();
2893:../../kernel/FreeRTOS/Source/tasks.c **** 
2894:../../kernel/FreeRTOS/Source/tasks.c **** 		/* Select a new task to run using either the generic C or port
2895:../../kernel/FreeRTOS/Source/tasks.c **** 		optimised asm code. */
2896:../../kernel/FreeRTOS/Source/tasks.c **** 		taskSELECT_HIGHEST_PRIORITY_TASK();
2897:../../kernel/FreeRTOS/Source/tasks.c **** 		traceTASK_SWITCHED_IN();
2898:../../kernel/FreeRTOS/Source/tasks.c **** 
2899:../../kernel/FreeRTOS/Source/tasks.c **** 		#if ( configUSE_NEWLIB_REENTRANT == 1 )
2900:../../kernel/FreeRTOS/Source/tasks.c **** 		{
2901:../../kernel/FreeRTOS/Source/tasks.c **** 			/* Switch Newlib's _impure_ptr variable to point to the _reent
2902:../../kernel/FreeRTOS/Source/tasks.c **** 			structure specific to this task. */
2903:../../kernel/FreeRTOS/Source/tasks.c **** 			_impure_ptr = &( pxCurrentTCB->xNewLib_reent );
2904:../../kernel/FreeRTOS/Source/tasks.c **** 		}
2905:../../kernel/FreeRTOS/Source/tasks.c **** 		#endif /* configUSE_NEWLIB_REENTRANT */
2906:../../kernel/FreeRTOS/Source/tasks.c **** 	}
2907:../../kernel/FreeRTOS/Source/tasks.c **** }
