ARM GAS  /tmp/cclihgpx.s 			page 1


   1              		.cpu cortex-m4
   2              		.eabi_attribute 27, 1	@ Tag_ABI_HardFP_use
   3              		.eabi_attribute 20, 1	@ Tag_ABI_FP_denormal
   4              		.eabi_attribute 21, 1	@ Tag_ABI_FP_exceptions
   5              		.eabi_attribute 23, 3	@ Tag_ABI_FP_number_model
   6              		.eabi_attribute 24, 1	@ Tag_ABI_align8_needed
   7              		.eabi_attribute 25, 1	@ Tag_ABI_align8_preserved
   8              		.eabi_attribute 26, 1	@ Tag_ABI_enum_size
   9              		.eabi_attribute 30, 2	@ Tag_ABI_optimization_goals
  10              		.eabi_attribute 34, 1	@ Tag_CPU_unaligned_access
  11              		.eabi_attribute 18, 4	@ Tag_ABI_PCS_wchar_t
  12              		.file	"timers.c"
  13              	@ GNU C89 (GNU Tools for Arm Embedded Processors 8-2018-q4-major) version 8.2.1 20181213 (release) 
  14              	@	compiled by GNU C version 4.8.4, GMP version 6.1.0, MPFR version 3.1.4, MPC version 1.0.3, isl ve
  15              	
  16              	@ GGC heuristics: --param ggc-min-expand=96 --param ggc-min-heapsize=125422
  17              	@ options passed:  -isystem =/include/newlib-nano -I . -I .
  18              	@ -I ../../kernel/FreeRTOS/Source/include
  19              	@ -I ../../kernel/FreeRTOS/Source/portable/GCC/ARM_CM4F
  20              	@ -I ../../kernel/FreeRTOS/Demo/Common/include
  21              	@ -I ../../kernel/FreeRTOS-Plus/Source/FreeRTOS-Plus-CLI
  22              	@ -I ../../peripheral_library/inc -I ../../peripheral_library/hal/m7221/inc
  23              	@ -I ../../CMSIS -I ../../main_full -I ../../3rd/rokid/./ -I /.
  24              	@ -I /../../kernel/FreeRTOS/Source/include
  25              	@ -I /../../kernel/FreeRTOS/Source/portable/GCC/ARM_CM4F
  26              	@ -I /../../kernel/FreeRTOS/Demo/Common/include
  27              	@ -I /../../kernel/FreeRTOS-Plus/Source/FreeRTOS-Plus-CLI
  28              	@ -I /../../peripheral_library/inc
  29              	@ -I /../../peripheral_library/hal/m7221/inc -I /../../CMSIS
  30              	@ -I /../../main_full -I /../../3rd/rokid/./
  31              	@ -imultilib thumb/v7e-m+fp/softfp
  32              	@ -iprefix /home/gu/code/freeRTOS10/vendor/mstar/CM4/tools/gcc-arm-none-eabi-8-2018-q4-major/bin/..
  33              	@ -isysroot /home/gu/code/freeRTOS10/vendor/mstar/CM4/tools/gcc-arm-none-eabi-8-2018-q4-major/bin/.
  34              	@ -MD out/timers.d -MF out/timers.d -MP -MQ out/timers.o
  35              	@ -D__USES_INITFINI__ -D CONFIG_BENCH=0 -D CONFIG_SYS_DBG_LEVEL=0xFFFFFFFF
  36              	@ -D CONFIG_VOC_MIC=6 -D CONFIG_AUD_I2S -D CONFIG_AUD_AEC
  37              	@ -D CONFIG_VOC_MIC_MAPPING -D CONFIG_VOC_SWHPF -D CONFIG_VOC_SW_SRC48K
  38              	@ -D ARM_MATH_CM4 -D BOOTROM_VERSION_ASIC
  39              	@ ../../kernel/FreeRTOS/Source/timers.c -mcpu=cortex-m4 -mthumb
  40              	@ -mthumb-interwork -mfloat-abi=softfp -mfpu=fpv4-sp-d16 -march=armv7e-m+fp
  41              	@ -auxbase-strip out/timers.o -g -ggdb3 -O3 -Wall -Wstrict-prototypes
  42              	@ -Wextra -std=gnu90 -ffunction-sections -fdata-sections
  43              	@ -fno-builtin-printf -fverbose-asm
  44              	@ options enabled:  -faggressive-loop-optimizations -falign-jumps
  45              	@ -falign-labels -falign-loops -fauto-inc-dec -fbranch-count-reg
  46              	@ -fcaller-saves -fchkp-check-incomplete-type -fchkp-check-read
  47              	@ -fchkp-check-write -fchkp-instrument-calls -fchkp-narrow-bounds
  48              	@ -fchkp-optimize -fchkp-store-bounds -fchkp-use-static-bounds
  49              	@ -fchkp-use-static-const-bounds -fchkp-use-wrappers -fcode-hoisting
  50              	@ -fcombine-stack-adjustments -fcommon -fcompare-elim -fcprop-registers
  51              	@ -fcrossjumping -fcse-follow-jumps -fdata-sections -fdefer-pop
  52              	@ -fdelete-null-pointer-checks -fdevirtualize -fdevirtualize-speculatively
  53              	@ -fdwarf2-cfi-asm -fearly-inlining -feliminate-unused-debug-types
  54              	@ -fexpensive-optimizations -fforward-propagate -ffp-int-builtin-inexact
  55              	@ -ffunction-cse -ffunction-sections -fgcse -fgcse-after-reload -fgcse-lm
  56              	@ -fgnu-runtime -fgnu-unique -fguess-branch-probability
  57              	@ -fhoist-adjacent-loads -fident -fif-conversion -fif-conversion2
ARM GAS  /tmp/cclihgpx.s 			page 2


  58              	@ -findirect-inlining -finline -finline-atomics -finline-functions
  59              	@ -finline-functions-called-once -finline-small-functions -fipa-bit-cp
  60              	@ -fipa-cp -fipa-cp-clone -fipa-icf -fipa-icf-functions -fipa-icf-variables
  61              	@ -fipa-profile -fipa-pure-const -fipa-ra -fipa-reference -fipa-sra
  62              	@ -fipa-vrp -fira-hoist-pressure -fira-share-save-slots
  63              	@ -fira-share-spill-slots -fisolate-erroneous-paths-dereference -fivopts
  64              	@ -fkeep-static-consts -fleading-underscore -flifetime-dse
  65              	@ -floop-interchange -floop-unroll-and-jam -flra-remat
  66              	@ -flto-odr-type-merging -fmath-errno -fmerge-constants
  67              	@ -fmerge-debug-strings -fmove-loop-invariants -fomit-frame-pointer
  68              	@ -foptimize-sibling-calls -foptimize-strlen -fpartial-inlining
  69              	@ -fpeel-loops -fpeephole -fpeephole2 -fplt -fpredictive-commoning
  70              	@ -fprefetch-loop-arrays -freg-struct-return -freorder-blocks
  71              	@ -freorder-functions -frerun-cse-after-loop
  72              	@ -fsched-critical-path-heuristic -fsched-dep-count-heuristic
  73              	@ -fsched-group-heuristic -fsched-interblock -fsched-last-insn-heuristic
  74              	@ -fsched-pressure -fsched-rank-heuristic -fsched-spec
  75              	@ -fsched-spec-insn-heuristic -fsched-stalled-insns-dep -fschedule-insns
  76              	@ -fschedule-insns2 -fsection-anchors -fsemantic-interposition
  77              	@ -fshow-column -fshrink-wrap -fshrink-wrap-separate -fsigned-zeros
  78              	@ -fsplit-ivs-in-unroller -fsplit-loops -fsplit-paths -fsplit-wide-types
  79              	@ -fssa-backprop -fssa-phiopt -fstdarg-opt -fstore-merging
  80              	@ -fstrict-aliasing -fstrict-volatile-bitfields -fsync-libcalls
  81              	@ -fthread-jumps -ftoplevel-reorder -ftrapping-math -ftree-bit-ccp
  82              	@ -ftree-builtin-call-dce -ftree-ccp -ftree-ch -ftree-coalesce-vars
  83              	@ -ftree-copy-prop -ftree-cselim -ftree-dce -ftree-dominator-opts
  84              	@ -ftree-dse -ftree-forwprop -ftree-fre -ftree-loop-distribute-patterns
  85              	@ -ftree-loop-distribution -ftree-loop-if-convert -ftree-loop-im
  86              	@ -ftree-loop-ivcanon -ftree-loop-optimize -ftree-loop-vectorize
  87              	@ -ftree-parallelize-loops= -ftree-partial-pre -ftree-phiprop -ftree-pre
  88              	@ -ftree-pta -ftree-reassoc -ftree-scev-cprop -ftree-sink
  89              	@ -ftree-slp-vectorize -ftree-slsr -ftree-sra -ftree-switch-conversion
  90              	@ -ftree-tail-merge -ftree-ter -ftree-vrp -funit-at-a-time -funswitch-loops
  91              	@ -fvar-tracking -fvar-tracking-assignments -fverbose-asm
  92              	@ -fzero-initialized-in-bss -masm-syntax-unified -mbe32 -mlittle-endian
  93              	@ -mpic-data-is-text-relative -msched-prolog -mthumb -munaligned-access
  94              	@ -mvectorize-with-neon-quad
  95              	
  96              		.text
  97              	.Ltext0:
  98              		.cfi_sections	.debug_frame
  99              		.section	.text.prvSwitchTimerLists,"ax",%progbits
 100              		.align	1
 101              		.p2align 2,,3
 102              		.arch armv7e-m
 103              		.syntax unified
 104              		.thumb
 105              		.thumb_func
 106              		.fpu fpv4-sp-d16
 107              		.type	prvSwitchTimerLists, %function
 108              	prvSwitchTimerLists:
 109              	.LFB20:
 110              		.file 1 "../../kernel/FreeRTOS/Source/timers.c"
   1:../../kernel/FreeRTOS/Source/timers.c **** /*
   2:../../kernel/FreeRTOS/Source/timers.c ****  * FreeRTOS Kernel V10.0.1
   3:../../kernel/FreeRTOS/Source/timers.c ****  * Copyright (C) 2017 Amazon.com, Inc. or its affiliates.  All Rights Reserved.
   4:../../kernel/FreeRTOS/Source/timers.c ****  *
ARM GAS  /tmp/cclihgpx.s 			page 3


   5:../../kernel/FreeRTOS/Source/timers.c ****  * Permission is hereby granted, free of charge, to any person obtaining a copy of
   6:../../kernel/FreeRTOS/Source/timers.c ****  * this software and associated documentation files (the "Software"), to deal in
   7:../../kernel/FreeRTOS/Source/timers.c ****  * the Software without restriction, including without limitation the rights to
   8:../../kernel/FreeRTOS/Source/timers.c ****  * use, copy, modify, merge, publish, distribute, sublicense, and/or sell copies of
   9:../../kernel/FreeRTOS/Source/timers.c ****  * the Software, and to permit persons to whom the Software is furnished to do so,
  10:../../kernel/FreeRTOS/Source/timers.c ****  * subject to the following conditions:
  11:../../kernel/FreeRTOS/Source/timers.c ****  *
  12:../../kernel/FreeRTOS/Source/timers.c ****  * The above copyright notice and this permission notice shall be included in all
  13:../../kernel/FreeRTOS/Source/timers.c ****  * copies or substantial portions of the Software.
  14:../../kernel/FreeRTOS/Source/timers.c ****  *
  15:../../kernel/FreeRTOS/Source/timers.c ****  * THE SOFTWARE IS PROVIDED "AS IS", WITHOUT WARRANTY OF ANY KIND, EXPRESS OR
  16:../../kernel/FreeRTOS/Source/timers.c ****  * IMPLIED, INCLUDING BUT NOT LIMITED TO THE WARRANTIES OF MERCHANTABILITY, FITNESS
  17:../../kernel/FreeRTOS/Source/timers.c ****  * FOR A PARTICULAR PURPOSE AND NONINFRINGEMENT. IN NO EVENT SHALL THE AUTHORS OR
  18:../../kernel/FreeRTOS/Source/timers.c ****  * COPYRIGHT HOLDERS BE LIABLE FOR ANY CLAIM, DAMAGES OR OTHER LIABILITY, WHETHER
  19:../../kernel/FreeRTOS/Source/timers.c ****  * IN AN ACTION OF CONTRACT, TORT OR OTHERWISE, ARISING FROM, OUT OF OR IN
  20:../../kernel/FreeRTOS/Source/timers.c ****  * CONNECTION WITH THE SOFTWARE OR THE USE OR OTHER DEALINGS IN THE SOFTWARE.
  21:../../kernel/FreeRTOS/Source/timers.c ****  *
  22:../../kernel/FreeRTOS/Source/timers.c ****  * http://www.FreeRTOS.org
  23:../../kernel/FreeRTOS/Source/timers.c ****  * http://aws.amazon.com/freertos
  24:../../kernel/FreeRTOS/Source/timers.c ****  *
  25:../../kernel/FreeRTOS/Source/timers.c ****  * 1 tab == 4 spaces!
  26:../../kernel/FreeRTOS/Source/timers.c ****  */
  27:../../kernel/FreeRTOS/Source/timers.c **** 
  28:../../kernel/FreeRTOS/Source/timers.c **** /* Standard includes. */
  29:../../kernel/FreeRTOS/Source/timers.c **** #include <stdlib.h>
  30:../../kernel/FreeRTOS/Source/timers.c **** 
  31:../../kernel/FreeRTOS/Source/timers.c **** /* Defining MPU_WRAPPERS_INCLUDED_FROM_API_FILE prevents task.h from redefining
  32:../../kernel/FreeRTOS/Source/timers.c **** all the API functions to use the MPU wrappers.  That should only be done when
  33:../../kernel/FreeRTOS/Source/timers.c **** task.h is included from an application file. */
  34:../../kernel/FreeRTOS/Source/timers.c **** #define MPU_WRAPPERS_INCLUDED_FROM_API_FILE
  35:../../kernel/FreeRTOS/Source/timers.c **** 
  36:../../kernel/FreeRTOS/Source/timers.c **** #include "FreeRTOS.h"
  37:../../kernel/FreeRTOS/Source/timers.c **** #include "task.h"
  38:../../kernel/FreeRTOS/Source/timers.c **** #include "queue.h"
  39:../../kernel/FreeRTOS/Source/timers.c **** #include "timers.h"
  40:../../kernel/FreeRTOS/Source/timers.c **** 
  41:../../kernel/FreeRTOS/Source/timers.c **** #if ( INCLUDE_xTimerPendFunctionCall == 1 ) && ( configUSE_TIMERS == 0 )
  42:../../kernel/FreeRTOS/Source/timers.c **** 	#error configUSE_TIMERS must be set to 1 to make the xTimerPendFunctionCall() function available.
  43:../../kernel/FreeRTOS/Source/timers.c **** #endif
  44:../../kernel/FreeRTOS/Source/timers.c **** 
  45:../../kernel/FreeRTOS/Source/timers.c **** /* Lint e961 and e750 are suppressed as a MISRA exception justified because the
  46:../../kernel/FreeRTOS/Source/timers.c **** MPU ports require MPU_WRAPPERS_INCLUDED_FROM_API_FILE to be defined for the
  47:../../kernel/FreeRTOS/Source/timers.c **** header files above, but not in this file, in order to generate the correct
  48:../../kernel/FreeRTOS/Source/timers.c **** privileged Vs unprivileged linkage and placement. */
  49:../../kernel/FreeRTOS/Source/timers.c **** #undef MPU_WRAPPERS_INCLUDED_FROM_API_FILE /*lint !e961 !e750. */
  50:../../kernel/FreeRTOS/Source/timers.c **** 
  51:../../kernel/FreeRTOS/Source/timers.c **** 
  52:../../kernel/FreeRTOS/Source/timers.c **** /* This entire source file will be skipped if the application is not configured
  53:../../kernel/FreeRTOS/Source/timers.c **** to include software timer functionality.  This #if is closed at the very bottom
  54:../../kernel/FreeRTOS/Source/timers.c **** of this file.  If you want to include software timer functionality then ensure
  55:../../kernel/FreeRTOS/Source/timers.c **** configUSE_TIMERS is set to 1 in FreeRTOSConfig.h. */
  56:../../kernel/FreeRTOS/Source/timers.c **** #if ( configUSE_TIMERS == 1 )
  57:../../kernel/FreeRTOS/Source/timers.c **** 
  58:../../kernel/FreeRTOS/Source/timers.c **** /* Misc definitions. */
  59:../../kernel/FreeRTOS/Source/timers.c **** #define tmrNO_DELAY		( TickType_t ) 0U
  60:../../kernel/FreeRTOS/Source/timers.c **** 
  61:../../kernel/FreeRTOS/Source/timers.c **** /* The name assigned to the timer service task.  This can be overridden by
ARM GAS  /tmp/cclihgpx.s 			page 4


  62:../../kernel/FreeRTOS/Source/timers.c **** defining trmTIMER_SERVICE_TASK_NAME in FreeRTOSConfig.h. */
  63:../../kernel/FreeRTOS/Source/timers.c **** #ifndef configTIMER_SERVICE_TASK_NAME
  64:../../kernel/FreeRTOS/Source/timers.c **** 	#define configTIMER_SERVICE_TASK_NAME "Tmr Svc"
  65:../../kernel/FreeRTOS/Source/timers.c **** #endif
  66:../../kernel/FreeRTOS/Source/timers.c **** 
  67:../../kernel/FreeRTOS/Source/timers.c **** /* The definition of the timers themselves. */
  68:../../kernel/FreeRTOS/Source/timers.c **** typedef struct tmrTimerControl
  69:../../kernel/FreeRTOS/Source/timers.c **** {
  70:../../kernel/FreeRTOS/Source/timers.c **** 	const char				*pcTimerName;		/*<< Text name.  This is not used by the kernel, it is included simpl
  71:../../kernel/FreeRTOS/Source/timers.c **** 	ListItem_t				xTimerListItem;		/*<< Standard linked list item as used by all kernel features for e
  72:../../kernel/FreeRTOS/Source/timers.c **** 	TickType_t				xTimerPeriodInTicks;/*<< How quickly and often the timer expires. */
  73:../../kernel/FreeRTOS/Source/timers.c **** 	UBaseType_t				uxAutoReload;		/*<< Set to pdTRUE if the timer should be automatically restarted on
  74:../../kernel/FreeRTOS/Source/timers.c **** 	void 					*pvTimerID;			/*<< An ID to identify the timer.  This allows the timer to be identified 
  75:../../kernel/FreeRTOS/Source/timers.c **** 	TimerCallbackFunction_t	pxCallbackFunction;	/*<< The function that will be called when the timer e
  76:../../kernel/FreeRTOS/Source/timers.c **** 	#if( configUSE_TRACE_FACILITY == 1 )
  77:../../kernel/FreeRTOS/Source/timers.c **** 		UBaseType_t			uxTimerNumber;		/*<< An ID assigned by trace tools such as FreeRTOS+Trace */
  78:../../kernel/FreeRTOS/Source/timers.c **** 	#endif
  79:../../kernel/FreeRTOS/Source/timers.c **** 
  80:../../kernel/FreeRTOS/Source/timers.c **** 	#if( ( configSUPPORT_STATIC_ALLOCATION == 1 ) && ( configSUPPORT_DYNAMIC_ALLOCATION == 1 ) )
  81:../../kernel/FreeRTOS/Source/timers.c **** 		uint8_t 			ucStaticallyAllocated; /*<< Set to pdTRUE if the timer was created statically so no at
  82:../../kernel/FreeRTOS/Source/timers.c **** 	#endif
  83:../../kernel/FreeRTOS/Source/timers.c **** } xTIMER;
  84:../../kernel/FreeRTOS/Source/timers.c **** 
  85:../../kernel/FreeRTOS/Source/timers.c **** /* The old xTIMER name is maintained above then typedefed to the new Timer_t
  86:../../kernel/FreeRTOS/Source/timers.c **** name below to enable the use of older kernel aware debuggers. */
  87:../../kernel/FreeRTOS/Source/timers.c **** typedef xTIMER Timer_t;
  88:../../kernel/FreeRTOS/Source/timers.c **** 
  89:../../kernel/FreeRTOS/Source/timers.c **** /* The definition of messages that can be sent and received on the timer queue.
  90:../../kernel/FreeRTOS/Source/timers.c **** Two types of message can be queued - messages that manipulate a software timer,
  91:../../kernel/FreeRTOS/Source/timers.c **** and messages that request the execution of a non-timer related callback.  The
  92:../../kernel/FreeRTOS/Source/timers.c **** two message types are defined in two separate structures, xTimerParametersType
  93:../../kernel/FreeRTOS/Source/timers.c **** and xCallbackParametersType respectively. */
  94:../../kernel/FreeRTOS/Source/timers.c **** typedef struct tmrTimerParameters
  95:../../kernel/FreeRTOS/Source/timers.c **** {
  96:../../kernel/FreeRTOS/Source/timers.c **** 	TickType_t			xMessageValue;		/*<< An optional value used by a subset of commands, for example, whe
  97:../../kernel/FreeRTOS/Source/timers.c **** 	Timer_t *			pxTimer;			/*<< The timer to which the command will be applied. */
  98:../../kernel/FreeRTOS/Source/timers.c **** } TimerParameter_t;
  99:../../kernel/FreeRTOS/Source/timers.c **** 
 100:../../kernel/FreeRTOS/Source/timers.c **** 
 101:../../kernel/FreeRTOS/Source/timers.c **** typedef struct tmrCallbackParameters
 102:../../kernel/FreeRTOS/Source/timers.c **** {
 103:../../kernel/FreeRTOS/Source/timers.c **** 	PendedFunction_t	pxCallbackFunction;	/* << The callback function to execute. */
 104:../../kernel/FreeRTOS/Source/timers.c **** 	void *pvParameter1;						/* << The value that will be used as the callback functions first paramet
 105:../../kernel/FreeRTOS/Source/timers.c **** 	uint32_t ulParameter2;					/* << The value that will be used as the callback functions second para
 106:../../kernel/FreeRTOS/Source/timers.c **** } CallbackParameters_t;
 107:../../kernel/FreeRTOS/Source/timers.c **** 
 108:../../kernel/FreeRTOS/Source/timers.c **** /* The structure that contains the two message types, along with an identifier
 109:../../kernel/FreeRTOS/Source/timers.c **** that is used to determine which message type is valid. */
 110:../../kernel/FreeRTOS/Source/timers.c **** typedef struct tmrTimerQueueMessage
 111:../../kernel/FreeRTOS/Source/timers.c **** {
 112:../../kernel/FreeRTOS/Source/timers.c **** 	BaseType_t			xMessageID;			/*<< The command being sent to the timer service task. */
 113:../../kernel/FreeRTOS/Source/timers.c **** 	union
 114:../../kernel/FreeRTOS/Source/timers.c **** 	{
 115:../../kernel/FreeRTOS/Source/timers.c **** 		TimerParameter_t xTimerParameters;
 116:../../kernel/FreeRTOS/Source/timers.c **** 
 117:../../kernel/FreeRTOS/Source/timers.c **** 		/* Don't include xCallbackParameters if it is not going to be used as
 118:../../kernel/FreeRTOS/Source/timers.c **** 		it makes the structure (and therefore the timer queue) larger. */
ARM GAS  /tmp/cclihgpx.s 			page 5


 119:../../kernel/FreeRTOS/Source/timers.c **** 		#if ( INCLUDE_xTimerPendFunctionCall == 1 )
 120:../../kernel/FreeRTOS/Source/timers.c **** 			CallbackParameters_t xCallbackParameters;
 121:../../kernel/FreeRTOS/Source/timers.c **** 		#endif /* INCLUDE_xTimerPendFunctionCall */
 122:../../kernel/FreeRTOS/Source/timers.c **** 	} u;
 123:../../kernel/FreeRTOS/Source/timers.c **** } DaemonTaskMessage_t;
 124:../../kernel/FreeRTOS/Source/timers.c **** 
 125:../../kernel/FreeRTOS/Source/timers.c **** /*lint -save -e956 A manual analysis and inspection has been used to determine
 126:../../kernel/FreeRTOS/Source/timers.c **** which static variables must be declared volatile. */
 127:../../kernel/FreeRTOS/Source/timers.c **** 
 128:../../kernel/FreeRTOS/Source/timers.c **** /* The list in which active timers are stored.  Timers are referenced in expire
 129:../../kernel/FreeRTOS/Source/timers.c **** time order, with the nearest expiry time at the front of the list.  Only the
 130:../../kernel/FreeRTOS/Source/timers.c **** timer service task is allowed to access these lists. */
 131:../../kernel/FreeRTOS/Source/timers.c **** PRIVILEGED_DATA static List_t xActiveTimerList1;
 132:../../kernel/FreeRTOS/Source/timers.c **** PRIVILEGED_DATA static List_t xActiveTimerList2;
 133:../../kernel/FreeRTOS/Source/timers.c **** PRIVILEGED_DATA static List_t *pxCurrentTimerList;
 134:../../kernel/FreeRTOS/Source/timers.c **** PRIVILEGED_DATA static List_t *pxOverflowTimerList;
 135:../../kernel/FreeRTOS/Source/timers.c **** 
 136:../../kernel/FreeRTOS/Source/timers.c **** /* A queue that is used to send commands to the timer service task. */
 137:../../kernel/FreeRTOS/Source/timers.c **** PRIVILEGED_DATA static QueueHandle_t xTimerQueue = NULL;
 138:../../kernel/FreeRTOS/Source/timers.c **** PRIVILEGED_DATA static TaskHandle_t xTimerTaskHandle = NULL;
 139:../../kernel/FreeRTOS/Source/timers.c **** 
 140:../../kernel/FreeRTOS/Source/timers.c **** /*lint -restore */
 141:../../kernel/FreeRTOS/Source/timers.c **** 
 142:../../kernel/FreeRTOS/Source/timers.c **** /*-----------------------------------------------------------*/
 143:../../kernel/FreeRTOS/Source/timers.c **** 
 144:../../kernel/FreeRTOS/Source/timers.c **** #if( configSUPPORT_STATIC_ALLOCATION == 1 )
 145:../../kernel/FreeRTOS/Source/timers.c **** 
 146:../../kernel/FreeRTOS/Source/timers.c **** 	/* If static allocation is supported then the application must provide the
 147:../../kernel/FreeRTOS/Source/timers.c **** 	following callback function - which enables the application to optionally
 148:../../kernel/FreeRTOS/Source/timers.c **** 	provide the memory that will be used by the timer task as the task's stack
 149:../../kernel/FreeRTOS/Source/timers.c **** 	and TCB. */
 150:../../kernel/FreeRTOS/Source/timers.c **** 	extern void vApplicationGetTimerTaskMemory( StaticTask_t **ppxTimerTaskTCBBuffer, StackType_t **pp
 151:../../kernel/FreeRTOS/Source/timers.c **** 
 152:../../kernel/FreeRTOS/Source/timers.c **** #endif
 153:../../kernel/FreeRTOS/Source/timers.c **** 
 154:../../kernel/FreeRTOS/Source/timers.c **** /*
 155:../../kernel/FreeRTOS/Source/timers.c ****  * Initialise the infrastructure used by the timer service task if it has not
 156:../../kernel/FreeRTOS/Source/timers.c ****  * been initialised already.
 157:../../kernel/FreeRTOS/Source/timers.c ****  */
 158:../../kernel/FreeRTOS/Source/timers.c **** static void prvCheckForValidListAndQueue( void ) PRIVILEGED_FUNCTION;
 159:../../kernel/FreeRTOS/Source/timers.c **** 
 160:../../kernel/FreeRTOS/Source/timers.c **** /*
 161:../../kernel/FreeRTOS/Source/timers.c ****  * The timer service task (daemon).  Timer functionality is controlled by this
 162:../../kernel/FreeRTOS/Source/timers.c ****  * task.  Other tasks communicate with the timer service task using the
 163:../../kernel/FreeRTOS/Source/timers.c ****  * xTimerQueue queue.
 164:../../kernel/FreeRTOS/Source/timers.c ****  */
 165:../../kernel/FreeRTOS/Source/timers.c **** static void prvTimerTask( void *pvParameters ) PRIVILEGED_FUNCTION;
 166:../../kernel/FreeRTOS/Source/timers.c **** 
 167:../../kernel/FreeRTOS/Source/timers.c **** /*
 168:../../kernel/FreeRTOS/Source/timers.c ****  * Called by the timer service task to interpret and process a command it
 169:../../kernel/FreeRTOS/Source/timers.c ****  * received on the timer queue.
 170:../../kernel/FreeRTOS/Source/timers.c ****  */
 171:../../kernel/FreeRTOS/Source/timers.c **** static void prvProcessReceivedCommands( void ) PRIVILEGED_FUNCTION;
 172:../../kernel/FreeRTOS/Source/timers.c **** 
 173:../../kernel/FreeRTOS/Source/timers.c **** /*
 174:../../kernel/FreeRTOS/Source/timers.c ****  * Insert the timer into either xActiveTimerList1, or xActiveTimerList2,
 175:../../kernel/FreeRTOS/Source/timers.c ****  * depending on if the expire time causes a timer counter overflow.
ARM GAS  /tmp/cclihgpx.s 			page 6


 176:../../kernel/FreeRTOS/Source/timers.c ****  */
 177:../../kernel/FreeRTOS/Source/timers.c **** static BaseType_t prvInsertTimerInActiveList( Timer_t * const pxTimer, const TickType_t xNextExpiry
 178:../../kernel/FreeRTOS/Source/timers.c **** 
 179:../../kernel/FreeRTOS/Source/timers.c **** /*
 180:../../kernel/FreeRTOS/Source/timers.c ****  * An active timer has reached its expire time.  Reload the timer if it is an
 181:../../kernel/FreeRTOS/Source/timers.c ****  * auto reload timer, then call its callback.
 182:../../kernel/FreeRTOS/Source/timers.c ****  */
 183:../../kernel/FreeRTOS/Source/timers.c **** static void prvProcessExpiredTimer( const TickType_t xNextExpireTime, const TickType_t xTimeNow ) P
 184:../../kernel/FreeRTOS/Source/timers.c **** 
 185:../../kernel/FreeRTOS/Source/timers.c **** /*
 186:../../kernel/FreeRTOS/Source/timers.c ****  * The tick count has overflowed.  Switch the timer lists after ensuring the
 187:../../kernel/FreeRTOS/Source/timers.c ****  * current timer list does not still reference some timers.
 188:../../kernel/FreeRTOS/Source/timers.c ****  */
 189:../../kernel/FreeRTOS/Source/timers.c **** static void prvSwitchTimerLists( void ) PRIVILEGED_FUNCTION;
 190:../../kernel/FreeRTOS/Source/timers.c **** 
 191:../../kernel/FreeRTOS/Source/timers.c **** /*
 192:../../kernel/FreeRTOS/Source/timers.c ****  * Obtain the current tick count, setting *pxTimerListsWereSwitched to pdTRUE
 193:../../kernel/FreeRTOS/Source/timers.c ****  * if a tick count overflow occurred since prvSampleTimeNow() was last called.
 194:../../kernel/FreeRTOS/Source/timers.c ****  */
 195:../../kernel/FreeRTOS/Source/timers.c **** static TickType_t prvSampleTimeNow( BaseType_t * const pxTimerListsWereSwitched ) PRIVILEGED_FUNCTI
 196:../../kernel/FreeRTOS/Source/timers.c **** 
 197:../../kernel/FreeRTOS/Source/timers.c **** /*
 198:../../kernel/FreeRTOS/Source/timers.c ****  * If the timer list contains any active timers then return the expire time of
 199:../../kernel/FreeRTOS/Source/timers.c ****  * the timer that will expire first and set *pxListWasEmpty to false.  If the
 200:../../kernel/FreeRTOS/Source/timers.c ****  * timer list does not contain any timers then return 0 and set *pxListWasEmpty
 201:../../kernel/FreeRTOS/Source/timers.c ****  * to pdTRUE.
 202:../../kernel/FreeRTOS/Source/timers.c ****  */
 203:../../kernel/FreeRTOS/Source/timers.c **** static TickType_t prvGetNextExpireTime( BaseType_t * const pxListWasEmpty ) PRIVILEGED_FUNCTION;
 204:../../kernel/FreeRTOS/Source/timers.c **** 
 205:../../kernel/FreeRTOS/Source/timers.c **** /*
 206:../../kernel/FreeRTOS/Source/timers.c ****  * If a timer has expired, process it.  Otherwise, block the timer service task
 207:../../kernel/FreeRTOS/Source/timers.c ****  * until either a timer does expire or a command is received.
 208:../../kernel/FreeRTOS/Source/timers.c ****  */
 209:../../kernel/FreeRTOS/Source/timers.c **** static void prvProcessTimerOrBlockTask( const TickType_t xNextExpireTime, BaseType_t xListWasEmpty 
 210:../../kernel/FreeRTOS/Source/timers.c **** 
 211:../../kernel/FreeRTOS/Source/timers.c **** /*
 212:../../kernel/FreeRTOS/Source/timers.c ****  * Called after a Timer_t structure has been allocated either statically or
 213:../../kernel/FreeRTOS/Source/timers.c ****  * dynamically to fill in the structure's members.
 214:../../kernel/FreeRTOS/Source/timers.c ****  */
 215:../../kernel/FreeRTOS/Source/timers.c **** static void prvInitialiseNewTimer(	const char * const pcTimerName,			/*lint !e971 Unqualified char 
 216:../../kernel/FreeRTOS/Source/timers.c **** 									const TickType_t xTimerPeriodInTicks,
 217:../../kernel/FreeRTOS/Source/timers.c **** 									const UBaseType_t uxAutoReload,
 218:../../kernel/FreeRTOS/Source/timers.c **** 									void * const pvTimerID,
 219:../../kernel/FreeRTOS/Source/timers.c **** 									TimerCallbackFunction_t pxCallbackFunction,
 220:../../kernel/FreeRTOS/Source/timers.c **** 									Timer_t *pxNewTimer ) PRIVILEGED_FUNCTION;
 221:../../kernel/FreeRTOS/Source/timers.c **** /*-----------------------------------------------------------*/
 222:../../kernel/FreeRTOS/Source/timers.c **** 
 223:../../kernel/FreeRTOS/Source/timers.c **** BaseType_t xTimerCreateTimerTask( void )
 224:../../kernel/FreeRTOS/Source/timers.c **** {
 225:../../kernel/FreeRTOS/Source/timers.c **** BaseType_t xReturn = pdFAIL;
 226:../../kernel/FreeRTOS/Source/timers.c **** 
 227:../../kernel/FreeRTOS/Source/timers.c **** 	/* This function is called when the scheduler is started if
 228:../../kernel/FreeRTOS/Source/timers.c **** 	configUSE_TIMERS is set to 1.  Check that the infrastructure used by the
 229:../../kernel/FreeRTOS/Source/timers.c **** 	timer service task has been created/initialised.  If timers have already
 230:../../kernel/FreeRTOS/Source/timers.c **** 	been created then the initialisation will already have been performed. */
 231:../../kernel/FreeRTOS/Source/timers.c **** 	prvCheckForValidListAndQueue();
 232:../../kernel/FreeRTOS/Source/timers.c **** 
ARM GAS  /tmp/cclihgpx.s 			page 7


 233:../../kernel/FreeRTOS/Source/timers.c **** 	if( xTimerQueue != NULL )
 234:../../kernel/FreeRTOS/Source/timers.c **** 	{
 235:../../kernel/FreeRTOS/Source/timers.c **** 		#if( configSUPPORT_STATIC_ALLOCATION == 1 )
 236:../../kernel/FreeRTOS/Source/timers.c **** 		{
 237:../../kernel/FreeRTOS/Source/timers.c **** 			StaticTask_t *pxTimerTaskTCBBuffer = NULL;
 238:../../kernel/FreeRTOS/Source/timers.c **** 			StackType_t *pxTimerTaskStackBuffer = NULL;
 239:../../kernel/FreeRTOS/Source/timers.c **** 			uint32_t ulTimerTaskStackSize;
 240:../../kernel/FreeRTOS/Source/timers.c **** 
 241:../../kernel/FreeRTOS/Source/timers.c **** 			vApplicationGetTimerTaskMemory( &pxTimerTaskTCBBuffer, &pxTimerTaskStackBuffer, &ulTimerTaskStac
 242:../../kernel/FreeRTOS/Source/timers.c **** 			xTimerTaskHandle = xTaskCreateStatic(	prvTimerTask,
 243:../../kernel/FreeRTOS/Source/timers.c **** 													configTIMER_SERVICE_TASK_NAME,
 244:../../kernel/FreeRTOS/Source/timers.c **** 													ulTimerTaskStackSize,
 245:../../kernel/FreeRTOS/Source/timers.c **** 													NULL,
 246:../../kernel/FreeRTOS/Source/timers.c **** 													( ( UBaseType_t ) configTIMER_TASK_PRIORITY ) | portPRIVILEGE_BIT,
 247:../../kernel/FreeRTOS/Source/timers.c **** 													pxTimerTaskStackBuffer,
 248:../../kernel/FreeRTOS/Source/timers.c **** 													pxTimerTaskTCBBuffer );
 249:../../kernel/FreeRTOS/Source/timers.c **** 
 250:../../kernel/FreeRTOS/Source/timers.c **** 			if( xTimerTaskHandle != NULL )
 251:../../kernel/FreeRTOS/Source/timers.c **** 			{
 252:../../kernel/FreeRTOS/Source/timers.c **** 				xReturn = pdPASS;
 253:../../kernel/FreeRTOS/Source/timers.c **** 			}
 254:../../kernel/FreeRTOS/Source/timers.c **** 		}
 255:../../kernel/FreeRTOS/Source/timers.c **** 		#else
 256:../../kernel/FreeRTOS/Source/timers.c **** 		{
 257:../../kernel/FreeRTOS/Source/timers.c **** 			xReturn = xTaskCreate(	prvTimerTask,
 258:../../kernel/FreeRTOS/Source/timers.c **** 									configTIMER_SERVICE_TASK_NAME,
 259:../../kernel/FreeRTOS/Source/timers.c **** 									configTIMER_TASK_STACK_DEPTH,
 260:../../kernel/FreeRTOS/Source/timers.c **** 									NULL,
 261:../../kernel/FreeRTOS/Source/timers.c **** 									( ( UBaseType_t ) configTIMER_TASK_PRIORITY ) | portPRIVILEGE_BIT,
 262:../../kernel/FreeRTOS/Source/timers.c **** 									&xTimerTaskHandle );
 263:../../kernel/FreeRTOS/Source/timers.c **** 		}
 264:../../kernel/FreeRTOS/Source/timers.c **** 		#endif /* configSUPPORT_STATIC_ALLOCATION */
 265:../../kernel/FreeRTOS/Source/timers.c **** 	}
 266:../../kernel/FreeRTOS/Source/timers.c **** 	else
 267:../../kernel/FreeRTOS/Source/timers.c **** 	{
 268:../../kernel/FreeRTOS/Source/timers.c **** 		mtCOVERAGE_TEST_MARKER();
 269:../../kernel/FreeRTOS/Source/timers.c **** 	}
 270:../../kernel/FreeRTOS/Source/timers.c **** 
 271:../../kernel/FreeRTOS/Source/timers.c **** 	configASSERT( xReturn );
 272:../../kernel/FreeRTOS/Source/timers.c **** 	return xReturn;
 273:../../kernel/FreeRTOS/Source/timers.c **** }
 274:../../kernel/FreeRTOS/Source/timers.c **** /*-----------------------------------------------------------*/
 275:../../kernel/FreeRTOS/Source/timers.c **** 
 276:../../kernel/FreeRTOS/Source/timers.c **** #if( configSUPPORT_DYNAMIC_ALLOCATION == 1 )
 277:../../kernel/FreeRTOS/Source/timers.c **** 
 278:../../kernel/FreeRTOS/Source/timers.c **** 	TimerHandle_t xTimerCreate(	const char * const pcTimerName,			/*lint !e971 Unqualified char types 
 279:../../kernel/FreeRTOS/Source/timers.c **** 								const TickType_t xTimerPeriodInTicks,
 280:../../kernel/FreeRTOS/Source/timers.c **** 								const UBaseType_t uxAutoReload,
 281:../../kernel/FreeRTOS/Source/timers.c **** 								void * const pvTimerID,
 282:../../kernel/FreeRTOS/Source/timers.c **** 								TimerCallbackFunction_t pxCallbackFunction )
 283:../../kernel/FreeRTOS/Source/timers.c **** 	{
 284:../../kernel/FreeRTOS/Source/timers.c **** 	Timer_t *pxNewTimer;
 285:../../kernel/FreeRTOS/Source/timers.c **** 
 286:../../kernel/FreeRTOS/Source/timers.c **** 		pxNewTimer = ( Timer_t * ) pvPortMalloc( sizeof( Timer_t ) );
 287:../../kernel/FreeRTOS/Source/timers.c **** 
 288:../../kernel/FreeRTOS/Source/timers.c **** 		if( pxNewTimer != NULL )
 289:../../kernel/FreeRTOS/Source/timers.c **** 		{
ARM GAS  /tmp/cclihgpx.s 			page 8


 290:../../kernel/FreeRTOS/Source/timers.c **** 			prvInitialiseNewTimer( pcTimerName, xTimerPeriodInTicks, uxAutoReload, pvTimerID, pxCallbackFunc
 291:../../kernel/FreeRTOS/Source/timers.c **** 
 292:../../kernel/FreeRTOS/Source/timers.c **** 			#if( configSUPPORT_STATIC_ALLOCATION == 1 )
 293:../../kernel/FreeRTOS/Source/timers.c **** 			{
 294:../../kernel/FreeRTOS/Source/timers.c **** 				/* Timers can be created statically or dynamically, so note this
 295:../../kernel/FreeRTOS/Source/timers.c **** 				timer was created dynamically in case the timer is later
 296:../../kernel/FreeRTOS/Source/timers.c **** 				deleted. */
 297:../../kernel/FreeRTOS/Source/timers.c **** 				pxNewTimer->ucStaticallyAllocated = pdFALSE;
 298:../../kernel/FreeRTOS/Source/timers.c **** 			}
 299:../../kernel/FreeRTOS/Source/timers.c **** 			#endif /* configSUPPORT_STATIC_ALLOCATION */
 300:../../kernel/FreeRTOS/Source/timers.c **** 		}
 301:../../kernel/FreeRTOS/Source/timers.c **** 
 302:../../kernel/FreeRTOS/Source/timers.c **** 		return pxNewTimer;
 303:../../kernel/FreeRTOS/Source/timers.c **** 	}
 304:../../kernel/FreeRTOS/Source/timers.c **** 
 305:../../kernel/FreeRTOS/Source/timers.c **** #endif /* configSUPPORT_STATIC_ALLOCATION */
 306:../../kernel/FreeRTOS/Source/timers.c **** /*-----------------------------------------------------------*/
 307:../../kernel/FreeRTOS/Source/timers.c **** 
 308:../../kernel/FreeRTOS/Source/timers.c **** #if( configSUPPORT_STATIC_ALLOCATION == 1 )
 309:../../kernel/FreeRTOS/Source/timers.c **** 
 310:../../kernel/FreeRTOS/Source/timers.c **** 	TimerHandle_t xTimerCreateStatic(	const char * const pcTimerName,		/*lint !e971 Unqualified char t
 311:../../kernel/FreeRTOS/Source/timers.c **** 										const TickType_t xTimerPeriodInTicks,
 312:../../kernel/FreeRTOS/Source/timers.c **** 										const UBaseType_t uxAutoReload,
 313:../../kernel/FreeRTOS/Source/timers.c **** 										void * const pvTimerID,
 314:../../kernel/FreeRTOS/Source/timers.c **** 										TimerCallbackFunction_t pxCallbackFunction,
 315:../../kernel/FreeRTOS/Source/timers.c **** 										StaticTimer_t *pxTimerBuffer )
 316:../../kernel/FreeRTOS/Source/timers.c **** 	{
 317:../../kernel/FreeRTOS/Source/timers.c **** 	Timer_t *pxNewTimer;
 318:../../kernel/FreeRTOS/Source/timers.c **** 
 319:../../kernel/FreeRTOS/Source/timers.c **** 		#if( configASSERT_DEFINED == 1 )
 320:../../kernel/FreeRTOS/Source/timers.c **** 		{
 321:../../kernel/FreeRTOS/Source/timers.c **** 			/* Sanity check that the size of the structure used to declare a
 322:../../kernel/FreeRTOS/Source/timers.c **** 			variable of type StaticTimer_t equals the size of the real timer
 323:../../kernel/FreeRTOS/Source/timers.c **** 			structure. */
 324:../../kernel/FreeRTOS/Source/timers.c **** 			volatile size_t xSize = sizeof( StaticTimer_t );
 325:../../kernel/FreeRTOS/Source/timers.c **** 			configASSERT( xSize == sizeof( Timer_t ) );
 326:../../kernel/FreeRTOS/Source/timers.c **** 		}
 327:../../kernel/FreeRTOS/Source/timers.c **** 		#endif /* configASSERT_DEFINED */
 328:../../kernel/FreeRTOS/Source/timers.c **** 
 329:../../kernel/FreeRTOS/Source/timers.c **** 		/* A pointer to a StaticTimer_t structure MUST be provided, use it. */
 330:../../kernel/FreeRTOS/Source/timers.c **** 		configASSERT( pxTimerBuffer );
 331:../../kernel/FreeRTOS/Source/timers.c **** 		pxNewTimer = ( Timer_t * ) pxTimerBuffer; /*lint !e740 Unusual cast is ok as the structures are d
 332:../../kernel/FreeRTOS/Source/timers.c **** 
 333:../../kernel/FreeRTOS/Source/timers.c **** 		if( pxNewTimer != NULL )
 334:../../kernel/FreeRTOS/Source/timers.c **** 		{
 335:../../kernel/FreeRTOS/Source/timers.c **** 			prvInitialiseNewTimer( pcTimerName, xTimerPeriodInTicks, uxAutoReload, pvTimerID, pxCallbackFunc
 336:../../kernel/FreeRTOS/Source/timers.c **** 
 337:../../kernel/FreeRTOS/Source/timers.c **** 			#if( configSUPPORT_DYNAMIC_ALLOCATION == 1 )
 338:../../kernel/FreeRTOS/Source/timers.c **** 			{
 339:../../kernel/FreeRTOS/Source/timers.c **** 				/* Timers can be created statically or dynamically so note this
 340:../../kernel/FreeRTOS/Source/timers.c **** 				timer was created statically in case it is later deleted. */
 341:../../kernel/FreeRTOS/Source/timers.c **** 				pxNewTimer->ucStaticallyAllocated = pdTRUE;
 342:../../kernel/FreeRTOS/Source/timers.c **** 			}
 343:../../kernel/FreeRTOS/Source/timers.c **** 			#endif /* configSUPPORT_DYNAMIC_ALLOCATION */
 344:../../kernel/FreeRTOS/Source/timers.c **** 		}
 345:../../kernel/FreeRTOS/Source/timers.c **** 
 346:../../kernel/FreeRTOS/Source/timers.c **** 		return pxNewTimer;
ARM GAS  /tmp/cclihgpx.s 			page 9


 347:../../kernel/FreeRTOS/Source/timers.c **** 	}
 348:../../kernel/FreeRTOS/Source/timers.c **** 
 349:../../kernel/FreeRTOS/Source/timers.c **** #endif /* configSUPPORT_STATIC_ALLOCATION */
 350:../../kernel/FreeRTOS/Source/timers.c **** /*-----------------------------------------------------------*/
 351:../../kernel/FreeRTOS/Source/timers.c **** 
 352:../../kernel/FreeRTOS/Source/timers.c **** static void prvInitialiseNewTimer(	const char * const pcTimerName,			/*lint !e971 Unqualified char 
 353:../../kernel/FreeRTOS/Source/timers.c **** 									const TickType_t xTimerPeriodInTicks,
 354:../../kernel/FreeRTOS/Source/timers.c **** 									const UBaseType_t uxAutoReload,
 355:../../kernel/FreeRTOS/Source/timers.c **** 									void * const pvTimerID,
 356:../../kernel/FreeRTOS/Source/timers.c **** 									TimerCallbackFunction_t pxCallbackFunction,
 357:../../kernel/FreeRTOS/Source/timers.c **** 									Timer_t *pxNewTimer )
 358:../../kernel/FreeRTOS/Source/timers.c **** {
 359:../../kernel/FreeRTOS/Source/timers.c **** 	/* 0 is not a valid value for xTimerPeriodInTicks. */
 360:../../kernel/FreeRTOS/Source/timers.c **** 	configASSERT( ( xTimerPeriodInTicks > 0 ) );
 361:../../kernel/FreeRTOS/Source/timers.c **** 
 362:../../kernel/FreeRTOS/Source/timers.c **** 	if( pxNewTimer != NULL )
 363:../../kernel/FreeRTOS/Source/timers.c **** 	{
 364:../../kernel/FreeRTOS/Source/timers.c **** 		/* Ensure the infrastructure used by the timer service task has been
 365:../../kernel/FreeRTOS/Source/timers.c **** 		created/initialised. */
 366:../../kernel/FreeRTOS/Source/timers.c **** 		prvCheckForValidListAndQueue();
 367:../../kernel/FreeRTOS/Source/timers.c **** 
 368:../../kernel/FreeRTOS/Source/timers.c **** 		/* Initialise the timer structure members using the function
 369:../../kernel/FreeRTOS/Source/timers.c **** 		parameters. */
 370:../../kernel/FreeRTOS/Source/timers.c **** 		pxNewTimer->pcTimerName = pcTimerName;
 371:../../kernel/FreeRTOS/Source/timers.c **** 		pxNewTimer->xTimerPeriodInTicks = xTimerPeriodInTicks;
 372:../../kernel/FreeRTOS/Source/timers.c **** 		pxNewTimer->uxAutoReload = uxAutoReload;
 373:../../kernel/FreeRTOS/Source/timers.c **** 		pxNewTimer->pvTimerID = pvTimerID;
 374:../../kernel/FreeRTOS/Source/timers.c **** 		pxNewTimer->pxCallbackFunction = pxCallbackFunction;
 375:../../kernel/FreeRTOS/Source/timers.c **** 		vListInitialiseItem( &( pxNewTimer->xTimerListItem ) );
 376:../../kernel/FreeRTOS/Source/timers.c **** 		traceTIMER_CREATE( pxNewTimer );
 377:../../kernel/FreeRTOS/Source/timers.c **** 	}
 378:../../kernel/FreeRTOS/Source/timers.c **** }
 379:../../kernel/FreeRTOS/Source/timers.c **** /*-----------------------------------------------------------*/
 380:../../kernel/FreeRTOS/Source/timers.c **** 
 381:../../kernel/FreeRTOS/Source/timers.c **** BaseType_t xTimerGenericCommand( TimerHandle_t xTimer, const BaseType_t xCommandID, const TickType_
 382:../../kernel/FreeRTOS/Source/timers.c **** {
 383:../../kernel/FreeRTOS/Source/timers.c **** BaseType_t xReturn = pdFAIL;
 384:../../kernel/FreeRTOS/Source/timers.c **** DaemonTaskMessage_t xMessage;
 385:../../kernel/FreeRTOS/Source/timers.c **** 
 386:../../kernel/FreeRTOS/Source/timers.c **** 	configASSERT( xTimer );
 387:../../kernel/FreeRTOS/Source/timers.c **** 
 388:../../kernel/FreeRTOS/Source/timers.c **** 	/* Send a message to the timer service task to perform a particular action
 389:../../kernel/FreeRTOS/Source/timers.c **** 	on a particular timer definition. */
 390:../../kernel/FreeRTOS/Source/timers.c **** 	if( xTimerQueue != NULL )
 391:../../kernel/FreeRTOS/Source/timers.c **** 	{
 392:../../kernel/FreeRTOS/Source/timers.c **** 		/* Send a command to the timer service task to start the xTimer timer. */
 393:../../kernel/FreeRTOS/Source/timers.c **** 		xMessage.xMessageID = xCommandID;
 394:../../kernel/FreeRTOS/Source/timers.c **** 		xMessage.u.xTimerParameters.xMessageValue = xOptionalValue;
 395:../../kernel/FreeRTOS/Source/timers.c **** 		xMessage.u.xTimerParameters.pxTimer = ( Timer_t * ) xTimer;
 396:../../kernel/FreeRTOS/Source/timers.c **** 
 397:../../kernel/FreeRTOS/Source/timers.c **** 		if( xCommandID < tmrFIRST_FROM_ISR_COMMAND )
 398:../../kernel/FreeRTOS/Source/timers.c **** 		{
 399:../../kernel/FreeRTOS/Source/timers.c **** 			if( xTaskGetSchedulerState() == taskSCHEDULER_RUNNING )
 400:../../kernel/FreeRTOS/Source/timers.c **** 			{
 401:../../kernel/FreeRTOS/Source/timers.c **** 				xReturn = xQueueSendToBack( xTimerQueue, &xMessage, xTicksToWait );
 402:../../kernel/FreeRTOS/Source/timers.c **** 			}
 403:../../kernel/FreeRTOS/Source/timers.c **** 			else
ARM GAS  /tmp/cclihgpx.s 			page 10


 404:../../kernel/FreeRTOS/Source/timers.c **** 			{
 405:../../kernel/FreeRTOS/Source/timers.c **** 				xReturn = xQueueSendToBack( xTimerQueue, &xMessage, tmrNO_DELAY );
 406:../../kernel/FreeRTOS/Source/timers.c **** 			}
 407:../../kernel/FreeRTOS/Source/timers.c **** 		}
 408:../../kernel/FreeRTOS/Source/timers.c **** 		else
 409:../../kernel/FreeRTOS/Source/timers.c **** 		{
 410:../../kernel/FreeRTOS/Source/timers.c **** 			xReturn = xQueueSendToBackFromISR( xTimerQueue, &xMessage, pxHigherPriorityTaskWoken );
 411:../../kernel/FreeRTOS/Source/timers.c **** 		}
 412:../../kernel/FreeRTOS/Source/timers.c **** 
 413:../../kernel/FreeRTOS/Source/timers.c **** 		traceTIMER_COMMAND_SEND( xTimer, xCommandID, xOptionalValue, xReturn );
 414:../../kernel/FreeRTOS/Source/timers.c **** 	}
 415:../../kernel/FreeRTOS/Source/timers.c **** 	else
 416:../../kernel/FreeRTOS/Source/timers.c **** 	{
 417:../../kernel/FreeRTOS/Source/timers.c **** 		mtCOVERAGE_TEST_MARKER();
 418:../../kernel/FreeRTOS/Source/timers.c **** 	}
 419:../../kernel/FreeRTOS/Source/timers.c **** 
 420:../../kernel/FreeRTOS/Source/timers.c **** 	return xReturn;
 421:../../kernel/FreeRTOS/Source/timers.c **** }
 422:../../kernel/FreeRTOS/Source/timers.c **** /*-----------------------------------------------------------*/
 423:../../kernel/FreeRTOS/Source/timers.c **** 
 424:../../kernel/FreeRTOS/Source/timers.c **** TaskHandle_t xTimerGetTimerDaemonTaskHandle( void )
 425:../../kernel/FreeRTOS/Source/timers.c **** {
 426:../../kernel/FreeRTOS/Source/timers.c **** 	/* If xTimerGetTimerDaemonTaskHandle() is called before the scheduler has been
 427:../../kernel/FreeRTOS/Source/timers.c **** 	started, then xTimerTaskHandle will be NULL. */
 428:../../kernel/FreeRTOS/Source/timers.c **** 	configASSERT( ( xTimerTaskHandle != NULL ) );
 429:../../kernel/FreeRTOS/Source/timers.c **** 	return xTimerTaskHandle;
 430:../../kernel/FreeRTOS/Source/timers.c **** }
 431:../../kernel/FreeRTOS/Source/timers.c **** /*-----------------------------------------------------------*/
 432:../../kernel/FreeRTOS/Source/timers.c **** 
 433:../../kernel/FreeRTOS/Source/timers.c **** TickType_t xTimerGetPeriod( TimerHandle_t xTimer )
 434:../../kernel/FreeRTOS/Source/timers.c **** {
 435:../../kernel/FreeRTOS/Source/timers.c **** Timer_t *pxTimer = ( Timer_t * ) xTimer;
 436:../../kernel/FreeRTOS/Source/timers.c **** 
 437:../../kernel/FreeRTOS/Source/timers.c **** 	configASSERT( xTimer );
 438:../../kernel/FreeRTOS/Source/timers.c **** 	return pxTimer->xTimerPeriodInTicks;
 439:../../kernel/FreeRTOS/Source/timers.c **** }
 440:../../kernel/FreeRTOS/Source/timers.c **** /*-----------------------------------------------------------*/
 441:../../kernel/FreeRTOS/Source/timers.c **** 
 442:../../kernel/FreeRTOS/Source/timers.c **** TickType_t xTimerGetExpiryTime( TimerHandle_t xTimer )
 443:../../kernel/FreeRTOS/Source/timers.c **** {
 444:../../kernel/FreeRTOS/Source/timers.c **** Timer_t * pxTimer = ( Timer_t * ) xTimer;
 445:../../kernel/FreeRTOS/Source/timers.c **** TickType_t xReturn;
 446:../../kernel/FreeRTOS/Source/timers.c **** 
 447:../../kernel/FreeRTOS/Source/timers.c **** 	configASSERT( xTimer );
 448:../../kernel/FreeRTOS/Source/timers.c **** 	xReturn = listGET_LIST_ITEM_VALUE( &( pxTimer->xTimerListItem ) );
 449:../../kernel/FreeRTOS/Source/timers.c **** 	return xReturn;
 450:../../kernel/FreeRTOS/Source/timers.c **** }
 451:../../kernel/FreeRTOS/Source/timers.c **** /*-----------------------------------------------------------*/
 452:../../kernel/FreeRTOS/Source/timers.c **** 
 453:../../kernel/FreeRTOS/Source/timers.c **** const char * pcTimerGetName( TimerHandle_t xTimer ) /*lint !e971 Unqualified char types are allowed
 454:../../kernel/FreeRTOS/Source/timers.c **** {
 455:../../kernel/FreeRTOS/Source/timers.c **** Timer_t *pxTimer = ( Timer_t * ) xTimer;
 456:../../kernel/FreeRTOS/Source/timers.c **** 
 457:../../kernel/FreeRTOS/Source/timers.c **** 	configASSERT( xTimer );
 458:../../kernel/FreeRTOS/Source/timers.c **** 	return pxTimer->pcTimerName;
 459:../../kernel/FreeRTOS/Source/timers.c **** }
 460:../../kernel/FreeRTOS/Source/timers.c **** /*-----------------------------------------------------------*/
ARM GAS  /tmp/cclihgpx.s 			page 11


 461:../../kernel/FreeRTOS/Source/timers.c **** 
 462:../../kernel/FreeRTOS/Source/timers.c **** static void prvProcessExpiredTimer( const TickType_t xNextExpireTime, const TickType_t xTimeNow )
 463:../../kernel/FreeRTOS/Source/timers.c **** {
 464:../../kernel/FreeRTOS/Source/timers.c **** BaseType_t xResult;
 465:../../kernel/FreeRTOS/Source/timers.c **** Timer_t * const pxTimer = ( Timer_t * ) listGET_OWNER_OF_HEAD_ENTRY( pxCurrentTimerList );
 466:../../kernel/FreeRTOS/Source/timers.c **** 
 467:../../kernel/FreeRTOS/Source/timers.c **** 	/* Remove the timer from the list of active timers.  A check has already
 468:../../kernel/FreeRTOS/Source/timers.c **** 	been performed to ensure the list is not empty. */
 469:../../kernel/FreeRTOS/Source/timers.c **** 	( void ) uxListRemove( &( pxTimer->xTimerListItem ) );
 470:../../kernel/FreeRTOS/Source/timers.c **** 	traceTIMER_EXPIRED( pxTimer );
 471:../../kernel/FreeRTOS/Source/timers.c **** 
 472:../../kernel/FreeRTOS/Source/timers.c **** 	/* If the timer is an auto reload timer then calculate the next
 473:../../kernel/FreeRTOS/Source/timers.c **** 	expiry time and re-insert the timer in the list of active timers. */
 474:../../kernel/FreeRTOS/Source/timers.c **** 	if( pxTimer->uxAutoReload == ( UBaseType_t ) pdTRUE )
 475:../../kernel/FreeRTOS/Source/timers.c **** 	{
 476:../../kernel/FreeRTOS/Source/timers.c **** 		/* The timer is inserted into a list using a time relative to anything
 477:../../kernel/FreeRTOS/Source/timers.c **** 		other than the current time.  It will therefore be inserted into the
 478:../../kernel/FreeRTOS/Source/timers.c **** 		correct list relative to the time this task thinks it is now. */
 479:../../kernel/FreeRTOS/Source/timers.c **** 		if( prvInsertTimerInActiveList( pxTimer, ( xNextExpireTime + pxTimer->xTimerPeriodInTicks ), xTim
 480:../../kernel/FreeRTOS/Source/timers.c **** 		{
 481:../../kernel/FreeRTOS/Source/timers.c **** 			/* The timer expired before it was added to the active timer
 482:../../kernel/FreeRTOS/Source/timers.c **** 			list.  Reload it now.  */
 483:../../kernel/FreeRTOS/Source/timers.c **** 			xResult = xTimerGenericCommand( pxTimer, tmrCOMMAND_START_DONT_TRACE, xNextExpireTime, NULL, tmr
 484:../../kernel/FreeRTOS/Source/timers.c **** 			configASSERT( xResult );
 485:../../kernel/FreeRTOS/Source/timers.c **** 			( void ) xResult;
 486:../../kernel/FreeRTOS/Source/timers.c **** 		}
 487:../../kernel/FreeRTOS/Source/timers.c **** 		else
 488:../../kernel/FreeRTOS/Source/timers.c **** 		{
 489:../../kernel/FreeRTOS/Source/timers.c **** 			mtCOVERAGE_TEST_MARKER();
 490:../../kernel/FreeRTOS/Source/timers.c **** 		}
 491:../../kernel/FreeRTOS/Source/timers.c **** 	}
 492:../../kernel/FreeRTOS/Source/timers.c **** 	else
 493:../../kernel/FreeRTOS/Source/timers.c **** 	{
 494:../../kernel/FreeRTOS/Source/timers.c **** 		mtCOVERAGE_TEST_MARKER();
 495:../../kernel/FreeRTOS/Source/timers.c **** 	}
 496:../../kernel/FreeRTOS/Source/timers.c **** 
 497:../../kernel/FreeRTOS/Source/timers.c **** 	/* Call the timer callback. */
 498:../../kernel/FreeRTOS/Source/timers.c **** 	pxTimer->pxCallbackFunction( ( TimerHandle_t ) pxTimer );
 499:../../kernel/FreeRTOS/Source/timers.c **** }
 500:../../kernel/FreeRTOS/Source/timers.c **** /*-----------------------------------------------------------*/
 501:../../kernel/FreeRTOS/Source/timers.c **** 
 502:../../kernel/FreeRTOS/Source/timers.c **** static void prvTimerTask( void *pvParameters )
 503:../../kernel/FreeRTOS/Source/timers.c **** {
 504:../../kernel/FreeRTOS/Source/timers.c **** TickType_t xNextExpireTime;
 505:../../kernel/FreeRTOS/Source/timers.c **** BaseType_t xListWasEmpty;
 506:../../kernel/FreeRTOS/Source/timers.c **** 
 507:../../kernel/FreeRTOS/Source/timers.c **** 	/* Just to avoid compiler warnings. */
 508:../../kernel/FreeRTOS/Source/timers.c **** 	( void ) pvParameters;
 509:../../kernel/FreeRTOS/Source/timers.c **** 
 510:../../kernel/FreeRTOS/Source/timers.c **** 	#if( configUSE_DAEMON_TASK_STARTUP_HOOK == 1 )
 511:../../kernel/FreeRTOS/Source/timers.c **** 	{
 512:../../kernel/FreeRTOS/Source/timers.c **** 		extern void vApplicationDaemonTaskStartupHook( void );
 513:../../kernel/FreeRTOS/Source/timers.c **** 
 514:../../kernel/FreeRTOS/Source/timers.c **** 		/* Allow the application writer to execute some code in the context of
 515:../../kernel/FreeRTOS/Source/timers.c **** 		this task at the point the task starts executing.  This is useful if the
 516:../../kernel/FreeRTOS/Source/timers.c **** 		application includes initialisation code that would benefit from
 517:../../kernel/FreeRTOS/Source/timers.c **** 		executing after the scheduler has been started. */
ARM GAS  /tmp/cclihgpx.s 			page 12


 518:../../kernel/FreeRTOS/Source/timers.c **** 		vApplicationDaemonTaskStartupHook();
 519:../../kernel/FreeRTOS/Source/timers.c **** 	}
 520:../../kernel/FreeRTOS/Source/timers.c **** 	#endif /* configUSE_DAEMON_TASK_STARTUP_HOOK */
 521:../../kernel/FreeRTOS/Source/timers.c **** 
 522:../../kernel/FreeRTOS/Source/timers.c **** 	for( ;; )
 523:../../kernel/FreeRTOS/Source/timers.c **** 	{
 524:../../kernel/FreeRTOS/Source/timers.c **** 		/* Query the timers list to see if it contains any timers, and if so,
 525:../../kernel/FreeRTOS/Source/timers.c **** 		obtain the time at which the next timer will expire. */
 526:../../kernel/FreeRTOS/Source/timers.c **** 		xNextExpireTime = prvGetNextExpireTime( &xListWasEmpty );
 527:../../kernel/FreeRTOS/Source/timers.c **** 
 528:../../kernel/FreeRTOS/Source/timers.c **** 		/* If a timer has expired, process it.  Otherwise, block this task
 529:../../kernel/FreeRTOS/Source/timers.c **** 		until either a timer does expire, or a command is received. */
 530:../../kernel/FreeRTOS/Source/timers.c **** 		prvProcessTimerOrBlockTask( xNextExpireTime, xListWasEmpty );
 531:../../kernel/FreeRTOS/Source/timers.c **** 
 532:../../kernel/FreeRTOS/Source/timers.c **** 		/* Empty the command queue. */
 533:../../kernel/FreeRTOS/Source/timers.c **** 		prvProcessReceivedCommands();
 534:../../kernel/FreeRTOS/Source/timers.c **** 	}
 535:../../kernel/FreeRTOS/Source/timers.c **** }
 536:../../kernel/FreeRTOS/Source/timers.c **** /*-----------------------------------------------------------*/
 537:../../kernel/FreeRTOS/Source/timers.c **** 
 538:../../kernel/FreeRTOS/Source/timers.c **** static void prvProcessTimerOrBlockTask( const TickType_t xNextExpireTime, BaseType_t xListWasEmpty 
 539:../../kernel/FreeRTOS/Source/timers.c **** {
 540:../../kernel/FreeRTOS/Source/timers.c **** TickType_t xTimeNow;
 541:../../kernel/FreeRTOS/Source/timers.c **** BaseType_t xTimerListsWereSwitched;
 542:../../kernel/FreeRTOS/Source/timers.c **** 
 543:../../kernel/FreeRTOS/Source/timers.c **** 	vTaskSuspendAll();
 544:../../kernel/FreeRTOS/Source/timers.c **** 	{
 545:../../kernel/FreeRTOS/Source/timers.c **** 		/* Obtain the time now to make an assessment as to whether the timer
 546:../../kernel/FreeRTOS/Source/timers.c **** 		has expired or not.  If obtaining the time causes the lists to switch
 547:../../kernel/FreeRTOS/Source/timers.c **** 		then don't process this timer as any timers that remained in the list
 548:../../kernel/FreeRTOS/Source/timers.c **** 		when the lists were switched will have been processed within the
 549:../../kernel/FreeRTOS/Source/timers.c **** 		prvSampleTimeNow() function. */
 550:../../kernel/FreeRTOS/Source/timers.c **** 		xTimeNow = prvSampleTimeNow( &xTimerListsWereSwitched );
 551:../../kernel/FreeRTOS/Source/timers.c **** 		if( xTimerListsWereSwitched == pdFALSE )
 552:../../kernel/FreeRTOS/Source/timers.c **** 		{
 553:../../kernel/FreeRTOS/Source/timers.c **** 			/* The tick count has not overflowed, has the timer expired? */
 554:../../kernel/FreeRTOS/Source/timers.c **** 			if( ( xListWasEmpty == pdFALSE ) && ( xNextExpireTime <= xTimeNow ) )
 555:../../kernel/FreeRTOS/Source/timers.c **** 			{
 556:../../kernel/FreeRTOS/Source/timers.c **** 				( void ) xTaskResumeAll();
 557:../../kernel/FreeRTOS/Source/timers.c **** 				prvProcessExpiredTimer( xNextExpireTime, xTimeNow );
 558:../../kernel/FreeRTOS/Source/timers.c **** 			}
 559:../../kernel/FreeRTOS/Source/timers.c **** 			else
 560:../../kernel/FreeRTOS/Source/timers.c **** 			{
 561:../../kernel/FreeRTOS/Source/timers.c **** 				/* The tick count has not overflowed, and the next expire
 562:../../kernel/FreeRTOS/Source/timers.c **** 				time has not been reached yet.  This task should therefore
 563:../../kernel/FreeRTOS/Source/timers.c **** 				block to wait for the next expire time or a command to be
 564:../../kernel/FreeRTOS/Source/timers.c **** 				received - whichever comes first.  The following line cannot
 565:../../kernel/FreeRTOS/Source/timers.c **** 				be reached unless xNextExpireTime > xTimeNow, except in the
 566:../../kernel/FreeRTOS/Source/timers.c **** 				case when the current timer list is empty. */
 567:../../kernel/FreeRTOS/Source/timers.c **** 				if( xListWasEmpty != pdFALSE )
 568:../../kernel/FreeRTOS/Source/timers.c **** 				{
 569:../../kernel/FreeRTOS/Source/timers.c **** 					/* The current timer list is empty - is the overflow list
 570:../../kernel/FreeRTOS/Source/timers.c **** 					also empty? */
 571:../../kernel/FreeRTOS/Source/timers.c **** 					xListWasEmpty = listLIST_IS_EMPTY( pxOverflowTimerList );
 572:../../kernel/FreeRTOS/Source/timers.c **** 				}
 573:../../kernel/FreeRTOS/Source/timers.c **** 
 574:../../kernel/FreeRTOS/Source/timers.c **** 				vQueueWaitForMessageRestricted( xTimerQueue, ( xNextExpireTime - xTimeNow ), xListWasEmpty );
ARM GAS  /tmp/cclihgpx.s 			page 13


 575:../../kernel/FreeRTOS/Source/timers.c **** 
 576:../../kernel/FreeRTOS/Source/timers.c **** 				if( xTaskResumeAll() == pdFALSE )
 577:../../kernel/FreeRTOS/Source/timers.c **** 				{
 578:../../kernel/FreeRTOS/Source/timers.c **** 					/* Yield to wait for either a command to arrive, or the
 579:../../kernel/FreeRTOS/Source/timers.c **** 					block time to expire.  If a command arrived between the
 580:../../kernel/FreeRTOS/Source/timers.c **** 					critical section being exited and this yield then the yield
 581:../../kernel/FreeRTOS/Source/timers.c **** 					will not cause the task to block. */
 582:../../kernel/FreeRTOS/Source/timers.c **** 					portYIELD_WITHIN_API();
 583:../../kernel/FreeRTOS/Source/timers.c **** 				}
 584:../../kernel/FreeRTOS/Source/timers.c **** 				else
 585:../../kernel/FreeRTOS/Source/timers.c **** 				{
 586:../../kernel/FreeRTOS/Source/timers.c **** 					mtCOVERAGE_TEST_MARKER();
 587:../../kernel/FreeRTOS/Source/timers.c **** 				}
 588:../../kernel/FreeRTOS/Source/timers.c **** 			}
 589:../../kernel/FreeRTOS/Source/timers.c **** 		}
 590:../../kernel/FreeRTOS/Source/timers.c **** 		else
 591:../../kernel/FreeRTOS/Source/timers.c **** 		{
 592:../../kernel/FreeRTOS/Source/timers.c **** 			( void ) xTaskResumeAll();
 593:../../kernel/FreeRTOS/Source/timers.c **** 		}
 594:../../kernel/FreeRTOS/Source/timers.c **** 	}
 595:../../kernel/FreeRTOS/Source/timers.c **** }
 596:../../kernel/FreeRTOS/Source/timers.c **** /*-----------------------------------------------------------*/
 597:../../kernel/FreeRTOS/Source/timers.c **** 
 598:../../kernel/FreeRTOS/Source/timers.c **** static TickType_t prvGetNextExpireTime( BaseType_t * const pxListWasEmpty )
 599:../../kernel/FreeRTOS/Source/timers.c **** {
 600:../../kernel/FreeRTOS/Source/timers.c **** TickType_t xNextExpireTime;
 601:../../kernel/FreeRTOS/Source/timers.c **** 
 602:../../kernel/FreeRTOS/Source/timers.c **** 	/* Timers are listed in expiry time order, with the head of the list
 603:../../kernel/FreeRTOS/Source/timers.c **** 	referencing the task that will expire first.  Obtain the time at which
 604:../../kernel/FreeRTOS/Source/timers.c **** 	the timer with the nearest expiry time will expire.  If there are no
 605:../../kernel/FreeRTOS/Source/timers.c **** 	active timers then just set the next expire time to 0.  That will cause
 606:../../kernel/FreeRTOS/Source/timers.c **** 	this task to unblock when the tick count overflows, at which point the
 607:../../kernel/FreeRTOS/Source/timers.c **** 	timer lists will be switched and the next expiry time can be
 608:../../kernel/FreeRTOS/Source/timers.c **** 	re-assessed.  */
 609:../../kernel/FreeRTOS/Source/timers.c **** 	*pxListWasEmpty = listLIST_IS_EMPTY( pxCurrentTimerList );
 610:../../kernel/FreeRTOS/Source/timers.c **** 	if( *pxListWasEmpty == pdFALSE )
 611:../../kernel/FreeRTOS/Source/timers.c **** 	{
 612:../../kernel/FreeRTOS/Source/timers.c **** 		xNextExpireTime = listGET_ITEM_VALUE_OF_HEAD_ENTRY( pxCurrentTimerList );
 613:../../kernel/FreeRTOS/Source/timers.c **** 	}
 614:../../kernel/FreeRTOS/Source/timers.c **** 	else
 615:../../kernel/FreeRTOS/Source/timers.c **** 	{
 616:../../kernel/FreeRTOS/Source/timers.c **** 		/* Ensure the task unblocks when the tick count rolls over. */
 617:../../kernel/FreeRTOS/Source/timers.c **** 		xNextExpireTime = ( TickType_t ) 0U;
 618:../../kernel/FreeRTOS/Source/timers.c **** 	}
 619:../../kernel/FreeRTOS/Source/timers.c **** 
 620:../../kernel/FreeRTOS/Source/timers.c **** 	return xNextExpireTime;
 621:../../kernel/FreeRTOS/Source/timers.c **** }
 622:../../kernel/FreeRTOS/Source/timers.c **** /*-----------------------------------------------------------*/
 623:../../kernel/FreeRTOS/Source/timers.c **** 
 624:../../kernel/FreeRTOS/Source/timers.c **** static TickType_t prvSampleTimeNow( BaseType_t * const pxTimerListsWereSwitched )
 625:../../kernel/FreeRTOS/Source/timers.c **** {
 626:../../kernel/FreeRTOS/Source/timers.c **** TickType_t xTimeNow;
 627:../../kernel/FreeRTOS/Source/timers.c **** PRIVILEGED_DATA static TickType_t xLastTime = ( TickType_t ) 0U; /*lint !e956 Variable is only acce
 628:../../kernel/FreeRTOS/Source/timers.c **** 
 629:../../kernel/FreeRTOS/Source/timers.c **** 	xTimeNow = xTaskGetTickCount();
 630:../../kernel/FreeRTOS/Source/timers.c **** 
 631:../../kernel/FreeRTOS/Source/timers.c **** 	if( xTimeNow < xLastTime )
ARM GAS  /tmp/cclihgpx.s 			page 14


 632:../../kernel/FreeRTOS/Source/timers.c **** 	{
 633:../../kernel/FreeRTOS/Source/timers.c **** 		prvSwitchTimerLists();
 634:../../kernel/FreeRTOS/Source/timers.c **** 		*pxTimerListsWereSwitched = pdTRUE;
 635:../../kernel/FreeRTOS/Source/timers.c **** 	}
 636:../../kernel/FreeRTOS/Source/timers.c **** 	else
 637:../../kernel/FreeRTOS/Source/timers.c **** 	{
 638:../../kernel/FreeRTOS/Source/timers.c **** 		*pxTimerListsWereSwitched = pdFALSE;
 639:../../kernel/FreeRTOS/Source/timers.c **** 	}
 640:../../kernel/FreeRTOS/Source/timers.c **** 
 641:../../kernel/FreeRTOS/Source/timers.c **** 	xLastTime = xTimeNow;
 642:../../kernel/FreeRTOS/Source/timers.c **** 
 643:../../kernel/FreeRTOS/Source/timers.c **** 	return xTimeNow;
 644:../../kernel/FreeRTOS/Source/timers.c **** }
 645:../../kernel/FreeRTOS/Source/timers.c **** /*-----------------------------------------------------------*/
 646:../../kernel/FreeRTOS/Source/timers.c **** 
 647:../../kernel/FreeRTOS/Source/timers.c **** static BaseType_t prvInsertTimerInActiveList( Timer_t * const pxTimer, const TickType_t xNextExpiry
 648:../../kernel/FreeRTOS/Source/timers.c **** {
 649:../../kernel/FreeRTOS/Source/timers.c **** BaseType_t xProcessTimerNow = pdFALSE;
 650:../../kernel/FreeRTOS/Source/timers.c **** 
 651:../../kernel/FreeRTOS/Source/timers.c **** 	listSET_LIST_ITEM_VALUE( &( pxTimer->xTimerListItem ), xNextExpiryTime );
 652:../../kernel/FreeRTOS/Source/timers.c **** 	listSET_LIST_ITEM_OWNER( &( pxTimer->xTimerListItem ), pxTimer );
 653:../../kernel/FreeRTOS/Source/timers.c **** 
 654:../../kernel/FreeRTOS/Source/timers.c **** 	if( xNextExpiryTime <= xTimeNow )
 655:../../kernel/FreeRTOS/Source/timers.c **** 	{
 656:../../kernel/FreeRTOS/Source/timers.c **** 		/* Has the expiry time elapsed between the command to start/reset a
 657:../../kernel/FreeRTOS/Source/timers.c **** 		timer was issued, and the time the command was processed? */
 658:../../kernel/FreeRTOS/Source/timers.c **** 		if( ( ( TickType_t ) ( xTimeNow - xCommandTime ) ) >= pxTimer->xTimerPeriodInTicks ) /*lint !e961
 659:../../kernel/FreeRTOS/Source/timers.c **** 		{
 660:../../kernel/FreeRTOS/Source/timers.c **** 			/* The time between a command being issued and the command being
 661:../../kernel/FreeRTOS/Source/timers.c **** 			processed actually exceeds the timers period.  */
 662:../../kernel/FreeRTOS/Source/timers.c **** 			xProcessTimerNow = pdTRUE;
 663:../../kernel/FreeRTOS/Source/timers.c **** 		}
 664:../../kernel/FreeRTOS/Source/timers.c **** 		else
 665:../../kernel/FreeRTOS/Source/timers.c **** 		{
 666:../../kernel/FreeRTOS/Source/timers.c **** 			vListInsert( pxOverflowTimerList, &( pxTimer->xTimerListItem ) );
 667:../../kernel/FreeRTOS/Source/timers.c **** 		}
 668:../../kernel/FreeRTOS/Source/timers.c **** 	}
 669:../../kernel/FreeRTOS/Source/timers.c **** 	else
 670:../../kernel/FreeRTOS/Source/timers.c **** 	{
 671:../../kernel/FreeRTOS/Source/timers.c **** 		if( ( xTimeNow < xCommandTime ) && ( xNextExpiryTime >= xCommandTime ) )
 672:../../kernel/FreeRTOS/Source/timers.c **** 		{
 673:../../kernel/FreeRTOS/Source/timers.c **** 			/* If, since the command was issued, the tick count has overflowed
 674:../../kernel/FreeRTOS/Source/timers.c **** 			but the expiry time has not, then the timer must have already passed
 675:../../kernel/FreeRTOS/Source/timers.c **** 			its expiry time and should be processed immediately. */
 676:../../kernel/FreeRTOS/Source/timers.c **** 			xProcessTimerNow = pdTRUE;
 677:../../kernel/FreeRTOS/Source/timers.c **** 		}
 678:../../kernel/FreeRTOS/Source/timers.c **** 		else
 679:../../kernel/FreeRTOS/Source/timers.c **** 		{
 680:../../kernel/FreeRTOS/Source/timers.c **** 			vListInsert( pxCurrentTimerList, &( pxTimer->xTimerListItem ) );
 681:../../kernel/FreeRTOS/Source/timers.c **** 		}
 682:../../kernel/FreeRTOS/Source/timers.c **** 	}
 683:../../kernel/FreeRTOS/Source/timers.c **** 
 684:../../kernel/FreeRTOS/Source/timers.c **** 	return xProcessTimerNow;
 685:../../kernel/FreeRTOS/Source/timers.c **** }
 686:../../kernel/FreeRTOS/Source/timers.c **** /*-----------------------------------------------------------*/
 687:../../kernel/FreeRTOS/Source/timers.c **** 
 688:../../kernel/FreeRTOS/Source/timers.c **** static void	prvProcessReceivedCommands( void )
ARM GAS  /tmp/cclihgpx.s 			page 15


 689:../../kernel/FreeRTOS/Source/timers.c **** {
 690:../../kernel/FreeRTOS/Source/timers.c **** DaemonTaskMessage_t xMessage;
 691:../../kernel/FreeRTOS/Source/timers.c **** Timer_t *pxTimer;
 692:../../kernel/FreeRTOS/Source/timers.c **** BaseType_t xTimerListsWereSwitched, xResult;
 693:../../kernel/FreeRTOS/Source/timers.c **** TickType_t xTimeNow;
 694:../../kernel/FreeRTOS/Source/timers.c **** 
 695:../../kernel/FreeRTOS/Source/timers.c **** 	while( xQueueReceive( xTimerQueue, &xMessage, tmrNO_DELAY ) != pdFAIL ) /*lint !e603 xMessage does
 696:../../kernel/FreeRTOS/Source/timers.c **** 	{
 697:../../kernel/FreeRTOS/Source/timers.c **** 		#if ( INCLUDE_xTimerPendFunctionCall == 1 )
 698:../../kernel/FreeRTOS/Source/timers.c **** 		{
 699:../../kernel/FreeRTOS/Source/timers.c **** 			/* Negative commands are pended function calls rather than timer
 700:../../kernel/FreeRTOS/Source/timers.c **** 			commands. */
 701:../../kernel/FreeRTOS/Source/timers.c **** 			if( xMessage.xMessageID < ( BaseType_t ) 0 )
 702:../../kernel/FreeRTOS/Source/timers.c **** 			{
 703:../../kernel/FreeRTOS/Source/timers.c **** 				const CallbackParameters_t * const pxCallback = &( xMessage.u.xCallbackParameters );
 704:../../kernel/FreeRTOS/Source/timers.c **** 
 705:../../kernel/FreeRTOS/Source/timers.c **** 				/* The timer uses the xCallbackParameters member to request a
 706:../../kernel/FreeRTOS/Source/timers.c **** 				callback be executed.  Check the callback is not NULL. */
 707:../../kernel/FreeRTOS/Source/timers.c **** 				configASSERT( pxCallback );
 708:../../kernel/FreeRTOS/Source/timers.c **** 
 709:../../kernel/FreeRTOS/Source/timers.c **** 				/* Call the function. */
 710:../../kernel/FreeRTOS/Source/timers.c **** 				pxCallback->pxCallbackFunction( pxCallback->pvParameter1, pxCallback->ulParameter2 );
 711:../../kernel/FreeRTOS/Source/timers.c **** 			}
 712:../../kernel/FreeRTOS/Source/timers.c **** 			else
 713:../../kernel/FreeRTOS/Source/timers.c **** 			{
 714:../../kernel/FreeRTOS/Source/timers.c **** 				mtCOVERAGE_TEST_MARKER();
 715:../../kernel/FreeRTOS/Source/timers.c **** 			}
 716:../../kernel/FreeRTOS/Source/timers.c **** 		}
 717:../../kernel/FreeRTOS/Source/timers.c **** 		#endif /* INCLUDE_xTimerPendFunctionCall */
 718:../../kernel/FreeRTOS/Source/timers.c **** 
 719:../../kernel/FreeRTOS/Source/timers.c **** 		/* Commands that are positive are timer commands rather than pended
 720:../../kernel/FreeRTOS/Source/timers.c **** 		function calls. */
 721:../../kernel/FreeRTOS/Source/timers.c **** 		if( xMessage.xMessageID >= ( BaseType_t ) 0 )
 722:../../kernel/FreeRTOS/Source/timers.c **** 		{
 723:../../kernel/FreeRTOS/Source/timers.c **** 			/* The messages uses the xTimerParameters member to work on a
 724:../../kernel/FreeRTOS/Source/timers.c **** 			software timer. */
 725:../../kernel/FreeRTOS/Source/timers.c **** 			pxTimer = xMessage.u.xTimerParameters.pxTimer;
 726:../../kernel/FreeRTOS/Source/timers.c **** 
 727:../../kernel/FreeRTOS/Source/timers.c **** 			if( listIS_CONTAINED_WITHIN( NULL, &( pxTimer->xTimerListItem ) ) == pdFALSE ) /*lint !e961. The
 728:../../kernel/FreeRTOS/Source/timers.c **** 			{
 729:../../kernel/FreeRTOS/Source/timers.c **** 				/* The timer is in a list, remove it. */
 730:../../kernel/FreeRTOS/Source/timers.c **** 				( void ) uxListRemove( &( pxTimer->xTimerListItem ) );
 731:../../kernel/FreeRTOS/Source/timers.c **** 			}
 732:../../kernel/FreeRTOS/Source/timers.c **** 			else
 733:../../kernel/FreeRTOS/Source/timers.c **** 			{
 734:../../kernel/FreeRTOS/Source/timers.c **** 				mtCOVERAGE_TEST_MARKER();
 735:../../kernel/FreeRTOS/Source/timers.c **** 			}
 736:../../kernel/FreeRTOS/Source/timers.c **** 
 737:../../kernel/FreeRTOS/Source/timers.c **** 			traceTIMER_COMMAND_RECEIVED( pxTimer, xMessage.xMessageID, xMessage.u.xTimerParameters.xMessageV
 738:../../kernel/FreeRTOS/Source/timers.c **** 
 739:../../kernel/FreeRTOS/Source/timers.c **** 			/* In this case the xTimerListsWereSwitched parameter is not used, but
 740:../../kernel/FreeRTOS/Source/timers.c **** 			it must be present in the function call.  prvSampleTimeNow() must be
 741:../../kernel/FreeRTOS/Source/timers.c **** 			called after the message is received from xTimerQueue so there is no
 742:../../kernel/FreeRTOS/Source/timers.c **** 			possibility of a higher priority task adding a message to the message
 743:../../kernel/FreeRTOS/Source/timers.c **** 			queue with a time that is ahead of the timer daemon task (because it
 744:../../kernel/FreeRTOS/Source/timers.c **** 			pre-empted the timer daemon task after the xTimeNow value was set). */
 745:../../kernel/FreeRTOS/Source/timers.c **** 			xTimeNow = prvSampleTimeNow( &xTimerListsWereSwitched );
ARM GAS  /tmp/cclihgpx.s 			page 16


 746:../../kernel/FreeRTOS/Source/timers.c **** 
 747:../../kernel/FreeRTOS/Source/timers.c **** 			switch( xMessage.xMessageID )
 748:../../kernel/FreeRTOS/Source/timers.c **** 			{
 749:../../kernel/FreeRTOS/Source/timers.c **** 				case tmrCOMMAND_START :
 750:../../kernel/FreeRTOS/Source/timers.c **** 			    case tmrCOMMAND_START_FROM_ISR :
 751:../../kernel/FreeRTOS/Source/timers.c **** 			    case tmrCOMMAND_RESET :
 752:../../kernel/FreeRTOS/Source/timers.c **** 			    case tmrCOMMAND_RESET_FROM_ISR :
 753:../../kernel/FreeRTOS/Source/timers.c **** 				case tmrCOMMAND_START_DONT_TRACE :
 754:../../kernel/FreeRTOS/Source/timers.c **** 					/* Start or restart a timer. */
 755:../../kernel/FreeRTOS/Source/timers.c **** 					if( prvInsertTimerInActiveList( pxTimer,  xMessage.u.xTimerParameters.xMessageValue + pxTimer-
 756:../../kernel/FreeRTOS/Source/timers.c **** 					{
 757:../../kernel/FreeRTOS/Source/timers.c **** 						/* The timer expired before it was added to the active
 758:../../kernel/FreeRTOS/Source/timers.c **** 						timer list.  Process it now. */
 759:../../kernel/FreeRTOS/Source/timers.c **** 						pxTimer->pxCallbackFunction( ( TimerHandle_t ) pxTimer );
 760:../../kernel/FreeRTOS/Source/timers.c **** 						traceTIMER_EXPIRED( pxTimer );
 761:../../kernel/FreeRTOS/Source/timers.c **** 
 762:../../kernel/FreeRTOS/Source/timers.c **** 						if( pxTimer->uxAutoReload == ( UBaseType_t ) pdTRUE )
 763:../../kernel/FreeRTOS/Source/timers.c **** 						{
 764:../../kernel/FreeRTOS/Source/timers.c **** 							xResult = xTimerGenericCommand( pxTimer, tmrCOMMAND_START_DONT_TRACE, xMessage.u.xTimerParam
 765:../../kernel/FreeRTOS/Source/timers.c **** 							configASSERT( xResult );
 766:../../kernel/FreeRTOS/Source/timers.c **** 							( void ) xResult;
 767:../../kernel/FreeRTOS/Source/timers.c **** 						}
 768:../../kernel/FreeRTOS/Source/timers.c **** 						else
 769:../../kernel/FreeRTOS/Source/timers.c **** 						{
 770:../../kernel/FreeRTOS/Source/timers.c **** 							mtCOVERAGE_TEST_MARKER();
 771:../../kernel/FreeRTOS/Source/timers.c **** 						}
 772:../../kernel/FreeRTOS/Source/timers.c **** 					}
 773:../../kernel/FreeRTOS/Source/timers.c **** 					else
 774:../../kernel/FreeRTOS/Source/timers.c **** 					{
 775:../../kernel/FreeRTOS/Source/timers.c **** 						mtCOVERAGE_TEST_MARKER();
 776:../../kernel/FreeRTOS/Source/timers.c **** 					}
 777:../../kernel/FreeRTOS/Source/timers.c **** 					break;
 778:../../kernel/FreeRTOS/Source/timers.c **** 
 779:../../kernel/FreeRTOS/Source/timers.c **** 				case tmrCOMMAND_STOP :
 780:../../kernel/FreeRTOS/Source/timers.c **** 				case tmrCOMMAND_STOP_FROM_ISR :
 781:../../kernel/FreeRTOS/Source/timers.c **** 					/* The timer has already been removed from the active list.
 782:../../kernel/FreeRTOS/Source/timers.c **** 					There is nothing to do here. */
 783:../../kernel/FreeRTOS/Source/timers.c **** 					break;
 784:../../kernel/FreeRTOS/Source/timers.c **** 
 785:../../kernel/FreeRTOS/Source/timers.c **** 				case tmrCOMMAND_CHANGE_PERIOD :
 786:../../kernel/FreeRTOS/Source/timers.c **** 				case tmrCOMMAND_CHANGE_PERIOD_FROM_ISR :
 787:../../kernel/FreeRTOS/Source/timers.c **** 					pxTimer->xTimerPeriodInTicks = xMessage.u.xTimerParameters.xMessageValue;
 788:../../kernel/FreeRTOS/Source/timers.c **** 					configASSERT( ( pxTimer->xTimerPeriodInTicks > 0 ) );
 789:../../kernel/FreeRTOS/Source/timers.c **** 
 790:../../kernel/FreeRTOS/Source/timers.c **** 					/* The new period does not really have a reference, and can
 791:../../kernel/FreeRTOS/Source/timers.c **** 					be longer or shorter than the old one.  The command time is
 792:../../kernel/FreeRTOS/Source/timers.c **** 					therefore set to the current time, and as the period cannot
 793:../../kernel/FreeRTOS/Source/timers.c **** 					be zero the next expiry time can only be in the future,
 794:../../kernel/FreeRTOS/Source/timers.c **** 					meaning (unlike for the xTimerStart() case above) there is
 795:../../kernel/FreeRTOS/Source/timers.c **** 					no fail case that needs to be handled here. */
 796:../../kernel/FreeRTOS/Source/timers.c **** 					( void ) prvInsertTimerInActiveList( pxTimer, ( xTimeNow + pxTimer->xTimerPeriodInTicks ), xTi
 797:../../kernel/FreeRTOS/Source/timers.c **** 					break;
 798:../../kernel/FreeRTOS/Source/timers.c **** 
 799:../../kernel/FreeRTOS/Source/timers.c **** 				case tmrCOMMAND_DELETE :
 800:../../kernel/FreeRTOS/Source/timers.c **** 					/* The timer has already been removed from the active list,
 801:../../kernel/FreeRTOS/Source/timers.c **** 					just free up the memory if the memory was dynamically
 802:../../kernel/FreeRTOS/Source/timers.c **** 					allocated. */
ARM GAS  /tmp/cclihgpx.s 			page 17


 803:../../kernel/FreeRTOS/Source/timers.c **** 					#if( ( configSUPPORT_DYNAMIC_ALLOCATION == 1 ) && ( configSUPPORT_STATIC_ALLOCATION == 0 ) )
 804:../../kernel/FreeRTOS/Source/timers.c **** 					{
 805:../../kernel/FreeRTOS/Source/timers.c **** 						/* The timer can only have been allocated dynamically -
 806:../../kernel/FreeRTOS/Source/timers.c **** 						free it again. */
 807:../../kernel/FreeRTOS/Source/timers.c **** 						vPortFree( pxTimer );
 808:../../kernel/FreeRTOS/Source/timers.c **** 					}
 809:../../kernel/FreeRTOS/Source/timers.c **** 					#elif( ( configSUPPORT_DYNAMIC_ALLOCATION == 1 ) && ( configSUPPORT_STATIC_ALLOCATION == 1 ) )
 810:../../kernel/FreeRTOS/Source/timers.c **** 					{
 811:../../kernel/FreeRTOS/Source/timers.c **** 						/* The timer could have been allocated statically or
 812:../../kernel/FreeRTOS/Source/timers.c **** 						dynamically, so check before attempting to free the
 813:../../kernel/FreeRTOS/Source/timers.c **** 						memory. */
 814:../../kernel/FreeRTOS/Source/timers.c **** 						if( pxTimer->ucStaticallyAllocated == ( uint8_t ) pdFALSE )
 815:../../kernel/FreeRTOS/Source/timers.c **** 						{
 816:../../kernel/FreeRTOS/Source/timers.c **** 							vPortFree( pxTimer );
 817:../../kernel/FreeRTOS/Source/timers.c **** 						}
 818:../../kernel/FreeRTOS/Source/timers.c **** 						else
 819:../../kernel/FreeRTOS/Source/timers.c **** 						{
 820:../../kernel/FreeRTOS/Source/timers.c **** 							mtCOVERAGE_TEST_MARKER();
 821:../../kernel/FreeRTOS/Source/timers.c **** 						}
 822:../../kernel/FreeRTOS/Source/timers.c **** 					}
 823:../../kernel/FreeRTOS/Source/timers.c **** 					#endif /* configSUPPORT_DYNAMIC_ALLOCATION */
 824:../../kernel/FreeRTOS/Source/timers.c **** 					break;
 825:../../kernel/FreeRTOS/Source/timers.c **** 
 826:../../kernel/FreeRTOS/Source/timers.c **** 				default	:
 827:../../kernel/FreeRTOS/Source/timers.c **** 					/* Don't expect to get here. */
 828:../../kernel/FreeRTOS/Source/timers.c **** 					break;
 829:../../kernel/FreeRTOS/Source/timers.c **** 			}
 830:../../kernel/FreeRTOS/Source/timers.c **** 		}
 831:../../kernel/FreeRTOS/Source/timers.c **** 	}
 832:../../kernel/FreeRTOS/Source/timers.c **** }
 833:../../kernel/FreeRTOS/Source/timers.c **** /*-----------------------------------------------------------*/
 834:../../kernel/FreeRTOS/Source/timers.c **** 
 835:../../kernel/FreeRTOS/Source/timers.c **** static void prvSwitchTimerLists( void )
 836:../../kernel/FreeRTOS/Source/timers.c **** {
 111              		.loc 1 836 1 view -0
 112              		.cfi_startproc
 113              		@ args = 0, pretend = 0, frame = 16
 114              		@ frame_needed = 0, uses_anonymous_args = 0
 837:../../kernel/FreeRTOS/Source/timers.c **** TickType_t xNextExpireTime, xReloadTime;
 115              		.loc 1 837 1 view .LVU1
 838:../../kernel/FreeRTOS/Source/timers.c **** List_t *pxTemp;
 116              		.loc 1 838 1 view .LVU2
 839:../../kernel/FreeRTOS/Source/timers.c **** Timer_t *pxTimer;
 117              		.loc 1 839 1 view .LVU3
 840:../../kernel/FreeRTOS/Source/timers.c **** BaseType_t xResult;
 118              		.loc 1 840 1 view .LVU4
 841:../../kernel/FreeRTOS/Source/timers.c **** 
 842:../../kernel/FreeRTOS/Source/timers.c **** 	/* The tick count has overflowed.  The timer lists must be switched.
 843:../../kernel/FreeRTOS/Source/timers.c **** 	If there are any timers still referenced from the current timer list
 844:../../kernel/FreeRTOS/Source/timers.c **** 	then they must have expired and should be processed before the lists
 845:../../kernel/FreeRTOS/Source/timers.c **** 	are switched. */
 846:../../kernel/FreeRTOS/Source/timers.c **** 	while( listLIST_IS_EMPTY( pxCurrentTimerList ) == pdFALSE )
 119              		.loc 1 846 2 view .LVU5
 120              	@ ../../kernel/FreeRTOS/Source/timers.c:836: {
 836:../../kernel/FreeRTOS/Source/timers.c **** TickType_t xNextExpireTime, xReloadTime;
 121              		.loc 1 836 1 is_stmt 0 view .LVU6
 122 0000 2DE9F043 		push	{r4, r5, r6, r7, r8, r9, lr}	@
ARM GAS  /tmp/cclihgpx.s 			page 18


 123              		.cfi_def_cfa_offset 28
 124              		.cfi_offset 4, -28
 125              		.cfi_offset 5, -24
 126              		.cfi_offset 6, -20
 127              		.cfi_offset 7, -16
 128              		.cfi_offset 8, -12
 129              		.cfi_offset 9, -8
 130              		.cfi_offset 14, -4
 131 0004 214E     		ldr	r6, .L14	@ tmp143,
 132              	.LBB68:
 133              	.LBB69:
 134              	@ ../../kernel/FreeRTOS/Source/timers.c:390: 	if( xTimerQueue != NULL )
 390:../../kernel/FreeRTOS/Source/timers.c **** 	{
 135              		.loc 1 390 18 view .LVU7
 136 0006 DFF88C90 		ldr	r9, .L14+8	@ tmp144,
 137              	.LBE69:
 138              	.LBE68:
 139              	@ ../../kernel/FreeRTOS/Source/timers.c:836: {
 836:../../kernel/FreeRTOS/Source/timers.c **** TickType_t xNextExpireTime, xReloadTime;
 140              		.loc 1 836 1 view .LVU8
 141 000a 85B0     		sub	sp, sp, #20	@,,
 142              		.cfi_def_cfa_offset 48
 143              	.LBB73:
 144              	.LBB70:
 145              	@ ../../kernel/FreeRTOS/Source/timers.c:393: 		xMessage.xMessageID = xCommandID;
 393:../../kernel/FreeRTOS/Source/timers.c **** 		xMessage.u.xTimerParameters.xMessageValue = xOptionalValue;
 146              		.loc 1 393 23 view .LVU9
 147 000c 4FF00008 		mov	r8, #0	@ tmp145,
 148              	.LBE70:
 149              	.LBE73:
 150              	@ ../../kernel/FreeRTOS/Source/timers.c:846: 	while( listLIST_IS_EMPTY( pxCurrentTimerList ) == pdF
 151              		.loc 1 846 7 view .LVU10
 152 0010 0CE0     		b	.L3		@
 153              	.L9:
 154              	@ ../../kernel/FreeRTOS/Source/timers.c:848: 		xNextExpireTime = listGET_ITEM_VALUE_OF_HEAD_ENTRY( 
 847:../../kernel/FreeRTOS/Source/timers.c **** 	{
 848:../../kernel/FreeRTOS/Source/timers.c **** 		xNextExpireTime = listGET_ITEM_VALUE_OF_HEAD_ENTRY( pxCurrentTimerList );
 155              		.loc 1 848 21 view .LVU11
 156 0012 DB68     		ldr	r3, [r3, #12]	@ _2, pxCurrentTimerList.15_11->xListEnd.pxNext
 157              	@ ../../kernel/FreeRTOS/Source/timers.c:851: 		pxTimer = ( Timer_t * ) listGET_OWNER_OF_HEAD_ENTRY(
 849:../../kernel/FreeRTOS/Source/timers.c **** 
 850:../../kernel/FreeRTOS/Source/timers.c **** 		/* Remove the timer from the list. */
 851:../../kernel/FreeRTOS/Source/timers.c **** 		pxTimer = ( Timer_t * ) listGET_OWNER_OF_HEAD_ENTRY( pxCurrentTimerList );
 158              		.loc 1 851 11 view .LVU12
 159 0014 DC68     		ldr	r4, [r3, #12]	@ pxTimer, _2->pvOwner
 160              	@ ../../kernel/FreeRTOS/Source/timers.c:848: 		xNextExpireTime = listGET_ITEM_VALUE_OF_HEAD_ENTRY( 
 848:../../kernel/FreeRTOS/Source/timers.c **** 
 161              		.loc 1 848 19 view .LVU13
 162 0016 1F68     		ldr	r7, [r3]	@ xNextExpireTime, _2->xItemValue
 163              	.LVL0:
 164              		.loc 1 851 3 is_stmt 1 view .LVU14
 852:../../kernel/FreeRTOS/Source/timers.c **** 		( void ) uxListRemove( &( pxTimer->xTimerListItem ) );
 165              		.loc 1 852 3 view .LVU15
 166              	@ ../../kernel/FreeRTOS/Source/timers.c:852: 		( void ) uxListRemove( &( pxTimer->xTimerListItem ) 
 167              		.loc 1 852 12 is_stmt 0 view .LVU16
 168 0018 251D     		adds	r5, r4, #4	@ _5, pxTimer,
 169 001a 2846     		mov	r0, r5	@, _5
ARM GAS  /tmp/cclihgpx.s 			page 19


 170 001c FFF7FEFF 		bl	uxListRemove		@
 171              	.LVL1:
 853:../../kernel/FreeRTOS/Source/timers.c **** 		traceTIMER_EXPIRED( pxTimer );
 172              		.loc 1 853 32 is_stmt 1 view .LVU17
 854:../../kernel/FreeRTOS/Source/timers.c **** 
 855:../../kernel/FreeRTOS/Source/timers.c **** 		/* Execute its callback, then send a command to restart the timer if
 856:../../kernel/FreeRTOS/Source/timers.c **** 		it is an auto-reload timer.  It cannot be restarted here as the lists
 857:../../kernel/FreeRTOS/Source/timers.c **** 		have not yet been switched. */
 858:../../kernel/FreeRTOS/Source/timers.c **** 		pxTimer->pxCallbackFunction( ( TimerHandle_t ) pxTimer );
 173              		.loc 1 858 3 view .LVU18
 174 0020 636A     		ldr	r3, [r4, #36]	@ pxTimer_17->pxCallbackFunction, pxTimer_17->pxCallbackFunction
 175 0022 2046     		mov	r0, r4	@, pxTimer
 176 0024 9847     		blx	r3		@ pxTimer_17->pxCallbackFunction
 177              	.LVL2:
 859:../../kernel/FreeRTOS/Source/timers.c **** 
 860:../../kernel/FreeRTOS/Source/timers.c **** 		if( pxTimer->uxAutoReload == ( UBaseType_t ) pdTRUE )
 178              		.loc 1 860 3 view .LVU19
 179              	@ ../../kernel/FreeRTOS/Source/timers.c:860: 		if( pxTimer->uxAutoReload == ( UBaseType_t ) pdTRUE 
 180              		.loc 1 860 5 is_stmt 0 view .LVU20
 181 0026 E369     		ldr	r3, [r4, #28]	@ pxTimer_17->uxAutoReload, pxTimer_17->uxAutoReload
 182 0028 012B     		cmp	r3, #1	@ pxTimer_17->uxAutoReload,
 183 002a 0AD0     		beq	.L13		@,
 184              	.LVL3:
 185              	.L3:
 848:../../kernel/FreeRTOS/Source/timers.c **** 
 186              		.loc 1 848 3 is_stmt 1 view .LVU21
 861:../../kernel/FreeRTOS/Source/timers.c **** 		{
 862:../../kernel/FreeRTOS/Source/timers.c **** 			/* Calculate the reload value, and if the reload value results in
 863:../../kernel/FreeRTOS/Source/timers.c **** 			the timer going into the same timer list then it has already expired
 864:../../kernel/FreeRTOS/Source/timers.c **** 			and the timer should be re-inserted into the current list so it is
 865:../../kernel/FreeRTOS/Source/timers.c **** 			processed again within this loop.  Otherwise a command should be sent
 866:../../kernel/FreeRTOS/Source/timers.c **** 			to restart the timer to ensure it is only inserted into a list after
 867:../../kernel/FreeRTOS/Source/timers.c **** 			the lists have been swapped. */
 868:../../kernel/FreeRTOS/Source/timers.c **** 			xReloadTime = ( xNextExpireTime + pxTimer->xTimerPeriodInTicks );
 869:../../kernel/FreeRTOS/Source/timers.c **** 			if( xReloadTime > xNextExpireTime )
 870:../../kernel/FreeRTOS/Source/timers.c **** 			{
 871:../../kernel/FreeRTOS/Source/timers.c **** 				listSET_LIST_ITEM_VALUE( &( pxTimer->xTimerListItem ), xReloadTime );
 872:../../kernel/FreeRTOS/Source/timers.c **** 				listSET_LIST_ITEM_OWNER( &( pxTimer->xTimerListItem ), pxTimer );
 873:../../kernel/FreeRTOS/Source/timers.c **** 				vListInsert( pxCurrentTimerList, &( pxTimer->xTimerListItem ) );
 874:../../kernel/FreeRTOS/Source/timers.c **** 			}
 875:../../kernel/FreeRTOS/Source/timers.c **** 			else
 876:../../kernel/FreeRTOS/Source/timers.c **** 			{
 877:../../kernel/FreeRTOS/Source/timers.c **** 				xResult = xTimerGenericCommand( pxTimer, tmrCOMMAND_START_DONT_TRACE, xNextExpireTime, NULL, tm
 878:../../kernel/FreeRTOS/Source/timers.c **** 				configASSERT( xResult );
 879:../../kernel/FreeRTOS/Source/timers.c **** 				( void ) xResult;
 880:../../kernel/FreeRTOS/Source/timers.c **** 			}
 881:../../kernel/FreeRTOS/Source/timers.c **** 		}
 882:../../kernel/FreeRTOS/Source/timers.c **** 		else
 883:../../kernel/FreeRTOS/Source/timers.c **** 		{
 884:../../kernel/FreeRTOS/Source/timers.c **** 			mtCOVERAGE_TEST_MARKER();
 187              		.loc 1 884 28 view .LVU22
 188              	@ ../../kernel/FreeRTOS/Source/timers.c:846: 	while( listLIST_IS_EMPTY( pxCurrentTimerList ) == pdF
 846:../../kernel/FreeRTOS/Source/timers.c **** 	{
 189              		.loc 1 846 9 is_stmt 0 view .LVU23
 190 002c 3368     		ldr	r3, [r6]	@ pxCurrentTimerList.15_11, pxCurrentTimerList
 191 002e 1A68     		ldr	r2, [r3]	@ _12, pxCurrentTimerList.15_11->uxNumberOfItems
 192              	@ ../../kernel/FreeRTOS/Source/timers.c:846: 	while( listLIST_IS_EMPTY( pxCurrentTimerList ) == pdF
ARM GAS  /tmp/cclihgpx.s 			page 20


 846:../../kernel/FreeRTOS/Source/timers.c **** 	{
 193              		.loc 1 846 7 view .LVU24
 194 0030 002A     		cmp	r2, #0	@ _12
 195 0032 EED1     		bne	.L9	@
 885:../../kernel/FreeRTOS/Source/timers.c **** 		}
 886:../../kernel/FreeRTOS/Source/timers.c **** 	}
 887:../../kernel/FreeRTOS/Source/timers.c **** 
 888:../../kernel/FreeRTOS/Source/timers.c **** 	pxTemp = pxCurrentTimerList;
 196              		.loc 1 888 2 is_stmt 1 view .LVU25
 197              	.LVL4:
 889:../../kernel/FreeRTOS/Source/timers.c **** 	pxCurrentTimerList = pxOverflowTimerList;
 198              		.loc 1 889 2 view .LVU26
 199              	@ ../../kernel/FreeRTOS/Source/timers.c:889: 	pxCurrentTimerList = pxOverflowTimerList;
 200              		.loc 1 889 21 is_stmt 0 view .LVU27
 201 0034 164A     		ldr	r2, .L14+4	@ tmp140,
 202 0036 1168     		ldr	r1, [r2]	@ pxOverflowTimerList, pxOverflowTimerList
 203 0038 3160     		str	r1, [r6]	@ pxOverflowTimerList, pxCurrentTimerList
 890:../../kernel/FreeRTOS/Source/timers.c **** 	pxOverflowTimerList = pxTemp;
 204              		.loc 1 890 2 is_stmt 1 view .LVU28
 205              	@ ../../kernel/FreeRTOS/Source/timers.c:890: 	pxOverflowTimerList = pxTemp;
 206              		.loc 1 890 22 is_stmt 0 view .LVU29
 207 003a 1360     		str	r3, [r2]	@ pxCurrentTimerList.15_11, pxOverflowTimerList
 208              	@ ../../kernel/FreeRTOS/Source/timers.c:891: }
 891:../../kernel/FreeRTOS/Source/timers.c **** }
 209              		.loc 1 891 1 view .LVU30
 210 003c 05B0     		add	sp, sp, #20	@,,
 211              		.cfi_remember_state
 212              		.cfi_def_cfa_offset 28
 213              		@ sp needed	@
 214 003e BDE8F083 		pop	{r4, r5, r6, r7, r8, r9, pc}	@
 215              	.LVL5:
 216              	.L13:
 217              		.cfi_restore_state
 868:../../kernel/FreeRTOS/Source/timers.c **** 			if( xReloadTime > xNextExpireTime )
 218              		.loc 1 868 4 is_stmt 1 view .LVU31
 871:../../kernel/FreeRTOS/Source/timers.c **** 				listSET_LIST_ITEM_OWNER( &( pxTimer->xTimerListItem ), pxTimer );
 219              		.loc 1 871 5 view .LVU32
 877:../../kernel/FreeRTOS/Source/timers.c **** 				configASSERT( xResult );
 220              		.loc 1 877 5 view .LVU33
 221              	.LBB74:
 222              	.LBI68:
 381:../../kernel/FreeRTOS/Source/timers.c **** {
 223              		.loc 1 381 12 view .LVU34
 224              	.LBB71:
 383:../../kernel/FreeRTOS/Source/timers.c **** DaemonTaskMessage_t xMessage;
 225              		.loc 1 383 1 view .LVU35
 384:../../kernel/FreeRTOS/Source/timers.c **** 
 226              		.loc 1 384 1 view .LVU36
 386:../../kernel/FreeRTOS/Source/timers.c **** 
 227              		.loc 1 386 2 view .LVU37
 386:../../kernel/FreeRTOS/Source/timers.c **** 
 228              		.loc 1 386 24 view .LVU38
 390:../../kernel/FreeRTOS/Source/timers.c **** 	{
 229              		.loc 1 390 2 view .LVU39
 230              	.LBE71:
 231              	.LBE74:
 232              	@ ../../kernel/FreeRTOS/Source/timers.c:868: 			xReloadTime = ( xNextExpireTime + pxTimer->xTimerPe
ARM GAS  /tmp/cclihgpx.s 			page 21


 868:../../kernel/FreeRTOS/Source/timers.c **** 			if( xReloadTime > xNextExpireTime )
 233              		.loc 1 868 16 is_stmt 0 view .LVU40
 234 0042 A369     		ldr	r3, [r4, #24]	@ pxTimer_17->xTimerPeriodInTicks, pxTimer_17->xTimerPeriodInTicks
 235 0044 3B44     		add	r3, r3, r7	@ xReloadTime, xNextExpireTime
 236              	.LVL6:
 869:../../kernel/FreeRTOS/Source/timers.c **** 			{
 237              		.loc 1 869 4 is_stmt 1 view .LVU41
 238              	@ ../../kernel/FreeRTOS/Source/timers.c:869: 			if( xReloadTime > xNextExpireTime )
 869:../../kernel/FreeRTOS/Source/timers.c **** 			{
 239              		.loc 1 869 6 is_stmt 0 view .LVU42
 240 0046 9F42     		cmp	r7, r3	@ xNextExpireTime, xReloadTime
 241              	@ ../../kernel/FreeRTOS/Source/timers.c:873: 				vListInsert( pxCurrentTimerList, &( pxTimer->xTime
 873:../../kernel/FreeRTOS/Source/timers.c **** 			}
 242              		.loc 1 873 5 view .LVU43
 243 0048 2946     		mov	r1, r5	@, _5
 244              	@ ../../kernel/FreeRTOS/Source/timers.c:869: 			if( xReloadTime > xNextExpireTime )
 869:../../kernel/FreeRTOS/Source/timers.c **** 			{
 245              		.loc 1 869 6 view .LVU44
 246 004a 05D2     		bcs	.L4		@,
 247              	@ ../../kernel/FreeRTOS/Source/timers.c:871: 				listSET_LIST_ITEM_VALUE( &( pxTimer->xTimerListIte
 871:../../kernel/FreeRTOS/Source/timers.c **** 				listSET_LIST_ITEM_OWNER( &( pxTimer->xTimerListItem ), pxTimer );
 248              		.loc 1 871 5 view .LVU45
 249 004c 6360     		str	r3, [r4, #4]	@ xReloadTime, pxTimer_17->xTimerListItem.xItemValue
 872:../../kernel/FreeRTOS/Source/timers.c **** 				vListInsert( pxCurrentTimerList, &( pxTimer->xTimerListItem ) );
 250              		.loc 1 872 5 is_stmt 1 view .LVU46
 251 004e 2461     		str	r4, [r4, #16]	@ pxTimer, pxTimer_17->xTimerListItem.pvOwner
 873:../../kernel/FreeRTOS/Source/timers.c **** 			}
 252              		.loc 1 873 5 view .LVU47
 253 0050 3068     		ldr	r0, [r6]	@, pxCurrentTimerList
 254 0052 FFF7FEFF 		bl	vListInsert		@
 255              	.LVL7:
 873:../../kernel/FreeRTOS/Source/timers.c **** 			}
 256              		.loc 1 873 5 is_stmt 0 view .LVU48
 257 0056 E9E7     		b	.L3		@
 258              	.LVL8:
 259              	.L4:
 260              	.LBB75:
 261              	.LBB72:
 393:../../kernel/FreeRTOS/Source/timers.c **** 		xMessage.u.xTimerParameters.xMessageValue = xOptionalValue;
 262              		.loc 1 393 3 is_stmt 1 view .LVU49
 263              	@ ../../kernel/FreeRTOS/Source/timers.c:390: 	if( xTimerQueue != NULL )
 390:../../kernel/FreeRTOS/Source/timers.c **** 	{
 264              		.loc 1 390 4 is_stmt 0 view .LVU50
 265 0058 D9F80030 		ldr	r3, [r9]	@ xTimerQueue, xTimerQueue
 266              	.LVL9:
 390:../../kernel/FreeRTOS/Source/timers.c **** 	{
 267              		.loc 1 390 4 view .LVU51
 268 005c 6BB1     		cbz	r3, .L7	@ xTimerQueue,
 269              	@ ../../kernel/FreeRTOS/Source/timers.c:394: 		xMessage.u.xTimerParameters.xMessageValue = xOptiona
 394:../../kernel/FreeRTOS/Source/timers.c **** 		xMessage.u.xTimerParameters.pxTimer = ( Timer_t * ) xTimer;
 270              		.loc 1 394 45 view .LVU52
 271 005e CDE90087 		strd	r8, r7, [sp]	@ tmp145, xNextExpireTime,
 395:../../kernel/FreeRTOS/Source/timers.c **** 
 272              		.loc 1 395 3 is_stmt 1 view .LVU53
 273              	@ ../../kernel/FreeRTOS/Source/timers.c:395: 		xMessage.u.xTimerParameters.pxTimer = ( Timer_t * ) 
 395:../../kernel/FreeRTOS/Source/timers.c **** 
 274              		.loc 1 395 39 is_stmt 0 view .LVU54
ARM GAS  /tmp/cclihgpx.s 			page 22


 275 0062 0294     		str	r4, [sp, #8]	@ pxTimer, xMessage.u.xTimerParameters.pxTimer
 397:../../kernel/FreeRTOS/Source/timers.c **** 		{
 276              		.loc 1 397 3 is_stmt 1 view .LVU55
 399:../../kernel/FreeRTOS/Source/timers.c **** 			{
 277              		.loc 1 399 4 view .LVU56
 278              	@ ../../kernel/FreeRTOS/Source/timers.c:399: 			if( xTaskGetSchedulerState() == taskSCHEDULER_RUNNI
 399:../../kernel/FreeRTOS/Source/timers.c **** 			{
 279              		.loc 1 399 8 is_stmt 0 view .LVU57
 280 0064 FFF7FEFF 		bl	xTaskGetSchedulerState		@
 281              	.LVL10:
 401:../../kernel/FreeRTOS/Source/timers.c **** 			}
 282              		.loc 1 401 5 is_stmt 1 view .LVU58
 283              	@ ../../kernel/FreeRTOS/Source/timers.c:401: 				xReturn = xQueueSendToBack( xTimerQueue, &xMessage
 401:../../kernel/FreeRTOS/Source/timers.c **** 			}
 284              		.loc 1 401 15 is_stmt 0 view .LVU59
 285 0068 0023     		movs	r3, #0	@,
 286 006a 1A46     		mov	r2, r3	@,
 287 006c 6946     		mov	r1, sp	@,
 288 006e D9F80000 		ldr	r0, [r9]	@, xTimerQueue
 289 0072 FFF7FEFF 		bl	xQueueGenericSend		@
 290              	.LVL11:
 417:../../kernel/FreeRTOS/Source/timers.c **** 	}
 291              		.loc 1 417 27 is_stmt 1 view .LVU60
 420:../../kernel/FreeRTOS/Source/timers.c **** }
 292              		.loc 1 420 2 view .LVU61
 420:../../kernel/FreeRTOS/Source/timers.c **** }
 293              		.loc 1 420 2 is_stmt 0 view .LVU62
 294              	.LBE72:
 295              	.LBE75:
 878:../../kernel/FreeRTOS/Source/timers.c **** 				( void ) xResult;
 296              		.loc 1 878 5 is_stmt 1 view .LVU63
 297 0076 0028     		cmp	r0, #0	@
 298 0078 D8D1     		bne	.L3	@
 299              	.LVL12:
 300              	.L7:
 878:../../kernel/FreeRTOS/Source/timers.c **** 				( void ) xResult;
 301              		.loc 1 878 5 view .LVU64
 302              	.LBB76:
 303              	.LBI76:
 304              		.file 2 "../../kernel/FreeRTOS/Source/portable/GCC/ARM_CM4F/portmacro.h"
   1:../../kernel/FreeRTOS/Source/portable/GCC/ARM_CM4F/portmacro.h **** /*
   2:../../kernel/FreeRTOS/Source/portable/GCC/ARM_CM4F/portmacro.h ****  * FreeRTOS Kernel V10.0.1
   3:../../kernel/FreeRTOS/Source/portable/GCC/ARM_CM4F/portmacro.h ****  * Copyright (C) 2017 Amazon.com, Inc. or its affiliates.  All Rights Reserved.
   4:../../kernel/FreeRTOS/Source/portable/GCC/ARM_CM4F/portmacro.h ****  *
   5:../../kernel/FreeRTOS/Source/portable/GCC/ARM_CM4F/portmacro.h ****  * Permission is hereby granted, free of charge, to any person obtaining a copy of
   6:../../kernel/FreeRTOS/Source/portable/GCC/ARM_CM4F/portmacro.h ****  * this software and associated documentation files (the "Software"), to deal in
   7:../../kernel/FreeRTOS/Source/portable/GCC/ARM_CM4F/portmacro.h ****  * the Software without restriction, including without limitation the rights to
   8:../../kernel/FreeRTOS/Source/portable/GCC/ARM_CM4F/portmacro.h ****  * use, copy, modify, merge, publish, distribute, sublicense, and/or sell copies of
   9:../../kernel/FreeRTOS/Source/portable/GCC/ARM_CM4F/portmacro.h ****  * the Software, and to permit persons to whom the Software is furnished to do so,
  10:../../kernel/FreeRTOS/Source/portable/GCC/ARM_CM4F/portmacro.h ****  * subject to the following conditions:
  11:../../kernel/FreeRTOS/Source/portable/GCC/ARM_CM4F/portmacro.h ****  *
  12:../../kernel/FreeRTOS/Source/portable/GCC/ARM_CM4F/portmacro.h ****  * The above copyright notice and this permission notice shall be included in all
  13:../../kernel/FreeRTOS/Source/portable/GCC/ARM_CM4F/portmacro.h ****  * copies or substantial portions of the Software.
  14:../../kernel/FreeRTOS/Source/portable/GCC/ARM_CM4F/portmacro.h ****  *
  15:../../kernel/FreeRTOS/Source/portable/GCC/ARM_CM4F/portmacro.h ****  * THE SOFTWARE IS PROVIDED "AS IS", WITHOUT WARRANTY OF ANY KIND, EXPRESS OR
  16:../../kernel/FreeRTOS/Source/portable/GCC/ARM_CM4F/portmacro.h ****  * IMPLIED, INCLUDING BUT NOT LIMITED TO THE WARRANTIES OF MERCHANTABILITY, FITNESS
  17:../../kernel/FreeRTOS/Source/portable/GCC/ARM_CM4F/portmacro.h ****  * FOR A PARTICULAR PURPOSE AND NONINFRINGEMENT. IN NO EVENT SHALL THE AUTHORS OR
ARM GAS  /tmp/cclihgpx.s 			page 23


  18:../../kernel/FreeRTOS/Source/portable/GCC/ARM_CM4F/portmacro.h ****  * COPYRIGHT HOLDERS BE LIABLE FOR ANY CLAIM, DAMAGES OR OTHER LIABILITY, WHETHER
  19:../../kernel/FreeRTOS/Source/portable/GCC/ARM_CM4F/portmacro.h ****  * IN AN ACTION OF CONTRACT, TORT OR OTHERWISE, ARISING FROM, OUT OF OR IN
  20:../../kernel/FreeRTOS/Source/portable/GCC/ARM_CM4F/portmacro.h ****  * CONNECTION WITH THE SOFTWARE OR THE USE OR OTHER DEALINGS IN THE SOFTWARE.
  21:../../kernel/FreeRTOS/Source/portable/GCC/ARM_CM4F/portmacro.h ****  *
  22:../../kernel/FreeRTOS/Source/portable/GCC/ARM_CM4F/portmacro.h ****  * http://www.FreeRTOS.org
  23:../../kernel/FreeRTOS/Source/portable/GCC/ARM_CM4F/portmacro.h ****  * http://aws.amazon.com/freertos
  24:../../kernel/FreeRTOS/Source/portable/GCC/ARM_CM4F/portmacro.h ****  *
  25:../../kernel/FreeRTOS/Source/portable/GCC/ARM_CM4F/portmacro.h ****  * 1 tab == 4 spaces!
  26:../../kernel/FreeRTOS/Source/portable/GCC/ARM_CM4F/portmacro.h ****  */
  27:../../kernel/FreeRTOS/Source/portable/GCC/ARM_CM4F/portmacro.h **** 
  28:../../kernel/FreeRTOS/Source/portable/GCC/ARM_CM4F/portmacro.h **** 
  29:../../kernel/FreeRTOS/Source/portable/GCC/ARM_CM4F/portmacro.h **** #ifndef PORTMACRO_H
  30:../../kernel/FreeRTOS/Source/portable/GCC/ARM_CM4F/portmacro.h **** #define PORTMACRO_H
  31:../../kernel/FreeRTOS/Source/portable/GCC/ARM_CM4F/portmacro.h **** 
  32:../../kernel/FreeRTOS/Source/portable/GCC/ARM_CM4F/portmacro.h **** #ifdef __cplusplus
  33:../../kernel/FreeRTOS/Source/portable/GCC/ARM_CM4F/portmacro.h **** extern "C" {
  34:../../kernel/FreeRTOS/Source/portable/GCC/ARM_CM4F/portmacro.h **** #endif
  35:../../kernel/FreeRTOS/Source/portable/GCC/ARM_CM4F/portmacro.h **** 
  36:../../kernel/FreeRTOS/Source/portable/GCC/ARM_CM4F/portmacro.h **** /*-----------------------------------------------------------
  37:../../kernel/FreeRTOS/Source/portable/GCC/ARM_CM4F/portmacro.h ****  * Port specific definitions.
  38:../../kernel/FreeRTOS/Source/portable/GCC/ARM_CM4F/portmacro.h ****  *
  39:../../kernel/FreeRTOS/Source/portable/GCC/ARM_CM4F/portmacro.h ****  * The settings in this file configure FreeRTOS correctly for the
  40:../../kernel/FreeRTOS/Source/portable/GCC/ARM_CM4F/portmacro.h ****  * given hardware and compiler.
  41:../../kernel/FreeRTOS/Source/portable/GCC/ARM_CM4F/portmacro.h ****  *
  42:../../kernel/FreeRTOS/Source/portable/GCC/ARM_CM4F/portmacro.h ****  * These settings should not be altered.
  43:../../kernel/FreeRTOS/Source/portable/GCC/ARM_CM4F/portmacro.h ****  *-----------------------------------------------------------
  44:../../kernel/FreeRTOS/Source/portable/GCC/ARM_CM4F/portmacro.h ****  */
  45:../../kernel/FreeRTOS/Source/portable/GCC/ARM_CM4F/portmacro.h **** 
  46:../../kernel/FreeRTOS/Source/portable/GCC/ARM_CM4F/portmacro.h **** /* Type definitions. */
  47:../../kernel/FreeRTOS/Source/portable/GCC/ARM_CM4F/portmacro.h **** #define portCHAR		char
  48:../../kernel/FreeRTOS/Source/portable/GCC/ARM_CM4F/portmacro.h **** #define portFLOAT		float
  49:../../kernel/FreeRTOS/Source/portable/GCC/ARM_CM4F/portmacro.h **** #define portDOUBLE		double
  50:../../kernel/FreeRTOS/Source/portable/GCC/ARM_CM4F/portmacro.h **** #define portLONG		long
  51:../../kernel/FreeRTOS/Source/portable/GCC/ARM_CM4F/portmacro.h **** #define portSHORT		short
  52:../../kernel/FreeRTOS/Source/portable/GCC/ARM_CM4F/portmacro.h **** #define portSTACK_TYPE	uint32_t
  53:../../kernel/FreeRTOS/Source/portable/GCC/ARM_CM4F/portmacro.h **** #define portBASE_TYPE	long
  54:../../kernel/FreeRTOS/Source/portable/GCC/ARM_CM4F/portmacro.h **** 
  55:../../kernel/FreeRTOS/Source/portable/GCC/ARM_CM4F/portmacro.h **** typedef portSTACK_TYPE StackType_t;
  56:../../kernel/FreeRTOS/Source/portable/GCC/ARM_CM4F/portmacro.h **** typedef long BaseType_t;
  57:../../kernel/FreeRTOS/Source/portable/GCC/ARM_CM4F/portmacro.h **** typedef unsigned long UBaseType_t;
  58:../../kernel/FreeRTOS/Source/portable/GCC/ARM_CM4F/portmacro.h **** 
  59:../../kernel/FreeRTOS/Source/portable/GCC/ARM_CM4F/portmacro.h **** #if( configUSE_16_BIT_TICKS == 1 )
  60:../../kernel/FreeRTOS/Source/portable/GCC/ARM_CM4F/portmacro.h **** 	typedef uint16_t TickType_t;
  61:../../kernel/FreeRTOS/Source/portable/GCC/ARM_CM4F/portmacro.h **** 	#define portMAX_DELAY ( TickType_t ) 0xffff
  62:../../kernel/FreeRTOS/Source/portable/GCC/ARM_CM4F/portmacro.h **** #else
  63:../../kernel/FreeRTOS/Source/portable/GCC/ARM_CM4F/portmacro.h **** 	typedef uint32_t TickType_t;
  64:../../kernel/FreeRTOS/Source/portable/GCC/ARM_CM4F/portmacro.h **** 	#define portMAX_DELAY ( TickType_t ) 0xffffffffUL
  65:../../kernel/FreeRTOS/Source/portable/GCC/ARM_CM4F/portmacro.h **** 
  66:../../kernel/FreeRTOS/Source/portable/GCC/ARM_CM4F/portmacro.h **** 	/* 32-bit tick type on a 32-bit architecture, so reads of the tick count do
  67:../../kernel/FreeRTOS/Source/portable/GCC/ARM_CM4F/portmacro.h **** 	not need to be guarded with a critical section. */
  68:../../kernel/FreeRTOS/Source/portable/GCC/ARM_CM4F/portmacro.h **** 	#define portTICK_TYPE_IS_ATOMIC 1
  69:../../kernel/FreeRTOS/Source/portable/GCC/ARM_CM4F/portmacro.h **** #endif
  70:../../kernel/FreeRTOS/Source/portable/GCC/ARM_CM4F/portmacro.h **** /*-----------------------------------------------------------*/
  71:../../kernel/FreeRTOS/Source/portable/GCC/ARM_CM4F/portmacro.h **** 
  72:../../kernel/FreeRTOS/Source/portable/GCC/ARM_CM4F/portmacro.h **** /* Architecture specifics. */
  73:../../kernel/FreeRTOS/Source/portable/GCC/ARM_CM4F/portmacro.h **** #define portSTACK_GROWTH			( -1 )
  74:../../kernel/FreeRTOS/Source/portable/GCC/ARM_CM4F/portmacro.h **** #define portTICK_PERIOD_MS			( ( TickType_t ) 1000 / configTICK_RATE_HZ )
ARM GAS  /tmp/cclihgpx.s 			page 24


  75:../../kernel/FreeRTOS/Source/portable/GCC/ARM_CM4F/portmacro.h **** #define portBYTE_ALIGNMENT			8
  76:../../kernel/FreeRTOS/Source/portable/GCC/ARM_CM4F/portmacro.h **** /*-----------------------------------------------------------*/
  77:../../kernel/FreeRTOS/Source/portable/GCC/ARM_CM4F/portmacro.h **** 
  78:../../kernel/FreeRTOS/Source/portable/GCC/ARM_CM4F/portmacro.h **** /* Scheduler utilities. */
  79:../../kernel/FreeRTOS/Source/portable/GCC/ARM_CM4F/portmacro.h **** #define portYIELD() 															\
  80:../../kernel/FreeRTOS/Source/portable/GCC/ARM_CM4F/portmacro.h **** {																				\
  81:../../kernel/FreeRTOS/Source/portable/GCC/ARM_CM4F/portmacro.h **** 	/* Set a PendSV to request a context switch. */								\
  82:../../kernel/FreeRTOS/Source/portable/GCC/ARM_CM4F/portmacro.h **** 	portNVIC_INT_CTRL_REG = portNVIC_PENDSVSET_BIT;								\
  83:../../kernel/FreeRTOS/Source/portable/GCC/ARM_CM4F/portmacro.h **** 																				\
  84:../../kernel/FreeRTOS/Source/portable/GCC/ARM_CM4F/portmacro.h **** 	/* Barriers are normally not required but do ensure the code is completely	\
  85:../../kernel/FreeRTOS/Source/portable/GCC/ARM_CM4F/portmacro.h **** 	within the specified behaviour for the architecture. */						\
  86:../../kernel/FreeRTOS/Source/portable/GCC/ARM_CM4F/portmacro.h **** 	__asm volatile( "dsb" ::: "memory" );										\
  87:../../kernel/FreeRTOS/Source/portable/GCC/ARM_CM4F/portmacro.h **** 	__asm volatile( "isb" );													\
  88:../../kernel/FreeRTOS/Source/portable/GCC/ARM_CM4F/portmacro.h **** }
  89:../../kernel/FreeRTOS/Source/portable/GCC/ARM_CM4F/portmacro.h **** 
  90:../../kernel/FreeRTOS/Source/portable/GCC/ARM_CM4F/portmacro.h **** #define portNVIC_INT_CTRL_REG		( * ( ( volatile uint32_t * ) 0xe000ed04 ) )
  91:../../kernel/FreeRTOS/Source/portable/GCC/ARM_CM4F/portmacro.h **** #define portNVIC_PENDSVSET_BIT		( 1UL << 28UL )
  92:../../kernel/FreeRTOS/Source/portable/GCC/ARM_CM4F/portmacro.h **** #define portEND_SWITCHING_ISR( xSwitchRequired ) if( xSwitchRequired != pdFALSE ) portYIELD()
  93:../../kernel/FreeRTOS/Source/portable/GCC/ARM_CM4F/portmacro.h **** #define portYIELD_FROM_ISR( x ) portEND_SWITCHING_ISR( x )
  94:../../kernel/FreeRTOS/Source/portable/GCC/ARM_CM4F/portmacro.h **** /*-----------------------------------------------------------*/
  95:../../kernel/FreeRTOS/Source/portable/GCC/ARM_CM4F/portmacro.h **** 
  96:../../kernel/FreeRTOS/Source/portable/GCC/ARM_CM4F/portmacro.h **** /* Critical section management. */
  97:../../kernel/FreeRTOS/Source/portable/GCC/ARM_CM4F/portmacro.h **** extern void vPortEnterCritical( void );
  98:../../kernel/FreeRTOS/Source/portable/GCC/ARM_CM4F/portmacro.h **** extern void vPortExitCritical( void );
  99:../../kernel/FreeRTOS/Source/portable/GCC/ARM_CM4F/portmacro.h **** #define portSET_INTERRUPT_MASK_FROM_ISR()		ulPortRaiseBASEPRI()
 100:../../kernel/FreeRTOS/Source/portable/GCC/ARM_CM4F/portmacro.h **** #define portCLEAR_INTERRUPT_MASK_FROM_ISR(x)	vPortSetBASEPRI(x)
 101:../../kernel/FreeRTOS/Source/portable/GCC/ARM_CM4F/portmacro.h **** #define portDISABLE_INTERRUPTS()				vPortRaiseBASEPRI()
 102:../../kernel/FreeRTOS/Source/portable/GCC/ARM_CM4F/portmacro.h **** #define portENABLE_INTERRUPTS()					vPortSetBASEPRI(0)
 103:../../kernel/FreeRTOS/Source/portable/GCC/ARM_CM4F/portmacro.h **** #define portENTER_CRITICAL()					vPortEnterCritical()
 104:../../kernel/FreeRTOS/Source/portable/GCC/ARM_CM4F/portmacro.h **** #define portEXIT_CRITICAL()						vPortExitCritical()
 105:../../kernel/FreeRTOS/Source/portable/GCC/ARM_CM4F/portmacro.h **** 
 106:../../kernel/FreeRTOS/Source/portable/GCC/ARM_CM4F/portmacro.h **** /*-----------------------------------------------------------*/
 107:../../kernel/FreeRTOS/Source/portable/GCC/ARM_CM4F/portmacro.h **** 
 108:../../kernel/FreeRTOS/Source/portable/GCC/ARM_CM4F/portmacro.h **** /* Task function macros as described on the FreeRTOS.org WEB site.  These are
 109:../../kernel/FreeRTOS/Source/portable/GCC/ARM_CM4F/portmacro.h **** not necessary for to use this port.  They are defined so the common demo files
 110:../../kernel/FreeRTOS/Source/portable/GCC/ARM_CM4F/portmacro.h **** (which build with all the ports) will build. */
 111:../../kernel/FreeRTOS/Source/portable/GCC/ARM_CM4F/portmacro.h **** #define portTASK_FUNCTION_PROTO( vFunction, pvParameters ) void vFunction( void *pvParameters )
 112:../../kernel/FreeRTOS/Source/portable/GCC/ARM_CM4F/portmacro.h **** #define portTASK_FUNCTION( vFunction, pvParameters ) void vFunction( void *pvParameters )
 113:../../kernel/FreeRTOS/Source/portable/GCC/ARM_CM4F/portmacro.h **** /*-----------------------------------------------------------*/
 114:../../kernel/FreeRTOS/Source/portable/GCC/ARM_CM4F/portmacro.h **** 
 115:../../kernel/FreeRTOS/Source/portable/GCC/ARM_CM4F/portmacro.h **** /* Tickless idle/low power functionality. */
 116:../../kernel/FreeRTOS/Source/portable/GCC/ARM_CM4F/portmacro.h **** #ifndef portSUPPRESS_TICKS_AND_SLEEP
 117:../../kernel/FreeRTOS/Source/portable/GCC/ARM_CM4F/portmacro.h **** 	extern void vPortSuppressTicksAndSleep( TickType_t xExpectedIdleTime );
 118:../../kernel/FreeRTOS/Source/portable/GCC/ARM_CM4F/portmacro.h **** 	#define portSUPPRESS_TICKS_AND_SLEEP( xExpectedIdleTime ) vPortSuppressTicksAndSleep( xExpectedIdl
 119:../../kernel/FreeRTOS/Source/portable/GCC/ARM_CM4F/portmacro.h **** #endif
 120:../../kernel/FreeRTOS/Source/portable/GCC/ARM_CM4F/portmacro.h **** /*-----------------------------------------------------------*/
 121:../../kernel/FreeRTOS/Source/portable/GCC/ARM_CM4F/portmacro.h **** 
 122:../../kernel/FreeRTOS/Source/portable/GCC/ARM_CM4F/portmacro.h **** /* Architecture specific optimisations. */
 123:../../kernel/FreeRTOS/Source/portable/GCC/ARM_CM4F/portmacro.h **** #ifndef configUSE_PORT_OPTIMISED_TASK_SELECTION
 124:../../kernel/FreeRTOS/Source/portable/GCC/ARM_CM4F/portmacro.h **** 	#define configUSE_PORT_OPTIMISED_TASK_SELECTION 1
 125:../../kernel/FreeRTOS/Source/portable/GCC/ARM_CM4F/portmacro.h **** #endif
 126:../../kernel/FreeRTOS/Source/portable/GCC/ARM_CM4F/portmacro.h **** 
 127:../../kernel/FreeRTOS/Source/portable/GCC/ARM_CM4F/portmacro.h **** #if configUSE_PORT_OPTIMISED_TASK_SELECTION == 1
 128:../../kernel/FreeRTOS/Source/portable/GCC/ARM_CM4F/portmacro.h **** 
 129:../../kernel/FreeRTOS/Source/portable/GCC/ARM_CM4F/portmacro.h **** 	/* Generic helper function. */
 130:../../kernel/FreeRTOS/Source/portable/GCC/ARM_CM4F/portmacro.h **** 	__attribute__( ( always_inline ) ) static inline uint8_t ucPortCountLeadingZeros( uint32_t ulBitma
 131:../../kernel/FreeRTOS/Source/portable/GCC/ARM_CM4F/portmacro.h **** 	{
ARM GAS  /tmp/cclihgpx.s 			page 25


 132:../../kernel/FreeRTOS/Source/portable/GCC/ARM_CM4F/portmacro.h **** 	uint8_t ucReturn;
 133:../../kernel/FreeRTOS/Source/portable/GCC/ARM_CM4F/portmacro.h **** 
 134:../../kernel/FreeRTOS/Source/portable/GCC/ARM_CM4F/portmacro.h **** 		__asm volatile ( "clz %0, %1" : "=r" ( ucReturn ) : "r" ( ulBitmap ) : "memory" );
 135:../../kernel/FreeRTOS/Source/portable/GCC/ARM_CM4F/portmacro.h **** 		return ucReturn;
 136:../../kernel/FreeRTOS/Source/portable/GCC/ARM_CM4F/portmacro.h **** 	}
 137:../../kernel/FreeRTOS/Source/portable/GCC/ARM_CM4F/portmacro.h **** 
 138:../../kernel/FreeRTOS/Source/portable/GCC/ARM_CM4F/portmacro.h **** 	/* Check the configuration. */
 139:../../kernel/FreeRTOS/Source/portable/GCC/ARM_CM4F/portmacro.h **** 	#if( configMAX_PRIORITIES > 32 )
 140:../../kernel/FreeRTOS/Source/portable/GCC/ARM_CM4F/portmacro.h **** 		#error configUSE_PORT_OPTIMISED_TASK_SELECTION can only be set to 1 when configMAX_PRIORITIES is 
 141:../../kernel/FreeRTOS/Source/portable/GCC/ARM_CM4F/portmacro.h **** 	#endif
 142:../../kernel/FreeRTOS/Source/portable/GCC/ARM_CM4F/portmacro.h **** 
 143:../../kernel/FreeRTOS/Source/portable/GCC/ARM_CM4F/portmacro.h **** 	/* Store/clear the ready priorities in a bit map. */
 144:../../kernel/FreeRTOS/Source/portable/GCC/ARM_CM4F/portmacro.h **** 	#define portRECORD_READY_PRIORITY( uxPriority, uxReadyPriorities ) ( uxReadyPriorities ) |= ( 1UL 
 145:../../kernel/FreeRTOS/Source/portable/GCC/ARM_CM4F/portmacro.h **** 	#define portRESET_READY_PRIORITY( uxPriority, uxReadyPriorities ) ( uxReadyPriorities ) &= ~( 1UL 
 146:../../kernel/FreeRTOS/Source/portable/GCC/ARM_CM4F/portmacro.h **** 
 147:../../kernel/FreeRTOS/Source/portable/GCC/ARM_CM4F/portmacro.h **** 	/*-----------------------------------------------------------*/
 148:../../kernel/FreeRTOS/Source/portable/GCC/ARM_CM4F/portmacro.h **** 
 149:../../kernel/FreeRTOS/Source/portable/GCC/ARM_CM4F/portmacro.h **** 	#define portGET_HIGHEST_PRIORITY( uxTopPriority, uxReadyPriorities ) uxTopPriority = ( 31UL - ( ui
 150:../../kernel/FreeRTOS/Source/portable/GCC/ARM_CM4F/portmacro.h **** 
 151:../../kernel/FreeRTOS/Source/portable/GCC/ARM_CM4F/portmacro.h **** #endif /* configUSE_PORT_OPTIMISED_TASK_SELECTION */
 152:../../kernel/FreeRTOS/Source/portable/GCC/ARM_CM4F/portmacro.h **** 
 153:../../kernel/FreeRTOS/Source/portable/GCC/ARM_CM4F/portmacro.h **** /*-----------------------------------------------------------*/
 154:../../kernel/FreeRTOS/Source/portable/GCC/ARM_CM4F/portmacro.h **** 
 155:../../kernel/FreeRTOS/Source/portable/GCC/ARM_CM4F/portmacro.h **** #ifdef configASSERT
 156:../../kernel/FreeRTOS/Source/portable/GCC/ARM_CM4F/portmacro.h **** 	void vPortValidateInterruptPriority( void );
 157:../../kernel/FreeRTOS/Source/portable/GCC/ARM_CM4F/portmacro.h **** 	#define portASSERT_IF_INTERRUPT_PRIORITY_INVALID() 	vPortValidateInterruptPriority()
 158:../../kernel/FreeRTOS/Source/portable/GCC/ARM_CM4F/portmacro.h **** #endif
 159:../../kernel/FreeRTOS/Source/portable/GCC/ARM_CM4F/portmacro.h **** 
 160:../../kernel/FreeRTOS/Source/portable/GCC/ARM_CM4F/portmacro.h **** /* portNOP() is not required by this port. */
 161:../../kernel/FreeRTOS/Source/portable/GCC/ARM_CM4F/portmacro.h **** #define portNOP()
 162:../../kernel/FreeRTOS/Source/portable/GCC/ARM_CM4F/portmacro.h **** 
 163:../../kernel/FreeRTOS/Source/portable/GCC/ARM_CM4F/portmacro.h **** #define portINLINE	__inline
 164:../../kernel/FreeRTOS/Source/portable/GCC/ARM_CM4F/portmacro.h **** 
 165:../../kernel/FreeRTOS/Source/portable/GCC/ARM_CM4F/portmacro.h **** #ifndef portFORCE_INLINE
 166:../../kernel/FreeRTOS/Source/portable/GCC/ARM_CM4F/portmacro.h **** 	#define portFORCE_INLINE inline __attribute__(( always_inline))
 167:../../kernel/FreeRTOS/Source/portable/GCC/ARM_CM4F/portmacro.h **** #endif
 168:../../kernel/FreeRTOS/Source/portable/GCC/ARM_CM4F/portmacro.h **** 
 169:../../kernel/FreeRTOS/Source/portable/GCC/ARM_CM4F/portmacro.h **** portFORCE_INLINE static BaseType_t xPortIsInsideInterrupt( void )
 170:../../kernel/FreeRTOS/Source/portable/GCC/ARM_CM4F/portmacro.h **** {
 171:../../kernel/FreeRTOS/Source/portable/GCC/ARM_CM4F/portmacro.h **** uint32_t ulCurrentInterrupt;
 172:../../kernel/FreeRTOS/Source/portable/GCC/ARM_CM4F/portmacro.h **** BaseType_t xReturn;
 173:../../kernel/FreeRTOS/Source/portable/GCC/ARM_CM4F/portmacro.h **** 
 174:../../kernel/FreeRTOS/Source/portable/GCC/ARM_CM4F/portmacro.h **** 	/* Obtain the number of the currently executing interrupt. */
 175:../../kernel/FreeRTOS/Source/portable/GCC/ARM_CM4F/portmacro.h **** 	__asm volatile( "mrs %0, ipsr" : "=r"( ulCurrentInterrupt ) :: "memory" );
 176:../../kernel/FreeRTOS/Source/portable/GCC/ARM_CM4F/portmacro.h **** 
 177:../../kernel/FreeRTOS/Source/portable/GCC/ARM_CM4F/portmacro.h **** 	if( ulCurrentInterrupt == 0 )
 178:../../kernel/FreeRTOS/Source/portable/GCC/ARM_CM4F/portmacro.h **** 	{
 179:../../kernel/FreeRTOS/Source/portable/GCC/ARM_CM4F/portmacro.h **** 		xReturn = pdFALSE;
 180:../../kernel/FreeRTOS/Source/portable/GCC/ARM_CM4F/portmacro.h **** 	}
 181:../../kernel/FreeRTOS/Source/portable/GCC/ARM_CM4F/portmacro.h **** 	else
 182:../../kernel/FreeRTOS/Source/portable/GCC/ARM_CM4F/portmacro.h **** 	{
 183:../../kernel/FreeRTOS/Source/portable/GCC/ARM_CM4F/portmacro.h **** 		xReturn = pdTRUE;
 184:../../kernel/FreeRTOS/Source/portable/GCC/ARM_CM4F/portmacro.h **** 	}
 185:../../kernel/FreeRTOS/Source/portable/GCC/ARM_CM4F/portmacro.h **** 
 186:../../kernel/FreeRTOS/Source/portable/GCC/ARM_CM4F/portmacro.h **** 	return xReturn;
 187:../../kernel/FreeRTOS/Source/portable/GCC/ARM_CM4F/portmacro.h **** }
 188:../../kernel/FreeRTOS/Source/portable/GCC/ARM_CM4F/portmacro.h **** 
ARM GAS  /tmp/cclihgpx.s 			page 26


 189:../../kernel/FreeRTOS/Source/portable/GCC/ARM_CM4F/portmacro.h **** /*-----------------------------------------------------------*/
 190:../../kernel/FreeRTOS/Source/portable/GCC/ARM_CM4F/portmacro.h **** 
 191:../../kernel/FreeRTOS/Source/portable/GCC/ARM_CM4F/portmacro.h **** portFORCE_INLINE static void vPortRaiseBASEPRI( void )
 305              		.loc 2 191 30 view .LVU65
 306              	.LBB77:
 192:../../kernel/FreeRTOS/Source/portable/GCC/ARM_CM4F/portmacro.h **** {
 193:../../kernel/FreeRTOS/Source/portable/GCC/ARM_CM4F/portmacro.h **** uint32_t ulNewBASEPRI;
 307              		.loc 2 193 1 view .LVU66
 194:../../kernel/FreeRTOS/Source/portable/GCC/ARM_CM4F/portmacro.h **** 
 195:../../kernel/FreeRTOS/Source/portable/GCC/ARM_CM4F/portmacro.h **** 	__asm volatile
 308              		.loc 2 195 2 view .LVU67
 309              		.syntax unified
 310              	@ 195 "../../kernel/FreeRTOS/Source/portable/GCC/ARM_CM4F/portmacro.h" 1
 311 007a 4FF0A003 			mov r3, #160													@ ulNewBASEPRI,
 312 007e 83F31188 		msr basepri, r3												@ ulNewBASEPRI
 313 0082 BFF36F8F 		isb														
 314 0086 BFF34F8F 		dsb														
 315              	
 316              	@ 0 "" 2
 317              	.LVL13:
 318              		.thumb
 319              		.syntax unified
 320              	.L8:
 321              		.loc 2 195 2 is_stmt 0 view .LVU68
 322              	.LBE77:
 323              	.LBE76:
 878:../../kernel/FreeRTOS/Source/timers.c **** 				( void ) xResult;
 324              		.loc 1 878 5 is_stmt 1 discriminator 1 view .LVU69
 878:../../kernel/FreeRTOS/Source/timers.c **** 				( void ) xResult;
 325              		.loc 1 878 5 discriminator 1 view .LVU70
 878:../../kernel/FreeRTOS/Source/timers.c **** 				( void ) xResult;
 326              		.loc 1 878 5 discriminator 1 view .LVU71
 878:../../kernel/FreeRTOS/Source/timers.c **** 				( void ) xResult;
 327              		.loc 1 878 5 discriminator 1 view .LVU72
 328 008a FEE7     		b	.L8		@
 329              	.L15:
 330              		.align	2
 331              	.L14:
 332 008c 00000000 		.word	.LANCHOR0
 333 0090 00000000 		.word	.LANCHOR2
 334 0094 00000000 		.word	.LANCHOR1
 335              		.cfi_endproc
 336              	.LFE20:
 337              		.size	prvSwitchTimerLists, .-prvSwitchTimerLists
 338              		.section	.text.prvTimerTask,"ax",%progbits
 339              		.align	1
 340              		.p2align 2,,3
 341              		.syntax unified
 342              		.thumb
 343              		.thumb_func
 344              		.fpu fpv4-sp-d16
 345              		.type	prvTimerTask, %function
 346              	prvTimerTask:
 347              	.LVL14:
 348              	.LFB14:
 503:../../kernel/FreeRTOS/Source/timers.c **** TickType_t xNextExpireTime;
 349              		.loc 1 503 1 view -0
ARM GAS  /tmp/cclihgpx.s 			page 27


 350              		.cfi_startproc
 351              		@ args = 0, pretend = 0, frame = 40
 352              		@ frame_needed = 0, uses_anonymous_args = 0
 503:../../kernel/FreeRTOS/Source/timers.c **** TickType_t xNextExpireTime;
 353              		.loc 1 503 1 is_stmt 0 view .LVU74
 354 0000 2DE9F04F 		push	{r4, r5, r6, r7, r8, r9, r10, fp, lr}	@
 355              		.cfi_def_cfa_offset 36
 356              		.cfi_offset 4, -36
 357              		.cfi_offset 5, -32
 358              		.cfi_offset 6, -28
 359              		.cfi_offset 7, -24
 360              		.cfi_offset 8, -20
 361              		.cfi_offset 9, -16
 362              		.cfi_offset 10, -12
 363              		.cfi_offset 11, -8
 364              		.cfi_offset 14, -4
 365 0004 904F     		ldr	r7, .L73	@ tmp254,
 366 0006 914E     		ldr	r6, .L73+4	@ tmp257,
 367 0008 DFF84C92 		ldr	r9, .L73+16	@ tmp256,
 368 000c 904D     		ldr	r5, .L73+8	@ tmp255,
 369 000e 8BB0     		sub	sp, sp, #44	@,,
 370              		.cfi_def_cfa_offset 80
 371 0010 4FF0010A 		mov	r10, #1	@ tmp263,
 372              	.LVL15:
 373              	.L49:
 504:../../kernel/FreeRTOS/Source/timers.c **** BaseType_t xListWasEmpty;
 374              		.loc 1 504 1 is_stmt 1 discriminator 1 view .LVU75
 505:../../kernel/FreeRTOS/Source/timers.c **** 
 375              		.loc 1 505 1 discriminator 1 view .LVU76
 508:../../kernel/FreeRTOS/Source/timers.c **** 
 376              		.loc 1 508 2 discriminator 1 view .LVU77
 522:../../kernel/FreeRTOS/Source/timers.c **** 	{
 377              		.loc 1 522 2 discriminator 1 view .LVU78
 526:../../kernel/FreeRTOS/Source/timers.c **** 
 378              		.loc 1 526 3 discriminator 1 view .LVU79
 379              	.LBB121:
 380              	.LBI121:
 598:../../kernel/FreeRTOS/Source/timers.c **** {
 381              		.loc 1 598 19 discriminator 1 view .LVU80
 382              	.LBB122:
 600:../../kernel/FreeRTOS/Source/timers.c **** 
 383              		.loc 1 600 1 discriminator 1 view .LVU81
 609:../../kernel/FreeRTOS/Source/timers.c **** 	if( *pxListWasEmpty == pdFALSE )
 384              		.loc 1 609 2 discriminator 1 view .LVU82
 385              	@ ../../kernel/FreeRTOS/Source/timers.c:609: 	*pxListWasEmpty = listLIST_IS_EMPTY( pxCurrentTimerLi
 609:../../kernel/FreeRTOS/Source/timers.c **** 	if( *pxListWasEmpty == pdFALSE )
 386              		.loc 1 609 20 is_stmt 0 discriminator 1 view .LVU83
 387 0014 3B68     		ldr	r3, [r7]	@ pxCurrentTimerList.6_5, pxCurrentTimerList
 388 0016 D3F80080 		ldr	r8, [r3]	@ _6, pxCurrentTimerList.6_5->uxNumberOfItems
 389              	.LVL16:
 610:../../kernel/FreeRTOS/Source/timers.c **** 	{
 390              		.loc 1 610 2 is_stmt 1 discriminator 1 view .LVU84
 391              	@ ../../kernel/FreeRTOS/Source/timers.c:610: 	if( *pxListWasEmpty == pdFALSE )
 610:../../kernel/FreeRTOS/Source/timers.c **** 	{
 392              		.loc 1 610 4 is_stmt 0 discriminator 1 view .LVU85
 393 001a B8F1000F 		cmp	r8, #0	@ _6
 394 001e 54D0     		beq	.L17	@
ARM GAS  /tmp/cclihgpx.s 			page 28


 612:../../kernel/FreeRTOS/Source/timers.c **** 	}
 395              		.loc 1 612 3 is_stmt 1 view .LVU86
 396              	@ ../../kernel/FreeRTOS/Source/timers.c:612: 		xNextExpireTime = listGET_ITEM_VALUE_OF_HEAD_ENTRY( 
 612:../../kernel/FreeRTOS/Source/timers.c **** 	}
 397              		.loc 1 612 19 is_stmt 0 view .LVU87
 398 0020 DB68     		ldr	r3, [r3, #12]	@ pxCurrentTimerList.6_5->xListEnd.pxNext, pxCurrentTimerList.6_5->xListEnd.pxNe
 399 0022 D3F800B0 		ldr	fp, [r3]	@ xNextExpireTime, _9->xItemValue
 400              	.LVL17:
 620:../../kernel/FreeRTOS/Source/timers.c **** }
 401              		.loc 1 620 2 is_stmt 1 view .LVU88
 620:../../kernel/FreeRTOS/Source/timers.c **** }
 402              		.loc 1 620 2 is_stmt 0 view .LVU89
 403              	.LBE122:
 404              	.LBE121:
 530:../../kernel/FreeRTOS/Source/timers.c **** 
 405              		.loc 1 530 3 is_stmt 1 view .LVU90
 406              	.LBB125:
 407              	.LBI125:
 538:../../kernel/FreeRTOS/Source/timers.c **** {
 408              		.loc 1 538 13 view .LVU91
 409              	.LBB126:
 540:../../kernel/FreeRTOS/Source/timers.c **** BaseType_t xTimerListsWereSwitched;
 410              		.loc 1 540 1 view .LVU92
 541:../../kernel/FreeRTOS/Source/timers.c **** 
 411              		.loc 1 541 1 view .LVU93
 543:../../kernel/FreeRTOS/Source/timers.c **** 	{
 412              		.loc 1 543 2 view .LVU94
 413 0026 FFF7FEFF 		bl	vTaskSuspendAll		@
 414              	.LVL18:
 550:../../kernel/FreeRTOS/Source/timers.c **** 		if( xTimerListsWereSwitched == pdFALSE )
 415              		.loc 1 550 3 view .LVU95
 416              	.LBB127:
 417              	.LBI127:
 624:../../kernel/FreeRTOS/Source/timers.c **** {
 418              		.loc 1 624 19 view .LVU96
 419              	.LBB128:
 626:../../kernel/FreeRTOS/Source/timers.c **** PRIVILEGED_DATA static TickType_t xLastTime = ( TickType_t ) 0U; /*lint !e956 Variable is only acce
 420              		.loc 1 626 1 view .LVU97
 627:../../kernel/FreeRTOS/Source/timers.c **** 
 421              		.loc 1 627 17 view .LVU98
 629:../../kernel/FreeRTOS/Source/timers.c **** 
 422              		.loc 1 629 2 view .LVU99
 423              	@ ../../kernel/FreeRTOS/Source/timers.c:629: 	xTimeNow = xTaskGetTickCount();
 629:../../kernel/FreeRTOS/Source/timers.c **** 
 424              		.loc 1 629 13 is_stmt 0 view .LVU100
 425 002a FFF7FEFF 		bl	xTaskGetTickCount		@
 426              	.LVL19:
 427              	@ ../../kernel/FreeRTOS/Source/timers.c:631: 	if( xTimeNow < xLastTime )
 631:../../kernel/FreeRTOS/Source/timers.c **** 	{
 428              		.loc 1 631 4 view .LVU101
 429 002e 3268     		ldr	r2, [r6]	@ xLastTime, xLastTime
 430 0030 9042     		cmp	r0, r2	@ xTimeNow, xLastTime
 431              	@ ../../kernel/FreeRTOS/Source/timers.c:629: 	xTimeNow = xTaskGetTickCount();
 629:../../kernel/FreeRTOS/Source/timers.c **** 
 432              		.loc 1 629 13 view .LVU102
 433 0032 0446     		mov	r4, r0	@ xTimeNow,
 434              	.LVL20:
ARM GAS  /tmp/cclihgpx.s 			page 29


 631:../../kernel/FreeRTOS/Source/timers.c **** 	{
 435              		.loc 1 631 2 is_stmt 1 view .LVU103
 436              	@ ../../kernel/FreeRTOS/Source/timers.c:631: 	if( xTimeNow < xLastTime )
 631:../../kernel/FreeRTOS/Source/timers.c **** 	{
 437              		.loc 1 631 4 is_stmt 0 view .LVU104
 438 0034 5AD3     		bcc	.L55		@,
 439              	.LVL21:
 641:../../kernel/FreeRTOS/Source/timers.c **** 
 440              		.loc 1 641 2 is_stmt 1 view .LVU105
 441              	.LBE128:
 442              	.LBE127:
 443              	@ ../../kernel/FreeRTOS/Source/timers.c:554: 			if( ( xListWasEmpty == pdFALSE ) && ( xNextExpireTi
 554:../../kernel/FreeRTOS/Source/timers.c **** 			{
 444              		.loc 1 554 37 is_stmt 0 view .LVU106
 445 0036 8345     		cmp	fp, r0	@ xNextExpireTime, xTimeNow
 446              	.LBB133:
 447              	.LBB129:
 448              	@ ../../kernel/FreeRTOS/Source/timers.c:641: 	xLastTime = xTimeNow;
 641:../../kernel/FreeRTOS/Source/timers.c **** 
 449              		.loc 1 641 12 view .LVU107
 450 0038 3060     		str	r0, [r6]	@ xTimeNow, xLastTime
 643:../../kernel/FreeRTOS/Source/timers.c **** }
 451              		.loc 1 643 2 is_stmt 1 view .LVU108
 452              	.LVL22:
 643:../../kernel/FreeRTOS/Source/timers.c **** }
 453              		.loc 1 643 2 is_stmt 0 view .LVU109
 454              	.LBE129:
 455              	.LBE133:
 551:../../kernel/FreeRTOS/Source/timers.c **** 		{
 456              		.loc 1 551 3 is_stmt 1 view .LVU110
 554:../../kernel/FreeRTOS/Source/timers.c **** 			{
 457              		.loc 1 554 4 view .LVU111
 458              	@ ../../kernel/FreeRTOS/Source/timers.c:554: 			if( ( xListWasEmpty == pdFALSE ) && ( xNextExpireTi
 554:../../kernel/FreeRTOS/Source/timers.c **** 			{
 459              		.loc 1 554 37 is_stmt 0 view .LVU112
 460 003a 73D9     		bls	.L53		@,
 461 003c 0022     		movs	r2, #0	@ xListWasEmpty,
 462              	.LVL23:
 463              	.L54:
 574:../../kernel/FreeRTOS/Source/timers.c **** 
 464              		.loc 1 574 5 is_stmt 1 view .LVU113
 465 003e ABEB0401 		sub	r1, fp, r4	@, xNextExpireTime, xTimeNow
 466 0042 2868     		ldr	r0, [r5]	@, xTimerQueue
 467              	.LVL24:
 574:../../kernel/FreeRTOS/Source/timers.c **** 
 468              		.loc 1 574 5 is_stmt 0 view .LVU114
 469 0044 FFF7FEFF 		bl	vQueueWaitForMessageRestricted		@
 470              	.LVL25:
 576:../../kernel/FreeRTOS/Source/timers.c **** 				{
 471              		.loc 1 576 5 is_stmt 1 view .LVU115
 472              	@ ../../kernel/FreeRTOS/Source/timers.c:576: 				if( xTaskResumeAll() == pdFALSE )
 576:../../kernel/FreeRTOS/Source/timers.c **** 				{
 473              		.loc 1 576 9 is_stmt 0 view .LVU116
 474 0048 FFF7FEFF 		bl	xTaskResumeAll		@
 475              	.LVL26:
 476              	@ ../../kernel/FreeRTOS/Source/timers.c:576: 				if( xTaskResumeAll() == pdFALSE )
 576:../../kernel/FreeRTOS/Source/timers.c **** 				{
ARM GAS  /tmp/cclihgpx.s 			page 30


 477              		.loc 1 576 7 view .LVU117
 478 004c 38B9     		cbnz	r0, .L19	@,
 582:../../kernel/FreeRTOS/Source/timers.c **** 				}
 479              		.loc 1 582 6 is_stmt 1 view .LVU118
 480 004e 814A     		ldr	r2, .L73+12	@ tmp268,
 481 0050 4FF08053 		mov	r3, #268435456	@ tmp207,
 482 0054 1360     		str	r3, [r2]	@ tmp207, MEM[(volatile uint32_t *)3758157060B]
 582:../../kernel/FreeRTOS/Source/timers.c **** 				}
 483              		.loc 1 582 6 view .LVU119
 484              		.syntax unified
 485              	@ 582 "../../kernel/FreeRTOS/Source/timers.c" 1
 486 0056 BFF34F8F 		dsb	
 487              	@ 0 "" 2
 582:../../kernel/FreeRTOS/Source/timers.c **** 				}
 488              		.loc 1 582 6 view .LVU120
 489              	@ 582 "../../kernel/FreeRTOS/Source/timers.c" 1
 490 005a BFF36F8F 		isb
 491              	@ 0 "" 2
 582:../../kernel/FreeRTOS/Source/timers.c **** 				}
 492              		.loc 1 582 28 view .LVU121
 493              	.LVL27:
 494              		.thumb
 495              		.syntax unified
 496              	.L19:
 582:../../kernel/FreeRTOS/Source/timers.c **** 				}
 497              		.loc 1 582 28 is_stmt 0 view .LVU122
 498              	.LBE126:
 499              	.LBE125:
 500              	.LBB157:
 501              	.LBB158:
 502              	@ ../../kernel/FreeRTOS/Source/timers.c:695: 	while( xQueueReceive( xTimerQueue, &xMessage, tmrNO_D
 695:../../kernel/FreeRTOS/Source/timers.c **** 	{
 503              		.loc 1 695 9 view .LVU123
 504 005e 4FF00008 		mov	r8, #0	@ tmp260,
 505              	.L29:
 506 0062 0022     		movs	r2, #0	@,
 507 0064 02A9     		add	r1, sp, #8	@,,
 508 0066 2868     		ldr	r0, [r5]	@, xTimerQueue
 509 0068 FFF7FEFF 		bl	xQueueReceive		@
 510              	.LVL28:
 511              	@ ../../kernel/FreeRTOS/Source/timers.c:695: 	while( xQueueReceive( xTimerQueue, &xMessage, tmrNO_D
 695:../../kernel/FreeRTOS/Source/timers.c **** 	{
 512              		.loc 1 695 7 view .LVU124
 513 006c 0028     		cmp	r0, #0	@
 514 006e D1D0     		beq	.L49	@
 701:../../kernel/FreeRTOS/Source/timers.c **** 			{
 515              		.loc 1 701 4 is_stmt 1 view .LVU125
 516              	@ ../../kernel/FreeRTOS/Source/timers.c:701: 			if( xMessage.xMessageID < ( BaseType_t ) 0 )
 701:../../kernel/FreeRTOS/Source/timers.c **** 			{
 517              		.loc 1 701 6 is_stmt 0 view .LVU126
 518 0070 029B     		ldr	r3, [sp, #8]	@ xMessage.xMessageID, xMessage.xMessageID
 519 0072 049C     		ldr	r4, [sp, #16]	@ prephitmp_113, MEM[(const struct CallbackParameters_t *)&xMessage + 4B].pvPara
 520 0074 002B     		cmp	r3, #0	@ xMessage.xMessageID,
 521 0076 1FDB     		blt	.L66		@,
 522              	.L28:
 725:../../kernel/FreeRTOS/Source/timers.c **** 
 523              		.loc 1 725 4 is_stmt 1 view .LVU127
ARM GAS  /tmp/cclihgpx.s 			page 31


 524              	.LVL29:
 727:../../kernel/FreeRTOS/Source/timers.c **** 			{
 525              		.loc 1 727 4 view .LVU128
 526              	@ ../../kernel/FreeRTOS/Source/timers.c:727: 			if( listIS_CONTAINED_WITHIN( NULL, &( pxTimer->xTim
 727:../../kernel/FreeRTOS/Source/timers.c **** 			{
 527              		.loc 1 727 6 is_stmt 0 view .LVU129
 528 0078 6369     		ldr	r3, [r4, #20]	@ prephitmp_113->xTimerListItem.pvContainer, prephitmp_113->xTimerListItem.pvCon
 529 007a 13B1     		cbz	r3, .L30	@ prephitmp_113->xTimerListItem.pvContainer,
 730:../../kernel/FreeRTOS/Source/timers.c **** 			}
 530              		.loc 1 730 5 is_stmt 1 view .LVU130
 531              	@ ../../kernel/FreeRTOS/Source/timers.c:730: 				( void ) uxListRemove( &( pxTimer->xTimerListItem 
 730:../../kernel/FreeRTOS/Source/timers.c **** 			}
 532              		.loc 1 730 14 is_stmt 0 view .LVU131
 533 007c 201D     		adds	r0, r4, #4	@, prephitmp_113,
 534 007e FFF7FEFF 		bl	uxListRemove		@
 535              	.LVL30:
 536              	.L30:
 734:../../kernel/FreeRTOS/Source/timers.c **** 			}
 537              		.loc 1 734 29 is_stmt 1 view .LVU132
 737:../../kernel/FreeRTOS/Source/timers.c **** 
 538              		.loc 1 737 106 view .LVU133
 745:../../kernel/FreeRTOS/Source/timers.c **** 
 539              		.loc 1 745 4 view .LVU134
 540              	.LBB159:
 541              	.LBI159:
 624:../../kernel/FreeRTOS/Source/timers.c **** {
 542              		.loc 1 624 19 view .LVU135
 543              	.LBB160:
 626:../../kernel/FreeRTOS/Source/timers.c **** PRIVILEGED_DATA static TickType_t xLastTime = ( TickType_t ) 0U; /*lint !e956 Variable is only acce
 544              		.loc 1 626 1 view .LVU136
 627:../../kernel/FreeRTOS/Source/timers.c **** 
 545              		.loc 1 627 17 view .LVU137
 629:../../kernel/FreeRTOS/Source/timers.c **** 
 546              		.loc 1 629 2 view .LVU138
 547              	@ ../../kernel/FreeRTOS/Source/timers.c:629: 	xTimeNow = xTaskGetTickCount();
 629:../../kernel/FreeRTOS/Source/timers.c **** 
 548              		.loc 1 629 13 is_stmt 0 view .LVU139
 549 0082 FFF7FEFF 		bl	xTaskGetTickCount		@
 550              	.LVL31:
 631:../../kernel/FreeRTOS/Source/timers.c **** 	{
 551              		.loc 1 631 2 is_stmt 1 view .LVU140
 552              	@ ../../kernel/FreeRTOS/Source/timers.c:631: 	if( xTimeNow < xLastTime )
 631:../../kernel/FreeRTOS/Source/timers.c **** 	{
 553              		.loc 1 631 4 is_stmt 0 view .LVU141
 554 0086 3368     		ldr	r3, [r6]	@ xLastTime, xLastTime
 555 0088 9842     		cmp	r0, r3	@ xTimeNow, xLastTime
 556 008a 35D3     		bcc	.L67		@,
 557              	.LVL32:
 558              	.L31:
 641:../../kernel/FreeRTOS/Source/timers.c **** 
 559              		.loc 1 641 2 is_stmt 1 view .LVU142
 560 008c 029B     		ldr	r3, [sp, #8]	@ _22, xMessage.xMessageID
 561              	@ ../../kernel/FreeRTOS/Source/timers.c:641: 	xLastTime = xTimeNow;
 641:../../kernel/FreeRTOS/Source/timers.c **** 
 562              		.loc 1 641 12 is_stmt 0 view .LVU143
 563 008e 3060     		str	r0, [r6]	@ xTimeNow, xLastTime
 643:../../kernel/FreeRTOS/Source/timers.c **** }
ARM GAS  /tmp/cclihgpx.s 			page 32


 564              		.loc 1 643 2 is_stmt 1 view .LVU144
 565              	.LVL33:
 643:../../kernel/FreeRTOS/Source/timers.c **** }
 566              		.loc 1 643 2 is_stmt 0 view .LVU145
 567              	.LBE160:
 568              	.LBE159:
 747:../../kernel/FreeRTOS/Source/timers.c **** 			{
 569              		.loc 1 747 4 is_stmt 1 view .LVU146
 570 0090 092B     		cmp	r3, #9	@ _22,
 571 0092 E6D8     		bhi	.L29		@,
 572 0094 0AFA03F3 		lsl	r3, r10, r3	@ _24, tmp263, _22
 573 0098 13F4047F 		tst	r3, #528	@ _24,
 574 009c 31D1     		bne	.L34		@,
 575 009e 13F0C70F 		tst	r3, #199	@ _24,
 576 00a2 55D1     		bne	.L35		@,
 577 00a4 9B06     		lsls	r3, r3, #26	@, _24,
 578 00a6 DCD5     		bpl	.L29		@,
 814:../../kernel/FreeRTOS/Source/timers.c **** 						{
 579              		.loc 1 814 7 view .LVU147
 580              	@ ../../kernel/FreeRTOS/Source/timers.c:814: 						if( pxTimer->ucStaticallyAllocated == ( uint8_t 
 814:../../kernel/FreeRTOS/Source/timers.c **** 						{
 581              		.loc 1 814 9 is_stmt 0 view .LVU148
 582 00a8 94F82C30 		ldrb	r3, [r4, #44]	@ zero_extendqisi2	@ prephitmp_113->ucStaticallyAllocated, prephitmp_113->ucSta
 583 00ac 002B     		cmp	r3, #0	@ prephitmp_113->ucStaticallyAllocated
 584 00ae D8D1     		bne	.L29	@
 816:../../kernel/FreeRTOS/Source/timers.c **** 						}
 585              		.loc 1 816 8 is_stmt 1 view .LVU149
 586 00b0 2046     		mov	r0, r4	@, prephitmp_113
 587 00b2 FFF7FEFF 		bl	vPortFree		@
 588              	.LVL34:
 589 00b6 D4E7     		b	.L29		@
 590              	.L66:
 591              	.LBB162:
 703:../../kernel/FreeRTOS/Source/timers.c **** 
 592              		.loc 1 703 5 view .LVU150
 593              	.LVL35:
 707:../../kernel/FreeRTOS/Source/timers.c **** 
 594              		.loc 1 707 5 view .LVU151
 707:../../kernel/FreeRTOS/Source/timers.c **** 
 595              		.loc 1 707 31 view .LVU152
 710:../../kernel/FreeRTOS/Source/timers.c **** 			}
 596              		.loc 1 710 5 view .LVU153
 597 00b8 039B     		ldr	r3, [sp, #12]	@ MEM[(const struct CallbackParameters_t *)&xMessage + 4B].pxCallbackFunction, M
 598 00ba 0599     		ldr	r1, [sp, #20]	@, MEM[(const struct CallbackParameters_t *)&xMessage + 4B].ulParameter2
 599 00bc 2046     		mov	r0, r4	@, prephitmp_113
 600 00be 9847     		blx	r3		@ MEM[(const struct CallbackParameters_t *)&xMessage + 4B].pxCallbackFunction
 601              	.LVL36:
 602              	.LBE162:
 714:../../kernel/FreeRTOS/Source/timers.c **** 			}
 603              		.loc 1 714 29 view .LVU154
 721:../../kernel/FreeRTOS/Source/timers.c **** 		{
 604              		.loc 1 721 3 view .LVU155
 605              	@ ../../kernel/FreeRTOS/Source/timers.c:721: 		if( xMessage.xMessageID >= ( BaseType_t ) 0 )
 721:../../kernel/FreeRTOS/Source/timers.c **** 		{
 606              		.loc 1 721 5 is_stmt 0 view .LVU156
 607 00c0 029B     		ldr	r3, [sp, #8]	@ xMessage.xMessageID, xMessage.xMessageID
 608 00c2 002B     		cmp	r3, #0	@ xMessage.xMessageID,
ARM GAS  /tmp/cclihgpx.s 			page 33


 609 00c4 CDDB     		blt	.L29		@,
 610 00c6 049C     		ldr	r4, [sp, #16]	@ prephitmp_113, xMessage.u.xTimerParameters.pxTimer
 611 00c8 D6E7     		b	.L28		@
 612              	.LVL37:
 613              	.L17:
 721:../../kernel/FreeRTOS/Source/timers.c **** 		{
 614              		.loc 1 721 5 view .LVU157
 615              	.LBE158:
 616              	.LBE157:
 617              	.LBB191:
 618              	.LBB123:
 620:../../kernel/FreeRTOS/Source/timers.c **** }
 619              		.loc 1 620 2 is_stmt 1 view .LVU158
 620:../../kernel/FreeRTOS/Source/timers.c **** }
 620              		.loc 1 620 2 is_stmt 0 view .LVU159
 621              	.LBE123:
 622              	.LBE191:
 530:../../kernel/FreeRTOS/Source/timers.c **** 
 623              		.loc 1 530 3 is_stmt 1 view .LVU160
 624              	.LBB192:
 538:../../kernel/FreeRTOS/Source/timers.c **** {
 625              		.loc 1 538 13 view .LVU161
 626              	.LBB153:
 540:../../kernel/FreeRTOS/Source/timers.c **** BaseType_t xTimerListsWereSwitched;
 627              		.loc 1 540 1 view .LVU162
 541:../../kernel/FreeRTOS/Source/timers.c **** 
 628              		.loc 1 541 1 view .LVU163
 543:../../kernel/FreeRTOS/Source/timers.c **** 	{
 629              		.loc 1 543 2 view .LVU164
 630 00ca FFF7FEFF 		bl	vTaskSuspendAll		@
 631              	.LVL38:
 550:../../kernel/FreeRTOS/Source/timers.c **** 		if( xTimerListsWereSwitched == pdFALSE )
 632              		.loc 1 550 3 view .LVU165
 633              	.LBB134:
 624:../../kernel/FreeRTOS/Source/timers.c **** {
 634              		.loc 1 624 19 view .LVU166
 635              	.LBB130:
 626:../../kernel/FreeRTOS/Source/timers.c **** PRIVILEGED_DATA static TickType_t xLastTime = ( TickType_t ) 0U; /*lint !e956 Variable is only acce
 636              		.loc 1 626 1 view .LVU167
 627:../../kernel/FreeRTOS/Source/timers.c **** 
 637              		.loc 1 627 17 view .LVU168
 629:../../kernel/FreeRTOS/Source/timers.c **** 
 638              		.loc 1 629 2 view .LVU169
 639              	@ ../../kernel/FreeRTOS/Source/timers.c:629: 	xTimeNow = xTaskGetTickCount();
 629:../../kernel/FreeRTOS/Source/timers.c **** 
 640              		.loc 1 629 13 is_stmt 0 view .LVU170
 641 00ce FFF7FEFF 		bl	xTaskGetTickCount		@
 642              	.LVL39:
 643              	@ ../../kernel/FreeRTOS/Source/timers.c:631: 	if( xTimeNow < xLastTime )
 631:../../kernel/FreeRTOS/Source/timers.c **** 	{
 644              		.loc 1 631 4 view .LVU171
 645 00d2 3368     		ldr	r3, [r6]	@ xLastTime, xLastTime
 646 00d4 8342     		cmp	r3, r0	@ xLastTime, xTimeNow
 647              	@ ../../kernel/FreeRTOS/Source/timers.c:629: 	xTimeNow = xTaskGetTickCount();
 629:../../kernel/FreeRTOS/Source/timers.c **** 
 648              		.loc 1 629 13 view .LVU172
 649 00d6 0446     		mov	r4, r0	@ xTimeNow,
ARM GAS  /tmp/cclihgpx.s 			page 34


 650              	.LVL40:
 631:../../kernel/FreeRTOS/Source/timers.c **** 	{
 651              		.loc 1 631 2 is_stmt 1 view .LVU173
 652              	@ ../../kernel/FreeRTOS/Source/timers.c:631: 	if( xTimeNow < xLastTime )
 631:../../kernel/FreeRTOS/Source/timers.c **** 	{
 653              		.loc 1 631 4 is_stmt 0 view .LVU174
 654 00d8 08D8     		bhi	.L55		@,
 655              	.LVL41:
 641:../../kernel/FreeRTOS/Source/timers.c **** 
 656              		.loc 1 641 2 is_stmt 1 view .LVU175
 657              	.LBE130:
 658              	.LBE134:
 659              	@ ../../kernel/FreeRTOS/Source/timers.c:571: 					xListWasEmpty = listLIST_IS_EMPTY( pxOverflowTime
 571:../../kernel/FreeRTOS/Source/timers.c **** 				}
 660              		.loc 1 571 22 is_stmt 0 view .LVU176
 661 00da D9F80030 		ldr	r3, [r9]	@ pxOverflowTimerList.9_50, pxOverflowTimerList
 662              	.LBB135:
 663              	.LBB131:
 664              	@ ../../kernel/FreeRTOS/Source/timers.c:641: 	xLastTime = xTimeNow;
 641:../../kernel/FreeRTOS/Source/timers.c **** 
 665              		.loc 1 641 12 view .LVU177
 666 00de 3460     		str	r4, [r6]	@ xTimeNow, xLastTime
 643:../../kernel/FreeRTOS/Source/timers.c **** }
 667              		.loc 1 643 2 is_stmt 1 view .LVU178
 668              	.LVL42:
 643:../../kernel/FreeRTOS/Source/timers.c **** }
 669              		.loc 1 643 2 is_stmt 0 view .LVU179
 670              	.LBE131:
 671              	.LBE135:
 551:../../kernel/FreeRTOS/Source/timers.c **** 		{
 672              		.loc 1 551 3 is_stmt 1 view .LVU180
 554:../../kernel/FreeRTOS/Source/timers.c **** 			{
 673              		.loc 1 554 4 view .LVU181
 567:../../kernel/FreeRTOS/Source/timers.c **** 				{
 674              		.loc 1 567 5 view .LVU182
 571:../../kernel/FreeRTOS/Source/timers.c **** 				}
 675              		.loc 1 571 6 view .LVU183
 676              	@ ../../kernel/FreeRTOS/Source/timers.c:571: 					xListWasEmpty = listLIST_IS_EMPTY( pxOverflowTime
 571:../../kernel/FreeRTOS/Source/timers.c **** 				}
 677              		.loc 1 571 22 is_stmt 0 view .LVU184
 678 00e0 1A68     		ldr	r2, [r3]	@ _51, pxOverflowTimerList.9_50->uxNumberOfItems
 679 00e2 B2FA82F2 		clz	r2, r2	@ xListWasEmpty, _51
 680              	.LBE153:
 681              	.LBE192:
 682              	.LBB193:
 683              	.LBB124:
 684              	@ ../../kernel/FreeRTOS/Source/timers.c:617: 		xNextExpireTime = ( TickType_t ) 0U;
 617:../../kernel/FreeRTOS/Source/timers.c **** 	}
 685              		.loc 1 617 19 view .LVU185
 686 00e6 C346     		mov	fp, r8	@ xNextExpireTime, _6
 687              	.LBE124:
 688              	.LBE193:
 689              	.LBB194:
 690              	.LBB154:
 691              	@ ../../kernel/FreeRTOS/Source/timers.c:571: 					xListWasEmpty = listLIST_IS_EMPTY( pxOverflowTime
 571:../../kernel/FreeRTOS/Source/timers.c **** 				}
 692              		.loc 1 571 22 view .LVU186
ARM GAS  /tmp/cclihgpx.s 			page 35


 693 00e8 5209     		lsrs	r2, r2, #5	@ xListWasEmpty, xListWasEmpty,
 694              	.LVL43:
 571:../../kernel/FreeRTOS/Source/timers.c **** 				}
 695              		.loc 1 571 22 view .LVU187
 696 00ea A8E7     		b	.L54		@
 697              	.LVL44:
 698              	.L55:
 699              	.LBB136:
 700              	.LBB132:
 633:../../kernel/FreeRTOS/Source/timers.c **** 		*pxTimerListsWereSwitched = pdTRUE;
 701              		.loc 1 633 3 is_stmt 1 view .LVU188
 702 00ec FFF7FEFF 		bl	prvSwitchTimerLists		@
 703              	.LVL45:
 634:../../kernel/FreeRTOS/Source/timers.c **** 	}
 704              		.loc 1 634 3 view .LVU189
 641:../../kernel/FreeRTOS/Source/timers.c **** 
 705              		.loc 1 641 2 view .LVU190
 706              	@ ../../kernel/FreeRTOS/Source/timers.c:641: 	xLastTime = xTimeNow;
 641:../../kernel/FreeRTOS/Source/timers.c **** 
 707              		.loc 1 641 12 is_stmt 0 view .LVU191
 708 00f0 3460     		str	r4, [r6]	@ xTimeNow, xLastTime
 643:../../kernel/FreeRTOS/Source/timers.c **** }
 709              		.loc 1 643 2 is_stmt 1 view .LVU192
 710              	.LVL46:
 643:../../kernel/FreeRTOS/Source/timers.c **** }
 711              		.loc 1 643 2 is_stmt 0 view .LVU193
 712              	.LBE132:
 713              	.LBE136:
 551:../../kernel/FreeRTOS/Source/timers.c **** 		{
 714              		.loc 1 551 3 is_stmt 1 view .LVU194
 592:../../kernel/FreeRTOS/Source/timers.c **** 		}
 715              		.loc 1 592 4 view .LVU195
 716              	@ ../../kernel/FreeRTOS/Source/timers.c:592: 			( void ) xTaskResumeAll();
 592:../../kernel/FreeRTOS/Source/timers.c **** 		}
 717              		.loc 1 592 13 is_stmt 0 view .LVU196
 718 00f2 FFF7FEFF 		bl	xTaskResumeAll		@
 719              	.LVL47:
 720 00f6 B2E7     		b	.L19		@
 721              	.LVL48:
 722              	.L67:
 592:../../kernel/FreeRTOS/Source/timers.c **** 		}
 723              		.loc 1 592 13 view .LVU197
 724 00f8 0190     		str	r0, [sp, #4]	@ xTimeNow, %sfp
 725              	.LBE154:
 726              	.LBE194:
 727              	.LBB195:
 728              	.LBB189:
 729              	.LBB163:
 730              	.LBB161:
 633:../../kernel/FreeRTOS/Source/timers.c **** 		*pxTimerListsWereSwitched = pdTRUE;
 731              		.loc 1 633 3 is_stmt 1 view .LVU198
 732 00fa FFF7FEFF 		bl	prvSwitchTimerLists		@
 733              	.LVL49:
 633:../../kernel/FreeRTOS/Source/timers.c **** 		*pxTimerListsWereSwitched = pdTRUE;
 734              		.loc 1 633 3 is_stmt 0 view .LVU199
 735 00fe 0198     		ldr	r0, [sp, #4]	@ xTimeNow, %sfp
 634:../../kernel/FreeRTOS/Source/timers.c **** 	}
ARM GAS  /tmp/cclihgpx.s 			page 36


 736              		.loc 1 634 3 is_stmt 1 view .LVU200
 737              	.LVL50:
 634:../../kernel/FreeRTOS/Source/timers.c **** 	}
 738              		.loc 1 634 3 is_stmt 0 view .LVU201
 739 0100 C4E7     		b	.L31		@
 740              	.LVL51:
 741              	.L34:
 634:../../kernel/FreeRTOS/Source/timers.c **** 	}
 742              		.loc 1 634 3 view .LVU202
 743              	.LBE161:
 744              	.LBE163:
 787:../../kernel/FreeRTOS/Source/timers.c **** 					configASSERT( ( pxTimer->xTimerPeriodInTicks > 0 ) );
 745              		.loc 1 787 6 is_stmt 1 view .LVU203
 746              	@ ../../kernel/FreeRTOS/Source/timers.c:787: 					pxTimer->xTimerPeriodInTicks = xMessage.u.xTimerP
 787:../../kernel/FreeRTOS/Source/timers.c **** 					configASSERT( ( pxTimer->xTimerPeriodInTicks > 0 ) );
 747              		.loc 1 787 64 is_stmt 0 view .LVU204
 748 0102 039B     		ldr	r3, [sp, #12]	@ _42, xMessage.u.xTimerParameters.xMessageValue
 749              	@ ../../kernel/FreeRTOS/Source/timers.c:787: 					pxTimer->xTimerPeriodInTicks = xMessage.u.xTimerP
 787:../../kernel/FreeRTOS/Source/timers.c **** 					configASSERT( ( pxTimer->xTimerPeriodInTicks > 0 ) );
 750              		.loc 1 787 35 view .LVU205
 751 0104 A361     		str	r3, [r4, #24]	@ _42, prephitmp_113->xTimerPeriodInTicks
 788:../../kernel/FreeRTOS/Source/timers.c **** 
 752              		.loc 1 788 6 is_stmt 1 view .LVU206
 753 0106 002B     		cmp	r3, #0	@ _42
 754 0108 65D0     		beq	.L68	@
 788:../../kernel/FreeRTOS/Source/timers.c **** 
 755              		.loc 1 788 58 view .LVU207
 796:../../kernel/FreeRTOS/Source/timers.c **** 					break;
 756              		.loc 1 796 6 view .LVU208
 757              	@ ../../kernel/FreeRTOS/Source/timers.c:796: 					( void ) prvInsertTimerInActiveList( pxTimer, ( x
 796:../../kernel/FreeRTOS/Source/timers.c **** 					break;
 758              		.loc 1 796 15 is_stmt 0 view .LVU209
 759 010a 0344     		add	r3, r3, r0	@ _44, xTimeNow
 760              	.LVL52:
 761              	.LBB164:
 762              	.LBI164:
 647:../../kernel/FreeRTOS/Source/timers.c **** {
 763              		.loc 1 647 19 is_stmt 1 view .LVU210
 764              	.LBB165:
 649:../../kernel/FreeRTOS/Source/timers.c **** 
 765              		.loc 1 649 1 view .LVU211
 651:../../kernel/FreeRTOS/Source/timers.c **** 	listSET_LIST_ITEM_OWNER( &( pxTimer->xTimerListItem ), pxTimer );
 766              		.loc 1 651 2 view .LVU212
 767              	@ ../../kernel/FreeRTOS/Source/timers.c:654: 	if( xNextExpiryTime <= xTimeNow )
 654:../../kernel/FreeRTOS/Source/timers.c **** 	{
 768              		.loc 1 654 4 is_stmt 0 view .LVU213
 769 010c 8342     		cmp	r3, r0	@ _44, xTimeNow
 770              	@ ../../kernel/FreeRTOS/Source/timers.c:651: 	listSET_LIST_ITEM_VALUE( &( pxTimer->xTimerListItem )
 651:../../kernel/FreeRTOS/Source/timers.c **** 	listSET_LIST_ITEM_OWNER( &( pxTimer->xTimerListItem ), pxTimer );
 771              		.loc 1 651 2 view .LVU214
 772 010e 6360     		str	r3, [r4, #4]	@ _44, prephitmp_113->xTimerListItem.xItemValue
 652:../../kernel/FreeRTOS/Source/timers.c **** 
 773              		.loc 1 652 2 is_stmt 1 view .LVU215
 774 0110 2461     		str	r4, [r4, #16]	@ prephitmp_113, prephitmp_113->xTimerListItem.pvOwner
 654:../../kernel/FreeRTOS/Source/timers.c **** 	{
 775              		.loc 1 654 2 view .LVU216
 658:../../kernel/FreeRTOS/Source/timers.c **** 		{
ARM GAS  /tmp/cclihgpx.s 			page 37


 776              		.loc 1 658 3 view .LVU217
 777              	.LVL53:
 778              	.LBB166:
 779              	.LBI166:
 647:../../kernel/FreeRTOS/Source/timers.c **** {
 780              		.loc 1 647 19 view .LVU218
 781              	.LBB167:
 666:../../kernel/FreeRTOS/Source/timers.c **** 		}
 782              		.loc 1 666 4 view .LVU219
 783              	.LBE167:
 784              	.LBE166:
 671:../../kernel/FreeRTOS/Source/timers.c **** 		{
 785              		.loc 1 671 3 view .LVU220
 680:../../kernel/FreeRTOS/Source/timers.c **** 		}
 786              		.loc 1 680 4 view .LVU221
 787 0112 04F10401 		add	r1, r4, #4	@ pretmp_109, prephitmp_113,
 788              	.LBB169:
 789              	.LBB168:
 790              	@ ../../kernel/FreeRTOS/Source/timers.c:666: 			vListInsert( pxOverflowTimerList, &( pxTimer->xTime
 666:../../kernel/FreeRTOS/Source/timers.c **** 		}
 791              		.loc 1 666 4 is_stmt 0 view .LVU222
 792 0116 94BF     		ite	ls
 793 0118 D9F80000 		ldrls	r0, [r9]	@, pxOverflowTimerList
 794              	.LBE168:
 795              	.LBE169:
 796              	@ ../../kernel/FreeRTOS/Source/timers.c:680: 			vListInsert( pxCurrentTimerList, &( pxTimer->xTimer
 680:../../kernel/FreeRTOS/Source/timers.c **** 		}
 797              		.loc 1 680 4 view .LVU223
 798 011c 3868     		ldrhi	r0, [r7]	@, pxCurrentTimerList
 799 011e FFF7FEFF 		bl	vListInsert		@
 800              	.LVL54:
 680:../../kernel/FreeRTOS/Source/timers.c **** 		}
 801              		.loc 1 680 4 view .LVU224
 802 0122 9EE7     		b	.L29		@
 803              	.LVL55:
 804              	.L53:
 680:../../kernel/FreeRTOS/Source/timers.c **** 		}
 805              		.loc 1 680 4 view .LVU225
 806              	.LBE165:
 807              	.LBE164:
 808              	.LBE189:
 809              	.LBE195:
 810              	.LBB196:
 811              	.LBB155:
 556:../../kernel/FreeRTOS/Source/timers.c **** 				prvProcessExpiredTimer( xNextExpireTime, xTimeNow );
 812              		.loc 1 556 5 is_stmt 1 view .LVU226
 813              	@ ../../kernel/FreeRTOS/Source/timers.c:556: 				( void ) xTaskResumeAll();
 556:../../kernel/FreeRTOS/Source/timers.c **** 				prvProcessExpiredTimer( xNextExpireTime, xTimeNow );
 814              		.loc 1 556 14 is_stmt 0 view .LVU227
 815 0124 FFF7FEFF 		bl	xTaskResumeAll		@
 816              	.LVL56:
 557:../../kernel/FreeRTOS/Source/timers.c **** 			}
 817              		.loc 1 557 5 is_stmt 1 view .LVU228
 818              	.LBB137:
 819              	.LBI137:
 462:../../kernel/FreeRTOS/Source/timers.c **** {
 820              		.loc 1 462 13 view .LVU229
ARM GAS  /tmp/cclihgpx.s 			page 38


 821              	.LBB138:
 464:../../kernel/FreeRTOS/Source/timers.c **** Timer_t * const pxTimer = ( Timer_t * ) listGET_OWNER_OF_HEAD_ENTRY( pxCurrentTimerList );
 822              		.loc 1 464 1 view .LVU230
 465:../../kernel/FreeRTOS/Source/timers.c **** 
 823              		.loc 1 465 1 view .LVU231
 824              	@ ../../kernel/FreeRTOS/Source/timers.c:465: Timer_t * const pxTimer = ( Timer_t * ) listGET_OWNER_
 465:../../kernel/FreeRTOS/Source/timers.c **** 
 825              		.loc 1 465 41 is_stmt 0 view .LVU232
 826 0128 3A68     		ldr	r2, [r7]	@ pxCurrentTimerList, pxCurrentTimerList
 827              	@ ../../kernel/FreeRTOS/Source/timers.c:465: Timer_t * const pxTimer = ( Timer_t * ) listGET_OWNER_
 465:../../kernel/FreeRTOS/Source/timers.c **** 
 828              		.loc 1 465 17 view .LVU233
 829 012a D268     		ldr	r2, [r2, #12]	@ pxCurrentTimerList.17_60->xListEnd.pxNext, pxCurrentTimerList.17_60->xListEnd.
 830 012c D2F80C80 		ldr	r8, [r2, #12]	@ pxTimer, _61->pvOwner
 831              	.LVL57:
 469:../../kernel/FreeRTOS/Source/timers.c **** 	traceTIMER_EXPIRED( pxTimer );
 832              		.loc 1 469 2 is_stmt 1 view .LVU234
 833              	@ ../../kernel/FreeRTOS/Source/timers.c:469: 	( void ) uxListRemove( &( pxTimer->xTimerListItem ) )
 469:../../kernel/FreeRTOS/Source/timers.c **** 	traceTIMER_EXPIRED( pxTimer );
 834              		.loc 1 469 11 is_stmt 0 view .LVU235
 835 0130 08F10401 		add	r1, r8, #4	@ _63, pxTimer,
 836 0134 0846     		mov	r0, r1	@, _63
 837 0136 0191     		str	r1, [sp, #4]	@ _63, %sfp
 838 0138 FFF7FEFF 		bl	uxListRemove		@
 839              	.LVL58:
 470:../../kernel/FreeRTOS/Source/timers.c **** 
 840              		.loc 1 470 31 is_stmt 1 view .LVU236
 474:../../kernel/FreeRTOS/Source/timers.c **** 	{
 841              		.loc 1 474 2 view .LVU237
 842              	@ ../../kernel/FreeRTOS/Source/timers.c:474: 	if( pxTimer->uxAutoReload == ( UBaseType_t ) pdTRUE )
 474:../../kernel/FreeRTOS/Source/timers.c **** 	{
 843              		.loc 1 474 4 is_stmt 0 view .LVU238
 844 013c D8F81C20 		ldr	r2, [r8, #28]	@ pxTimer_62->uxAutoReload, pxTimer_62->uxAutoReload
 845 0140 0199     		ldr	r1, [sp, #4]	@ _63, %sfp
 846 0142 012A     		cmp	r2, #1	@ pxTimer_62->uxAutoReload,
 847 0144 50D0     		beq	.L69		@,
 848              	.LVL59:
 849              	.L23:
 494:../../kernel/FreeRTOS/Source/timers.c **** 	}
 850              		.loc 1 494 27 is_stmt 1 view .LVU239
 498:../../kernel/FreeRTOS/Source/timers.c **** }
 851              		.loc 1 498 2 view .LVU240
 852 0146 D8F82430 		ldr	r3, [r8, #36]	@ pxTimer_62->pxCallbackFunction, pxTimer_62->pxCallbackFunction
 853 014a 4046     		mov	r0, r8	@, pxTimer
 854 014c 9847     		blx	r3		@ pxTimer_62->pxCallbackFunction
 855              	.LVL60:
 856 014e 86E7     		b	.L19		@
 857              	.LVL61:
 858              	.L35:
 498:../../kernel/FreeRTOS/Source/timers.c **** }
 859              		.loc 1 498 2 is_stmt 0 view .LVU241
 860              	.LBE138:
 861              	.LBE137:
 862              	.LBE155:
 863              	.LBE196:
 864              	.LBB197:
 865              	.LBB190:
ARM GAS  /tmp/cclihgpx.s 			page 39


 755:../../kernel/FreeRTOS/Source/timers.c **** 					{
 866              		.loc 1 755 6 is_stmt 1 view .LVU242
 867              	@ ../../kernel/FreeRTOS/Source/timers.c:755: 					if( prvInsertTimerInActiveList( pxTimer,  xMessag
 755:../../kernel/FreeRTOS/Source/timers.c **** 					{
 868              		.loc 1 755 75 is_stmt 0 view .LVU243
 869 0150 039B     		ldr	r3, [sp, #12]	@ _31, xMessage.u.xTimerParameters.xMessageValue
 870              	@ ../../kernel/FreeRTOS/Source/timers.c:755: 					if( prvInsertTimerInActiveList( pxTimer,  xMessag
 755:../../kernel/FreeRTOS/Source/timers.c **** 					{
 871              		.loc 1 755 99 view .LVU244
 872 0152 A269     		ldr	r2, [r4, #24]	@ _32, prephitmp_113->xTimerPeriodInTicks
 873              	.LBB170:
 874              	.LBB171:
 875              	@ ../../kernel/FreeRTOS/Source/timers.c:652: 	listSET_LIST_ITEM_OWNER( &( pxTimer->xTimerListItem )
 652:../../kernel/FreeRTOS/Source/timers.c **** 
 876              		.loc 1 652 2 view .LVU245
 877 0154 2461     		str	r4, [r4, #16]	@ prephitmp_113, prephitmp_113->xTimerListItem.pvOwner
 878 0156 9918     		adds	r1, r3, r2	@ tmp221, _31, _32
 879 0158 2CBF     		ite	cs
 880 015a 4FF0010C 		movcs	ip, #1	@ _191,
 881 015e 4FF0000C 		movcc	ip, #0	@ _191,
 882              	.LVL62:
 652:../../kernel/FreeRTOS/Source/timers.c **** 
 883              		.loc 1 652 2 view .LVU246
 884              	.LBE171:
 885              	.LBI170:
 647:../../kernel/FreeRTOS/Source/timers.c **** {
 886              		.loc 1 647 19 is_stmt 1 view .LVU247
 887              	.LBB174:
 649:../../kernel/FreeRTOS/Source/timers.c **** 
 888              		.loc 1 649 1 view .LVU248
 651:../../kernel/FreeRTOS/Source/timers.c **** 	listSET_LIST_ITEM_OWNER( &( pxTimer->xTimerListItem ), pxTimer );
 889              		.loc 1 651 2 view .LVU249
 652:../../kernel/FreeRTOS/Source/timers.c **** 
 890              		.loc 1 652 2 view .LVU250
 654:../../kernel/FreeRTOS/Source/timers.c **** 	{
 891              		.loc 1 654 2 view .LVU251
 892              	@ ../../kernel/FreeRTOS/Source/timers.c:654: 	if( xNextExpiryTime <= xTimeNow )
 654:../../kernel/FreeRTOS/Source/timers.c **** 	{
 893              		.loc 1 654 4 is_stmt 0 view .LVU252
 894 0162 8142     		cmp	r1, r0	@ tmp221, xTimeNow
 895              	@ ../../kernel/FreeRTOS/Source/timers.c:651: 	listSET_LIST_ITEM_VALUE( &( pxTimer->xTimerListItem )
 651:../../kernel/FreeRTOS/Source/timers.c **** 	listSET_LIST_ITEM_OWNER( &( pxTimer->xTimerListItem ), pxTimer );
 896              		.loc 1 651 2 view .LVU253
 897 0164 6160     		str	r1, [r4, #4]	@ tmp221, prephitmp_113->xTimerListItem.xItemValue
 898              	@ ../../kernel/FreeRTOS/Source/timers.c:654: 	if( xNextExpiryTime <= xTimeNow )
 654:../../kernel/FreeRTOS/Source/timers.c **** 	{
 899              		.loc 1 654 4 view .LVU254
 900 0166 26D8     		bhi	.L40		@,
 658:../../kernel/FreeRTOS/Source/timers.c **** 		{
 901              		.loc 1 658 3 is_stmt 1 view .LVU255
 902              	@ ../../kernel/FreeRTOS/Source/timers.c:658: 		if( ( ( TickType_t ) ( xTimeNow - xCommandTime ) ) >
 658:../../kernel/FreeRTOS/Source/timers.c **** 		{
 903              		.loc 1 658 9 is_stmt 0 view .LVU256
 904 0168 C31A     		subs	r3, r0, r3	@ tmp222, xTimeNow, _31
 905              	.LVL63:
 906              	@ ../../kernel/FreeRTOS/Source/timers.c:658: 		if( ( ( TickType_t ) ( xTimeNow - xCommandTime ) ) >
 658:../../kernel/FreeRTOS/Source/timers.c **** 		{
ARM GAS  /tmp/cclihgpx.s 			page 40


 907              		.loc 1 658 5 view .LVU257
 908 016a 9A42     		cmp	r2, r3	@ _32, tmp222
 909 016c 2DD8     		bhi	.L70		@,
 910              	.L41:
 911              	.LBE174:
 912              	.LBE170:
 759:../../kernel/FreeRTOS/Source/timers.c **** 						traceTIMER_EXPIRED( pxTimer );
 913              		.loc 1 759 7 is_stmt 1 view .LVU258
 914 016e 636A     		ldr	r3, [r4, #36]	@ prephitmp_113->pxCallbackFunction, prephitmp_113->pxCallbackFunction
 915 0170 2046     		mov	r0, r4	@, prephitmp_113
 916 0172 9847     		blx	r3		@ prephitmp_113->pxCallbackFunction
 917              	.LVL64:
 760:../../kernel/FreeRTOS/Source/timers.c **** 
 918              		.loc 1 760 36 view .LVU259
 762:../../kernel/FreeRTOS/Source/timers.c **** 						{
 919              		.loc 1 762 7 view .LVU260
 920              	@ ../../kernel/FreeRTOS/Source/timers.c:762: 						if( pxTimer->uxAutoReload == ( UBaseType_t ) pdT
 762:../../kernel/FreeRTOS/Source/timers.c **** 						{
 921              		.loc 1 762 9 is_stmt 0 view .LVU261
 922 0174 E369     		ldr	r3, [r4, #28]	@ prephitmp_113->uxAutoReload, prephitmp_113->uxAutoReload
 923 0176 012B     		cmp	r3, #1	@ prephitmp_113->uxAutoReload,
 924 0178 7FF473AF 		bne	.L29		@,
 764:../../kernel/FreeRTOS/Source/timers.c **** 							configASSERT( xResult );
 925              		.loc 1 764 8 is_stmt 1 view .LVU262
 926              	.LVL65:
 927              	.LBB176:
 928              	.LBI176:
 381:../../kernel/FreeRTOS/Source/timers.c **** {
 929              		.loc 1 381 12 view .LVU263
 930              	.LBB177:
 383:../../kernel/FreeRTOS/Source/timers.c **** DaemonTaskMessage_t xMessage;
 931              		.loc 1 383 1 view .LVU264
 384:../../kernel/FreeRTOS/Source/timers.c **** 
 932              		.loc 1 384 1 view .LVU265
 386:../../kernel/FreeRTOS/Source/timers.c **** 
 933              		.loc 1 386 2 view .LVU266
 386:../../kernel/FreeRTOS/Source/timers.c **** 
 934              		.loc 1 386 24 view .LVU267
 390:../../kernel/FreeRTOS/Source/timers.c **** 	{
 935              		.loc 1 390 2 view .LVU268
 936              	@ ../../kernel/FreeRTOS/Source/timers.c:390: 	if( xTimerQueue != NULL )
 390:../../kernel/FreeRTOS/Source/timers.c **** 	{
 937              		.loc 1 390 4 is_stmt 0 view .LVU269
 938 017c 2B68     		ldr	r3, [r5]	@ xTimerQueue, xTimerQueue
 939 017e 8BB1     		cbz	r3, .L43	@ xTimerQueue,
 940              	.LBE177:
 941              	.LBE176:
 942              	@ ../../kernel/FreeRTOS/Source/timers.c:764: 							xResult = xTimerGenericCommand( pxTimer, tmrCOM
 764:../../kernel/FreeRTOS/Source/timers.c **** 							configASSERT( xResult );
 943              		.loc 1 764 129 view .LVU270
 944 0180 A269     		ldr	r2, [r4, #24]	@ _4, prephitmp_113->xTimerPeriodInTicks
 945              	.LBB181:
 946              	.LBB178:
 393:../../kernel/FreeRTOS/Source/timers.c **** 		xMessage.u.xTimerParameters.xMessageValue = xOptionalValue;
 947              		.loc 1 393 3 is_stmt 1 view .LVU271
 948              	.LBE178:
 949              	.LBE181:
ARM GAS  /tmp/cclihgpx.s 			page 41


 950              	@ ../../kernel/FreeRTOS/Source/timers.c:764: 							xResult = xTimerGenericCommand( pxTimer, tmrCOM
 764:../../kernel/FreeRTOS/Source/timers.c **** 							configASSERT( xResult );
 951              		.loc 1 764 105 is_stmt 0 view .LVU272
 952 0182 039B     		ldr	r3, [sp, #12]	@ _3, xMessage.u.xTimerParameters.xMessageValue
 953              	.LBB182:
 954              	.LBB179:
 955              	@ ../../kernel/FreeRTOS/Source/timers.c:393: 		xMessage.xMessageID = xCommandID;
 393:../../kernel/FreeRTOS/Source/timers.c **** 		xMessage.u.xTimerParameters.xMessageValue = xOptionalValue;
 956              		.loc 1 393 23 view .LVU273
 957 0184 CDF81880 		str	r8, [sp, #24]	@ tmp260, xMessage.xMessageID
 394:../../kernel/FreeRTOS/Source/timers.c **** 		xMessage.u.xTimerParameters.pxTimer = ( Timer_t * ) xTimer;
 958              		.loc 1 394 3 is_stmt 1 view .LVU274
 959              	.LBE179:
 960              	.LBE182:
 961              	@ ../../kernel/FreeRTOS/Source/timers.c:764: 							xResult = xTimerGenericCommand( pxTimer, tmrCOM
 764:../../kernel/FreeRTOS/Source/timers.c **** 							configASSERT( xResult );
 962              		.loc 1 764 18 is_stmt 0 view .LVU275
 963 0188 1344     		add	r3, r3, r2	@ tmp230, _4
 964              	.LBB183:
 965              	.LBB180:
 966              	@ ../../kernel/FreeRTOS/Source/timers.c:395: 		xMessage.u.xTimerParameters.pxTimer = ( Timer_t * ) 
 395:../../kernel/FreeRTOS/Source/timers.c **** 
 967              		.loc 1 395 39 view .LVU276
 968 018a CDE90734 		strd	r3, r4, [sp, #28]	@ tmp230, prephitmp_113,,
 397:../../kernel/FreeRTOS/Source/timers.c **** 		{
 969              		.loc 1 397 3 is_stmt 1 view .LVU277
 399:../../kernel/FreeRTOS/Source/timers.c **** 			{
 970              		.loc 1 399 4 view .LVU278
 971              	@ ../../kernel/FreeRTOS/Source/timers.c:399: 			if( xTaskGetSchedulerState() == taskSCHEDULER_RUNNI
 399:../../kernel/FreeRTOS/Source/timers.c **** 			{
 972              		.loc 1 399 8 is_stmt 0 view .LVU279
 973 018e FFF7FEFF 		bl	xTaskGetSchedulerState		@
 974              	.LVL66:
 401:../../kernel/FreeRTOS/Source/timers.c **** 			}
 975              		.loc 1 401 5 is_stmt 1 view .LVU280
 976              	@ ../../kernel/FreeRTOS/Source/timers.c:401: 				xReturn = xQueueSendToBack( xTimerQueue, &xMessage
 401:../../kernel/FreeRTOS/Source/timers.c **** 			}
 977              		.loc 1 401 15 is_stmt 0 view .LVU281
 978 0192 0023     		movs	r3, #0	@,
 979 0194 1A46     		mov	r2, r3	@,
 980 0196 06A9     		add	r1, sp, #24	@ tmp269,,
 981 0198 2868     		ldr	r0, [r5]	@, xTimerQueue
 982 019a FFF7FEFF 		bl	xQueueGenericSend		@
 983              	.LVL67:
 417:../../kernel/FreeRTOS/Source/timers.c **** 	}
 984              		.loc 1 417 27 is_stmt 1 view .LVU282
 420:../../kernel/FreeRTOS/Source/timers.c **** }
 985              		.loc 1 420 2 view .LVU283
 420:../../kernel/FreeRTOS/Source/timers.c **** }
 986              		.loc 1 420 2 is_stmt 0 view .LVU284
 987              	.LBE180:
 988              	.LBE183:
 765:../../kernel/FreeRTOS/Source/timers.c **** 							( void ) xResult;
 989              		.loc 1 765 8 is_stmt 1 view .LVU285
 990 019e 0028     		cmp	r0, #0	@
 991 01a0 7FF45FAF 		bne	.L29	@
 992              	.LVL68:
ARM GAS  /tmp/cclihgpx.s 			page 42


 993              	.L43:
 765:../../kernel/FreeRTOS/Source/timers.c **** 							( void ) xResult;
 994              		.loc 1 765 8 view .LVU286
 995              	.LBB184:
 996              	.LBI184:
 191:../../kernel/FreeRTOS/Source/portable/GCC/ARM_CM4F/portmacro.h **** {
 997              		.loc 2 191 30 view .LVU287
 998              	.LBB185:
 193:../../kernel/FreeRTOS/Source/portable/GCC/ARM_CM4F/portmacro.h **** 
 999              		.loc 2 193 1 view .LVU288
 1000              		.loc 2 195 2 view .LVU289
 1001              		.syntax unified
 1002              	@ 195 "../../kernel/FreeRTOS/Source/portable/GCC/ARM_CM4F/portmacro.h" 1
 1003 01a4 4FF0A003 			mov r3, #160													@ ulNewBASEPRI,
 1004 01a8 83F31188 		msr basepri, r3												@ ulNewBASEPRI
 1005 01ac BFF36F8F 		isb														
 1006 01b0 BFF34F8F 		dsb														
 1007              	
 1008              	@ 0 "" 2
 1009              	.LVL69:
 1010              		.thumb
 1011              		.syntax unified
 1012              	.L44:
 1013              		.loc 2 195 2 is_stmt 0 view .LVU290
 1014              	.LBE185:
 1015              	.LBE184:
 765:../../kernel/FreeRTOS/Source/timers.c **** 							( void ) xResult;
 1016              		.loc 1 765 8 is_stmt 1 view .LVU291
 765:../../kernel/FreeRTOS/Source/timers.c **** 							( void ) xResult;
 1017              		.loc 1 765 8 view .LVU292
 765:../../kernel/FreeRTOS/Source/timers.c **** 							( void ) xResult;
 1018              		.loc 1 765 8 view .LVU293
 765:../../kernel/FreeRTOS/Source/timers.c **** 							( void ) xResult;
 1019              		.loc 1 765 8 view .LVU294
 1020 01b4 FEE7     		b	.L44		@
 1021              	.LVL70:
 1022              	.L40:
 1023              	.LBB186:
 1024              	.LBB175:
 671:../../kernel/FreeRTOS/Source/timers.c **** 		{
 1025              		.loc 1 671 3 view .LVU295
 1026              	@ ../../kernel/FreeRTOS/Source/timers.c:671: 		if( ( xTimeNow < xCommandTime ) && ( xNextExpiryTime
 671:../../kernel/FreeRTOS/Source/timers.c **** 		{
 1027              		.loc 1 671 5 is_stmt 0 view .LVU296
 1028 01b6 8342     		cmp	r3, r0	@ _31, xTimeNow
 1029 01b8 02D9     		bls	.L42		@,
 1030              	@ ../../kernel/FreeRTOS/Source/timers.c:671: 		if( ( xTimeNow < xCommandTime ) && ( xNextExpiryTime
 671:../../kernel/FreeRTOS/Source/timers.c **** 		{
 1031              		.loc 1 671 35 view .LVU297
 1032 01ba BCF1000F 		cmp	ip, #0	@ _191
 1033 01be D6D0     		beq	.L41	@
 1034              	.L42:
 680:../../kernel/FreeRTOS/Source/timers.c **** 		}
 1035              		.loc 1 680 4 is_stmt 1 view .LVU298
 1036 01c0 211D     		adds	r1, r4, #4	@, prephitmp_113,
 1037              	.LVL71:
 680:../../kernel/FreeRTOS/Source/timers.c **** 		}
ARM GAS  /tmp/cclihgpx.s 			page 43


 1038              		.loc 1 680 4 is_stmt 0 view .LVU299
 1039 01c2 3868     		ldr	r0, [r7]	@, pxCurrentTimerList
 1040 01c4 FFF7FEFF 		bl	vListInsert		@
 1041              	.LVL72:
 684:../../kernel/FreeRTOS/Source/timers.c **** }
 1042              		.loc 1 684 2 is_stmt 1 view .LVU300
 684:../../kernel/FreeRTOS/Source/timers.c **** }
 1043              		.loc 1 684 2 is_stmt 0 view .LVU301
 1044 01c8 4BE7     		b	.L29		@
 1045              	.LVL73:
 1046              	.L70:
 1047              	.LBB172:
 1048              	.LBI172:
 647:../../kernel/FreeRTOS/Source/timers.c **** {
 1049              		.loc 1 647 19 is_stmt 1 view .LVU302
 1050              	.LBB173:
 666:../../kernel/FreeRTOS/Source/timers.c **** 		}
 1051              		.loc 1 666 4 view .LVU303
 1052 01ca 211D     		adds	r1, r4, #4	@, prephitmp_113,
 1053              	.LVL74:
 666:../../kernel/FreeRTOS/Source/timers.c **** 		}
 1054              		.loc 1 666 4 is_stmt 0 view .LVU304
 1055 01cc D9F80000 		ldr	r0, [r9]	@, pxOverflowTimerList
 1056 01d0 FFF7FEFF 		bl	vListInsert		@
 1057              	.LVL75:
 684:../../kernel/FreeRTOS/Source/timers.c **** }
 1058              		.loc 1 684 2 is_stmt 1 view .LVU305
 684:../../kernel/FreeRTOS/Source/timers.c **** }
 1059              		.loc 1 684 2 is_stmt 0 view .LVU306
 1060              	.LBE173:
 1061              	.LBE172:
 684:../../kernel/FreeRTOS/Source/timers.c **** }
 1062              		.loc 1 684 2 is_stmt 1 view .LVU307
 684:../../kernel/FreeRTOS/Source/timers.c **** }
 1063              		.loc 1 684 2 is_stmt 0 view .LVU308
 1064 01d4 45E7     		b	.L29		@
 1065              	.L68:
 1066              	.LBE175:
 1067              	.LBE186:
 788:../../kernel/FreeRTOS/Source/timers.c **** 
 1068              		.loc 1 788 6 is_stmt 1 view .LVU309
 1069              	.LBB187:
 1070              	.LBI187:
 191:../../kernel/FreeRTOS/Source/portable/GCC/ARM_CM4F/portmacro.h **** {
 1071              		.loc 2 191 30 view .LVU310
 1072              	.LBB188:
 193:../../kernel/FreeRTOS/Source/portable/GCC/ARM_CM4F/portmacro.h **** 
 1073              		.loc 2 193 1 view .LVU311
 1074              		.loc 2 195 2 view .LVU312
 1075              		.syntax unified
 1076              	@ 195 "../../kernel/FreeRTOS/Source/portable/GCC/ARM_CM4F/portmacro.h" 1
 1077 01d6 4FF0A003 			mov r3, #160													@ ulNewBASEPRI,
 1078 01da 83F31188 		msr basepri, r3												@ ulNewBASEPRI
 1079 01de BFF36F8F 		isb														
 1080 01e2 BFF34F8F 		dsb														
 1081              	
 1082              	@ 0 "" 2
ARM GAS  /tmp/cclihgpx.s 			page 44


 1083              	.LVL76:
 1084              		.thumb
 1085              		.syntax unified
 1086              	.L46:
 1087              		.loc 2 195 2 is_stmt 0 view .LVU313
 1088              	.LBE188:
 1089              	.LBE187:
 788:../../kernel/FreeRTOS/Source/timers.c **** 
 1090              		.loc 1 788 6 is_stmt 1 view .LVU314
 788:../../kernel/FreeRTOS/Source/timers.c **** 
 1091              		.loc 1 788 6 view .LVU315
 788:../../kernel/FreeRTOS/Source/timers.c **** 
 1092              		.loc 1 788 6 view .LVU316
 788:../../kernel/FreeRTOS/Source/timers.c **** 
 1093              		.loc 1 788 6 view .LVU317
 1094 01e6 FEE7     		b	.L46		@
 1095              	.LVL77:
 1096              	.L69:
 788:../../kernel/FreeRTOS/Source/timers.c **** 
 1097              		.loc 1 788 6 is_stmt 0 view .LVU318
 1098              	.LBE190:
 1099              	.LBE197:
 1100              	.LBB198:
 1101              	.LBB156:
 1102              	.LBB152:
 1103              	.LBB151:
 479:../../kernel/FreeRTOS/Source/timers.c **** 		{
 1104              		.loc 1 479 3 is_stmt 1 view .LVU319
 1105              	@ ../../kernel/FreeRTOS/Source/timers.c:479: 		if( prvInsertTimerInActiveList( pxTimer, ( xNextExpi
 479:../../kernel/FreeRTOS/Source/timers.c **** 		{
 1106              		.loc 1 479 71 is_stmt 0 view .LVU320
 1107 01e8 D8F81820 		ldr	r2, [r8, #24]	@ _65, pxTimer_62->xTimerPeriodInTicks
 1108              	.LBB139:
 1109              	.LBB140:
 1110              	@ ../../kernel/FreeRTOS/Source/timers.c:652: 	listSET_LIST_ITEM_OWNER( &( pxTimer->xTimerListItem )
 652:../../kernel/FreeRTOS/Source/timers.c **** 
 1111              		.loc 1 652 2 view .LVU321
 1112 01ec C8F81080 		str	r8, [r8, #16]	@ pxTimer, pxTimer_62->xTimerListItem.pvOwner
 1113              	.LBE140:
 1114              	.LBE139:
 1115              	@ ../../kernel/FreeRTOS/Source/timers.c:479: 		if( prvInsertTimerInActiveList( pxTimer, ( xNextExpi
 479:../../kernel/FreeRTOS/Source/timers.c **** 		{
 1116              		.loc 1 479 7 view .LVU322
 1117 01f0 0BEB0200 		add	r0, fp, r2	@ _66, xNextExpireTime, _65
 1118              	.LVL78:
 1119              	.LBB145:
 1120              	.LBI139:
 647:../../kernel/FreeRTOS/Source/timers.c **** {
 1121              		.loc 1 647 19 is_stmt 1 view .LVU323
 1122              	.LBB143:
 649:../../kernel/FreeRTOS/Source/timers.c **** 
 1123              		.loc 1 649 1 view .LVU324
 651:../../kernel/FreeRTOS/Source/timers.c **** 	listSET_LIST_ITEM_OWNER( &( pxTimer->xTimerListItem ), pxTimer );
 1124              		.loc 1 651 2 view .LVU325
 1125              	@ ../../kernel/FreeRTOS/Source/timers.c:654: 	if( xNextExpiryTime <= xTimeNow )
 654:../../kernel/FreeRTOS/Source/timers.c **** 	{
 1126              		.loc 1 654 4 is_stmt 0 view .LVU326
ARM GAS  /tmp/cclihgpx.s 			page 45


 1127 01f4 A042     		cmp	r0, r4	@ _66, xTimeNow
 1128              	@ ../../kernel/FreeRTOS/Source/timers.c:651: 	listSET_LIST_ITEM_VALUE( &( pxTimer->xTimerListItem )
 651:../../kernel/FreeRTOS/Source/timers.c **** 	listSET_LIST_ITEM_OWNER( &( pxTimer->xTimerListItem ), pxTimer );
 1129              		.loc 1 651 2 view .LVU327
 1130 01f6 C8F80400 		str	r0, [r8, #4]	@ _66, pxTimer_62->xTimerListItem.xItemValue
 652:../../kernel/FreeRTOS/Source/timers.c **** 
 1131              		.loc 1 652 2 is_stmt 1 view .LVU328
 654:../../kernel/FreeRTOS/Source/timers.c **** 	{
 1132              		.loc 1 654 2 view .LVU329
 1133              	@ ../../kernel/FreeRTOS/Source/timers.c:654: 	if( xNextExpiryTime <= xTimeNow )
 654:../../kernel/FreeRTOS/Source/timers.c **** 	{
 1134              		.loc 1 654 4 is_stmt 0 view .LVU330
 1135 01fa 03D9     		bls	.L71		@,
 671:../../kernel/FreeRTOS/Source/timers.c **** 		{
 1136              		.loc 1 671 3 is_stmt 1 view .LVU331
 680:../../kernel/FreeRTOS/Source/timers.c **** 		}
 1137              		.loc 1 680 4 view .LVU332
 1138 01fc 3868     		ldr	r0, [r7]	@, pxCurrentTimerList
 1139 01fe FFF7FEFF 		bl	vListInsert		@
 1140              	.LVL79:
 684:../../kernel/FreeRTOS/Source/timers.c **** }
 1141              		.loc 1 684 2 view .LVU333
 684:../../kernel/FreeRTOS/Source/timers.c **** }
 1142              		.loc 1 684 2 is_stmt 0 view .LVU334
 1143 0202 A0E7     		b	.L23		@
 1144              	.LVL80:
 1145              	.L71:
 658:../../kernel/FreeRTOS/Source/timers.c **** 		{
 1146              		.loc 1 658 3 is_stmt 1 view .LVU335
 1147              	@ ../../kernel/FreeRTOS/Source/timers.c:658: 		if( ( ( TickType_t ) ( xTimeNow - xCommandTime ) ) >
 658:../../kernel/FreeRTOS/Source/timers.c **** 		{
 1148              		.loc 1 658 9 is_stmt 0 view .LVU336
 1149 0204 A4EB0B04 		sub	r4, r4, fp	@ tmp193, xTimeNow, xNextExpireTime
 1150              	.LVL81:
 1151              	@ ../../kernel/FreeRTOS/Source/timers.c:658: 		if( ( ( TickType_t ) ( xTimeNow - xCommandTime ) ) >
 658:../../kernel/FreeRTOS/Source/timers.c **** 		{
 1152              		.loc 1 658 5 view .LVU337
 1153 0208 A242     		cmp	r2, r4	@ _65, tmp193
 1154 020a 18D8     		bhi	.L72		@,
 1155              	.LVL82:
 684:../../kernel/FreeRTOS/Source/timers.c **** }
 1156              		.loc 1 684 2 is_stmt 1 view .LVU338
 684:../../kernel/FreeRTOS/Source/timers.c **** }
 1157              		.loc 1 684 2 is_stmt 0 view .LVU339
 1158              	.LBE143:
 1159              	.LBE145:
 483:../../kernel/FreeRTOS/Source/timers.c **** 			configASSERT( xResult );
 1160              		.loc 1 483 4 is_stmt 1 view .LVU340
 1161              	.LBB146:
 1162              	.LBI146:
 381:../../kernel/FreeRTOS/Source/timers.c **** {
 1163              		.loc 1 381 12 view .LVU341
 1164              	.LBB147:
 383:../../kernel/FreeRTOS/Source/timers.c **** DaemonTaskMessage_t xMessage;
 1165              		.loc 1 383 1 view .LVU342
 384:../../kernel/FreeRTOS/Source/timers.c **** 
 1166              		.loc 1 384 1 view .LVU343
ARM GAS  /tmp/cclihgpx.s 			page 46


 386:../../kernel/FreeRTOS/Source/timers.c **** 
 1167              		.loc 1 386 2 view .LVU344
 386:../../kernel/FreeRTOS/Source/timers.c **** 
 1168              		.loc 1 386 24 view .LVU345
 390:../../kernel/FreeRTOS/Source/timers.c **** 	{
 1169              		.loc 1 390 2 view .LVU346
 1170              	@ ../../kernel/FreeRTOS/Source/timers.c:390: 	if( xTimerQueue != NULL )
 390:../../kernel/FreeRTOS/Source/timers.c **** 	{
 1171              		.loc 1 390 4 is_stmt 0 view .LVU347
 1172 020c 2A68     		ldr	r2, [r5]	@ xTimerQueue, xTimerQueue
 1173 020e 6AB1     		cbz	r2, .L25	@ xTimerQueue,
 393:../../kernel/FreeRTOS/Source/timers.c **** 		xMessage.u.xTimerParameters.xMessageValue = xOptionalValue;
 1174              		.loc 1 393 3 is_stmt 1 view .LVU348
 1175              	@ ../../kernel/FreeRTOS/Source/timers.c:393: 		xMessage.xMessageID = xCommandID;
 393:../../kernel/FreeRTOS/Source/timers.c **** 		xMessage.u.xTimerParameters.xMessageValue = xOptionalValue;
 1176              		.loc 1 393 23 is_stmt 0 view .LVU349
 1177 0210 0024     		movs	r4, #0	@ tmp198,
 1178              	@ ../../kernel/FreeRTOS/Source/timers.c:395: 		xMessage.u.xTimerParameters.pxTimer = ( Timer_t * ) 
 395:../../kernel/FreeRTOS/Source/timers.c **** 
 1179              		.loc 1 395 39 view .LVU350
 1180 0212 CDE907B8 		strd	fp, r8, [sp, #28]	@ xNextExpireTime, pxTimer,,
 1181              	@ ../../kernel/FreeRTOS/Source/timers.c:393: 		xMessage.xMessageID = xCommandID;
 393:../../kernel/FreeRTOS/Source/timers.c **** 		xMessage.u.xTimerParameters.xMessageValue = xOptionalValue;
 1182              		.loc 1 393 23 view .LVU351
 1183 0216 0694     		str	r4, [sp, #24]	@ tmp198, xMessage.xMessageID
 394:../../kernel/FreeRTOS/Source/timers.c **** 		xMessage.u.xTimerParameters.pxTimer = ( Timer_t * ) xTimer;
 1184              		.loc 1 394 3 is_stmt 1 view .LVU352
 395:../../kernel/FreeRTOS/Source/timers.c **** 
 1185              		.loc 1 395 3 view .LVU353
 397:../../kernel/FreeRTOS/Source/timers.c **** 		{
 1186              		.loc 1 397 3 view .LVU354
 399:../../kernel/FreeRTOS/Source/timers.c **** 			{
 1187              		.loc 1 399 4 view .LVU355
 1188              	@ ../../kernel/FreeRTOS/Source/timers.c:399: 			if( xTaskGetSchedulerState() == taskSCHEDULER_RUNNI
 399:../../kernel/FreeRTOS/Source/timers.c **** 			{
 1189              		.loc 1 399 8 is_stmt 0 view .LVU356
 1190 0218 FFF7FEFF 		bl	xTaskGetSchedulerState		@
 1191              	.LVL83:
 401:../../kernel/FreeRTOS/Source/timers.c **** 			}
 1192              		.loc 1 401 5 is_stmt 1 view .LVU357
 1193              	@ ../../kernel/FreeRTOS/Source/timers.c:401: 				xReturn = xQueueSendToBack( xTimerQueue, &xMessage
 401:../../kernel/FreeRTOS/Source/timers.c **** 			}
 1194              		.loc 1 401 15 is_stmt 0 view .LVU358
 1195 021c 2346     		mov	r3, r4	@, tmp198
 1196 021e 2246     		mov	r2, r4	@, tmp3
 1197 0220 06A9     		add	r1, sp, #24	@ tmp267,,
 1198 0222 2868     		ldr	r0, [r5]	@, xTimerQueue
 1199 0224 FFF7FEFF 		bl	xQueueGenericSend		@
 1200              	.LVL84:
 417:../../kernel/FreeRTOS/Source/timers.c **** 	}
 1201              		.loc 1 417 27 is_stmt 1 view .LVU359
 420:../../kernel/FreeRTOS/Source/timers.c **** }
 1202              		.loc 1 420 2 view .LVU360
 420:../../kernel/FreeRTOS/Source/timers.c **** }
 1203              		.loc 1 420 2 is_stmt 0 view .LVU361
 1204              	.LBE147:
 1205              	.LBE146:
ARM GAS  /tmp/cclihgpx.s 			page 47


 484:../../kernel/FreeRTOS/Source/timers.c **** 			( void ) xResult;
 1206              		.loc 1 484 4 is_stmt 1 view .LVU362
 1207 0228 0028     		cmp	r0, #0	@
 1208 022a 8CD1     		bne	.L23	@
 1209              	.LVL85:
 1210              	.L25:
 484:../../kernel/FreeRTOS/Source/timers.c **** 			( void ) xResult;
 1211              		.loc 1 484 4 view .LVU363
 1212              	.LBB148:
 1213              	.LBI148:
 191:../../kernel/FreeRTOS/Source/portable/GCC/ARM_CM4F/portmacro.h **** {
 1214              		.loc 2 191 30 view .LVU364
 1215              	.LBB149:
 193:../../kernel/FreeRTOS/Source/portable/GCC/ARM_CM4F/portmacro.h **** 
 1216              		.loc 2 193 1 view .LVU365
 1217              		.loc 2 195 2 view .LVU366
 1218              		.syntax unified
 1219              	@ 195 "../../kernel/FreeRTOS/Source/portable/GCC/ARM_CM4F/portmacro.h" 1
 1220 022c 4FF0A003 			mov r3, #160													@ ulNewBASEPRI,
 1221 0230 83F31188 		msr basepri, r3												@ ulNewBASEPRI
 1222 0234 BFF36F8F 		isb														
 1223 0238 BFF34F8F 		dsb														
 1224              	
 1225              	@ 0 "" 2
 1226              	.LVL86:
 1227              		.thumb
 1228              		.syntax unified
 1229              	.L26:
 1230              		.loc 2 195 2 is_stmt 0 view .LVU367
 1231              	.LBE149:
 1232              	.LBE148:
 484:../../kernel/FreeRTOS/Source/timers.c **** 			( void ) xResult;
 1233              		.loc 1 484 4 is_stmt 1 view .LVU368
 484:../../kernel/FreeRTOS/Source/timers.c **** 			( void ) xResult;
 1234              		.loc 1 484 4 view .LVU369
 484:../../kernel/FreeRTOS/Source/timers.c **** 			( void ) xResult;
 1235              		.loc 1 484 4 view .LVU370
 484:../../kernel/FreeRTOS/Source/timers.c **** 			( void ) xResult;
 1236              		.loc 1 484 4 view .LVU371
 1237 023c FEE7     		b	.L26		@
 1238              	.LVL87:
 1239              	.L72:
 1240              	.LBB150:
 1241              	.LBB144:
 1242              	.LBB141:
 1243              	.LBI141:
 647:../../kernel/FreeRTOS/Source/timers.c **** {
 1244              		.loc 1 647 19 view .LVU372
 1245              	.LBB142:
 666:../../kernel/FreeRTOS/Source/timers.c **** 		}
 1246              		.loc 1 666 4 view .LVU373
 1247 023e D9F80000 		ldr	r0, [r9]	@, pxOverflowTimerList
 1248 0242 FFF7FEFF 		bl	vListInsert		@
 1249              	.LVL88:
 684:../../kernel/FreeRTOS/Source/timers.c **** }
 1250              		.loc 1 684 2 view .LVU374
 684:../../kernel/FreeRTOS/Source/timers.c **** }
ARM GAS  /tmp/cclihgpx.s 			page 48


 1251              		.loc 1 684 2 is_stmt 0 view .LVU375
 1252              	.LBE142:
 1253              	.LBE141:
 684:../../kernel/FreeRTOS/Source/timers.c **** }
 1254              		.loc 1 684 2 is_stmt 1 view .LVU376
 684:../../kernel/FreeRTOS/Source/timers.c **** }
 1255              		.loc 1 684 2 is_stmt 0 view .LVU377
 1256 0246 7EE7     		b	.L23		@
 1257              	.L74:
 1258              		.align	2
 1259              	.L73:
 1260 0248 00000000 		.word	.LANCHOR0
 1261 024c 00000000 		.word	.LANCHOR3
 1262 0250 00000000 		.word	.LANCHOR1
 1263 0254 04ED00E0 		.word	-536810236
 1264 0258 00000000 		.word	.LANCHOR2
 1265              	.LBE144:
 1266              	.LBE150:
 1267              	.LBE151:
 1268              	.LBE152:
 1269              	.LBE156:
 1270              	.LBE198:
 1271              		.cfi_endproc
 1272              	.LFE14:
 1273              		.size	prvTimerTask, .-prvTimerTask
 1274              		.section	.text.xTimerCreateTimerTask,"ax",%progbits
 1275              		.align	1
 1276              		.p2align 2,,3
 1277              		.global	xTimerCreateTimerTask
 1278              		.syntax unified
 1279              		.thumb
 1280              		.thumb_func
 1281              		.fpu fpv4-sp-d16
 1282              		.type	xTimerCreateTimerTask, %function
 1283              	xTimerCreateTimerTask:
 1284              	.LFB4:
 224:../../kernel/FreeRTOS/Source/timers.c **** BaseType_t xReturn = pdFAIL;
 1285              		.loc 1 224 1 is_stmt 1 view -0
 1286              		.cfi_startproc
 1287              		@ args = 0, pretend = 0, frame = 16
 1288              		@ frame_needed = 0, uses_anonymous_args = 0
 225:../../kernel/FreeRTOS/Source/timers.c **** 
 1289              		.loc 1 225 1 view .LVU379
 1290              	.LVL89:
 231:../../kernel/FreeRTOS/Source/timers.c **** 
 1291              		.loc 1 231 2 view .LVU380
 1292              	.LBB205:
 1293              	.LBI205:
 892:../../kernel/FreeRTOS/Source/timers.c **** /*-----------------------------------------------------------*/
 893:../../kernel/FreeRTOS/Source/timers.c **** 
 894:../../kernel/FreeRTOS/Source/timers.c **** static void prvCheckForValidListAndQueue( void )
 1294              		.loc 1 894 13 view .LVU381
 1295              	.LBB206:
 895:../../kernel/FreeRTOS/Source/timers.c **** {
 896:../../kernel/FreeRTOS/Source/timers.c **** 	/* Check that the list from which active timers are referenced, and the
 897:../../kernel/FreeRTOS/Source/timers.c **** 	queue used to communicate with the timer service, have been
 898:../../kernel/FreeRTOS/Source/timers.c **** 	initialised. */
ARM GAS  /tmp/cclihgpx.s 			page 49


 899:../../kernel/FreeRTOS/Source/timers.c **** 	taskENTER_CRITICAL();
 1296              		.loc 1 899 2 view .LVU382
 1297              	.LBE206:
 1298              	.LBE205:
 1299              	@ ../../kernel/FreeRTOS/Source/timers.c:224: {
 224:../../kernel/FreeRTOS/Source/timers.c **** BaseType_t xReturn = pdFAIL;
 1300              		.loc 1 224 1 is_stmt 0 view .LVU383
 1301 0000 F0B5     		push	{r4, r5, r6, r7, lr}	@
 1302              		.cfi_def_cfa_offset 20
 1303              		.cfi_offset 4, -20
 1304              		.cfi_offset 5, -16
 1305              		.cfi_offset 6, -12
 1306              		.cfi_offset 7, -8
 1307              		.cfi_offset 14, -4
 1308              	.LBB212:
 1309              	.LBB209:
 1310              	@ ../../kernel/FreeRTOS/Source/timers.c:901: 		if( xTimerQueue == NULL )
 900:../../kernel/FreeRTOS/Source/timers.c **** 	{
 901:../../kernel/FreeRTOS/Source/timers.c **** 		if( xTimerQueue == NULL )
 1311              		.loc 1 901 19 view .LVU384
 1312 0002 214C     		ldr	r4, .L89	@ tmp147,
 1313              	.LBE209:
 1314              	.LBE212:
 1315              	@ ../../kernel/FreeRTOS/Source/timers.c:224: {
 224:../../kernel/FreeRTOS/Source/timers.c **** BaseType_t xReturn = pdFAIL;
 1316              		.loc 1 224 1 view .LVU385
 1317 0004 89B0     		sub	sp, sp, #36	@,,
 1318              		.cfi_def_cfa_offset 56
 1319              	.LBB213:
 1320              	.LBB210:
 1321              	@ ../../kernel/FreeRTOS/Source/timers.c:899: 	taskENTER_CRITICAL();
 899:../../kernel/FreeRTOS/Source/timers.c **** 	{
 1322              		.loc 1 899 2 view .LVU386
 1323 0006 FFF7FEFF 		bl	vPortEnterCritical		@
 1324              	.LVL90:
 1325              		.loc 1 901 3 is_stmt 1 view .LVU387
 1326              	@ ../../kernel/FreeRTOS/Source/timers.c:901: 		if( xTimerQueue == NULL )
 1327              		.loc 1 901 5 is_stmt 0 view .LVU388
 1328 000a 2768     		ldr	r7, [r4]	@ xTimerQueue, xTimerQueue
 1329 000c 37B3     		cbz	r7, .L88	@ xTimerQueue,
 1330              	.L76:
 902:../../kernel/FreeRTOS/Source/timers.c **** 		{
 903:../../kernel/FreeRTOS/Source/timers.c **** 			vListInitialise( &xActiveTimerList1 );
 904:../../kernel/FreeRTOS/Source/timers.c **** 			vListInitialise( &xActiveTimerList2 );
 905:../../kernel/FreeRTOS/Source/timers.c **** 			pxCurrentTimerList = &xActiveTimerList1;
 906:../../kernel/FreeRTOS/Source/timers.c **** 			pxOverflowTimerList = &xActiveTimerList2;
 907:../../kernel/FreeRTOS/Source/timers.c **** 
 908:../../kernel/FreeRTOS/Source/timers.c **** 			#if( configSUPPORT_STATIC_ALLOCATION == 1 )
 909:../../kernel/FreeRTOS/Source/timers.c **** 			{
 910:../../kernel/FreeRTOS/Source/timers.c **** 				/* The timer queue is allocated statically in case
 911:../../kernel/FreeRTOS/Source/timers.c **** 				configSUPPORT_DYNAMIC_ALLOCATION is 0. */
 912:../../kernel/FreeRTOS/Source/timers.c **** 				static StaticQueue_t xStaticTimerQueue; /*lint !e956 Ok to declare in this manner to prevent ad
 913:../../kernel/FreeRTOS/Source/timers.c **** 				static uint8_t ucStaticTimerQueueStorage[ ( size_t ) configTIMER_QUEUE_LENGTH * sizeof( DaemonT
 914:../../kernel/FreeRTOS/Source/timers.c **** 
 915:../../kernel/FreeRTOS/Source/timers.c **** 				xTimerQueue = xQueueCreateStatic( ( UBaseType_t ) configTIMER_QUEUE_LENGTH, ( UBaseType_t ) siz
 916:../../kernel/FreeRTOS/Source/timers.c **** 			}
 917:../../kernel/FreeRTOS/Source/timers.c **** 			#else
ARM GAS  /tmp/cclihgpx.s 			page 50


 918:../../kernel/FreeRTOS/Source/timers.c **** 			{
 919:../../kernel/FreeRTOS/Source/timers.c **** 				xTimerQueue = xQueueCreate( ( UBaseType_t ) configTIMER_QUEUE_LENGTH, sizeof( DaemonTaskMessage
 920:../../kernel/FreeRTOS/Source/timers.c **** 			}
 921:../../kernel/FreeRTOS/Source/timers.c **** 			#endif
 922:../../kernel/FreeRTOS/Source/timers.c **** 
 923:../../kernel/FreeRTOS/Source/timers.c **** 			#if ( configQUEUE_REGISTRY_SIZE > 0 )
 924:../../kernel/FreeRTOS/Source/timers.c **** 			{
 925:../../kernel/FreeRTOS/Source/timers.c **** 				if( xTimerQueue != NULL )
 926:../../kernel/FreeRTOS/Source/timers.c **** 				{
 927:../../kernel/FreeRTOS/Source/timers.c **** 					vQueueAddToRegistry( xTimerQueue, "TmrQ" );
 928:../../kernel/FreeRTOS/Source/timers.c **** 				}
 929:../../kernel/FreeRTOS/Source/timers.c **** 				else
 930:../../kernel/FreeRTOS/Source/timers.c **** 				{
 931:../../kernel/FreeRTOS/Source/timers.c **** 					mtCOVERAGE_TEST_MARKER();
 932:../../kernel/FreeRTOS/Source/timers.c **** 				}
 933:../../kernel/FreeRTOS/Source/timers.c **** 			}
 934:../../kernel/FreeRTOS/Source/timers.c **** 			#endif /* configQUEUE_REGISTRY_SIZE */
 935:../../kernel/FreeRTOS/Source/timers.c **** 		}
 936:../../kernel/FreeRTOS/Source/timers.c **** 		else
 937:../../kernel/FreeRTOS/Source/timers.c **** 		{
 938:../../kernel/FreeRTOS/Source/timers.c **** 			mtCOVERAGE_TEST_MARKER();
 1331              		.loc 1 938 28 is_stmt 1 view .LVU389
 939:../../kernel/FreeRTOS/Source/timers.c **** 		}
 940:../../kernel/FreeRTOS/Source/timers.c **** 	}
 941:../../kernel/FreeRTOS/Source/timers.c **** 	taskEXIT_CRITICAL();
 1332              		.loc 1 941 2 view .LVU390
 1333 000e FFF7FEFF 		bl	vPortExitCritical		@
 1334              	.LVL91:
 1335              	.LBE210:
 1336              	.LBE213:
 233:../../kernel/FreeRTOS/Source/timers.c **** 	{
 1337              		.loc 1 233 2 view .LVU391
 1338              	@ ../../kernel/FreeRTOS/Source/timers.c:233: 	if( xTimerQueue != NULL )
 233:../../kernel/FreeRTOS/Source/timers.c **** 	{
 1339              		.loc 1 233 4 is_stmt 0 view .LVU392
 1340 0012 2368     		ldr	r3, [r4]	@ xTimerQueue, xTimerQueue
 1341 0014 CBB1     		cbz	r3, .L77	@ xTimerQueue,
 1342              	.LBB214:
 237:../../kernel/FreeRTOS/Source/timers.c **** 			StackType_t *pxTimerTaskStackBuffer = NULL;
 1343              		.loc 1 237 4 is_stmt 1 view .LVU393
 1344              	@ ../../kernel/FreeRTOS/Source/timers.c:237: 			StaticTask_t *pxTimerTaskTCBBuffer = NULL;
 237:../../kernel/FreeRTOS/Source/timers.c **** 			StackType_t *pxTimerTaskStackBuffer = NULL;
 1345              		.loc 1 237 18 is_stmt 0 view .LVU394
 1346 0016 0024     		movs	r4, #0	@ tmp133,
 1347              	@ ../../kernel/FreeRTOS/Source/timers.c:241: 			vApplicationGetTimerTaskMemory( &pxTimerTaskTCBBuff
 241:../../kernel/FreeRTOS/Source/timers.c **** 			xTimerTaskHandle = xTaskCreateStatic(	prvTimerTask,
 1348              		.loc 1 241 4 view .LVU395
 1349 0018 07AA     		add	r2, sp, #28	@,,
 1350 001a 06A9     		add	r1, sp, #24	@,,
 1351 001c 05A8     		add	r0, sp, #20	@,,
 1352              	@ ../../kernel/FreeRTOS/Source/timers.c:238: 			StackType_t *pxTimerTaskStackBuffer = NULL;
 238:../../kernel/FreeRTOS/Source/timers.c **** 			uint32_t ulTimerTaskStackSize;
 1353              		.loc 1 238 17 view .LVU396
 1354 001e CDE90544 		strd	r4, r4, [sp, #20]	@ tmp133, tmp133,,
 239:../../kernel/FreeRTOS/Source/timers.c **** 
 1355              		.loc 1 239 4 is_stmt 1 view .LVU397
 241:../../kernel/FreeRTOS/Source/timers.c **** 			xTimerTaskHandle = xTaskCreateStatic(	prvTimerTask,
ARM GAS  /tmp/cclihgpx.s 			page 51


 1356              		.loc 1 241 4 view .LVU398
 1357 0022 FFF7FEFF 		bl	vApplicationGetTimerTaskMemory		@
 1358              	.LVL92:
 242:../../kernel/FreeRTOS/Source/timers.c **** 													configTIMER_SERVICE_TASK_NAME,
 1359              		.loc 1 242 4 view .LVU399
 1360              	@ ../../kernel/FreeRTOS/Source/timers.c:242: 			xTimerTaskHandle = xTaskCreateStatic(	prvTimerTask,
 242:../../kernel/FreeRTOS/Source/timers.c **** 													configTIMER_SERVICE_TASK_NAME,
 1361              		.loc 1 242 23 is_stmt 0 view .LVU400
 1362 0026 DDE90531 		ldrd	r3, r1, [sp, #20]	@ pxTimerTaskTCBBuffer, pxTimerTaskStackBuffer,,
 1363 002a 0422     		movs	r2, #4	@ tmp143,
 1364 002c CDE90021 		strd	r2, r1, [sp]	@ tmp143, pxTimerTaskStackBuffer,
 1365 0030 0293     		str	r3, [sp, #8]	@ pxTimerTaskTCBBuffer,
 1366 0032 079A     		ldr	r2, [sp, #28]	@, ulTimerTaskStackSize
 1367 0034 1549     		ldr	r1, .L89+4	@,
 1368 0036 1648     		ldr	r0, .L89+8	@,
 1369 0038 2346     		mov	r3, r4	@, tmp133
 1370 003a FFF7FEFF 		bl	xTaskCreateStatic		@
 1371              	.LVL93:
 1372              	@ ../../kernel/FreeRTOS/Source/timers.c:242: 			xTimerTaskHandle = xTaskCreateStatic(	prvTimerTask,
 242:../../kernel/FreeRTOS/Source/timers.c **** 													configTIMER_SERVICE_TASK_NAME,
 1373              		.loc 1 242 21 view .LVU401
 1374 003e 154B     		ldr	r3, .L89+12	@ tmp144,
 1375 0040 1860     		str	r0, [r3]	@ _5, xTimerTaskHandle
 250:../../kernel/FreeRTOS/Source/timers.c **** 			{
 1376              		.loc 1 250 4 is_stmt 1 view .LVU402
 1377              	@ ../../kernel/FreeRTOS/Source/timers.c:250: 			if( xTimerTaskHandle != NULL )
 250:../../kernel/FreeRTOS/Source/timers.c **** 			{
 1378              		.loc 1 250 6 is_stmt 0 view .LVU403
 1379 0042 10B1     		cbz	r0, .L77	@ _5,
 1380              	.LBE214:
 1381              	@ ../../kernel/FreeRTOS/Source/timers.c:273: }
 273:../../kernel/FreeRTOS/Source/timers.c **** /*-----------------------------------------------------------*/
 1382              		.loc 1 273 1 view .LVU404
 1383 0044 0120     		movs	r0, #1	@,
 1384 0046 09B0     		add	sp, sp, #36	@,,
 1385              		.cfi_remember_state
 1386              		.cfi_def_cfa_offset 20
 1387              		@ sp needed	@
 1388 0048 F0BD     		pop	{r4, r5, r6, r7, pc}	@
 1389              	.L77:
 1390              		.cfi_restore_state
 271:../../kernel/FreeRTOS/Source/timers.c **** 	return xReturn;
 1391              		.loc 1 271 2 is_stmt 1 view .LVU405
 1392              	.LBB215:
 1393              	.LBI215:
 191:../../kernel/FreeRTOS/Source/portable/GCC/ARM_CM4F/portmacro.h **** {
 1394              		.loc 2 191 30 view .LVU406
 1395              	.LBB216:
 193:../../kernel/FreeRTOS/Source/portable/GCC/ARM_CM4F/portmacro.h **** 
 1396              		.loc 2 193 1 view .LVU407
 1397              		.loc 2 195 2 view .LVU408
 1398              		.syntax unified
 1399              	@ 195 "../../kernel/FreeRTOS/Source/portable/GCC/ARM_CM4F/portmacro.h" 1
 1400 004a 4FF0A003 			mov r3, #160													@ ulNewBASEPRI,
 1401 004e 83F31188 		msr basepri, r3												@ ulNewBASEPRI
 1402 0052 BFF36F8F 		isb														
 1403 0056 BFF34F8F 		dsb														
ARM GAS  /tmp/cclihgpx.s 			page 52


 1404              	
 1405              	@ 0 "" 2
 1406              	.LVL94:
 1407              		.thumb
 1408              		.syntax unified
 1409              	.L79:
 1410              		.loc 2 195 2 is_stmt 0 view .LVU409
 1411              	.LBE216:
 1412              	.LBE215:
 271:../../kernel/FreeRTOS/Source/timers.c **** 	return xReturn;
 1413              		.loc 1 271 2 is_stmt 1 discriminator 1 view .LVU410
 271:../../kernel/FreeRTOS/Source/timers.c **** 	return xReturn;
 1414              		.loc 1 271 2 discriminator 1 view .LVU411
 271:../../kernel/FreeRTOS/Source/timers.c **** 	return xReturn;
 1415              		.loc 1 271 2 discriminator 1 view .LVU412
 271:../../kernel/FreeRTOS/Source/timers.c **** 	return xReturn;
 1416              		.loc 1 271 2 discriminator 1 view .LVU413
 1417 005a FEE7     		b	.L79		@
 1418              	.L88:
 1419              	.LBB217:
 1420              	.LBB211:
 903:../../kernel/FreeRTOS/Source/timers.c **** 			vListInitialise( &xActiveTimerList2 );
 1421              		.loc 1 903 4 view .LVU414
 1422 005c 0E4E     		ldr	r6, .L89+16	@ tmp121,
 1423              	@ ../../kernel/FreeRTOS/Source/timers.c:904: 			vListInitialise( &xActiveTimerList2 );
 904:../../kernel/FreeRTOS/Source/timers.c **** 			pxCurrentTimerList = &xActiveTimerList1;
 1424              		.loc 1 904 4 is_stmt 0 view .LVU415
 1425 005e 0F4D     		ldr	r5, .L89+20	@ tmp122,
 1426              	@ ../../kernel/FreeRTOS/Source/timers.c:903: 			vListInitialise( &xActiveTimerList1 );
 903:../../kernel/FreeRTOS/Source/timers.c **** 			vListInitialise( &xActiveTimerList2 );
 1427              		.loc 1 903 4 view .LVU416
 1428 0060 3046     		mov	r0, r6	@, tmp121
 1429 0062 FFF7FEFF 		bl	vListInitialise		@
 1430              	.LVL95:
 904:../../kernel/FreeRTOS/Source/timers.c **** 			pxCurrentTimerList = &xActiveTimerList1;
 1431              		.loc 1 904 4 is_stmt 1 view .LVU417
 1432 0066 2846     		mov	r0, r5	@, tmp122
 1433 0068 FFF7FEFF 		bl	vListInitialise		@
 1434              	.LVL96:
 905:../../kernel/FreeRTOS/Source/timers.c **** 			pxOverflowTimerList = &xActiveTimerList2;
 1435              		.loc 1 905 4 view .LVU418
 1436              	@ ../../kernel/FreeRTOS/Source/timers.c:905: 			pxCurrentTimerList = &xActiveTimerList1;
 905:../../kernel/FreeRTOS/Source/timers.c **** 			pxOverflowTimerList = &xActiveTimerList2;
 1437              		.loc 1 905 23 is_stmt 0 view .LVU419
 1438 006c 0C4A     		ldr	r2, .L89+24	@ tmp123,
 1439              	@ ../../kernel/FreeRTOS/Source/timers.c:906: 			pxOverflowTimerList = &xActiveTimerList2;
 906:../../kernel/FreeRTOS/Source/timers.c **** 
 1440              		.loc 1 906 24 view .LVU420
 1441 006e 0D49     		ldr	r1, .L89+28	@ tmp125,
 1442              	.LBB207:
 1443              	@ ../../kernel/FreeRTOS/Source/timers.c:915: 				xTimerQueue = xQueueCreateStatic( ( UBaseType_t ) 
 915:../../kernel/FreeRTOS/Source/timers.c **** 			}
 1444              		.loc 1 915 19 view .LVU421
 1445 0070 0097     		str	r7, [sp]	@ xTimerQueue,
 1446 0072 0D4B     		ldr	r3, .L89+32	@,
 1447              	.LBE207:
 1448              	@ ../../kernel/FreeRTOS/Source/timers.c:905: 			pxCurrentTimerList = &xActiveTimerList1;
ARM GAS  /tmp/cclihgpx.s 			page 53


 905:../../kernel/FreeRTOS/Source/timers.c **** 			pxOverflowTimerList = &xActiveTimerList2;
 1449              		.loc 1 905 23 view .LVU422
 1450 0074 1660     		str	r6, [r2]	@ tmp121, pxCurrentTimerList
 906:../../kernel/FreeRTOS/Source/timers.c **** 
 1451              		.loc 1 906 4 is_stmt 1 view .LVU423
 1452              	@ ../../kernel/FreeRTOS/Source/timers.c:906: 			pxOverflowTimerList = &xActiveTimerList2;
 906:../../kernel/FreeRTOS/Source/timers.c **** 
 1453              		.loc 1 906 24 is_stmt 0 view .LVU424
 1454 0076 0D60     		str	r5, [r1]	@ tmp122, pxOverflowTimerList
 1455              	.LBB208:
 912:../../kernel/FreeRTOS/Source/timers.c **** 				static uint8_t ucStaticTimerQueueStorage[ ( size_t ) configTIMER_QUEUE_LENGTH * sizeof( DaemonT
 1456              		.loc 1 912 5 is_stmt 1 view .LVU425
 913:../../kernel/FreeRTOS/Source/timers.c **** 
 1457              		.loc 1 913 5 view .LVU426
 915:../../kernel/FreeRTOS/Source/timers.c **** 			}
 1458              		.loc 1 915 5 view .LVU427
 1459              	@ ../../kernel/FreeRTOS/Source/timers.c:915: 				xTimerQueue = xQueueCreateStatic( ( UBaseType_t ) 
 915:../../kernel/FreeRTOS/Source/timers.c **** 			}
 1460              		.loc 1 915 19 is_stmt 0 view .LVU428
 1461 0078 0C4A     		ldr	r2, .L89+36	@,
 1462 007a 1021     		movs	r1, #16	@,
 1463 007c 0520     		movs	r0, #5	@,
 1464 007e FFF7FEFF 		bl	xQueueGenericCreateStatic		@
 1465              	.LVL97:
 1466              	@ ../../kernel/FreeRTOS/Source/timers.c:915: 				xTimerQueue = xQueueCreateStatic( ( UBaseType_t ) 
 915:../../kernel/FreeRTOS/Source/timers.c **** 			}
 1467              		.loc 1 915 17 view .LVU429
 1468 0082 2060     		str	r0, [r4]	@, xTimerQueue
 1469 0084 C3E7     		b	.L76		@
 1470              	.L90:
 1471 0086 00BF     		.align	2
 1472              	.L89:
 1473 0088 00000000 		.word	.LANCHOR1
 1474 008c 00000000 		.word	.LC0
 1475 0090 00000000 		.word	prvTimerTask
 1476 0094 00000000 		.word	.LANCHOR8
 1477 0098 00000000 		.word	.LANCHOR4
 1478 009c 00000000 		.word	.LANCHOR5
 1479 00a0 00000000 		.word	.LANCHOR0
 1480 00a4 00000000 		.word	.LANCHOR2
 1481 00a8 00000000 		.word	.LANCHOR6
 1482 00ac 00000000 		.word	.LANCHOR7
 1483              	.LBE208:
 1484              	.LBE211:
 1485              	.LBE217:
 1486              		.cfi_endproc
 1487              	.LFE4:
 1488              		.size	xTimerCreateTimerTask, .-xTimerCreateTimerTask
 1489              		.section	.text.xTimerCreate,"ax",%progbits
 1490              		.align	1
 1491              		.p2align 2,,3
 1492              		.global	xTimerCreate
 1493              		.syntax unified
 1494              		.thumb
 1495              		.thumb_func
 1496              		.fpu fpv4-sp-d16
 1497              		.type	xTimerCreate, %function
ARM GAS  /tmp/cclihgpx.s 			page 54


 1498              	xTimerCreate:
 1499              	.LVL98:
 1500              	.LFB5:
 283:../../kernel/FreeRTOS/Source/timers.c **** 	Timer_t *pxNewTimer;
 1501              		.loc 1 283 2 is_stmt 1 view -0
 1502              		.cfi_startproc
 1503              		@ args = 4, pretend = 0, frame = 8
 1504              		@ frame_needed = 0, uses_anonymous_args = 0
 284:../../kernel/FreeRTOS/Source/timers.c **** 
 1505              		.loc 1 284 2 view .LVU431
 286:../../kernel/FreeRTOS/Source/timers.c **** 
 1506              		.loc 1 286 3 view .LVU432
 1507              	@ ../../kernel/FreeRTOS/Source/timers.c:283: 	{
 283:../../kernel/FreeRTOS/Source/timers.c **** 	Timer_t *pxNewTimer;
 1508              		.loc 1 283 2 is_stmt 0 view .LVU433
 1509 0000 2DE9F04F 		push	{r4, r5, r6, r7, r8, r9, r10, fp, lr}	@
 1510              		.cfi_def_cfa_offset 36
 1511              		.cfi_offset 4, -36
 1512              		.cfi_offset 5, -32
 1513              		.cfi_offset 6, -28
 1514              		.cfi_offset 7, -24
 1515              		.cfi_offset 8, -20
 1516              		.cfi_offset 9, -16
 1517              		.cfi_offset 10, -12
 1518              		.cfi_offset 11, -8
 1519              		.cfi_offset 14, -4
 1520 0004 8346     		mov	fp, r0	@ pcTimerName, pcTimerName
 1521 0006 85B0     		sub	sp, sp, #20	@,,
 1522              		.cfi_def_cfa_offset 56
 1523              	@ ../../kernel/FreeRTOS/Source/timers.c:286: 		pxNewTimer = ( Timer_t * ) pvPortMalloc( sizeof( Tim
 286:../../kernel/FreeRTOS/Source/timers.c **** 
 1524              		.loc 1 286 30 view .LVU434
 1525 0008 3020     		movs	r0, #48	@,
 1526              	.LVL99:
 1527              	@ ../../kernel/FreeRTOS/Source/timers.c:283: 	{
 283:../../kernel/FreeRTOS/Source/timers.c **** 	Timer_t *pxNewTimer;
 1528              		.loc 1 283 2 view .LVU435
 1529 000a 0D46     		mov	r5, r1	@ xTimerPeriodInTicks, xTimerPeriodInTicks
 1530 000c 9246     		mov	r10, r2	@ uxAutoReload, uxAutoReload
 1531 000e 1F46     		mov	r7, r3	@ pvTimerID, pvTimerID
 1532              	@ ../../kernel/FreeRTOS/Source/timers.c:286: 		pxNewTimer = ( Timer_t * ) pvPortMalloc( sizeof( Tim
 286:../../kernel/FreeRTOS/Source/timers.c **** 
 1533              		.loc 1 286 30 view .LVU436
 1534 0010 FFF7FEFF 		bl	pvPortMalloc		@
 1535              	.LVL100:
 288:../../kernel/FreeRTOS/Source/timers.c **** 		{
 1536              		.loc 1 288 3 is_stmt 1 view .LVU437
 1537              	@ ../../kernel/FreeRTOS/Source/timers.c:288: 		if( pxNewTimer != NULL )
 288:../../kernel/FreeRTOS/Source/timers.c **** 		{
 1538              		.loc 1 288 5 is_stmt 0 view .LVU438
 1539 0014 0446     		mov	r4, r0	@ <retval>,
 1540 0016 A0B1     		cbz	r0, .L91	@ <retval>,
 290:../../kernel/FreeRTOS/Source/timers.c **** 
 1541              		.loc 1 290 4 is_stmt 1 view .LVU439
 1542              	.LVL101:
 1543              	.LBB229:
 1544              	.LBI229:
ARM GAS  /tmp/cclihgpx.s 			page 55


 352:../../kernel/FreeRTOS/Source/timers.c **** 									const TickType_t xTimerPeriodInTicks,
 1545              		.loc 1 352 13 view .LVU440
 1546              	.LBB230:
 360:../../kernel/FreeRTOS/Source/timers.c **** 
 1547              		.loc 1 360 2 view .LVU441
 1548 0018 BDB1     		cbz	r5, .L100	@ xTimerPeriodInTicks,
 1549              	.LVL102:
 1550              	.LBB231:
 1551              	.LBI231:
 352:../../kernel/FreeRTOS/Source/timers.c **** 									const TickType_t xTimerPeriodInTicks,
 1552              		.loc 1 352 13 view .LVU442
 1553              	.LBB232:
 360:../../kernel/FreeRTOS/Source/timers.c **** 
 1554              		.loc 1 360 45 view .LVU443
 362:../../kernel/FreeRTOS/Source/timers.c **** 	{
 1555              		.loc 1 362 2 view .LVU444
 366:../../kernel/FreeRTOS/Source/timers.c **** 
 1556              		.loc 1 366 3 view .LVU445
 1557              	.LBB233:
 1558              	.LBI233:
 894:../../kernel/FreeRTOS/Source/timers.c **** {
 1559              		.loc 1 894 13 view .LVU446
 1560              	.LBB234:
 899:../../kernel/FreeRTOS/Source/timers.c **** 	{
 1561              		.loc 1 899 2 view .LVU447
 1562              	@ ../../kernel/FreeRTOS/Source/timers.c:901: 		if( xTimerQueue == NULL )
 901:../../kernel/FreeRTOS/Source/timers.c **** 		{
 1563              		.loc 1 901 19 is_stmt 0 view .LVU448
 1564 001a 1E4E     		ldr	r6, .L102	@ tmp121,
 1565              	@ ../../kernel/FreeRTOS/Source/timers.c:899: 	taskENTER_CRITICAL();
 899:../../kernel/FreeRTOS/Source/timers.c **** 	{
 1566              		.loc 1 899 2 view .LVU449
 1567 001c FFF7FEFF 		bl	vPortEnterCritical		@
 1568              	.LVL103:
 901:../../kernel/FreeRTOS/Source/timers.c **** 		{
 1569              		.loc 1 901 3 is_stmt 1 view .LVU450
 1570              	@ ../../kernel/FreeRTOS/Source/timers.c:901: 		if( xTimerQueue == NULL )
 901:../../kernel/FreeRTOS/Source/timers.c **** 		{
 1571              		.loc 1 901 5 is_stmt 0 view .LVU451
 1572 0020 3368     		ldr	r3, [r6]	@ xTimerQueue, xTimerQueue
 1573 0022 DBB1     		cbz	r3, .L101	@ xTimerQueue,
 1574              	.L95:
 938:../../kernel/FreeRTOS/Source/timers.c **** 		}
 1575              		.loc 1 938 28 is_stmt 1 view .LVU452
 1576              		.loc 1 941 2 view .LVU453
 1577 0024 FFF7FEFF 		bl	vPortExitCritical		@
 1578              	.LVL104:
 1579              	.LBE234:
 1580              	.LBE233:
 370:../../kernel/FreeRTOS/Source/timers.c **** 		pxNewTimer->xTimerPeriodInTicks = xTimerPeriodInTicks;
 1581              		.loc 1 370 3 view .LVU454
 1582              	@ ../../kernel/FreeRTOS/Source/timers.c:374: 		pxNewTimer->pxCallbackFunction = pxCallbackFunction;
 374:../../kernel/FreeRTOS/Source/timers.c **** 		vListInitialiseItem( &( pxNewTimer->xTimerListItem ) );
 1583              		.loc 1 374 34 is_stmt 0 view .LVU455
 1584 0028 0E9B     		ldr	r3, [sp, #56]	@ tmp137, pxCallbackFunction
 1585 002a 6362     		str	r3, [r4, #36]	@ tmp137, pxNewTimer_4->pxCallbackFunction
 1586              	@ ../../kernel/FreeRTOS/Source/timers.c:370: 		pxNewTimer->pcTimerName = pcTimerName;
ARM GAS  /tmp/cclihgpx.s 			page 56


 370:../../kernel/FreeRTOS/Source/timers.c **** 		pxNewTimer->xTimerPeriodInTicks = xTimerPeriodInTicks;
 1587              		.loc 1 370 27 view .LVU456
 1588 002c C4F800B0 		str	fp, [r4]	@ pcTimerName, pxNewTimer_4->pcTimerName
 371:../../kernel/FreeRTOS/Source/timers.c **** 		pxNewTimer->uxAutoReload = uxAutoReload;
 1589              		.loc 1 371 3 is_stmt 1 view .LVU457
 1590              	@ ../../kernel/FreeRTOS/Source/timers.c:372: 		pxNewTimer->uxAutoReload = uxAutoReload;
 372:../../kernel/FreeRTOS/Source/timers.c **** 		pxNewTimer->pvTimerID = pvTimerID;
 1591              		.loc 1 372 28 is_stmt 0 view .LVU458
 1592 0030 C4E9065A 		strd	r5, r10, [r4, #24]	@ xTimerPeriodInTicks, uxAutoReload, <retval>,
 373:../../kernel/FreeRTOS/Source/timers.c **** 		pxNewTimer->pxCallbackFunction = pxCallbackFunction;
 1593              		.loc 1 373 3 is_stmt 1 view .LVU459
 1594              	@ ../../kernel/FreeRTOS/Source/timers.c:373: 		pxNewTimer->pvTimerID = pvTimerID;
 373:../../kernel/FreeRTOS/Source/timers.c **** 		pxNewTimer->pxCallbackFunction = pxCallbackFunction;
 1595              		.loc 1 373 25 is_stmt 0 view .LVU460
 1596 0034 2762     		str	r7, [r4, #32]	@ pvTimerID, pxNewTimer_4->pvTimerID
 374:../../kernel/FreeRTOS/Source/timers.c **** 		vListInitialiseItem( &( pxNewTimer->xTimerListItem ) );
 1597              		.loc 1 374 3 is_stmt 1 view .LVU461
 375:../../kernel/FreeRTOS/Source/timers.c **** 		traceTIMER_CREATE( pxNewTimer );
 1598              		.loc 1 375 3 view .LVU462
 1599 0036 201D     		adds	r0, r4, #4	@, <retval>,
 1600 0038 FFF7FEFF 		bl	vListInitialiseItem		@
 1601              	.LVL105:
 376:../../kernel/FreeRTOS/Source/timers.c **** 	}
 1602              		.loc 1 376 34 view .LVU463
 376:../../kernel/FreeRTOS/Source/timers.c **** 	}
 1603              		.loc 1 376 34 is_stmt 0 view .LVU464
 1604              	.LBE232:
 1605              	.LBE231:
 376:../../kernel/FreeRTOS/Source/timers.c **** 	}
 1606              		.loc 1 376 34 is_stmt 1 view .LVU465
 376:../../kernel/FreeRTOS/Source/timers.c **** 	}
 1607              		.loc 1 376 34 is_stmt 0 view .LVU466
 1608              	.LBE230:
 1609              	.LBE229:
 297:../../kernel/FreeRTOS/Source/timers.c **** 			}
 1610              		.loc 1 297 5 is_stmt 1 view .LVU467
 1611              	@ ../../kernel/FreeRTOS/Source/timers.c:297: 				pxNewTimer->ucStaticallyAllocated = pdFALSE;
 297:../../kernel/FreeRTOS/Source/timers.c **** 			}
 1612              		.loc 1 297 39 is_stmt 0 view .LVU468
 1613 003c 0023     		movs	r3, #0	@ tmp134,
 1614 003e 84F82C30 		strb	r3, [r4, #44]	@ tmp134, pxNewTimer_4->ucStaticallyAllocated
 302:../../kernel/FreeRTOS/Source/timers.c **** 	}
 1615              		.loc 1 302 3 is_stmt 1 view .LVU469
 1616              	.L91:
 1617              	@ ../../kernel/FreeRTOS/Source/timers.c:303: 	}
 303:../../kernel/FreeRTOS/Source/timers.c **** 
 1618              		.loc 1 303 2 is_stmt 0 view .LVU470
 1619 0042 2046     		mov	r0, r4	@, <retval>
 1620 0044 05B0     		add	sp, sp, #20	@,,
 1621              		.cfi_remember_state
 1622              		.cfi_def_cfa_offset 36
 1623              		@ sp needed	@
 1624 0046 BDE8F08F 		pop	{r4, r5, r6, r7, r8, r9, r10, fp, pc}	@
 1625              	.LVL106:
 1626              	.L100:
 1627              		.cfi_restore_state
 1628              	.LBB244:
ARM GAS  /tmp/cclihgpx.s 			page 57


 1629              	.LBB243:
 360:../../kernel/FreeRTOS/Source/timers.c **** 
 1630              		.loc 1 360 2 is_stmt 1 view .LVU471
 1631              	.LBB240:
 1632              	.LBI240:
 191:../../kernel/FreeRTOS/Source/portable/GCC/ARM_CM4F/portmacro.h **** {
 1633              		.loc 2 191 30 view .LVU472
 1634              	.LBB241:
 193:../../kernel/FreeRTOS/Source/portable/GCC/ARM_CM4F/portmacro.h **** 
 1635              		.loc 2 193 1 view .LVU473
 1636              		.loc 2 195 2 view .LVU474
 1637              		.syntax unified
 1638              	@ 195 "../../kernel/FreeRTOS/Source/portable/GCC/ARM_CM4F/portmacro.h" 1
 1639 004a 4FF0A003 			mov r3, #160													@ ulNewBASEPRI,
 1640 004e 83F31188 		msr basepri, r3												@ ulNewBASEPRI
 1641 0052 BFF36F8F 		isb														
 1642 0056 BFF34F8F 		dsb														
 1643              	
 1644              	@ 0 "" 2
 1645              	.LVL107:
 1646              		.thumb
 1647              		.syntax unified
 1648              	.L94:
 1649              		.loc 2 195 2 is_stmt 0 view .LVU475
 1650              	.LBE241:
 1651              	.LBE240:
 360:../../kernel/FreeRTOS/Source/timers.c **** 
 1652              		.loc 1 360 2 is_stmt 1 view .LVU476
 360:../../kernel/FreeRTOS/Source/timers.c **** 
 1653              		.loc 1 360 2 view .LVU477
 360:../../kernel/FreeRTOS/Source/timers.c **** 
 1654              		.loc 1 360 2 view .LVU478
 360:../../kernel/FreeRTOS/Source/timers.c **** 
 1655              		.loc 1 360 2 view .LVU479
 1656 005a FEE7     		b	.L94		@
 1657              	.LVL108:
 1658              	.L101:
 1659              	.LBB242:
 1660              	.LBB239:
 1661              	.LBB238:
 1662              	.LBB237:
 903:../../kernel/FreeRTOS/Source/timers.c **** 			vListInitialise( &xActiveTimerList2 );
 1663              		.loc 1 903 4 view .LVU480
 1664 005c DFF84890 		ldr	r9, .L102+20	@ tmp123,
 1665              	@ ../../kernel/FreeRTOS/Source/timers.c:904: 			vListInitialise( &xActiveTimerList2 );
 904:../../kernel/FreeRTOS/Source/timers.c **** 			pxCurrentTimerList = &xActiveTimerList1;
 1666              		.loc 1 904 4 is_stmt 0 view .LVU481
 1667 0060 DFF84880 		ldr	r8, .L102+24	@ tmp124,
 1668 0064 0393     		str	r3, [sp, #12]	@ xTimerQueue, %sfp
 1669              	@ ../../kernel/FreeRTOS/Source/timers.c:903: 			vListInitialise( &xActiveTimerList1 );
 903:../../kernel/FreeRTOS/Source/timers.c **** 			vListInitialise( &xActiveTimerList2 );
 1670              		.loc 1 903 4 view .LVU482
 1671 0066 4846     		mov	r0, r9	@, tmp123
 1672 0068 FFF7FEFF 		bl	vListInitialise		@
 1673              	.LVL109:
 904:../../kernel/FreeRTOS/Source/timers.c **** 			pxCurrentTimerList = &xActiveTimerList1;
 1674              		.loc 1 904 4 is_stmt 1 view .LVU483
ARM GAS  /tmp/cclihgpx.s 			page 58


 1675 006c 4046     		mov	r0, r8	@, tmp124
 1676 006e FFF7FEFF 		bl	vListInitialise		@
 1677              	.LVL110:
 905:../../kernel/FreeRTOS/Source/timers.c **** 			pxOverflowTimerList = &xActiveTimerList2;
 1678              		.loc 1 905 4 view .LVU484
 1679              	@ ../../kernel/FreeRTOS/Source/timers.c:905: 			pxCurrentTimerList = &xActiveTimerList1;
 905:../../kernel/FreeRTOS/Source/timers.c **** 			pxOverflowTimerList = &xActiveTimerList2;
 1680              		.loc 1 905 23 is_stmt 0 view .LVU485
 1681 0072 0948     		ldr	r0, .L102+4	@ tmp125,
 1682              	@ ../../kernel/FreeRTOS/Source/timers.c:906: 			pxOverflowTimerList = &xActiveTimerList2;
 906:../../kernel/FreeRTOS/Source/timers.c **** 
 1683              		.loc 1 906 24 view .LVU486
 1684 0074 0949     		ldr	r1, .L102+8	@ tmp127,
 1685              	.LBB235:
 1686              	@ ../../kernel/FreeRTOS/Source/timers.c:915: 				xTimerQueue = xQueueCreateStatic( ( UBaseType_t ) 
 915:../../kernel/FreeRTOS/Source/timers.c **** 			}
 1687              		.loc 1 915 19 view .LVU487
 1688 0076 039B     		ldr	r3, [sp, #12]	@ xTimerQueue, %sfp
 1689 0078 0093     		str	r3, [sp]	@ xTimerQueue,
 1690 007a 094A     		ldr	r2, .L102+12	@,
 1691              	.LBE235:
 1692              	@ ../../kernel/FreeRTOS/Source/timers.c:905: 			pxCurrentTimerList = &xActiveTimerList1;
 905:../../kernel/FreeRTOS/Source/timers.c **** 			pxOverflowTimerList = &xActiveTimerList2;
 1693              		.loc 1 905 23 view .LVU488
 1694 007c C0F80090 		str	r9, [r0]	@ tmp123, pxCurrentTimerList
 906:../../kernel/FreeRTOS/Source/timers.c **** 
 1695              		.loc 1 906 4 is_stmt 1 view .LVU489
 1696              	@ ../../kernel/FreeRTOS/Source/timers.c:906: 			pxOverflowTimerList = &xActiveTimerList2;
 906:../../kernel/FreeRTOS/Source/timers.c **** 
 1697              		.loc 1 906 24 is_stmt 0 view .LVU490
 1698 0080 C1F80080 		str	r8, [r1]	@ tmp124, pxOverflowTimerList
 1699              	.LBB236:
 912:../../kernel/FreeRTOS/Source/timers.c **** 				static uint8_t ucStaticTimerQueueStorage[ ( size_t ) configTIMER_QUEUE_LENGTH * sizeof( DaemonT
 1700              		.loc 1 912 5 is_stmt 1 view .LVU491
 913:../../kernel/FreeRTOS/Source/timers.c **** 
 1701              		.loc 1 913 5 view .LVU492
 915:../../kernel/FreeRTOS/Source/timers.c **** 			}
 1702              		.loc 1 915 5 view .LVU493
 1703              	@ ../../kernel/FreeRTOS/Source/timers.c:915: 				xTimerQueue = xQueueCreateStatic( ( UBaseType_t ) 
 915:../../kernel/FreeRTOS/Source/timers.c **** 			}
 1704              		.loc 1 915 19 is_stmt 0 view .LVU494
 1705 0084 074B     		ldr	r3, .L102+16	@,
 1706 0086 1021     		movs	r1, #16	@,
 1707 0088 0520     		movs	r0, #5	@,
 1708 008a FFF7FEFF 		bl	xQueueGenericCreateStatic		@
 1709              	.LVL111:
 1710              	@ ../../kernel/FreeRTOS/Source/timers.c:915: 				xTimerQueue = xQueueCreateStatic( ( UBaseType_t ) 
 915:../../kernel/FreeRTOS/Source/timers.c **** 			}
 1711              		.loc 1 915 17 view .LVU495
 1712 008e 3060     		str	r0, [r6]	@, xTimerQueue
 1713 0090 C8E7     		b	.L95		@
 1714              	.L103:
 1715 0092 00BF     		.align	2
 1716              	.L102:
 1717 0094 00000000 		.word	.LANCHOR1
 1718 0098 00000000 		.word	.LANCHOR0
 1719 009c 00000000 		.word	.LANCHOR2
ARM GAS  /tmp/cclihgpx.s 			page 59


 1720 00a0 00000000 		.word	.LANCHOR7
 1721 00a4 00000000 		.word	.LANCHOR6
 1722 00a8 00000000 		.word	.LANCHOR4
 1723 00ac 00000000 		.word	.LANCHOR5
 1724              	.LBE236:
 1725              	.LBE237:
 1726              	.LBE238:
 1727              	.LBE239:
 1728              	.LBE242:
 1729              	.LBE243:
 1730              	.LBE244:
 1731              		.cfi_endproc
 1732              	.LFE5:
 1733              		.size	xTimerCreate, .-xTimerCreate
 1734              		.section	.text.xTimerCreateStatic,"ax",%progbits
 1735              		.align	1
 1736              		.p2align 2,,3
 1737              		.global	xTimerCreateStatic
 1738              		.syntax unified
 1739              		.thumb
 1740              		.thumb_func
 1741              		.fpu fpv4-sp-d16
 1742              		.type	xTimerCreateStatic, %function
 1743              	xTimerCreateStatic:
 1744              	.LVL112:
 1745              	.LFB6:
 316:../../kernel/FreeRTOS/Source/timers.c **** 	Timer_t *pxNewTimer;
 1746              		.loc 1 316 2 is_stmt 1 view -0
 1747              		.cfi_startproc
 1748              		@ args = 8, pretend = 0, frame = 16
 1749              		@ frame_needed = 0, uses_anonymous_args = 0
 317:../../kernel/FreeRTOS/Source/timers.c **** 
 1750              		.loc 1 317 2 view .LVU497
 1751              	.LBB261:
 324:../../kernel/FreeRTOS/Source/timers.c **** 			configASSERT( xSize == sizeof( Timer_t ) );
 1752              		.loc 1 324 4 view .LVU498
 1753              	.LBE261:
 1754              	@ ../../kernel/FreeRTOS/Source/timers.c:316: 	{
 316:../../kernel/FreeRTOS/Source/timers.c **** 	Timer_t *pxNewTimer;
 1755              		.loc 1 316 2 is_stmt 0 view .LVU499
 1756 0000 2DE9F04F 		push	{r4, r5, r6, r7, r8, r9, r10, fp, lr}	@
 1757              		.cfi_def_cfa_offset 36
 1758              		.cfi_offset 4, -36
 1759              		.cfi_offset 5, -32
 1760              		.cfi_offset 6, -28
 1761              		.cfi_offset 7, -24
 1762              		.cfi_offset 8, -20
 1763              		.cfi_offset 9, -16
 1764              		.cfi_offset 10, -12
 1765              		.cfi_offset 11, -8
 1766              		.cfi_offset 14, -4
 1767 0004 87B0     		sub	sp, sp, #28	@,,
 1768              		.cfi_def_cfa_offset 64
 1769              	.LBB264:
 1770              	@ ../../kernel/FreeRTOS/Source/timers.c:324: 			volatile size_t xSize = sizeof( StaticTimer_t );
 324:../../kernel/FreeRTOS/Source/timers.c **** 			configASSERT( xSize == sizeof( Timer_t ) );
 1771              		.loc 1 324 20 view .LVU500
ARM GAS  /tmp/cclihgpx.s 			page 60


 1772 0006 3024     		movs	r4, #48	@ tmp124,
 1773 0008 0594     		str	r4, [sp, #20]	@ tmp124, xSize
 325:../../kernel/FreeRTOS/Source/timers.c **** 		}
 1774              		.loc 1 325 4 is_stmt 1 view .LVU501
 1775 000a 059D     		ldr	r5, [sp, #20]	@ xSize.22_1, xSize
 1776              	.LBE264:
 1777              	@ ../../kernel/FreeRTOS/Source/timers.c:316: 	{
 316:../../kernel/FreeRTOS/Source/timers.c **** 	Timer_t *pxNewTimer;
 1778              		.loc 1 316 2 is_stmt 0 view .LVU502
 1779 000c 119C     		ldr	r4, [sp, #68]	@ pxTimerBuffer, pxTimerBuffer
 1780              	.LBB265:
 1781              	@ ../../kernel/FreeRTOS/Source/timers.c:325: 			configASSERT( xSize == sizeof( Timer_t ) );
 325:../../kernel/FreeRTOS/Source/timers.c **** 		}
 1782              		.loc 1 325 4 view .LVU503
 1783 000e 302D     		cmp	r5, #48	@ xSize.22_1,
 1784 0010 08D0     		beq	.L105		@,
 325:../../kernel/FreeRTOS/Source/timers.c **** 		}
 1785              		.loc 1 325 4 is_stmt 1 view .LVU504
 1786              	.LBB262:
 1787              	.LBI262:
 191:../../kernel/FreeRTOS/Source/portable/GCC/ARM_CM4F/portmacro.h **** {
 1788              		.loc 2 191 30 view .LVU505
 1789              	.LBB263:
 193:../../kernel/FreeRTOS/Source/portable/GCC/ARM_CM4F/portmacro.h **** 
 1790              		.loc 2 193 1 view .LVU506
 1791              		.loc 2 195 2 view .LVU507
 1792              		.syntax unified
 1793              	@ 195 "../../kernel/FreeRTOS/Source/portable/GCC/ARM_CM4F/portmacro.h" 1
 1794 0012 4FF0A003 			mov r3, #160													@ ulNewBASEPRI,
 1795 0016 83F31188 		msr basepri, r3												@ ulNewBASEPRI
 1796 001a BFF36F8F 		isb														
 1797 001e BFF34F8F 		dsb														
 1798              	
 1799              	@ 0 "" 2
 1800              	.LVL113:
 1801              		.thumb
 1802              		.syntax unified
 1803              	.L106:
 1804              		.loc 2 195 2 is_stmt 0 view .LVU508
 1805              	.LBE263:
 1806              	.LBE262:
 325:../../kernel/FreeRTOS/Source/timers.c **** 		}
 1807              		.loc 1 325 4 is_stmt 1 discriminator 1 view .LVU509
 325:../../kernel/FreeRTOS/Source/timers.c **** 		}
 1808              		.loc 1 325 4 discriminator 1 view .LVU510
 325:../../kernel/FreeRTOS/Source/timers.c **** 		}
 1809              		.loc 1 325 4 discriminator 1 view .LVU511
 325:../../kernel/FreeRTOS/Source/timers.c **** 		}
 1810              		.loc 1 325 4 discriminator 1 view .LVU512
 1811 0022 FEE7     		b	.L106		@
 1812              	.LVL114:
 1813              	.L105:
 325:../../kernel/FreeRTOS/Source/timers.c **** 		}
 1814              		.loc 1 325 46 discriminator 2 view .LVU513
 1815              	.LBE265:
 330:../../kernel/FreeRTOS/Source/timers.c **** 		pxNewTimer = ( Timer_t * ) pxTimerBuffer; /*lint !e740 Unusual cast is ok as the structures are d
 1816              		.loc 1 330 3 discriminator 2 view .LVU514
ARM GAS  /tmp/cclihgpx.s 			page 61


 1817 0024 ECB1     		cbz	r4, .L113	@ pxTimerBuffer,
 330:../../kernel/FreeRTOS/Source/timers.c **** 		pxNewTimer = ( Timer_t * ) pxTimerBuffer; /*lint !e740 Unusual cast is ok as the structures are d
 1818              		.loc 1 330 32 view .LVU515
 331:../../kernel/FreeRTOS/Source/timers.c **** 
 1819              		.loc 1 331 3 view .LVU516
 1820              	.LVL115:
 333:../../kernel/FreeRTOS/Source/timers.c **** 		{
 1821              		.loc 1 333 3 view .LVU517
 335:../../kernel/FreeRTOS/Source/timers.c **** 
 1822              		.loc 1 335 4 view .LVU518
 1823              	.LBB266:
 1824              	.LBI266:
 352:../../kernel/FreeRTOS/Source/timers.c **** 									const TickType_t xTimerPeriodInTicks,
 1825              		.loc 1 352 13 view .LVU519
 1826              	.LBB267:
 360:../../kernel/FreeRTOS/Source/timers.c **** 
 1827              		.loc 1 360 2 view .LVU520
 1828 0026 29B3     		cbz	r1, .L114	@ xTimerPeriodInTicks,
 1829              	.LBB268:
 1830              	.LBB269:
 1831              	.LBB270:
 1832              	.LBB271:
 1833              	@ ../../kernel/FreeRTOS/Source/timers.c:901: 		if( xTimerQueue == NULL )
 901:../../kernel/FreeRTOS/Source/timers.c **** 		{
 1834              		.loc 1 901 19 is_stmt 0 view .LVU521
 1835 0028 234F     		ldr	r7, .L116	@ tmp128,
 1836 002a 0391     		str	r1, [sp, #12]	@ xTimerPeriodInTicks, %sfp
 1837 002c 1E46     		mov	r6, r3	@ pvTimerID, pvTimerID
 1838 002e 9046     		mov	r8, r2	@ uxAutoReload, uxAutoReload
 1839 0030 8146     		mov	r9, r0	@ pcTimerName, pcTimerName
 1840              	.LVL116:
 901:../../kernel/FreeRTOS/Source/timers.c **** 		{
 1841              		.loc 1 901 19 view .LVU522
 1842              	.LBE271:
 1843              	.LBE270:
 1844              	.LBE269:
 1845              	.LBI268:
 352:../../kernel/FreeRTOS/Source/timers.c **** 									const TickType_t xTimerPeriodInTicks,
 1846              		.loc 1 352 13 is_stmt 1 view .LVU523
 1847              	.LBB278:
 360:../../kernel/FreeRTOS/Source/timers.c **** 
 1848              		.loc 1 360 45 view .LVU524
 362:../../kernel/FreeRTOS/Source/timers.c **** 	{
 1849              		.loc 1 362 2 view .LVU525
 366:../../kernel/FreeRTOS/Source/timers.c **** 
 1850              		.loc 1 366 3 view .LVU526
 1851              	.LBB276:
 1852              	.LBI270:
 894:../../kernel/FreeRTOS/Source/timers.c **** {
 1853              		.loc 1 894 13 view .LVU527
 1854              	.LBB274:
 899:../../kernel/FreeRTOS/Source/timers.c **** 	{
 1855              		.loc 1 899 2 view .LVU528
 1856 0032 FFF7FEFF 		bl	vPortEnterCritical		@
 1857              	.LVL117:
 901:../../kernel/FreeRTOS/Source/timers.c **** 		{
 1858              		.loc 1 901 3 view .LVU529
ARM GAS  /tmp/cclihgpx.s 			page 62


 1859              	@ ../../kernel/FreeRTOS/Source/timers.c:901: 		if( xTimerQueue == NULL )
 901:../../kernel/FreeRTOS/Source/timers.c **** 		{
 1860              		.loc 1 901 5 is_stmt 0 view .LVU530
 1861 0036 3D68     		ldr	r5, [r7]	@ xTimerQueue, xTimerQueue
 1862 0038 2DB3     		cbz	r5, .L115	@ xTimerQueue,
 1863              	.L111:
 938:../../kernel/FreeRTOS/Source/timers.c **** 		}
 1864              		.loc 1 938 28 is_stmt 1 view .LVU531
 1865              		.loc 1 941 2 view .LVU532
 1866 003a FFF7FEFF 		bl	vPortExitCritical		@
 1867              	.LVL118:
 1868              	.LBE274:
 1869              	.LBE276:
 370:../../kernel/FreeRTOS/Source/timers.c **** 		pxNewTimer->xTimerPeriodInTicks = xTimerPeriodInTicks;
 1870              		.loc 1 370 3 view .LVU533
 1871              	@ ../../kernel/FreeRTOS/Source/timers.c:371: 		pxNewTimer->xTimerPeriodInTicks = xTimerPeriodInTick
 371:../../kernel/FreeRTOS/Source/timers.c **** 		pxNewTimer->uxAutoReload = uxAutoReload;
 1872              		.loc 1 371 35 is_stmt 0 view .LVU534
 1873 003e 039B     		ldr	r3, [sp, #12]	@ xTimerPeriodInTicks, %sfp
 1874              	@ ../../kernel/FreeRTOS/Source/timers.c:370: 		pxNewTimer->pcTimerName = pcTimerName;
 370:../../kernel/FreeRTOS/Source/timers.c **** 		pxNewTimer->xTimerPeriodInTicks = xTimerPeriodInTicks;
 1875              		.loc 1 370 27 view .LVU535
 1876 0040 C4F80090 		str	r9, [r4]	@ pcTimerName, MEM[(struct Timer_t *)pxTimerBuffer_4(D)].pcTimerName
 371:../../kernel/FreeRTOS/Source/timers.c **** 		pxNewTimer->uxAutoReload = uxAutoReload;
 1877              		.loc 1 371 3 is_stmt 1 view .LVU536
 1878              	@ ../../kernel/FreeRTOS/Source/timers.c:372: 		pxNewTimer->uxAutoReload = uxAutoReload;
 372:../../kernel/FreeRTOS/Source/timers.c **** 		pxNewTimer->pvTimerID = pvTimerID;
 1879              		.loc 1 372 28 is_stmt 0 view .LVU537
 1880 0044 C4E90638 		strd	r3, r8, [r4, #24]	@ xTimerPeriodInTicks, uxAutoReload, pxTimerBuffer,
 373:../../kernel/FreeRTOS/Source/timers.c **** 		pxNewTimer->pxCallbackFunction = pxCallbackFunction;
 1881              		.loc 1 373 3 is_stmt 1 view .LVU538
 1882              	@ ../../kernel/FreeRTOS/Source/timers.c:374: 		pxNewTimer->pxCallbackFunction = pxCallbackFunction;
 374:../../kernel/FreeRTOS/Source/timers.c **** 		vListInitialiseItem( &( pxNewTimer->xTimerListItem ) );
 1883              		.loc 1 374 34 is_stmt 0 view .LVU539
 1884 0048 109B     		ldr	r3, [sp, #64]	@ tmp149, pxCallbackFunction
 1885 004a 6362     		str	r3, [r4, #36]	@ tmp149, MEM[(struct Timer_t *)pxTimerBuffer_4(D)].pxCallbackFunction
 1886              	@ ../../kernel/FreeRTOS/Source/timers.c:375: 		vListInitialiseItem( &( pxNewTimer->xTimerListItem )
 375:../../kernel/FreeRTOS/Source/timers.c **** 		traceTIMER_CREATE( pxNewTimer );
 1887              		.loc 1 375 3 view .LVU540
 1888 004c 201D     		adds	r0, r4, #4	@, pxTimerBuffer,
 1889              	@ ../../kernel/FreeRTOS/Source/timers.c:373: 		pxNewTimer->pvTimerID = pvTimerID;
 373:../../kernel/FreeRTOS/Source/timers.c **** 		pxNewTimer->pxCallbackFunction = pxCallbackFunction;
 1890              		.loc 1 373 25 view .LVU541
 1891 004e 2662     		str	r6, [r4, #32]	@ pvTimerID, MEM[(struct Timer_t *)pxTimerBuffer_4(D)].pvTimerID
 374:../../kernel/FreeRTOS/Source/timers.c **** 		vListInitialiseItem( &( pxNewTimer->xTimerListItem ) );
 1892              		.loc 1 374 3 is_stmt 1 view .LVU542
 375:../../kernel/FreeRTOS/Source/timers.c **** 		traceTIMER_CREATE( pxNewTimer );
 1893              		.loc 1 375 3 view .LVU543
 1894 0050 FFF7FEFF 		bl	vListInitialiseItem		@
 1895              	.LVL119:
 376:../../kernel/FreeRTOS/Source/timers.c **** 	}
 1896              		.loc 1 376 34 view .LVU544
 376:../../kernel/FreeRTOS/Source/timers.c **** 	}
 1897              		.loc 1 376 34 is_stmt 0 view .LVU545
 1898              	.LBE278:
 1899              	.LBE268:
 376:../../kernel/FreeRTOS/Source/timers.c **** 	}
ARM GAS  /tmp/cclihgpx.s 			page 63


 1900              		.loc 1 376 34 is_stmt 1 view .LVU546
 376:../../kernel/FreeRTOS/Source/timers.c **** 	}
 1901              		.loc 1 376 34 is_stmt 0 view .LVU547
 1902              	.LBE267:
 1903              	.LBE266:
 341:../../kernel/FreeRTOS/Source/timers.c **** 			}
 1904              		.loc 1 341 5 is_stmt 1 view .LVU548
 1905              	@ ../../kernel/FreeRTOS/Source/timers.c:341: 				pxNewTimer->ucStaticallyAllocated = pdTRUE;
 341:../../kernel/FreeRTOS/Source/timers.c **** 			}
 1906              		.loc 1 341 39 is_stmt 0 view .LVU549
 1907 0054 0123     		movs	r3, #1	@ tmp141,
 1908              	@ ../../kernel/FreeRTOS/Source/timers.c:347: 	}
 347:../../kernel/FreeRTOS/Source/timers.c **** 
 1909              		.loc 1 347 2 view .LVU550
 1910 0056 2046     		mov	r0, r4	@, pxTimerBuffer
 1911              	@ ../../kernel/FreeRTOS/Source/timers.c:341: 				pxNewTimer->ucStaticallyAllocated = pdTRUE;
 341:../../kernel/FreeRTOS/Source/timers.c **** 			}
 1912              		.loc 1 341 39 view .LVU551
 1913 0058 84F82C30 		strb	r3, [r4, #44]	@ tmp141, MEM[(struct Timer_t *)pxTimerBuffer_4(D)].ucStaticallyAllocated
 346:../../kernel/FreeRTOS/Source/timers.c **** 	}
 1914              		.loc 1 346 3 is_stmt 1 view .LVU552
 1915              	@ ../../kernel/FreeRTOS/Source/timers.c:347: 	}
 347:../../kernel/FreeRTOS/Source/timers.c **** 
 1916              		.loc 1 347 2 is_stmt 0 view .LVU553
 1917 005c 07B0     		add	sp, sp, #28	@,,
 1918              		.cfi_remember_state
 1919              		.cfi_def_cfa_offset 36
 1920              		@ sp needed	@
 1921 005e BDE8F08F 		pop	{r4, r5, r6, r7, r8, r9, r10, fp, pc}	@
 1922              	.LVL120:
 1923              	.L113:
 1924              		.cfi_restore_state
 330:../../kernel/FreeRTOS/Source/timers.c **** 		pxNewTimer = ( Timer_t * ) pxTimerBuffer; /*lint !e740 Unusual cast is ok as the structures are d
 1925              		.loc 1 330 3 is_stmt 1 view .LVU554
 1926              	.LBB284:
 1927              	.LBI284:
 191:../../kernel/FreeRTOS/Source/portable/GCC/ARM_CM4F/portmacro.h **** {
 1928              		.loc 2 191 30 view .LVU555
 1929              	.LBB285:
 193:../../kernel/FreeRTOS/Source/portable/GCC/ARM_CM4F/portmacro.h **** 
 1930              		.loc 2 193 1 view .LVU556
 1931              		.loc 2 195 2 view .LVU557
 1932              		.syntax unified
 1933              	@ 195 "../../kernel/FreeRTOS/Source/portable/GCC/ARM_CM4F/portmacro.h" 1
 1934 0062 4FF0A003 			mov r3, #160													@ ulNewBASEPRI,
 1935 0066 83F31188 		msr basepri, r3												@ ulNewBASEPRI
 1936 006a BFF36F8F 		isb														
 1937 006e BFF34F8F 		dsb														
 1938              	
 1939              	@ 0 "" 2
 1940              	.LVL121:
 1941              		.thumb
 1942              		.syntax unified
 1943              	.L108:
 1944              		.loc 2 195 2 is_stmt 0 view .LVU558
 1945              	.LBE285:
 1946              	.LBE284:
ARM GAS  /tmp/cclihgpx.s 			page 64


 330:../../kernel/FreeRTOS/Source/timers.c **** 		pxNewTimer = ( Timer_t * ) pxTimerBuffer; /*lint !e740 Unusual cast is ok as the structures are d
 1947              		.loc 1 330 3 is_stmt 1 discriminator 2 view .LVU559
 330:../../kernel/FreeRTOS/Source/timers.c **** 		pxNewTimer = ( Timer_t * ) pxTimerBuffer; /*lint !e740 Unusual cast is ok as the structures are d
 1948              		.loc 1 330 3 discriminator 2 view .LVU560
 330:../../kernel/FreeRTOS/Source/timers.c **** 		pxNewTimer = ( Timer_t * ) pxTimerBuffer; /*lint !e740 Unusual cast is ok as the structures are d
 1949              		.loc 1 330 3 discriminator 2 view .LVU561
 330:../../kernel/FreeRTOS/Source/timers.c **** 		pxNewTimer = ( Timer_t * ) pxTimerBuffer; /*lint !e740 Unusual cast is ok as the structures are d
 1950              		.loc 1 330 3 discriminator 2 view .LVU562
 1951 0072 FEE7     		b	.L108		@
 1952              	.LVL122:
 1953              	.L114:
 1954              	.LBB286:
 1955              	.LBB283:
 360:../../kernel/FreeRTOS/Source/timers.c **** 
 1956              		.loc 1 360 2 view .LVU563
 1957              	.LBB280:
 1958              	.LBI280:
 191:../../kernel/FreeRTOS/Source/portable/GCC/ARM_CM4F/portmacro.h **** {
 1959              		.loc 2 191 30 view .LVU564
 1960              	.LBB281:
 193:../../kernel/FreeRTOS/Source/portable/GCC/ARM_CM4F/portmacro.h **** 
 1961              		.loc 2 193 1 view .LVU565
 1962              		.loc 2 195 2 view .LVU566
 1963              		.syntax unified
 1964              	@ 195 "../../kernel/FreeRTOS/Source/portable/GCC/ARM_CM4F/portmacro.h" 1
 1965 0074 4FF0A003 			mov r3, #160													@ ulNewBASEPRI,
 1966 0078 83F31188 		msr basepri, r3												@ ulNewBASEPRI
 1967 007c BFF36F8F 		isb														
 1968 0080 BFF34F8F 		dsb														
 1969              	
 1970              	@ 0 "" 2
 1971              	.LVL123:
 1972              		.thumb
 1973              		.syntax unified
 1974              	.L110:
 1975              		.loc 2 195 2 is_stmt 0 view .LVU567
 1976              	.LBE281:
 1977              	.LBE280:
 360:../../kernel/FreeRTOS/Source/timers.c **** 
 1978              		.loc 1 360 2 is_stmt 1 view .LVU568
 360:../../kernel/FreeRTOS/Source/timers.c **** 
 1979              		.loc 1 360 2 view .LVU569
 360:../../kernel/FreeRTOS/Source/timers.c **** 
 1980              		.loc 1 360 2 view .LVU570
 360:../../kernel/FreeRTOS/Source/timers.c **** 
 1981              		.loc 1 360 2 view .LVU571
 1982 0084 FEE7     		b	.L110		@
 1983              	.LVL124:
 1984              	.L115:
 1985              	.LBB282:
 1986              	.LBB279:
 1987              	.LBB277:
 1988              	.LBB275:
 903:../../kernel/FreeRTOS/Source/timers.c **** 			vListInitialise( &xActiveTimerList2 );
 1989              		.loc 1 903 4 view .LVU572
 1990 0086 DFF844A0 		ldr	r10, .L116+20	@ tmp130,
 1991              	@ ../../kernel/FreeRTOS/Source/timers.c:904: 			vListInitialise( &xActiveTimerList2 );
ARM GAS  /tmp/cclihgpx.s 			page 65


 904:../../kernel/FreeRTOS/Source/timers.c **** 			pxCurrentTimerList = &xActiveTimerList1;
 1992              		.loc 1 904 4 is_stmt 0 view .LVU573
 1993 008a DFF844B0 		ldr	fp, .L116+24	@ tmp131,
 1994              	@ ../../kernel/FreeRTOS/Source/timers.c:903: 			vListInitialise( &xActiveTimerList1 );
 903:../../kernel/FreeRTOS/Source/timers.c **** 			vListInitialise( &xActiveTimerList2 );
 1995              		.loc 1 903 4 view .LVU574
 1996 008e 5046     		mov	r0, r10	@, tmp130
 1997 0090 FFF7FEFF 		bl	vListInitialise		@
 1998              	.LVL125:
 904:../../kernel/FreeRTOS/Source/timers.c **** 			pxCurrentTimerList = &xActiveTimerList1;
 1999              		.loc 1 904 4 is_stmt 1 view .LVU575
 2000 0094 5846     		mov	r0, fp	@, tmp131
 2001 0096 FFF7FEFF 		bl	vListInitialise		@
 2002              	.LVL126:
 905:../../kernel/FreeRTOS/Source/timers.c **** 			pxOverflowTimerList = &xActiveTimerList2;
 2003              		.loc 1 905 4 view .LVU576
 2004              	@ ../../kernel/FreeRTOS/Source/timers.c:905: 			pxCurrentTimerList = &xActiveTimerList1;
 905:../../kernel/FreeRTOS/Source/timers.c **** 			pxOverflowTimerList = &xActiveTimerList2;
 2005              		.loc 1 905 23 is_stmt 0 view .LVU577
 2006 009a 0848     		ldr	r0, .L116+4	@ tmp132,
 2007              	@ ../../kernel/FreeRTOS/Source/timers.c:906: 			pxOverflowTimerList = &xActiveTimerList2;
 906:../../kernel/FreeRTOS/Source/timers.c **** 
 2008              		.loc 1 906 24 view .LVU578
 2009 009c 0849     		ldr	r1, .L116+8	@ tmp134,
 2010              	.LBB272:
 2011              	@ ../../kernel/FreeRTOS/Source/timers.c:915: 				xTimerQueue = xQueueCreateStatic( ( UBaseType_t ) 
 915:../../kernel/FreeRTOS/Source/timers.c **** 			}
 2012              		.loc 1 915 19 view .LVU579
 2013 009e 0095     		str	r5, [sp]	@ xTimerQueue,
 2014 00a0 084B     		ldr	r3, .L116+12	@,
 2015              	.LBE272:
 2016              	@ ../../kernel/FreeRTOS/Source/timers.c:905: 			pxCurrentTimerList = &xActiveTimerList1;
 905:../../kernel/FreeRTOS/Source/timers.c **** 			pxOverflowTimerList = &xActiveTimerList2;
 2017              		.loc 1 905 23 view .LVU580
 2018 00a2 C0F800A0 		str	r10, [r0]	@ tmp130, pxCurrentTimerList
 906:../../kernel/FreeRTOS/Source/timers.c **** 
 2019              		.loc 1 906 4 is_stmt 1 view .LVU581
 2020              	@ ../../kernel/FreeRTOS/Source/timers.c:906: 			pxOverflowTimerList = &xActiveTimerList2;
 906:../../kernel/FreeRTOS/Source/timers.c **** 
 2021              		.loc 1 906 24 is_stmt 0 view .LVU582
 2022 00a6 C1F800B0 		str	fp, [r1]	@ tmp131, pxOverflowTimerList
 2023              	.LBB273:
 912:../../kernel/FreeRTOS/Source/timers.c **** 				static uint8_t ucStaticTimerQueueStorage[ ( size_t ) configTIMER_QUEUE_LENGTH * sizeof( DaemonT
 2024              		.loc 1 912 5 is_stmt 1 view .LVU583
 913:../../kernel/FreeRTOS/Source/timers.c **** 
 2025              		.loc 1 913 5 view .LVU584
 915:../../kernel/FreeRTOS/Source/timers.c **** 			}
 2026              		.loc 1 915 5 view .LVU585
 2027              	@ ../../kernel/FreeRTOS/Source/timers.c:915: 				xTimerQueue = xQueueCreateStatic( ( UBaseType_t ) 
 915:../../kernel/FreeRTOS/Source/timers.c **** 			}
 2028              		.loc 1 915 19 is_stmt 0 view .LVU586
 2029 00aa 074A     		ldr	r2, .L116+16	@,
 2030 00ac 1021     		movs	r1, #16	@,
 2031 00ae 0520     		movs	r0, #5	@,
 2032 00b0 FFF7FEFF 		bl	xQueueGenericCreateStatic		@
 2033              	.LVL127:
 2034              	@ ../../kernel/FreeRTOS/Source/timers.c:915: 				xTimerQueue = xQueueCreateStatic( ( UBaseType_t ) 
ARM GAS  /tmp/cclihgpx.s 			page 66


 915:../../kernel/FreeRTOS/Source/timers.c **** 			}
 2035              		.loc 1 915 17 view .LVU587
 2036 00b4 3860     		str	r0, [r7]	@, xTimerQueue
 2037 00b6 C0E7     		b	.L111		@
 2038              	.L117:
 2039              		.align	2
 2040              	.L116:
 2041 00b8 00000000 		.word	.LANCHOR1
 2042 00bc 00000000 		.word	.LANCHOR0
 2043 00c0 00000000 		.word	.LANCHOR2
 2044 00c4 00000000 		.word	.LANCHOR6
 2045 00c8 00000000 		.word	.LANCHOR7
 2046 00cc 00000000 		.word	.LANCHOR4
 2047 00d0 00000000 		.word	.LANCHOR5
 2048              	.LBE273:
 2049              	.LBE275:
 2050              	.LBE277:
 2051              	.LBE279:
 2052              	.LBE282:
 2053              	.LBE283:
 2054              	.LBE286:
 2055              		.cfi_endproc
 2056              	.LFE6:
 2057              		.size	xTimerCreateStatic, .-xTimerCreateStatic
 2058              		.section	.text.xTimerGenericCommand,"ax",%progbits
 2059              		.align	1
 2060              		.p2align 2,,3
 2061              		.global	xTimerGenericCommand
 2062              		.syntax unified
 2063              		.thumb
 2064              		.thumb_func
 2065              		.fpu fpv4-sp-d16
 2066              		.type	xTimerGenericCommand, %function
 2067              	xTimerGenericCommand:
 2068              	.LVL128:
 2069              	.LFB8:
 382:../../kernel/FreeRTOS/Source/timers.c **** BaseType_t xReturn = pdFAIL;
 2070              		.loc 1 382 1 is_stmt 1 view -0
 2071              		.cfi_startproc
 2072              		@ args = 4, pretend = 0, frame = 16
 2073              		@ frame_needed = 0, uses_anonymous_args = 0
 383:../../kernel/FreeRTOS/Source/timers.c **** DaemonTaskMessage_t xMessage;
 2074              		.loc 1 383 1 view .LVU589
 384:../../kernel/FreeRTOS/Source/timers.c **** 
 2075              		.loc 1 384 1 view .LVU590
 386:../../kernel/FreeRTOS/Source/timers.c **** 
 2076              		.loc 1 386 2 view .LVU591
 2077 0000 C0B1     		cbz	r0, .L127	@ xTimer,
 386:../../kernel/FreeRTOS/Source/timers.c **** 
 2078              		.loc 1 386 24 discriminator 2 view .LVU592
 390:../../kernel/FreeRTOS/Source/timers.c **** 	{
 2079              		.loc 1 390 2 discriminator 2 view .LVU593
 2080              	@ ../../kernel/FreeRTOS/Source/timers.c:382: {
 382:../../kernel/FreeRTOS/Source/timers.c **** BaseType_t xReturn = pdFAIL;
 2081              		.loc 1 382 1 is_stmt 0 discriminator 2 view .LVU594
 2082 0002 70B5     		push	{r4, r5, r6, lr}	@
 2083              		.cfi_def_cfa_offset 16
ARM GAS  /tmp/cclihgpx.s 			page 67


 2084              		.cfi_offset 4, -16
 2085              		.cfi_offset 5, -12
 2086              		.cfi_offset 6, -8
 2087              		.cfi_offset 14, -4
 2088              	@ ../../kernel/FreeRTOS/Source/timers.c:390: 	if( xTimerQueue != NULL )
 390:../../kernel/FreeRTOS/Source/timers.c **** 	{
 2089              		.loc 1 390 18 discriminator 2 view .LVU595
 2090 0004 164D     		ldr	r5, .L129	@ tmp122,
 2091 0006 0446     		mov	r4, r0	@ xTimer, xTimer
 2092 0008 2868     		ldr	r0, [r5]	@ xTimerQueue.23_1, xTimerQueue
 2093              	.LVL129:
 2094              	@ ../../kernel/FreeRTOS/Source/timers.c:382: {
 382:../../kernel/FreeRTOS/Source/timers.c **** BaseType_t xReturn = pdFAIL;
 2095              		.loc 1 382 1 discriminator 2 view .LVU596
 2096 000a 84B0     		sub	sp, sp, #16	@,,
 2097              		.cfi_def_cfa_offset 32
 2098              	@ ../../kernel/FreeRTOS/Source/timers.c:390: 	if( xTimerQueue != NULL )
 390:../../kernel/FreeRTOS/Source/timers.c **** 	{
 2099              		.loc 1 390 4 discriminator 2 view .LVU597
 2100 000c 80B1     		cbz	r0, .L118	@ xTimerQueue.23_1,
 2101 000e 1646     		mov	r6, r2	@ xOptionalValue, xOptionalValue
 2102              	@ ../../kernel/FreeRTOS/Source/timers.c:397: 		if( xCommandID < tmrFIRST_FROM_ISR_COMMAND )
 397:../../kernel/FreeRTOS/Source/timers.c **** 		{
 2103              		.loc 1 397 5 view .LVU598
 2104 0010 0529     		cmp	r1, #5	@ xCommandID,
 2105 0012 1A46     		mov	r2, r3	@ pxHigherPriorityTaskWoken, pxHigherPriorityTaskWoken
 2106              	.LVL130:
 393:../../kernel/FreeRTOS/Source/timers.c **** 		xMessage.u.xTimerParameters.xMessageValue = xOptionalValue;
 2107              		.loc 1 393 3 is_stmt 1 view .LVU599
 2108              	@ ../../kernel/FreeRTOS/Source/timers.c:394: 		xMessage.u.xTimerParameters.xMessageValue = xOptiona
 394:../../kernel/FreeRTOS/Source/timers.c **** 		xMessage.u.xTimerParameters.pxTimer = ( Timer_t * ) xTimer;
 2109              		.loc 1 394 45 is_stmt 0 view .LVU600
 2110 0014 CDE90016 		strd	r1, r6, [sp]	@ xCommandID, xOptionalValue,
 395:../../kernel/FreeRTOS/Source/timers.c **** 
 2111              		.loc 1 395 3 is_stmt 1 view .LVU601
 2112              	@ ../../kernel/FreeRTOS/Source/timers.c:395: 		xMessage.u.xTimerParameters.pxTimer = ( Timer_t * ) 
 395:../../kernel/FreeRTOS/Source/timers.c **** 
 2113              		.loc 1 395 39 is_stmt 0 view .LVU602
 2114 0018 0294     		str	r4, [sp, #8]	@ xTimer, xMessage.u.xTimerParameters.pxTimer
 397:../../kernel/FreeRTOS/Source/timers.c **** 		{
 2115              		.loc 1 397 3 is_stmt 1 view .LVU603
 2116              	@ ../../kernel/FreeRTOS/Source/timers.c:397: 		if( xCommandID < tmrFIRST_FROM_ISR_COMMAND )
 397:../../kernel/FreeRTOS/Source/timers.c **** 		{
 2117              		.loc 1 397 5 is_stmt 0 view .LVU604
 2118 001a 14DC     		bgt	.L122		@,
 399:../../kernel/FreeRTOS/Source/timers.c **** 			{
 2119              		.loc 1 399 4 is_stmt 1 view .LVU605
 2120              	@ ../../kernel/FreeRTOS/Source/timers.c:399: 			if( xTaskGetSchedulerState() == taskSCHEDULER_RUNNI
 399:../../kernel/FreeRTOS/Source/timers.c **** 			{
 2121              		.loc 1 399 8 is_stmt 0 view .LVU606
 2122 001c FFF7FEFF 		bl	xTaskGetSchedulerState		@
 2123              	.LVL131:
 2124              	@ ../../kernel/FreeRTOS/Source/timers.c:399: 			if( xTaskGetSchedulerState() == taskSCHEDULER_RUNNI
 399:../../kernel/FreeRTOS/Source/timers.c **** 			{
 2125              		.loc 1 399 6 view .LVU607
 2126 0020 0228     		cmp	r0, #2	@,
 2127 0022 16D0     		beq	.L128		@,
ARM GAS  /tmp/cclihgpx.s 			page 68


 405:../../kernel/FreeRTOS/Source/timers.c **** 			}
 2128              		.loc 1 405 5 is_stmt 1 view .LVU608
 2129              	@ ../../kernel/FreeRTOS/Source/timers.c:405: 				xReturn = xQueueSendToBack( xTimerQueue, &xMessage
 405:../../kernel/FreeRTOS/Source/timers.c **** 			}
 2130              		.loc 1 405 15 is_stmt 0 view .LVU609
 2131 0024 0023     		movs	r3, #0	@,
 2132 0026 2868     		ldr	r0, [r5]	@, xTimerQueue
 2133 0028 1A46     		mov	r2, r3	@,
 2134 002a 6946     		mov	r1, sp	@,
 2135 002c FFF7FEFF 		bl	xQueueGenericSend		@
 2136              	.LVL132:
 2137              	.L118:
 2138              	@ ../../kernel/FreeRTOS/Source/timers.c:421: }
 421:../../kernel/FreeRTOS/Source/timers.c **** /*-----------------------------------------------------------*/
 2139              		.loc 1 421 1 view .LVU610
 2140 0030 04B0     		add	sp, sp, #16	@,,
 2141              		.cfi_def_cfa_offset 16
 2142              		@ sp needed	@
 2143 0032 70BD     		pop	{r4, r5, r6, pc}	@
 2144              	.LVL133:
 2145              	.L127:
 2146              		.cfi_def_cfa_offset 0
 2147              		.cfi_restore 4
 2148              		.cfi_restore 5
 2149              		.cfi_restore 6
 2150              		.cfi_restore 14
 2151              	.LBB291:
 2152              	.LBI291:
 381:../../kernel/FreeRTOS/Source/timers.c **** {
 2153              		.loc 1 381 12 is_stmt 1 view .LVU611
 2154              	.LBB292:
 386:../../kernel/FreeRTOS/Source/timers.c **** 
 2155              		.loc 1 386 2 view .LVU612
 2156              	.LBB293:
 2157              	.LBI293:
 191:../../kernel/FreeRTOS/Source/portable/GCC/ARM_CM4F/portmacro.h **** {
 2158              		.loc 2 191 30 view .LVU613
 2159              	.LBB294:
 193:../../kernel/FreeRTOS/Source/portable/GCC/ARM_CM4F/portmacro.h **** 
 2160              		.loc 2 193 1 view .LVU614
 2161              		.loc 2 195 2 view .LVU615
 2162              		.syntax unified
 2163              	@ 195 "../../kernel/FreeRTOS/Source/portable/GCC/ARM_CM4F/portmacro.h" 1
 2164 0034 4FF0A003 			mov r3, #160													@ ulNewBASEPRI,
 2165 0038 83F31188 		msr basepri, r3												@ ulNewBASEPRI
 2166 003c BFF36F8F 		isb														
 2167 0040 BFF34F8F 		dsb														
 2168              	
 2169              	@ 0 "" 2
 2170              	.LVL134:
 2171              		.thumb
 2172              		.syntax unified
 2173              	.L120:
 2174              		.loc 2 195 2 is_stmt 0 view .LVU616
 2175              	.LBE294:
 2176              	.LBE293:
 386:../../kernel/FreeRTOS/Source/timers.c **** 
ARM GAS  /tmp/cclihgpx.s 			page 69


 2177              		.loc 1 386 2 is_stmt 1 view .LVU617
 386:../../kernel/FreeRTOS/Source/timers.c **** 
 2178              		.loc 1 386 2 view .LVU618
 386:../../kernel/FreeRTOS/Source/timers.c **** 
 2179              		.loc 1 386 2 view .LVU619
 386:../../kernel/FreeRTOS/Source/timers.c **** 
 2180              		.loc 1 386 2 view .LVU620
 2181 0044 FEE7     		b	.L120		@
 2182              	.LVL135:
 2183              	.L122:
 2184              		.cfi_def_cfa_offset 32
 2185              		.cfi_offset 4, -16
 2186              		.cfi_offset 5, -12
 2187              		.cfi_offset 6, -8
 2188              		.cfi_offset 14, -4
 386:../../kernel/FreeRTOS/Source/timers.c **** 
 2189              		.loc 1 386 2 is_stmt 0 view .LVU621
 2190              	.LBE292:
 2191              	.LBE291:
 410:../../kernel/FreeRTOS/Source/timers.c **** 		}
 2192              		.loc 1 410 4 is_stmt 1 view .LVU622
 2193              	@ ../../kernel/FreeRTOS/Source/timers.c:410: 			xReturn = xQueueSendToBackFromISR( xTimerQueue, &xM
 410:../../kernel/FreeRTOS/Source/timers.c **** 		}
 2194              		.loc 1 410 14 is_stmt 0 view .LVU623
 2195 0046 0023     		movs	r3, #0	@,
 2196 0048 6946     		mov	r1, sp	@,
 2197              	.LVL136:
 410:../../kernel/FreeRTOS/Source/timers.c **** 		}
 2198              		.loc 1 410 14 view .LVU624
 2199 004a FFF7FEFF 		bl	xQueueGenericSendFromISR		@
 2200              	.LVL137:
 2201              	@ ../../kernel/FreeRTOS/Source/timers.c:421: }
 421:../../kernel/FreeRTOS/Source/timers.c **** /*-----------------------------------------------------------*/
 2202              		.loc 1 421 1 view .LVU625
