ARM GAS  /tmp/ccPKyamx.s 			page 1


   1              		.cpu cortex-m4
   2              		.eabi_attribute 27, 1	@ Tag_ABI_HardFP_use
   3              		.eabi_attribute 20, 1	@ Tag_ABI_FP_denormal
   4              		.eabi_attribute 21, 1	@ Tag_ABI_FP_exceptions
   5              		.eabi_attribute 23, 3	@ Tag_ABI_FP_number_model
   6              		.eabi_attribute 24, 1	@ Tag_ABI_align8_needed
   7              		.eabi_attribute 25, 1	@ Tag_ABI_align8_preserved
   8              		.eabi_attribute 26, 1	@ Tag_ABI_enum_size
   9              		.eabi_attribute 30, 2	@ Tag_ABI_optimization_goals
  10              		.eabi_attribute 34, 1	@ Tag_CPU_unaligned_access
  11              		.eabi_attribute 18, 4	@ Tag_ABI_PCS_wchar_t
  12              		.file	"UARTCommandConsole.c"
  13              	@ GNU C89 (GNU Tools for Arm Embedded Processors 8-2018-q4-major) version 8.2.1 20181213 (release) 
  14              	@	compiled by GNU C version 4.8.4, GMP version 6.1.0, MPFR version 3.1.4, MPC version 1.0.3, isl ve
  15              	
  16              	@ GGC heuristics: --param ggc-min-expand=96 --param ggc-min-heapsize=125422
  17              	@ options passed:  -isystem =/include/newlib-nano -I . -I .
  18              	@ -I ../../kernel/FreeRTOS/Source/include
  19              	@ -I ../../kernel/FreeRTOS/Source/portable/GCC/ARM_CM4F
  20              	@ -I ../../kernel/FreeRTOS/Demo/Common/include
  21              	@ -I ../../kernel/FreeRTOS-Plus/Source/FreeRTOS-Plus-CLI
  22              	@ -I ../../peripheral_library/inc -I ../../peripheral_library/hal/m7221/inc
  23              	@ -I ../../CMSIS -I ../../main_full -I ../../3rd/rokid/./ -I /.
  24              	@ -I /../../kernel/FreeRTOS/Source/include
  25              	@ -I /../../kernel/FreeRTOS/Source/portable/GCC/ARM_CM4F
  26              	@ -I /../../kernel/FreeRTOS/Demo/Common/include
  27              	@ -I /../../kernel/FreeRTOS-Plus/Source/FreeRTOS-Plus-CLI
  28              	@ -I /../../peripheral_library/inc
  29              	@ -I /../../peripheral_library/hal/m7221/inc -I /../../CMSIS
  30              	@ -I /../../main_full -I /../../3rd/rokid/./
  31              	@ -imultilib thumb/v7e-m+fp/softfp
  32              	@ -iprefix /home/gu/code/freeRTOS10/vendor/mstar/CM4/tools/gcc-arm-none-eabi-8-2018-q4-major/bin/..
  33              	@ -isysroot /home/gu/code/freeRTOS10/vendor/mstar/CM4/tools/gcc-arm-none-eabi-8-2018-q4-major/bin/.
  34              	@ -MD out/UARTCommandConsole.d -MF out/UARTCommandConsole.d -MP
  35              	@ -MQ out/UARTCommandConsole.o -D__USES_INITFINI__ -D CONFIG_BENCH=0
  36              	@ -D CONFIG_SYS_DBG_LEVEL=0xFFFFFFFF -D CONFIG_VOC_MIC=6 -D CONFIG_AUD_I2S
  37              	@ -D CONFIG_AUD_AEC -D CONFIG_VOC_MIC_MAPPING -D CONFIG_VOC_SWHPF
  38              	@ -D CONFIG_VOC_SW_SRC48K -D ARM_MATH_CM4 -D BOOTROM_VERSION_ASIC
  39              	@ ../../kernel/FreeRTOS-Plus/Demo/Common/FreeRTOS_Plus_CLI_Demos/UARTCommandConsole.c
  40              	@ -mcpu=cortex-m4 -mthumb -mthumb-interwork -mfloat-abi=softfp
  41              	@ -mfpu=fpv4-sp-d16 -march=armv7e-m+fp
  42              	@ -auxbase-strip out/UARTCommandConsole.o -g -ggdb3 -O3 -Wall
  43              	@ -Wstrict-prototypes -Wextra -std=gnu90 -ffunction-sections
  44              	@ -fdata-sections -fno-builtin-printf -fverbose-asm
  45              	@ options enabled:  -faggressive-loop-optimizations -falign-jumps
  46              	@ -falign-labels -falign-loops -fauto-inc-dec -fbranch-count-reg
  47              	@ -fcaller-saves -fchkp-check-incomplete-type -fchkp-check-read
  48              	@ -fchkp-check-write -fchkp-instrument-calls -fchkp-narrow-bounds
  49              	@ -fchkp-optimize -fchkp-store-bounds -fchkp-use-static-bounds
  50              	@ -fchkp-use-static-const-bounds -fchkp-use-wrappers -fcode-hoisting
  51              	@ -fcombine-stack-adjustments -fcommon -fcompare-elim -fcprop-registers
  52              	@ -fcrossjumping -fcse-follow-jumps -fdata-sections -fdefer-pop
  53              	@ -fdelete-null-pointer-checks -fdevirtualize -fdevirtualize-speculatively
  54              	@ -fdwarf2-cfi-asm -fearly-inlining -feliminate-unused-debug-types
  55              	@ -fexpensive-optimizations -fforward-propagate -ffp-int-builtin-inexact
  56              	@ -ffunction-cse -ffunction-sections -fgcse -fgcse-after-reload -fgcse-lm
  57              	@ -fgnu-runtime -fgnu-unique -fguess-branch-probability
ARM GAS  /tmp/ccPKyamx.s 			page 2


  58              	@ -fhoist-adjacent-loads -fident -fif-conversion -fif-conversion2
  59              	@ -findirect-inlining -finline -finline-atomics -finline-functions
  60              	@ -finline-functions-called-once -finline-small-functions -fipa-bit-cp
  61              	@ -fipa-cp -fipa-cp-clone -fipa-icf -fipa-icf-functions -fipa-icf-variables
  62              	@ -fipa-profile -fipa-pure-const -fipa-ra -fipa-reference -fipa-sra
  63              	@ -fipa-vrp -fira-hoist-pressure -fira-share-save-slots
  64              	@ -fira-share-spill-slots -fisolate-erroneous-paths-dereference -fivopts
  65              	@ -fkeep-static-consts -fleading-underscore -flifetime-dse
  66              	@ -floop-interchange -floop-unroll-and-jam -flra-remat
  67              	@ -flto-odr-type-merging -fmath-errno -fmerge-constants
  68              	@ -fmerge-debug-strings -fmove-loop-invariants -fomit-frame-pointer
  69              	@ -foptimize-sibling-calls -foptimize-strlen -fpartial-inlining
  70              	@ -fpeel-loops -fpeephole -fpeephole2 -fplt -fpredictive-commoning
  71              	@ -fprefetch-loop-arrays -freg-struct-return -freorder-blocks
  72              	@ -freorder-functions -frerun-cse-after-loop
  73              	@ -fsched-critical-path-heuristic -fsched-dep-count-heuristic
  74              	@ -fsched-group-heuristic -fsched-interblock -fsched-last-insn-heuristic
  75              	@ -fsched-pressure -fsched-rank-heuristic -fsched-spec
  76              	@ -fsched-spec-insn-heuristic -fsched-stalled-insns-dep -fschedule-insns
  77              	@ -fschedule-insns2 -fsection-anchors -fsemantic-interposition
  78              	@ -fshow-column -fshrink-wrap -fshrink-wrap-separate -fsigned-zeros
  79              	@ -fsplit-ivs-in-unroller -fsplit-loops -fsplit-paths -fsplit-wide-types
  80              	@ -fssa-backprop -fssa-phiopt -fstdarg-opt -fstore-merging
  81              	@ -fstrict-aliasing -fstrict-volatile-bitfields -fsync-libcalls
  82              	@ -fthread-jumps -ftoplevel-reorder -ftrapping-math -ftree-bit-ccp
  83              	@ -ftree-builtin-call-dce -ftree-ccp -ftree-ch -ftree-coalesce-vars
  84              	@ -ftree-copy-prop -ftree-cselim -ftree-dce -ftree-dominator-opts
  85              	@ -ftree-dse -ftree-forwprop -ftree-fre -ftree-loop-distribute-patterns
  86              	@ -ftree-loop-distribution -ftree-loop-if-convert -ftree-loop-im
  87              	@ -ftree-loop-ivcanon -ftree-loop-optimize -ftree-loop-vectorize
  88              	@ -ftree-parallelize-loops= -ftree-partial-pre -ftree-phiprop -ftree-pre
  89              	@ -ftree-pta -ftree-reassoc -ftree-scev-cprop -ftree-sink
  90              	@ -ftree-slp-vectorize -ftree-slsr -ftree-sra -ftree-switch-conversion
  91              	@ -ftree-tail-merge -ftree-ter -ftree-vrp -funit-at-a-time -funswitch-loops
  92              	@ -fvar-tracking -fvar-tracking-assignments -fverbose-asm
  93              	@ -fzero-initialized-in-bss -masm-syntax-unified -mbe32 -mlittle-endian
  94              	@ -mpic-data-is-text-relative -msched-prolog -mthumb -munaligned-access
  95              	@ -mvectorize-with-neon-quad
  96              	
  97              		.text
  98              	.Ltext0:
  99              		.cfi_sections	.debug_frame
 100              		.section	.text.prvUARTCommandConsoleTask,"ax",%progbits
 101              		.align	1
 102              		.p2align 2,,3
 103              		.arch armv7e-m
 104              		.syntax unified
 105              		.thumb
 106              		.thumb_func
 107              		.fpu fpv4-sp-d16
 108              		.type	prvUARTCommandConsoleTask, %function
 109              	prvUARTCommandConsoleTask:
 110              	.LVL0:
 111              	.LFB8:
 112              		.file 1 "../../kernel/FreeRTOS-Plus/Demo/Common/FreeRTOS_Plus_CLI_Demos/UARTCommandConsole.c"
   1:../../kernel/FreeRTOS-Plus/Demo/Common/FreeRTOS_Plus_CLI_Demos/UARTCommandConsole.c **** /*
   2:../../kernel/FreeRTOS-Plus/Demo/Common/FreeRTOS_Plus_CLI_Demos/UARTCommandConsole.c ****  * FreeRTOS Kernel V10.0.1
ARM GAS  /tmp/ccPKyamx.s 			page 3


   3:../../kernel/FreeRTOS-Plus/Demo/Common/FreeRTOS_Plus_CLI_Demos/UARTCommandConsole.c ****  * Copyright (C) 2017 Amazon.com, Inc. or its affiliates.  All Rights Reserved.
   4:../../kernel/FreeRTOS-Plus/Demo/Common/FreeRTOS_Plus_CLI_Demos/UARTCommandConsole.c ****  *
   5:../../kernel/FreeRTOS-Plus/Demo/Common/FreeRTOS_Plus_CLI_Demos/UARTCommandConsole.c ****  * Permission is hereby granted, free of charge, to any person obtaining a copy of
   6:../../kernel/FreeRTOS-Plus/Demo/Common/FreeRTOS_Plus_CLI_Demos/UARTCommandConsole.c ****  * this software and associated documentation files (the "Software"), to deal in
   7:../../kernel/FreeRTOS-Plus/Demo/Common/FreeRTOS_Plus_CLI_Demos/UARTCommandConsole.c ****  * the Software without restriction, including without limitation the rights to
   8:../../kernel/FreeRTOS-Plus/Demo/Common/FreeRTOS_Plus_CLI_Demos/UARTCommandConsole.c ****  * use, copy, modify, merge, publish, distribute, sublicense, and/or sell copies of
   9:../../kernel/FreeRTOS-Plus/Demo/Common/FreeRTOS_Plus_CLI_Demos/UARTCommandConsole.c ****  * the Software, and to permit persons to whom the Software is furnished to do so,
  10:../../kernel/FreeRTOS-Plus/Demo/Common/FreeRTOS_Plus_CLI_Demos/UARTCommandConsole.c ****  * subject to the following conditions:
  11:../../kernel/FreeRTOS-Plus/Demo/Common/FreeRTOS_Plus_CLI_Demos/UARTCommandConsole.c ****  *
  12:../../kernel/FreeRTOS-Plus/Demo/Common/FreeRTOS_Plus_CLI_Demos/UARTCommandConsole.c ****  * The above copyright notice and this permission notice shall be included in all
  13:../../kernel/FreeRTOS-Plus/Demo/Common/FreeRTOS_Plus_CLI_Demos/UARTCommandConsole.c ****  * copies or substantial portions of the Software.
  14:../../kernel/FreeRTOS-Plus/Demo/Common/FreeRTOS_Plus_CLI_Demos/UARTCommandConsole.c ****  *
  15:../../kernel/FreeRTOS-Plus/Demo/Common/FreeRTOS_Plus_CLI_Demos/UARTCommandConsole.c ****  * THE SOFTWARE IS PROVIDED "AS IS", WITHOUT WARRANTY OF ANY KIND, EXPRESS OR
  16:../../kernel/FreeRTOS-Plus/Demo/Common/FreeRTOS_Plus_CLI_Demos/UARTCommandConsole.c ****  * IMPLIED, INCLUDING BUT NOT LIMITED TO THE WARRANTIES OF MERCHANTABILITY, FITNESS
  17:../../kernel/FreeRTOS-Plus/Demo/Common/FreeRTOS_Plus_CLI_Demos/UARTCommandConsole.c ****  * FOR A PARTICULAR PURPOSE AND NONINFRINGEMENT. IN NO EVENT SHALL THE AUTHORS OR
  18:../../kernel/FreeRTOS-Plus/Demo/Common/FreeRTOS_Plus_CLI_Demos/UARTCommandConsole.c ****  * COPYRIGHT HOLDERS BE LIABLE FOR ANY CLAIM, DAMAGES OR OTHER LIABILITY, WHETHER
  19:../../kernel/FreeRTOS-Plus/Demo/Common/FreeRTOS_Plus_CLI_Demos/UARTCommandConsole.c ****  * IN AN ACTION OF CONTRACT, TORT OR OTHERWISE, ARISING FROM, OUT OF OR IN
  20:../../kernel/FreeRTOS-Plus/Demo/Common/FreeRTOS_Plus_CLI_Demos/UARTCommandConsole.c ****  * CONNECTION WITH THE SOFTWARE OR THE USE OR OTHER DEALINGS IN THE SOFTWARE.
  21:../../kernel/FreeRTOS-Plus/Demo/Common/FreeRTOS_Plus_CLI_Demos/UARTCommandConsole.c ****  *
  22:../../kernel/FreeRTOS-Plus/Demo/Common/FreeRTOS_Plus_CLI_Demos/UARTCommandConsole.c ****  * http://www.FreeRTOS.org
  23:../../kernel/FreeRTOS-Plus/Demo/Common/FreeRTOS_Plus_CLI_Demos/UARTCommandConsole.c ****  * http://aws.amazon.com/freertos
  24:../../kernel/FreeRTOS-Plus/Demo/Common/FreeRTOS_Plus_CLI_Demos/UARTCommandConsole.c ****  *
  25:../../kernel/FreeRTOS-Plus/Demo/Common/FreeRTOS_Plus_CLI_Demos/UARTCommandConsole.c ****  * 1 tab == 4 spaces!
  26:../../kernel/FreeRTOS-Plus/Demo/Common/FreeRTOS_Plus_CLI_Demos/UARTCommandConsole.c ****  */
  27:../../kernel/FreeRTOS-Plus/Demo/Common/FreeRTOS_Plus_CLI_Demos/UARTCommandConsole.c **** 
  28:../../kernel/FreeRTOS-Plus/Demo/Common/FreeRTOS_Plus_CLI_Demos/UARTCommandConsole.c **** /*
  29:../../kernel/FreeRTOS-Plus/Demo/Common/FreeRTOS_Plus_CLI_Demos/UARTCommandConsole.c ****  * NOTE:  This file uses a third party USB CDC driver.
  30:../../kernel/FreeRTOS-Plus/Demo/Common/FreeRTOS_Plus_CLI_Demos/UARTCommandConsole.c ****  */
  31:../../kernel/FreeRTOS-Plus/Demo/Common/FreeRTOS_Plus_CLI_Demos/UARTCommandConsole.c **** 
  32:../../kernel/FreeRTOS-Plus/Demo/Common/FreeRTOS_Plus_CLI_Demos/UARTCommandConsole.c **** /* Standard includes. */
  33:../../kernel/FreeRTOS-Plus/Demo/Common/FreeRTOS_Plus_CLI_Demos/UARTCommandConsole.c **** #include "string.h"
  34:../../kernel/FreeRTOS-Plus/Demo/Common/FreeRTOS_Plus_CLI_Demos/UARTCommandConsole.c **** #include "stdio.h"
  35:../../kernel/FreeRTOS-Plus/Demo/Common/FreeRTOS_Plus_CLI_Demos/UARTCommandConsole.c **** 
  36:../../kernel/FreeRTOS-Plus/Demo/Common/FreeRTOS_Plus_CLI_Demos/UARTCommandConsole.c **** /* FreeRTOS includes. */
  37:../../kernel/FreeRTOS-Plus/Demo/Common/FreeRTOS_Plus_CLI_Demos/UARTCommandConsole.c **** #include "FreeRTOS.h"
  38:../../kernel/FreeRTOS-Plus/Demo/Common/FreeRTOS_Plus_CLI_Demos/UARTCommandConsole.c **** #include "task.h"
  39:../../kernel/FreeRTOS-Plus/Demo/Common/FreeRTOS_Plus_CLI_Demos/UARTCommandConsole.c **** #include "semphr.h"
  40:../../kernel/FreeRTOS-Plus/Demo/Common/FreeRTOS_Plus_CLI_Demos/UARTCommandConsole.c **** 
  41:../../kernel/FreeRTOS-Plus/Demo/Common/FreeRTOS_Plus_CLI_Demos/UARTCommandConsole.c **** /* Example includes. */
  42:../../kernel/FreeRTOS-Plus/Demo/Common/FreeRTOS_Plus_CLI_Demos/UARTCommandConsole.c **** #include "FreeRTOS_CLI.h"
  43:../../kernel/FreeRTOS-Plus/Demo/Common/FreeRTOS_Plus_CLI_Demos/UARTCommandConsole.c **** 
  44:../../kernel/FreeRTOS-Plus/Demo/Common/FreeRTOS_Plus_CLI_Demos/UARTCommandConsole.c **** /* Demo application includes. */
  45:../../kernel/FreeRTOS-Plus/Demo/Common/FreeRTOS_Plus_CLI_Demos/UARTCommandConsole.c **** #include "serial.h"
  46:../../kernel/FreeRTOS-Plus/Demo/Common/FreeRTOS_Plus_CLI_Demos/UARTCommandConsole.c **** 
  47:../../kernel/FreeRTOS-Plus/Demo/Common/FreeRTOS_Plus_CLI_Demos/UARTCommandConsole.c **** /* Dimensions the buffer into which input characters are placed. */
  48:../../kernel/FreeRTOS-Plus/Demo/Common/FreeRTOS_Plus_CLI_Demos/UARTCommandConsole.c **** #define cmdMAX_INPUT_SIZE		50
  49:../../kernel/FreeRTOS-Plus/Demo/Common/FreeRTOS_Plus_CLI_Demos/UARTCommandConsole.c **** 
  50:../../kernel/FreeRTOS-Plus/Demo/Common/FreeRTOS_Plus_CLI_Demos/UARTCommandConsole.c **** /* Dimentions a buffer to be used by the UART driver, if the UART driver uses a
  51:../../kernel/FreeRTOS-Plus/Demo/Common/FreeRTOS_Plus_CLI_Demos/UARTCommandConsole.c **** buffer at all. */
  52:../../kernel/FreeRTOS-Plus/Demo/Common/FreeRTOS_Plus_CLI_Demos/UARTCommandConsole.c **** #define cmdQUEUE_LENGTH			25
  53:../../kernel/FreeRTOS-Plus/Demo/Common/FreeRTOS_Plus_CLI_Demos/UARTCommandConsole.c **** 
  54:../../kernel/FreeRTOS-Plus/Demo/Common/FreeRTOS_Plus_CLI_Demos/UARTCommandConsole.c **** /* DEL acts as a backspace. */
  55:../../kernel/FreeRTOS-Plus/Demo/Common/FreeRTOS_Plus_CLI_Demos/UARTCommandConsole.c **** #define cmdASCII_DEL		( 0x7F )
  56:../../kernel/FreeRTOS-Plus/Demo/Common/FreeRTOS_Plus_CLI_Demos/UARTCommandConsole.c **** 
  57:../../kernel/FreeRTOS-Plus/Demo/Common/FreeRTOS_Plus_CLI_Demos/UARTCommandConsole.c **** /* The maximum time to wait for the mutex that guards the UART to become
  58:../../kernel/FreeRTOS-Plus/Demo/Common/FreeRTOS_Plus_CLI_Demos/UARTCommandConsole.c **** available. */
  59:../../kernel/FreeRTOS-Plus/Demo/Common/FreeRTOS_Plus_CLI_Demos/UARTCommandConsole.c **** #define cmdMAX_MUTEX_WAIT		pdMS_TO_TICKS( 300 )
ARM GAS  /tmp/ccPKyamx.s 			page 4


  60:../../kernel/FreeRTOS-Plus/Demo/Common/FreeRTOS_Plus_CLI_Demos/UARTCommandConsole.c **** 
  61:../../kernel/FreeRTOS-Plus/Demo/Common/FreeRTOS_Plus_CLI_Demos/UARTCommandConsole.c **** #ifndef configCLI_BAUD_RATE
  62:../../kernel/FreeRTOS-Plus/Demo/Common/FreeRTOS_Plus_CLI_Demos/UARTCommandConsole.c **** 	#define configCLI_BAUD_RATE	115200
  63:../../kernel/FreeRTOS-Plus/Demo/Common/FreeRTOS_Plus_CLI_Demos/UARTCommandConsole.c **** #endif
  64:../../kernel/FreeRTOS-Plus/Demo/Common/FreeRTOS_Plus_CLI_Demos/UARTCommandConsole.c **** 
  65:../../kernel/FreeRTOS-Plus/Demo/Common/FreeRTOS_Plus_CLI_Demos/UARTCommandConsole.c **** /*-----------------------------------------------------------*/
  66:../../kernel/FreeRTOS-Plus/Demo/Common/FreeRTOS_Plus_CLI_Demos/UARTCommandConsole.c **** 
  67:../../kernel/FreeRTOS-Plus/Demo/Common/FreeRTOS_Plus_CLI_Demos/UARTCommandConsole.c **** /*
  68:../../kernel/FreeRTOS-Plus/Demo/Common/FreeRTOS_Plus_CLI_Demos/UARTCommandConsole.c ****  * The task that implements the command console processing.
  69:../../kernel/FreeRTOS-Plus/Demo/Common/FreeRTOS_Plus_CLI_Demos/UARTCommandConsole.c ****  */
  70:../../kernel/FreeRTOS-Plus/Demo/Common/FreeRTOS_Plus_CLI_Demos/UARTCommandConsole.c **** static void prvUARTCommandConsoleTask( void *pvParameters );
  71:../../kernel/FreeRTOS-Plus/Demo/Common/FreeRTOS_Plus_CLI_Demos/UARTCommandConsole.c **** void vUARTCommandConsoleStart( uint16_t usStackSize, UBaseType_t uxPriority );
  72:../../kernel/FreeRTOS-Plus/Demo/Common/FreeRTOS_Plus_CLI_Demos/UARTCommandConsole.c **** 
  73:../../kernel/FreeRTOS-Plus/Demo/Common/FreeRTOS_Plus_CLI_Demos/UARTCommandConsole.c **** /*-----------------------------------------------------------*/
  74:../../kernel/FreeRTOS-Plus/Demo/Common/FreeRTOS_Plus_CLI_Demos/UARTCommandConsole.c **** 
  75:../../kernel/FreeRTOS-Plus/Demo/Common/FreeRTOS_Plus_CLI_Demos/UARTCommandConsole.c **** /* Const messages output by the command console. */
  76:../../kernel/FreeRTOS-Plus/Demo/Common/FreeRTOS_Plus_CLI_Demos/UARTCommandConsole.c **** static const char * const pcWelcomeMessage = "FreeRTOS command server.\r\nType Help to view a list 
  77:../../kernel/FreeRTOS-Plus/Demo/Common/FreeRTOS_Plus_CLI_Demos/UARTCommandConsole.c **** static const char * const pcEndOfOutputMessage = "\r\n[Press ENTER to execute the previous command 
  78:../../kernel/FreeRTOS-Plus/Demo/Common/FreeRTOS_Plus_CLI_Demos/UARTCommandConsole.c **** static const char * const pcNewLine = "\r\n";
  79:../../kernel/FreeRTOS-Plus/Demo/Common/FreeRTOS_Plus_CLI_Demos/UARTCommandConsole.c **** 
  80:../../kernel/FreeRTOS-Plus/Demo/Common/FreeRTOS_Plus_CLI_Demos/UARTCommandConsole.c **** /* Used to guard access to the UART in case messages are sent to the UART from
  81:../../kernel/FreeRTOS-Plus/Demo/Common/FreeRTOS_Plus_CLI_Demos/UARTCommandConsole.c **** more than one task. */
  82:../../kernel/FreeRTOS-Plus/Demo/Common/FreeRTOS_Plus_CLI_Demos/UARTCommandConsole.c **** static SemaphoreHandle_t xTxMutex = NULL;
  83:../../kernel/FreeRTOS-Plus/Demo/Common/FreeRTOS_Plus_CLI_Demos/UARTCommandConsole.c **** 
  84:../../kernel/FreeRTOS-Plus/Demo/Common/FreeRTOS_Plus_CLI_Demos/UARTCommandConsole.c **** /* The handle to the UART port, which is not used by all ports. */
  85:../../kernel/FreeRTOS-Plus/Demo/Common/FreeRTOS_Plus_CLI_Demos/UARTCommandConsole.c **** static xComPortHandle xPort = 0;
  86:../../kernel/FreeRTOS-Plus/Demo/Common/FreeRTOS_Plus_CLI_Demos/UARTCommandConsole.c **** 
  87:../../kernel/FreeRTOS-Plus/Demo/Common/FreeRTOS_Plus_CLI_Demos/UARTCommandConsole.c **** /*-----------------------------------------------------------*/
  88:../../kernel/FreeRTOS-Plus/Demo/Common/FreeRTOS_Plus_CLI_Demos/UARTCommandConsole.c **** 
  89:../../kernel/FreeRTOS-Plus/Demo/Common/FreeRTOS_Plus_CLI_Demos/UARTCommandConsole.c **** void vUARTCommandConsoleStart( uint16_t usStackSize, UBaseType_t uxPriority )
  90:../../kernel/FreeRTOS-Plus/Demo/Common/FreeRTOS_Plus_CLI_Demos/UARTCommandConsole.c **** {
  91:../../kernel/FreeRTOS-Plus/Demo/Common/FreeRTOS_Plus_CLI_Demos/UARTCommandConsole.c **** 	/* Create the semaphore used to access the UART Tx. */
  92:../../kernel/FreeRTOS-Plus/Demo/Common/FreeRTOS_Plus_CLI_Demos/UARTCommandConsole.c **** 	xTxMutex = xSemaphoreCreateMutex();
  93:../../kernel/FreeRTOS-Plus/Demo/Common/FreeRTOS_Plus_CLI_Demos/UARTCommandConsole.c **** 	configASSERT( xTxMutex );
  94:../../kernel/FreeRTOS-Plus/Demo/Common/FreeRTOS_Plus_CLI_Demos/UARTCommandConsole.c **** 
  95:../../kernel/FreeRTOS-Plus/Demo/Common/FreeRTOS_Plus_CLI_Demos/UARTCommandConsole.c **** 	/* Create that task that handles the console itself. */
  96:../../kernel/FreeRTOS-Plus/Demo/Common/FreeRTOS_Plus_CLI_Demos/UARTCommandConsole.c **** 	xTaskCreate( 	prvUARTCommandConsoleTask,	/* The task that implements the command console. */
  97:../../kernel/FreeRTOS-Plus/Demo/Common/FreeRTOS_Plus_CLI_Demos/UARTCommandConsole.c **** 					"CLI",						/* Text name assigned to the task.  This is just to assist debugging.  The kernel 
  98:../../kernel/FreeRTOS-Plus/Demo/Common/FreeRTOS_Plus_CLI_Demos/UARTCommandConsole.c **** 					usStackSize,				/* The size of the stack allocated to the task. */
  99:../../kernel/FreeRTOS-Plus/Demo/Common/FreeRTOS_Plus_CLI_Demos/UARTCommandConsole.c **** 					NULL,						/* The parameter is not used, so NULL is passed. */
 100:../../kernel/FreeRTOS-Plus/Demo/Common/FreeRTOS_Plus_CLI_Demos/UARTCommandConsole.c **** 					uxPriority,					/* The priority allocated to the task. */
 101:../../kernel/FreeRTOS-Plus/Demo/Common/FreeRTOS_Plus_CLI_Demos/UARTCommandConsole.c **** 					NULL );						/* A handle is not required, so just pass NULL. */
 102:../../kernel/FreeRTOS-Plus/Demo/Common/FreeRTOS_Plus_CLI_Demos/UARTCommandConsole.c **** }
 103:../../kernel/FreeRTOS-Plus/Demo/Common/FreeRTOS_Plus_CLI_Demos/UARTCommandConsole.c **** /*-----------------------------------------------------------*/
 104:../../kernel/FreeRTOS-Plus/Demo/Common/FreeRTOS_Plus_CLI_Demos/UARTCommandConsole.c **** 
 105:../../kernel/FreeRTOS-Plus/Demo/Common/FreeRTOS_Plus_CLI_Demos/UARTCommandConsole.c **** static void prvUARTCommandConsoleTask( void *pvParameters )
 106:../../kernel/FreeRTOS-Plus/Demo/Common/FreeRTOS_Plus_CLI_Demos/UARTCommandConsole.c **** {
 113              		.loc 1 106 1 view -0
 114              		.cfi_startproc
 115              		@ args = 0, pretend = 0, frame = 8
 116              		@ frame_needed = 0, uses_anonymous_args = 0
 107:../../kernel/FreeRTOS-Plus/Demo/Common/FreeRTOS_Plus_CLI_Demos/UARTCommandConsole.c **** signed char cRxedChar;
 117              		.loc 1 107 1 view .LVU1
 108:../../kernel/FreeRTOS-Plus/Demo/Common/FreeRTOS_Plus_CLI_Demos/UARTCommandConsole.c **** uint8_t ucInputIndex = 0;
 118              		.loc 1 108 1 view .LVU2
 109:../../kernel/FreeRTOS-Plus/Demo/Common/FreeRTOS_Plus_CLI_Demos/UARTCommandConsole.c **** char *pcOutputString;
 119              		.loc 1 109 1 view .LVU3
ARM GAS  /tmp/ccPKyamx.s 			page 5


 110:../../kernel/FreeRTOS-Plus/Demo/Common/FreeRTOS_Plus_CLI_Demos/UARTCommandConsole.c **** static char cInputString[ cmdMAX_INPUT_SIZE ], cLastInputString[ cmdMAX_INPUT_SIZE ];
 120              		.loc 1 110 1 view .LVU4
 111:../../kernel/FreeRTOS-Plus/Demo/Common/FreeRTOS_Plus_CLI_Demos/UARTCommandConsole.c **** BaseType_t xReturned;
 121              		.loc 1 111 1 view .LVU5
 112:../../kernel/FreeRTOS-Plus/Demo/Common/FreeRTOS_Plus_CLI_Demos/UARTCommandConsole.c **** xComPortHandle xPort;
 122              		.loc 1 112 1 view .LVU6
 113:../../kernel/FreeRTOS-Plus/Demo/Common/FreeRTOS_Plus_CLI_Demos/UARTCommandConsole.c **** 
 114:../../kernel/FreeRTOS-Plus/Demo/Common/FreeRTOS_Plus_CLI_Demos/UARTCommandConsole.c **** 	( void ) pvParameters;
 123              		.loc 1 114 2 view .LVU7
 115:../../kernel/FreeRTOS-Plus/Demo/Common/FreeRTOS_Plus_CLI_Demos/UARTCommandConsole.c **** 
 116:../../kernel/FreeRTOS-Plus/Demo/Common/FreeRTOS_Plus_CLI_Demos/UARTCommandConsole.c **** 	/* Obtain the address of the output buffer.  Note there is no mutual
 117:../../kernel/FreeRTOS-Plus/Demo/Common/FreeRTOS_Plus_CLI_Demos/UARTCommandConsole.c **** 	exclusion on this buffer as it is assumed only one command console interface
 118:../../kernel/FreeRTOS-Plus/Demo/Common/FreeRTOS_Plus_CLI_Demos/UARTCommandConsole.c **** 	will be used at any one time. */
 119:../../kernel/FreeRTOS-Plus/Demo/Common/FreeRTOS_Plus_CLI_Demos/UARTCommandConsole.c **** 	pcOutputString = FreeRTOS_CLIGetOutputBuffer();
 124              		.loc 1 119 2 view .LVU8
 125              	@ ../../kernel/FreeRTOS-Plus/Demo/Common/FreeRTOS_Plus_CLI_Demos/UARTCommandConsole.c:106: {
 106:../../kernel/FreeRTOS-Plus/Demo/Common/FreeRTOS_Plus_CLI_Demos/UARTCommandConsole.c **** signed char cRxedChar;
 126              		.loc 1 106 1 is_stmt 0 view .LVU9
 127 0000 2DE9F04F 		push	{r4, r5, r6, r7, r8, r9, r10, fp, lr}	@
 128              		.cfi_def_cfa_offset 36
 129              		.cfi_offset 4, -36
 130              		.cfi_offset 5, -32
 131              		.cfi_offset 6, -28
 132              		.cfi_offset 7, -24
 133              		.cfi_offset 8, -20
 134              		.cfi_offset 9, -16
 135              		.cfi_offset 10, -12
 136              		.cfi_offset 11, -8
 137              		.cfi_offset 14, -4
 138 0004 83B0     		sub	sp, sp, #12	@,,
 139              		.cfi_def_cfa_offset 48
 140              	@ ../../kernel/FreeRTOS-Plus/Demo/Common/FreeRTOS_Plus_CLI_Demos/UARTCommandConsole.c:119: 	pcOutpu
 141              		.loc 1 119 19 view .LVU10
 142 0006 FFF7FEFF 		bl	FreeRTOS_CLIGetOutputBuffer		@
 143              	.LVL1:
 144              	@ ../../kernel/FreeRTOS-Plus/Demo/Common/FreeRTOS_Plus_CLI_Demos/UARTCommandConsole.c:122: 	xPort =
 120:../../kernel/FreeRTOS-Plus/Demo/Common/FreeRTOS_Plus_CLI_Demos/UARTCommandConsole.c **** 
 121:../../kernel/FreeRTOS-Plus/Demo/Common/FreeRTOS_Plus_CLI_Demos/UARTCommandConsole.c **** 	/* Initialise the UART. */
 122:../../kernel/FreeRTOS-Plus/Demo/Common/FreeRTOS_Plus_CLI_Demos/UARTCommandConsole.c **** 	xPort = xSerialPortInitMinimal( configCLI_BAUD_RATE, cmdQUEUE_LENGTH );
 145              		.loc 1 122 10 view .LVU11
 146 000a 1921     		movs	r1, #25	@,
 147              	@ ../../kernel/FreeRTOS-Plus/Demo/Common/FreeRTOS_Plus_CLI_Demos/UARTCommandConsole.c:119: 	pcOutpu
 119:../../kernel/FreeRTOS-Plus/Demo/Common/FreeRTOS_Plus_CLI_Demos/UARTCommandConsole.c **** 
 148              		.loc 1 119 19 view .LVU12
 149 000c 0546     		mov	r5, r0	@ pcOutputString,
 150              	.LVL2:
 151              		.loc 1 122 2 is_stmt 1 view .LVU13
 152              	@ ../../kernel/FreeRTOS-Plus/Demo/Common/FreeRTOS_Plus_CLI_Demos/UARTCommandConsole.c:122: 	xPort =
 153              		.loc 1 122 10 is_stmt 0 view .LVU14
 154 000e 4FF4E130 		mov	r0, #115200	@,
 155              	.LVL3:
 156              		.loc 1 122 10 view .LVU15
 157 0012 FFF7FEFF 		bl	xSerialPortInitMinimal		@
 158              	.LVL4:
 159              	@ ../../kernel/FreeRTOS-Plus/Demo/Common/FreeRTOS_Plus_CLI_Demos/UARTCommandConsole.c:125: 	vSerial
 123:../../kernel/FreeRTOS-Plus/Demo/Common/FreeRTOS_Plus_CLI_Demos/UARTCommandConsole.c **** 
 124:../../kernel/FreeRTOS-Plus/Demo/Common/FreeRTOS_Plus_CLI_Demos/UARTCommandConsole.c **** 	/* Send the welcome message. */
ARM GAS  /tmp/ccPKyamx.s 			page 6


 125:../../kernel/FreeRTOS-Plus/Demo/Common/FreeRTOS_Plus_CLI_Demos/UARTCommandConsole.c **** 	vSerialPutString( xPort, ( signed char * ) pcWelcomeMessage, ( unsigned short ) strlen( pcWelcomeM
 160              		.loc 1 125 2 view .LVU16
 161 0016 4F22     		movs	r2, #79	@,
 162 0018 3949     		ldr	r1, .L27	@,
 163 001a DFF8F0B0 		ldr	fp, .L27+12	@ tmp158,
 164 001e 394F     		ldr	r7, .L27+4	@ tmp157,
 165              	@ ../../kernel/FreeRTOS-Plus/Demo/Common/FreeRTOS_Plus_CLI_Demos/UARTCommandConsole.c:144: 				vSer
 126:../../kernel/FreeRTOS-Plus/Demo/Common/FreeRTOS_Plus_CLI_Demos/UARTCommandConsole.c **** 
 127:../../kernel/FreeRTOS-Plus/Demo/Common/FreeRTOS_Plus_CLI_Demos/UARTCommandConsole.c **** 	for( ;; )
 128:../../kernel/FreeRTOS-Plus/Demo/Common/FreeRTOS_Plus_CLI_Demos/UARTCommandConsole.c **** 	{
 129:../../kernel/FreeRTOS-Plus/Demo/Common/FreeRTOS_Plus_CLI_Demos/UARTCommandConsole.c **** 		/* Wait for the next character.  The while loop is used in case
 130:../../kernel/FreeRTOS-Plus/Demo/Common/FreeRTOS_Plus_CLI_Demos/UARTCommandConsole.c **** 		INCLUDE_vTaskSuspend is not set to 1 - in which case portMAX_DELAY will
 131:../../kernel/FreeRTOS-Plus/Demo/Common/FreeRTOS_Plus_CLI_Demos/UARTCommandConsole.c **** 		be a genuine block time rather than an infinite block time. */
 132:../../kernel/FreeRTOS-Plus/Demo/Common/FreeRTOS_Plus_CLI_Demos/UARTCommandConsole.c **** 		while( xSerialGetChar( xPort, &cRxedChar, portMAX_DELAY ) != pdPASS );
 133:../../kernel/FreeRTOS-Plus/Demo/Common/FreeRTOS_Plus_CLI_Demos/UARTCommandConsole.c **** 
 134:../../kernel/FreeRTOS-Plus/Demo/Common/FreeRTOS_Plus_CLI_Demos/UARTCommandConsole.c **** 		/* Ensure exclusive access to the UART Tx. */
 135:../../kernel/FreeRTOS-Plus/Demo/Common/FreeRTOS_Plus_CLI_Demos/UARTCommandConsole.c **** 		if( xSemaphoreTake( xTxMutex, cmdMAX_MUTEX_WAIT ) == pdPASS )
 136:../../kernel/FreeRTOS-Plus/Demo/Common/FreeRTOS_Plus_CLI_Demos/UARTCommandConsole.c **** 		{
 137:../../kernel/FreeRTOS-Plus/Demo/Common/FreeRTOS_Plus_CLI_Demos/UARTCommandConsole.c **** 			/* Echo the character back. */
 138:../../kernel/FreeRTOS-Plus/Demo/Common/FreeRTOS_Plus_CLI_Demos/UARTCommandConsole.c **** 			xSerialPutChar( xPort, cRxedChar, portMAX_DELAY );
 139:../../kernel/FreeRTOS-Plus/Demo/Common/FreeRTOS_Plus_CLI_Demos/UARTCommandConsole.c **** 
 140:../../kernel/FreeRTOS-Plus/Demo/Common/FreeRTOS_Plus_CLI_Demos/UARTCommandConsole.c **** 			/* Was it the end of the line? */
 141:../../kernel/FreeRTOS-Plus/Demo/Common/FreeRTOS_Plus_CLI_Demos/UARTCommandConsole.c **** 			if( cRxedChar == '\n' || cRxedChar == '\r' )
 142:../../kernel/FreeRTOS-Plus/Demo/Common/FreeRTOS_Plus_CLI_Demos/UARTCommandConsole.c **** 			{
 143:../../kernel/FreeRTOS-Plus/Demo/Common/FreeRTOS_Plus_CLI_Demos/UARTCommandConsole.c **** 				/* Just to space the output from the input. */
 144:../../kernel/FreeRTOS-Plus/Demo/Common/FreeRTOS_Plus_CLI_Demos/UARTCommandConsole.c **** 				vSerialPutString( xPort, ( signed char * ) pcNewLine, ( unsigned short ) strlen( pcNewLine ) );
 166              		.loc 1 144 5 view .LVU17
 167 0020 DFF8ECA0 		ldr	r10, .L27+16	@ tmp163,
 168              	@ ../../kernel/FreeRTOS-Plus/Demo/Common/FreeRTOS_Plus_CLI_Demos/UARTCommandConsole.c:171: 				strc
 145:../../kernel/FreeRTOS-Plus/Demo/Common/FreeRTOS_Plus_CLI_Demos/UARTCommandConsole.c **** 
 146:../../kernel/FreeRTOS-Plus/Demo/Common/FreeRTOS_Plus_CLI_Demos/UARTCommandConsole.c **** 				/* See if the command is empty, indicating that the last command
 147:../../kernel/FreeRTOS-Plus/Demo/Common/FreeRTOS_Plus_CLI_Demos/UARTCommandConsole.c **** 				is to be executed again. */
 148:../../kernel/FreeRTOS-Plus/Demo/Common/FreeRTOS_Plus_CLI_Demos/UARTCommandConsole.c **** 				if( ucInputIndex == 0 )
 149:../../kernel/FreeRTOS-Plus/Demo/Common/FreeRTOS_Plus_CLI_Demos/UARTCommandConsole.c **** 				{
 150:../../kernel/FreeRTOS-Plus/Demo/Common/FreeRTOS_Plus_CLI_Demos/UARTCommandConsole.c **** 					/* Copy the last command back into the input string. */
 151:../../kernel/FreeRTOS-Plus/Demo/Common/FreeRTOS_Plus_CLI_Demos/UARTCommandConsole.c **** 					strcpy( cInputString, cLastInputString );
 152:../../kernel/FreeRTOS-Plus/Demo/Common/FreeRTOS_Plus_CLI_Demos/UARTCommandConsole.c **** 				}
 153:../../kernel/FreeRTOS-Plus/Demo/Common/FreeRTOS_Plus_CLI_Demos/UARTCommandConsole.c **** 
 154:../../kernel/FreeRTOS-Plus/Demo/Common/FreeRTOS_Plus_CLI_Demos/UARTCommandConsole.c **** 				/* Pass the received command to the command interpreter.  The
 155:../../kernel/FreeRTOS-Plus/Demo/Common/FreeRTOS_Plus_CLI_Demos/UARTCommandConsole.c **** 				command interpreter is called repeatedly until it returns
 156:../../kernel/FreeRTOS-Plus/Demo/Common/FreeRTOS_Plus_CLI_Demos/UARTCommandConsole.c **** 				pdFALSE	(indicating there is no more output) as it might
 157:../../kernel/FreeRTOS-Plus/Demo/Common/FreeRTOS_Plus_CLI_Demos/UARTCommandConsole.c **** 				generate more than one string. */
 158:../../kernel/FreeRTOS-Plus/Demo/Common/FreeRTOS_Plus_CLI_Demos/UARTCommandConsole.c **** 				do
 159:../../kernel/FreeRTOS-Plus/Demo/Common/FreeRTOS_Plus_CLI_Demos/UARTCommandConsole.c **** 				{
 160:../../kernel/FreeRTOS-Plus/Demo/Common/FreeRTOS_Plus_CLI_Demos/UARTCommandConsole.c **** 					/* Get the next output string from the command interpreter. */
 161:../../kernel/FreeRTOS-Plus/Demo/Common/FreeRTOS_Plus_CLI_Demos/UARTCommandConsole.c **** 					xReturned = FreeRTOS_CLIProcessCommand( cInputString, pcOutputString, configCOMMAND_INT_MAX_OU
 162:../../kernel/FreeRTOS-Plus/Demo/Common/FreeRTOS_Plus_CLI_Demos/UARTCommandConsole.c **** 					/* Write the generated string to the UART. */
 163:../../kernel/FreeRTOS-Plus/Demo/Common/FreeRTOS_Plus_CLI_Demos/UARTCommandConsole.c **** 					vSerialPutString( xPort, ( signed char * ) pcOutputString, ( unsigned short ) strlen( pcOutput
 164:../../kernel/FreeRTOS-Plus/Demo/Common/FreeRTOS_Plus_CLI_Demos/UARTCommandConsole.c **** 
 165:../../kernel/FreeRTOS-Plus/Demo/Common/FreeRTOS_Plus_CLI_Demos/UARTCommandConsole.c **** 				} while( xReturned != pdFALSE );
 166:../../kernel/FreeRTOS-Plus/Demo/Common/FreeRTOS_Plus_CLI_Demos/UARTCommandConsole.c **** 
 167:../../kernel/FreeRTOS-Plus/Demo/Common/FreeRTOS_Plus_CLI_Demos/UARTCommandConsole.c **** 				/* All the strings generated by the input command have been
 168:../../kernel/FreeRTOS-Plus/Demo/Common/FreeRTOS_Plus_CLI_Demos/UARTCommandConsole.c **** 				sent.  Clear the input string ready to receive the next command.
 169:../../kernel/FreeRTOS-Plus/Demo/Common/FreeRTOS_Plus_CLI_Demos/UARTCommandConsole.c **** 				Remember the command that was just processed first in case it is
 170:../../kernel/FreeRTOS-Plus/Demo/Common/FreeRTOS_Plus_CLI_Demos/UARTCommandConsole.c **** 				to be processed again. */
 171:../../kernel/FreeRTOS-Plus/Demo/Common/FreeRTOS_Plus_CLI_Demos/UARTCommandConsole.c **** 				strcpy( cLastInputString, cInputString );
 169              		.loc 1 171 5 view .LVU18
ARM GAS  /tmp/ccPKyamx.s 			page 7


 170 0024 DFF8EC90 		ldr	r9, .L27+20	@ tmp165,
 171              	@ ../../kernel/FreeRTOS-Plus/Demo/Common/FreeRTOS_Plus_CLI_Demos/UARTCommandConsole.c:122: 	xPort =
 122:../../kernel/FreeRTOS-Plus/Demo/Common/FreeRTOS_Plus_CLI_Demos/UARTCommandConsole.c **** 
 172              		.loc 1 122 10 view .LVU19
 173 0028 0446     		mov	r4, r0	@ xPort,
 174              	.LVL5:
 125:../../kernel/FreeRTOS-Plus/Demo/Common/FreeRTOS_Plus_CLI_Demos/UARTCommandConsole.c **** 
 175              		.loc 1 125 2 is_stmt 1 view .LVU20
 176 002a FFF7FEFF 		bl	vSerialPutString		@
 177              	.LVL6:
 178              	@ ../../kernel/FreeRTOS-Plus/Demo/Common/FreeRTOS_Plus_CLI_Demos/UARTCommandConsole.c:161: 					xRe
 161:../../kernel/FreeRTOS-Plus/Demo/Common/FreeRTOS_Plus_CLI_Demos/UARTCommandConsole.c **** 					/* Write the generated string to the UART. */
 179              		.loc 1 161 18 is_stmt 0 view .LVU21
 180 002e D846     		mov	r8, fp	@ tmp164, tmp158
 181              	@ ../../kernel/FreeRTOS-Plus/Demo/Common/FreeRTOS_Plus_CLI_Demos/UARTCommandConsole.c:108: uint8_t 
 108:../../kernel/FreeRTOS-Plus/Demo/Common/FreeRTOS_Plus_CLI_Demos/UARTCommandConsole.c **** char *pcOutputString;
 182              		.loc 1 108 9 view .LVU22
 183 0030 0026     		movs	r6, #0	@ ucInputIndex,
 184              	.LVL7:
 185              	.L2:
 132:../../kernel/FreeRTOS-Plus/Demo/Common/FreeRTOS_Plus_CLI_Demos/UARTCommandConsole.c **** 
 186              		.loc 1 132 72 is_stmt 1 discriminator 1 view .LVU23
 187              	@ ../../kernel/FreeRTOS-Plus/Demo/Common/FreeRTOS_Plus_CLI_Demos/UARTCommandConsole.c:132: 		while(
 132:../../kernel/FreeRTOS-Plus/Demo/Common/FreeRTOS_Plus_CLI_Demos/UARTCommandConsole.c **** 
 188              		.loc 1 132 10 is_stmt 0 discriminator 1 view .LVU24
 189 0032 4FF0FF32 		mov	r2, #-1	@,
 190 0036 0DF10701 		add	r1, sp, #7	@ tmp166,,
 191 003a 2046     		mov	r0, r4	@, xPort
 192 003c FFF7FEFF 		bl	xSerialGetChar		@
 193              	.LVL8:
 194              	@ ../../kernel/FreeRTOS-Plus/Demo/Common/FreeRTOS_Plus_CLI_Demos/UARTCommandConsole.c:132: 		while(
 132:../../kernel/FreeRTOS-Plus/Demo/Common/FreeRTOS_Plus_CLI_Demos/UARTCommandConsole.c **** 
 195              		.loc 1 132 8 discriminator 1 view .LVU25
 196 0040 0128     		cmp	r0, #1	@,
 197 0042 F6D1     		bne	.L2		@,
 135:../../kernel/FreeRTOS-Plus/Demo/Common/FreeRTOS_Plus_CLI_Demos/UARTCommandConsole.c **** 		{
 198              		.loc 1 135 3 is_stmt 1 view .LVU26
 199              	@ ../../kernel/FreeRTOS-Plus/Demo/Common/FreeRTOS_Plus_CLI_Demos/UARTCommandConsole.c:135: 		if( xS
 135:../../kernel/FreeRTOS-Plus/Demo/Common/FreeRTOS_Plus_CLI_Demos/UARTCommandConsole.c **** 		{
 200              		.loc 1 135 7 is_stmt 0 view .LVU27
 201 0044 4FF49671 		mov	r1, #300	@,
 202 0048 3868     		ldr	r0, [r7]	@, xTxMutex
 203 004a FFF7FEFF 		bl	xQueueSemaphoreTake		@
 204              	.LVL9:
 205              	@ ../../kernel/FreeRTOS-Plus/Demo/Common/FreeRTOS_Plus_CLI_Demos/UARTCommandConsole.c:135: 		if( xS
 135:../../kernel/FreeRTOS-Plus/Demo/Common/FreeRTOS_Plus_CLI_Demos/UARTCommandConsole.c **** 		{
 206              		.loc 1 135 5 view .LVU28
 207 004e 0128     		cmp	r0, #1	@,
 208 0050 EFD1     		bne	.L2		@,
 138:../../kernel/FreeRTOS-Plus/Demo/Common/FreeRTOS_Plus_CLI_Demos/UARTCommandConsole.c **** 
 209              		.loc 1 138 4 is_stmt 1 view .LVU29
 210 0052 4FF0FF32 		mov	r2, #-1	@,
 211 0056 9DF90710 		ldrsb	r1, [sp, #7]	@, cRxedChar
 212 005a 2046     		mov	r0, r4	@, xPort
 213 005c FFF7FEFF 		bl	xSerialPutChar		@
 214              	.LVL10:
 141:../../kernel/FreeRTOS-Plus/Demo/Common/FreeRTOS_Plus_CLI_Demos/UARTCommandConsole.c **** 			{
ARM GAS  /tmp/ccPKyamx.s 			page 8


 215              		.loc 1 141 4 view .LVU30
 216              	@ ../../kernel/FreeRTOS-Plus/Demo/Common/FreeRTOS_Plus_CLI_Demos/UARTCommandConsole.c:141: 			if( c
 141:../../kernel/FreeRTOS-Plus/Demo/Common/FreeRTOS_Plus_CLI_Demos/UARTCommandConsole.c **** 			{
 217              		.loc 1 141 18 is_stmt 0 view .LVU31
 218 0060 9DF90730 		ldrsb	r3, [sp, #7]	@ cRxedChar.3_5, cRxedChar
 219              	@ ../../kernel/FreeRTOS-Plus/Demo/Common/FreeRTOS_Plus_CLI_Demos/UARTCommandConsole.c:141: 			if( c
 141:../../kernel/FreeRTOS-Plus/Demo/Common/FreeRTOS_Plus_CLI_Demos/UARTCommandConsole.c **** 			{
 220              		.loc 1 141 6 view .LVU32
 221 0064 0A2B     		cmp	r3, #10	@ cRxedChar.3_5,
 222 0066 17D0     		beq	.L4		@,
 223              	@ ../../kernel/FreeRTOS-Plus/Demo/Common/FreeRTOS_Plus_CLI_Demos/UARTCommandConsole.c:141: 			if( c
 141:../../kernel/FreeRTOS-Plus/Demo/Common/FreeRTOS_Plus_CLI_Demos/UARTCommandConsole.c **** 			{
 224              		.loc 1 141 26 discriminator 1 view .LVU33
 225 0068 0D2B     		cmp	r3, #13	@ cRxedChar.3_5,
 226 006a 15D0     		beq	.L4		@,
 172:../../kernel/FreeRTOS-Plus/Demo/Common/FreeRTOS_Plus_CLI_Demos/UARTCommandConsole.c **** 				ucInputIndex = 0;
 173:../../kernel/FreeRTOS-Plus/Demo/Common/FreeRTOS_Plus_CLI_Demos/UARTCommandConsole.c **** 				memset( cInputString, 0x00, cmdMAX_INPUT_SIZE );
 174:../../kernel/FreeRTOS-Plus/Demo/Common/FreeRTOS_Plus_CLI_Demos/UARTCommandConsole.c **** 				vSerialPutString( xPort, ( signed char * ) pcEndOfOutputMessage, ( unsigned short ) strlen( pcE
 175:../../kernel/FreeRTOS-Plus/Demo/Common/FreeRTOS_Plus_CLI_Demos/UARTCommandConsole.c **** 			}
 176:../../kernel/FreeRTOS-Plus/Demo/Common/FreeRTOS_Plus_CLI_Demos/UARTCommandConsole.c **** 			else
 177:../../kernel/FreeRTOS-Plus/Demo/Common/FreeRTOS_Plus_CLI_Demos/UARTCommandConsole.c **** 			{
 178:../../kernel/FreeRTOS-Plus/Demo/Common/FreeRTOS_Plus_CLI_Demos/UARTCommandConsole.c **** 				if( cRxedChar == '\r' )
 227              		.loc 1 178 5 is_stmt 1 view .LVU34
 179:../../kernel/FreeRTOS-Plus/Demo/Common/FreeRTOS_Plus_CLI_Demos/UARTCommandConsole.c **** 				{
 180:../../kernel/FreeRTOS-Plus/Demo/Common/FreeRTOS_Plus_CLI_Demos/UARTCommandConsole.c **** 					/* Ignore the character. */
 181:../../kernel/FreeRTOS-Plus/Demo/Common/FreeRTOS_Plus_CLI_Demos/UARTCommandConsole.c **** 				}
 182:../../kernel/FreeRTOS-Plus/Demo/Common/FreeRTOS_Plus_CLI_Demos/UARTCommandConsole.c **** 				else if( ( cRxedChar == '\b' ) || ( cRxedChar == cmdASCII_DEL ) )
 228              		.loc 1 182 10 view .LVU35
 229              	@ ../../kernel/FreeRTOS-Plus/Demo/Common/FreeRTOS_Plus_CLI_Demos/UARTCommandConsole.c:182: 				else
 230              		.loc 1 182 12 is_stmt 0 view .LVU36
 231 006c 082B     		cmp	r3, #8	@ cRxedChar.3_5,
 232 006e 39D0     		beq	.L9		@,
 233              	@ ../../kernel/FreeRTOS-Plus/Demo/Common/FreeRTOS_Plus_CLI_Demos/UARTCommandConsole.c:182: 				else
 234              		.loc 1 182 36 discriminator 1 view .LVU37
 235 0070 7F2B     		cmp	r3, #127	@ cRxedChar.3_5,
 236 0072 37D0     		beq	.L9		@,
 183:../../kernel/FreeRTOS-Plus/Demo/Common/FreeRTOS_Plus_CLI_Demos/UARTCommandConsole.c **** 				{
 184:../../kernel/FreeRTOS-Plus/Demo/Common/FreeRTOS_Plus_CLI_Demos/UARTCommandConsole.c **** 					/* Backspace was pressed.  Erase the last character in the
 185:../../kernel/FreeRTOS-Plus/Demo/Common/FreeRTOS_Plus_CLI_Demos/UARTCommandConsole.c **** 					string - if any. */
 186:../../kernel/FreeRTOS-Plus/Demo/Common/FreeRTOS_Plus_CLI_Demos/UARTCommandConsole.c **** 					if( ucInputIndex > 0 )
 187:../../kernel/FreeRTOS-Plus/Demo/Common/FreeRTOS_Plus_CLI_Demos/UARTCommandConsole.c **** 					{
 188:../../kernel/FreeRTOS-Plus/Demo/Common/FreeRTOS_Plus_CLI_Demos/UARTCommandConsole.c **** 						ucInputIndex--;
 189:../../kernel/FreeRTOS-Plus/Demo/Common/FreeRTOS_Plus_CLI_Demos/UARTCommandConsole.c **** 						cInputString[ ucInputIndex ] = '\0';
 190:../../kernel/FreeRTOS-Plus/Demo/Common/FreeRTOS_Plus_CLI_Demos/UARTCommandConsole.c **** 					}
 191:../../kernel/FreeRTOS-Plus/Demo/Common/FreeRTOS_Plus_CLI_Demos/UARTCommandConsole.c **** 				}
 192:../../kernel/FreeRTOS-Plus/Demo/Common/FreeRTOS_Plus_CLI_Demos/UARTCommandConsole.c **** 				else
 193:../../kernel/FreeRTOS-Plus/Demo/Common/FreeRTOS_Plus_CLI_Demos/UARTCommandConsole.c **** 				{
 194:../../kernel/FreeRTOS-Plus/Demo/Common/FreeRTOS_Plus_CLI_Demos/UARTCommandConsole.c **** 					/* A character was entered.  Add it to the string entered so
 195:../../kernel/FreeRTOS-Plus/Demo/Common/FreeRTOS_Plus_CLI_Demos/UARTCommandConsole.c **** 					far.  When a \n is entered the complete	string will be
 196:../../kernel/FreeRTOS-Plus/Demo/Common/FreeRTOS_Plus_CLI_Demos/UARTCommandConsole.c **** 					passed to the command interpreter. */
 197:../../kernel/FreeRTOS-Plus/Demo/Common/FreeRTOS_Plus_CLI_Demos/UARTCommandConsole.c **** 					if( ( cRxedChar >= ' ' ) && ( cRxedChar <= '~' ) )
 237              		.loc 1 197 6 is_stmt 1 view .LVU38
 238              	@ ../../kernel/FreeRTOS-Plus/Demo/Common/FreeRTOS_Plus_CLI_Demos/UARTCommandConsole.c:197: 					if(
 239              		.loc 1 197 31 is_stmt 0 view .LVU39
 240 0074 DBB2     		uxtb	r3, r3	@ cRxedChar.10_14, cRxedChar.3_5
 241              	@ ../../kernel/FreeRTOS-Plus/Demo/Common/FreeRTOS_Plus_CLI_Demos/UARTCommandConsole.c:197: 					if(
 242              		.loc 1 197 8 view .LVU40
ARM GAS  /tmp/ccPKyamx.s 			page 9


 243 0076 A3F12002 		sub	r2, r3, #32	@ tmp150, cRxedChar.10_14,
 244 007a 5E2A     		cmp	r2, #94	@ tmp150,
 245 007c 05D8     		bhi	.L8		@,
 198:../../kernel/FreeRTOS-Plus/Demo/Common/FreeRTOS_Plus_CLI_Demos/UARTCommandConsole.c **** 					{
 199:../../kernel/FreeRTOS-Plus/Demo/Common/FreeRTOS_Plus_CLI_Demos/UARTCommandConsole.c **** 						if( ucInputIndex < cmdMAX_INPUT_SIZE )
 246              		.loc 1 199 7 is_stmt 1 view .LVU41
 247              	@ ../../kernel/FreeRTOS-Plus/Demo/Common/FreeRTOS_Plus_CLI_Demos/UARTCommandConsole.c:199: 						if
 248              		.loc 1 199 9 is_stmt 0 view .LVU42
 249 007e 312E     		cmp	r6, #49	@ ucInputIndex,
 250 0080 03D8     		bhi	.L8		@,
 200:../../kernel/FreeRTOS-Plus/Demo/Common/FreeRTOS_Plus_CLI_Demos/UARTCommandConsole.c **** 						{
 201:../../kernel/FreeRTOS-Plus/Demo/Common/FreeRTOS_Plus_CLI_Demos/UARTCommandConsole.c **** 							cInputString[ ucInputIndex ] = cRxedChar;
 251              		.loc 1 201 8 is_stmt 1 view .LVU43
 252              	@ ../../kernel/FreeRTOS-Plus/Demo/Common/FreeRTOS_Plus_CLI_Demos/UARTCommandConsole.c:202: 							u
 202:../../kernel/FreeRTOS-Plus/Demo/Common/FreeRTOS_Plus_CLI_Demos/UARTCommandConsole.c **** 							ucInputIndex++;
 253              		.loc 1 202 20 is_stmt 0 view .LVU44
 254 0082 721C     		adds	r2, r6, #1	@ tmp153, ucInputIndex,
 255              	@ ../../kernel/FreeRTOS-Plus/Demo/Common/FreeRTOS_Plus_CLI_Demos/UARTCommandConsole.c:201: 							c
 201:../../kernel/FreeRTOS-Plus/Demo/Common/FreeRTOS_Plus_CLI_Demos/UARTCommandConsole.c **** 							ucInputIndex++;
 256              		.loc 1 201 37 view .LVU45
 257 0084 0BF80630 		strb	r3, [fp, r6]	@ cRxedChar.10_14, cInputString
 258              		.loc 1 202 8 is_stmt 1 view .LVU46
 259              	@ ../../kernel/FreeRTOS-Plus/Demo/Common/FreeRTOS_Plus_CLI_Demos/UARTCommandConsole.c:202: 							u
 260              		.loc 1 202 20 is_stmt 0 view .LVU47
 261 0088 D6B2     		uxtb	r6, r2	@ ucInputIndex, tmp153
 262              	.LVL11:
 263              	.L8:
 203:../../kernel/FreeRTOS-Plus/Demo/Common/FreeRTOS_Plus_CLI_Demos/UARTCommandConsole.c **** 						}
 204:../../kernel/FreeRTOS-Plus/Demo/Common/FreeRTOS_Plus_CLI_Demos/UARTCommandConsole.c **** 					}
 205:../../kernel/FreeRTOS-Plus/Demo/Common/FreeRTOS_Plus_CLI_Demos/UARTCommandConsole.c **** 				}
 206:../../kernel/FreeRTOS-Plus/Demo/Common/FreeRTOS_Plus_CLI_Demos/UARTCommandConsole.c **** 			}
 207:../../kernel/FreeRTOS-Plus/Demo/Common/FreeRTOS_Plus_CLI_Demos/UARTCommandConsole.c **** 
 208:../../kernel/FreeRTOS-Plus/Demo/Common/FreeRTOS_Plus_CLI_Demos/UARTCommandConsole.c **** 			/* Must ensure to give the mutex back. */
 209:../../kernel/FreeRTOS-Plus/Demo/Common/FreeRTOS_Plus_CLI_Demos/UARTCommandConsole.c **** 			xSemaphoreGive( xTxMutex );
 264              		.loc 1 209 4 is_stmt 1 view .LVU48
 265 008a 0023     		movs	r3, #0	@,
 266 008c 1A46     		mov	r2, r3	@,
 267 008e 1946     		mov	r1, r3	@,
 268 0090 3868     		ldr	r0, [r7]	@, xTxMutex
 269 0092 FFF7FEFF 		bl	xQueueGenericSend		@
 270              	.LVL12:
 271 0096 CCE7     		b	.L2		@
 272              	.LVL13:
 273              	.L4:
 144:../../kernel/FreeRTOS-Plus/Demo/Common/FreeRTOS_Plus_CLI_Demos/UARTCommandConsole.c **** 
 274              		.loc 1 144 5 view .LVU49
 275 0098 0222     		movs	r2, #2	@,
 276 009a 5146     		mov	r1, r10	@, tmp163
 277 009c 2046     		mov	r0, r4	@, xPort
 278 009e FFF7FEFF 		bl	vSerialPutString		@
 279              	.LVL14:
 148:../../kernel/FreeRTOS-Plus/Demo/Common/FreeRTOS_Plus_CLI_Demos/UARTCommandConsole.c **** 				{
 280              		.loc 1 148 5 view .LVU50
 281              	@ ../../kernel/FreeRTOS-Plus/Demo/Common/FreeRTOS_Plus_CLI_Demos/UARTCommandConsole.c:148: 				if( 
 148:../../kernel/FreeRTOS-Plus/Demo/Common/FreeRTOS_Plus_CLI_Demos/UARTCommandConsole.c **** 				{
 282              		.loc 1 148 7 is_stmt 0 view .LVU51
 283 00a2 3EB3     		cbz	r6, .L26	@ ucInputIndex,
ARM GAS  /tmp/ccPKyamx.s 			page 10


 284              	.L7:
 158:../../kernel/FreeRTOS-Plus/Demo/Common/FreeRTOS_Plus_CLI_Demos/UARTCommandConsole.c **** 				{
 285              		.loc 1 158 5 is_stmt 1 discriminator 1 view .LVU52
 161:../../kernel/FreeRTOS-Plus/Demo/Common/FreeRTOS_Plus_CLI_Demos/UARTCommandConsole.c **** 					/* Write the generated string to the UART. */
 286              		.loc 1 161 6 discriminator 1 view .LVU53
 287              	@ ../../kernel/FreeRTOS-Plus/Demo/Common/FreeRTOS_Plus_CLI_Demos/UARTCommandConsole.c:161: 					xRe
 161:../../kernel/FreeRTOS-Plus/Demo/Common/FreeRTOS_Plus_CLI_Demos/UARTCommandConsole.c **** 					/* Write the generated string to the UART. */
 288              		.loc 1 161 18 is_stmt 0 discriminator 1 view .LVU54
 289 00a4 4FF48062 		mov	r2, #1024	@,
 290 00a8 2946     		mov	r1, r5	@, pcOutputString
 291 00aa 4046     		mov	r0, r8	@, tmp164
 292 00ac FFF7FEFF 		bl	FreeRTOS_CLIProcessCommand		@
 293              	.LVL15:
 294 00b0 0646     		mov	r6, r0	@ xReturned,
 295              	.LVL16:
 163:../../kernel/FreeRTOS-Plus/Demo/Common/FreeRTOS_Plus_CLI_Demos/UARTCommandConsole.c **** 
 296              		.loc 1 163 6 is_stmt 1 discriminator 1 view .LVU55
 297              	@ ../../kernel/FreeRTOS-Plus/Demo/Common/FreeRTOS_Plus_CLI_Demos/UARTCommandConsole.c:163: 					vSe
 163:../../kernel/FreeRTOS-Plus/Demo/Common/FreeRTOS_Plus_CLI_Demos/UARTCommandConsole.c **** 
 298              		.loc 1 163 84 is_stmt 0 discriminator 1 view .LVU56
 299 00b2 2846     		mov	r0, r5	@, pcOutputString
 300              	.LVL17:
 163:../../kernel/FreeRTOS-Plus/Demo/Common/FreeRTOS_Plus_CLI_Demos/UARTCommandConsole.c **** 
 301              		.loc 1 163 84 discriminator 1 view .LVU57
 302 00b4 FFF7FEFF 		bl	strlen		@
 303              	.LVL18:
 304              	@ ../../kernel/FreeRTOS-Plus/Demo/Common/FreeRTOS_Plus_CLI_Demos/UARTCommandConsole.c:163: 					vSe
 163:../../kernel/FreeRTOS-Plus/Demo/Common/FreeRTOS_Plus_CLI_Demos/UARTCommandConsole.c **** 
 305              		.loc 1 163 6 discriminator 1 view .LVU58
 306 00b8 2946     		mov	r1, r5	@, pcOutputString
 307 00ba 82B2     		uxth	r2, r0	@,
 308 00bc 2046     		mov	r0, r4	@, xPort
 309 00be FFF7FEFF 		bl	vSerialPutString		@
 310              	.LVL19:
 311              	@ ../../kernel/FreeRTOS-Plus/Demo/Common/FreeRTOS_Plus_CLI_Demos/UARTCommandConsole.c:165: 				} wh
 165:../../kernel/FreeRTOS-Plus/Demo/Common/FreeRTOS_Plus_CLI_Demos/UARTCommandConsole.c **** 
 312              		.loc 1 165 5 discriminator 1 view .LVU59
 313 00c2 002E     		cmp	r6, #0	@ xReturned
 314 00c4 EED1     		bne	.L7	@
 171:../../kernel/FreeRTOS-Plus/Demo/Common/FreeRTOS_Plus_CLI_Demos/UARTCommandConsole.c **** 				ucInputIndex = 0;
 315              		.loc 1 171 5 is_stmt 1 view .LVU60
 316 00c6 4146     		mov	r1, r8	@, tmp164
 317 00c8 4846     		mov	r0, r9	@, tmp165
 318 00ca FFF7FEFF 		bl	strcpy		@
 319              	.LVL20:
 172:../../kernel/FreeRTOS-Plus/Demo/Common/FreeRTOS_Plus_CLI_Demos/UARTCommandConsole.c **** 				memset( cInputString, 0x00, cmdMAX_INPUT_SIZE );
 320              		.loc 1 172 5 view .LVU61
 173:../../kernel/FreeRTOS-Plus/Demo/Common/FreeRTOS_Plus_CLI_Demos/UARTCommandConsole.c **** 				vSerialPutString( xPort, ( signed char * ) pcEndOfOutputMessage, ( unsigned short ) strlen( pcE
 321              		.loc 1 173 5 view .LVU62
 322 00ce 3146     		mov	r1, r6	@, xReturned
 323 00d0 3222     		movs	r2, #50	@,
 324 00d2 4046     		mov	r0, r8	@, tmp164
 325 00d4 FFF7FEFF 		bl	memset		@
 326              	.LVL21:
 174:../../kernel/FreeRTOS-Plus/Demo/Common/FreeRTOS_Plus_CLI_Demos/UARTCommandConsole.c **** 			}
 327              		.loc 1 174 5 view .LVU63
 328 00d8 3822     		movs	r2, #56	@,
ARM GAS  /tmp/ccPKyamx.s 			page 11


 329 00da 0B49     		ldr	r1, .L27+8	@,
 330 00dc 2046     		mov	r0, r4	@, xPort
 331 00de FFF7FEFF 		bl	vSerialPutString		@
 332              	.LVL22:
 333 00e2 D2E7     		b	.L8		@
 334              	.LVL23:
 335              	.L9:
 186:../../kernel/FreeRTOS-Plus/Demo/Common/FreeRTOS_Plus_CLI_Demos/UARTCommandConsole.c **** 					{
 336              		.loc 1 186 6 view .LVU64
 337              	@ ../../kernel/FreeRTOS-Plus/Demo/Common/FreeRTOS_Plus_CLI_Demos/UARTCommandConsole.c:186: 					if(
 186:../../kernel/FreeRTOS-Plus/Demo/Common/FreeRTOS_Plus_CLI_Demos/UARTCommandConsole.c **** 					{
 338              		.loc 1 186 8 is_stmt 0 view .LVU65
 339 00e4 002E     		cmp	r6, #0	@ ucInputIndex
 340 00e6 D0D0     		beq	.L8	@
 188:../../kernel/FreeRTOS-Plus/Demo/Common/FreeRTOS_Plus_CLI_Demos/UARTCommandConsole.c **** 						cInputString[ ucInputIndex ] = '\0';
 341              		.loc 1 188 7 is_stmt 1 view .LVU66
 342              	@ ../../kernel/FreeRTOS-Plus/Demo/Common/FreeRTOS_Plus_CLI_Demos/UARTCommandConsole.c:188: 						uc
 188:../../kernel/FreeRTOS-Plus/Demo/Common/FreeRTOS_Plus_CLI_Demos/UARTCommandConsole.c **** 						cInputString[ ucInputIndex ] = '\0';
 343              		.loc 1 188 19 is_stmt 0 view .LVU67
 344 00e8 013E     		subs	r6, r6, #1	@ tmp145, ucInputIndex,
 345 00ea F6B2     		uxtb	r6, r6	@ ucInputIndex, tmp145
 346              	.LVL24:
 189:../../kernel/FreeRTOS-Plus/Demo/Common/FreeRTOS_Plus_CLI_Demos/UARTCommandConsole.c **** 					}
 347              		.loc 1 189 7 is_stmt 1 view .LVU68
 348              	@ ../../kernel/FreeRTOS-Plus/Demo/Common/FreeRTOS_Plus_CLI_Demos/UARTCommandConsole.c:189: 						cI
 189:../../kernel/FreeRTOS-Plus/Demo/Common/FreeRTOS_Plus_CLI_Demos/UARTCommandConsole.c **** 					}
 349              		.loc 1 189 36 is_stmt 0 view .LVU69
 350 00ec 0023     		movs	r3, #0	@ tmp147,
 351 00ee 0BF80630 		strb	r3, [fp, r6]	@ tmp147, cInputString
 352 00f2 CAE7     		b	.L8		@
 353              	.LVL25:
 354              	.L26:
 151:../../kernel/FreeRTOS-Plus/Demo/Common/FreeRTOS_Plus_CLI_Demos/UARTCommandConsole.c **** 				}
 355              		.loc 1 151 6 is_stmt 1 view .LVU70
 356 00f4 4946     		mov	r1, r9	@, tmp165
 357 00f6 4046     		mov	r0, r8	@, tmp164
 358 00f8 FFF7FEFF 		bl	strcpy		@
 359              	.LVL26:
 360 00fc D2E7     		b	.L7		@
 361              	.L28:
 362 00fe 00BF     		.align	2
 363              	.L27:
 364 0100 00000000 		.word	.LC0
 365 0104 00000000 		.word	.LANCHOR0
 366 0108 54000000 		.word	.LC2
 367 010c 00000000 		.word	.LANCHOR2
 368 0110 50000000 		.word	.LC1
 369 0114 00000000 		.word	.LANCHOR1
 370              		.cfi_endproc
 371              	.LFE8:
 372              		.size	prvUARTCommandConsoleTask, .-prvUARTCommandConsoleTask
 373              		.section	.text.vUARTCommandConsoleStart,"ax",%progbits
 374              		.align	1
 375              		.p2align 2,,3
 376              		.global	vUARTCommandConsoleStart
 377              		.syntax unified
 378              		.thumb
ARM GAS  /tmp/ccPKyamx.s 			page 12


 379              		.thumb_func
 380              		.fpu fpv4-sp-d16
 381              		.type	vUARTCommandConsoleStart, %function
 382              	vUARTCommandConsoleStart:
 383              	.LVL27:
 384              	.LFB7:
  90:../../kernel/FreeRTOS-Plus/Demo/Common/FreeRTOS_Plus_CLI_Demos/UARTCommandConsole.c **** 	/* Create the semaphore used to access the UART Tx. */
 385              		.loc 1 90 1 view -0
 386              		.cfi_startproc
 387              		@ args = 0, pretend = 0, frame = 0
 388              		@ frame_needed = 0, uses_anonymous_args = 0
  92:../../kernel/FreeRTOS-Plus/Demo/Common/FreeRTOS_Plus_CLI_Demos/UARTCommandConsole.c **** 	configASSERT( xTxMutex );
 389              		.loc 1 92 2 view .LVU72
 390              	@ ../../kernel/FreeRTOS-Plus/Demo/Common/FreeRTOS_Plus_CLI_Demos/UARTCommandConsole.c:90: {
  90:../../kernel/FreeRTOS-Plus/Demo/Common/FreeRTOS_Plus_CLI_Demos/UARTCommandConsole.c **** 	/* Create the semaphore used to access the UART Tx. */
 391              		.loc 1 90 1 is_stmt 0 view .LVU73
 392 0000 30B5     		push	{r4, r5, lr}	@
 393              		.cfi_def_cfa_offset 12
 394              		.cfi_offset 4, -12
 395              		.cfi_offset 5, -8
 396              		.cfi_offset 14, -4
 397 0002 0446     		mov	r4, r0	@ usStackSize, usStackSize
 398 0004 83B0     		sub	sp, sp, #12	@,,
 399              		.cfi_def_cfa_offset 24
 400              	@ ../../kernel/FreeRTOS-Plus/Demo/Common/FreeRTOS_Plus_CLI_Demos/UARTCommandConsole.c:92: 	xTxMutex
  92:../../kernel/FreeRTOS-Plus/Demo/Common/FreeRTOS_Plus_CLI_Demos/UARTCommandConsole.c **** 	configASSERT( xTxMutex );
 401              		.loc 1 92 13 view .LVU74
 402 0006 0120     		movs	r0, #1	@,
 403              	.LVL28:
 404              	@ ../../kernel/FreeRTOS-Plus/Demo/Common/FreeRTOS_Plus_CLI_Demos/UARTCommandConsole.c:90: {
  90:../../kernel/FreeRTOS-Plus/Demo/Common/FreeRTOS_Plus_CLI_Demos/UARTCommandConsole.c **** 	/* Create the semaphore used to access the UART Tx. */
 405              		.loc 1 90 1 view .LVU75
 406 0008 0D46     		mov	r5, r1	@ uxPriority, uxPriority
 407              	@ ../../kernel/FreeRTOS-Plus/Demo/Common/FreeRTOS_Plus_CLI_Demos/UARTCommandConsole.c:92: 	xTxMutex
  92:../../kernel/FreeRTOS-Plus/Demo/Common/FreeRTOS_Plus_CLI_Demos/UARTCommandConsole.c **** 	configASSERT( xTxMutex );
 408              		.loc 1 92 13 view .LVU76
 409 000a FFF7FEFF 		bl	xQueueCreateMutex		@
 410              	.LVL29:
 411              	@ ../../kernel/FreeRTOS-Plus/Demo/Common/FreeRTOS_Plus_CLI_Demos/UARTCommandConsole.c:92: 	xTxMutex
  92:../../kernel/FreeRTOS-Plus/Demo/Common/FreeRTOS_Plus_CLI_Demos/UARTCommandConsole.c **** 	configASSERT( xTxMutex );
 412              		.loc 1 92 11 view .LVU77
 413 000e 0B4B     		ldr	r3, .L34	@ tmp114,
 414 0010 1860     		str	r0, [r3]	@ _1, xTxMutex
  93:../../kernel/FreeRTOS-Plus/Demo/Common/FreeRTOS_Plus_CLI_Demos/UARTCommandConsole.c **** 
 415              		.loc 1 93 2 is_stmt 1 view .LVU78
 416 0012 48B1     		cbz	r0, .L33	@ _1,
  93:../../kernel/FreeRTOS-Plus/Demo/Common/FreeRTOS_Plus_CLI_Demos/UARTCommandConsole.c **** 
 417              		.loc 1 93 26 discriminator 2 view .LVU79
  96:../../kernel/FreeRTOS-Plus/Demo/Common/FreeRTOS_Plus_CLI_Demos/UARTCommandConsole.c **** 					"CLI",						/* Text name assigned to the task.  This is just to assist debugging.  The kernel 
 418              		.loc 1 96 2 discriminator 2 view .LVU80
 419 0014 0023     		movs	r3, #0	@ tmp118,
 420 0016 0095     		str	r5, [sp]	@ uxPriority,
 421 0018 2246     		mov	r2, r4	@, usStackSize
 422 001a 0193     		str	r3, [sp, #4]	@ tmp118,
 423 001c 0849     		ldr	r1, .L34+4	@,
 424 001e 0948     		ldr	r0, .L34+8	@,
 425 0020 FFF7FEFF 		bl	xTaskCreate		@
ARM GAS  /tmp/ccPKyamx.s 			page 13


 426              	.LVL30:
 427              	@ ../../kernel/FreeRTOS-Plus/Demo/Common/FreeRTOS_Plus_CLI_Demos/UARTCommandConsole.c:102: }
 102:../../kernel/FreeRTOS-Plus/Demo/Common/FreeRTOS_Plus_CLI_Demos/UARTCommandConsole.c **** /*-----------------------------------------------------------*/
 428              		.loc 1 102 1 is_stmt 0 discriminator 2 view .LVU81
 429 0024 03B0     		add	sp, sp, #12	@,,
 430              		.cfi_remember_state
 431              		.cfi_def_cfa_offset 12
 432              		@ sp needed	@
 433 0026 30BD     		pop	{r4, r5, pc}	@
 434              	.LVL31:
 435              	.L33:
 436              		.cfi_restore_state
  93:../../kernel/FreeRTOS-Plus/Demo/Common/FreeRTOS_Plus_CLI_Demos/UARTCommandConsole.c **** 
 437              		.loc 1 93 2 is_stmt 1 view .LVU82
 438              	.LBB4:
 439              	.LBI4:
 440              		.file 2 "../../kernel/FreeRTOS/Source/portable/GCC/ARM_CM4F/portmacro.h"
   1:../../kernel/FreeRTOS/Source/portable/GCC/ARM_CM4F/portmacro.h **** /*
   2:../../kernel/FreeRTOS/Source/portable/GCC/ARM_CM4F/portmacro.h ****  * FreeRTOS Kernel V10.0.1
   3:../../kernel/FreeRTOS/Source/portable/GCC/ARM_CM4F/portmacro.h ****  * Copyright (C) 2017 Amazon.com, Inc. or its affiliates.  All Rights Reserved.
   4:../../kernel/FreeRTOS/Source/portable/GCC/ARM_CM4F/portmacro.h ****  *
   5:../../kernel/FreeRTOS/Source/portable/GCC/ARM_CM4F/portmacro.h ****  * Permission is hereby granted, free of charge, to any person obtaining a copy of
   6:../../kernel/FreeRTOS/Source/portable/GCC/ARM_CM4F/portmacro.h ****  * this software and associated documentation files (the "Software"), to deal in
   7:../../kernel/FreeRTOS/Source/portable/GCC/ARM_CM4F/portmacro.h ****  * the Software without restriction, including without limitation the rights to
   8:../../kernel/FreeRTOS/Source/portable/GCC/ARM_CM4F/portmacro.h ****  * use, copy, modify, merge, publish, distribute, sublicense, and/or sell copies of
   9:../../kernel/FreeRTOS/Source/portable/GCC/ARM_CM4F/portmacro.h ****  * the Software, and to permit persons to whom the Software is furnished to do so,
  10:../../kernel/FreeRTOS/Source/portable/GCC/ARM_CM4F/portmacro.h ****  * subject to the following conditions:
  11:../../kernel/FreeRTOS/Source/portable/GCC/ARM_CM4F/portmacro.h ****  *
  12:../../kernel/FreeRTOS/Source/portable/GCC/ARM_CM4F/portmacro.h ****  * The above copyright notice and this permission notice shall be included in all
  13:../../kernel/FreeRTOS/Source/portable/GCC/ARM_CM4F/portmacro.h ****  * copies or substantial portions of the Software.
  14:../../kernel/FreeRTOS/Source/portable/GCC/ARM_CM4F/portmacro.h ****  *
  15:../../kernel/FreeRTOS/Source/portable/GCC/ARM_CM4F/portmacro.h ****  * THE SOFTWARE IS PROVIDED "AS IS", WITHOUT WARRANTY OF ANY KIND, EXPRESS OR
  16:../../kernel/FreeRTOS/Source/portable/GCC/ARM_CM4F/portmacro.h ****  * IMPLIED, INCLUDING BUT NOT LIMITED TO THE WARRANTIES OF MERCHANTABILITY, FITNESS
  17:../../kernel/FreeRTOS/Source/portable/GCC/ARM_CM4F/portmacro.h ****  * FOR A PARTICULAR PURPOSE AND NONINFRINGEMENT. IN NO EVENT SHALL THE AUTHORS OR
  18:../../kernel/FreeRTOS/Source/portable/GCC/ARM_CM4F/portmacro.h ****  * COPYRIGHT HOLDERS BE LIABLE FOR ANY CLAIM, DAMAGES OR OTHER LIABILITY, WHETHER
  19:../../kernel/FreeRTOS/Source/portable/GCC/ARM_CM4F/portmacro.h ****  * IN AN ACTION OF CONTRACT, TORT OR OTHERWISE, ARISING FROM, OUT OF OR IN
  20:../../kernel/FreeRTOS/Source/portable/GCC/ARM_CM4F/portmacro.h ****  * CONNECTION WITH THE SOFTWARE OR THE USE OR OTHER DEALINGS IN THE SOFTWARE.
  21:../../kernel/FreeRTOS/Source/portable/GCC/ARM_CM4F/portmacro.h ****  *
  22:../../kernel/FreeRTOS/Source/portable/GCC/ARM_CM4F/portmacro.h ****  * http://www.FreeRTOS.org
  23:../../kernel/FreeRTOS/Source/portable/GCC/ARM_CM4F/portmacro.h ****  * http://aws.amazon.com/freertos
  24:../../kernel/FreeRTOS/Source/portable/GCC/ARM_CM4F/portmacro.h ****  *
  25:../../kernel/FreeRTOS/Source/portable/GCC/ARM_CM4F/portmacro.h ****  * 1 tab == 4 spaces!
  26:../../kernel/FreeRTOS/Source/portable/GCC/ARM_CM4F/portmacro.h ****  */
  27:../../kernel/FreeRTOS/Source/portable/GCC/ARM_CM4F/portmacro.h **** 
  28:../../kernel/FreeRTOS/Source/portable/GCC/ARM_CM4F/portmacro.h **** 
  29:../../kernel/FreeRTOS/Source/portable/GCC/ARM_CM4F/portmacro.h **** #ifndef PORTMACRO_H
  30:../../kernel/FreeRTOS/Source/portable/GCC/ARM_CM4F/portmacro.h **** #define PORTMACRO_H
  31:../../kernel/FreeRTOS/Source/portable/GCC/ARM_CM4F/portmacro.h **** 
  32:../../kernel/FreeRTOS/Source/portable/GCC/ARM_CM4F/portmacro.h **** #ifdef __cplusplus
  33:../../kernel/FreeRTOS/Source/portable/GCC/ARM_CM4F/portmacro.h **** extern "C" {
  34:../../kernel/FreeRTOS/Source/portable/GCC/ARM_CM4F/portmacro.h **** #endif
  35:../../kernel/FreeRTOS/Source/portable/GCC/ARM_CM4F/portmacro.h **** 
  36:../../kernel/FreeRTOS/Source/portable/GCC/ARM_CM4F/portmacro.h **** /*-----------------------------------------------------------
  37:../../kernel/FreeRTOS/Source/portable/GCC/ARM_CM4F/portmacro.h ****  * Port specific definitions.
  38:../../kernel/FreeRTOS/Source/portable/GCC/ARM_CM4F/portmacro.h ****  *
  39:../../kernel/FreeRTOS/Source/portable/GCC/ARM_CM4F/portmacro.h ****  * The settings in this file configure FreeRTOS correctly for the
  40:../../kernel/FreeRTOS/Source/portable/GCC/ARM_CM4F/portmacro.h ****  * given hardware and compiler.
ARM GAS  /tmp/ccPKyamx.s 			page 14


  41:../../kernel/FreeRTOS/Source/portable/GCC/ARM_CM4F/portmacro.h ****  *
  42:../../kernel/FreeRTOS/Source/portable/GCC/ARM_CM4F/portmacro.h ****  * These settings should not be altered.
  43:../../kernel/FreeRTOS/Source/portable/GCC/ARM_CM4F/portmacro.h ****  *-----------------------------------------------------------
  44:../../kernel/FreeRTOS/Source/portable/GCC/ARM_CM4F/portmacro.h ****  */
  45:../../kernel/FreeRTOS/Source/portable/GCC/ARM_CM4F/portmacro.h **** 
  46:../../kernel/FreeRTOS/Source/portable/GCC/ARM_CM4F/portmacro.h **** /* Type definitions. */
  47:../../kernel/FreeRTOS/Source/portable/GCC/ARM_CM4F/portmacro.h **** #define portCHAR		char
  48:../../kernel/FreeRTOS/Source/portable/GCC/ARM_CM4F/portmacro.h **** #define portFLOAT		float
  49:../../kernel/FreeRTOS/Source/portable/GCC/ARM_CM4F/portmacro.h **** #define portDOUBLE		double
  50:../../kernel/FreeRTOS/Source/portable/GCC/ARM_CM4F/portmacro.h **** #define portLONG		long
  51:../../kernel/FreeRTOS/Source/portable/GCC/ARM_CM4F/portmacro.h **** #define portSHORT		short
  52:../../kernel/FreeRTOS/Source/portable/GCC/ARM_CM4F/portmacro.h **** #define portSTACK_TYPE	uint32_t
  53:../../kernel/FreeRTOS/Source/portable/GCC/ARM_CM4F/portmacro.h **** #define portBASE_TYPE	long
  54:../../kernel/FreeRTOS/Source/portable/GCC/ARM_CM4F/portmacro.h **** 
  55:../../kernel/FreeRTOS/Source/portable/GCC/ARM_CM4F/portmacro.h **** typedef portSTACK_TYPE StackType_t;
  56:../../kernel/FreeRTOS/Source/portable/GCC/ARM_CM4F/portmacro.h **** typedef long BaseType_t;
  57:../../kernel/FreeRTOS/Source/portable/GCC/ARM_CM4F/portmacro.h **** typedef unsigned long UBaseType_t;
  58:../../kernel/FreeRTOS/Source/portable/GCC/ARM_CM4F/portmacro.h **** 
  59:../../kernel/FreeRTOS/Source/portable/GCC/ARM_CM4F/portmacro.h **** #if( configUSE_16_BIT_TICKS == 1 )
  60:../../kernel/FreeRTOS/Source/portable/GCC/ARM_CM4F/portmacro.h **** 	typedef uint16_t TickType_t;
  61:../../kernel/FreeRTOS/Source/portable/GCC/ARM_CM4F/portmacro.h **** 	#define portMAX_DELAY ( TickType_t ) 0xffff
  62:../../kernel/FreeRTOS/Source/portable/GCC/ARM_CM4F/portmacro.h **** #else
  63:../../kernel/FreeRTOS/Source/portable/GCC/ARM_CM4F/portmacro.h **** 	typedef uint32_t TickType_t;
  64:../../kernel/FreeRTOS/Source/portable/GCC/ARM_CM4F/portmacro.h **** 	#define portMAX_DELAY ( TickType_t ) 0xffffffffUL
  65:../../kernel/FreeRTOS/Source/portable/GCC/ARM_CM4F/portmacro.h **** 
  66:../../kernel/FreeRTOS/Source/portable/GCC/ARM_CM4F/portmacro.h **** 	/* 32-bit tick type on a 32-bit architecture, so reads of the tick count do
  67:../../kernel/FreeRTOS/Source/portable/GCC/ARM_CM4F/portmacro.h **** 	not need to be guarded with a critical section. */
  68:../../kernel/FreeRTOS/Source/portable/GCC/ARM_CM4F/portmacro.h **** 	#define portTICK_TYPE_IS_ATOMIC 1
  69:../../kernel/FreeRTOS/Source/portable/GCC/ARM_CM4F/portmacro.h **** #endif
  70:../../kernel/FreeRTOS/Source/portable/GCC/ARM_CM4F/portmacro.h **** /*-----------------------------------------------------------*/
  71:../../kernel/FreeRTOS/Source/portable/GCC/ARM_CM4F/portmacro.h **** 
  72:../../kernel/FreeRTOS/Source/portable/GCC/ARM_CM4F/portmacro.h **** /* Architecture specifics. */
  73:../../kernel/FreeRTOS/Source/portable/GCC/ARM_CM4F/portmacro.h **** #define portSTACK_GROWTH			( -1 )
  74:../../kernel/FreeRTOS/Source/portable/GCC/ARM_CM4F/portmacro.h **** #define portTICK_PERIOD_MS			( ( TickType_t ) 1000 / configTICK_RATE_HZ )
  75:../../kernel/FreeRTOS/Source/portable/GCC/ARM_CM4F/portmacro.h **** #define portBYTE_ALIGNMENT			8
  76:../../kernel/FreeRTOS/Source/portable/GCC/ARM_CM4F/portmacro.h **** /*-----------------------------------------------------------*/
  77:../../kernel/FreeRTOS/Source/portable/GCC/ARM_CM4F/portmacro.h **** 
  78:../../kernel/FreeRTOS/Source/portable/GCC/ARM_CM4F/portmacro.h **** /* Scheduler utilities. */
  79:../../kernel/FreeRTOS/Source/portable/GCC/ARM_CM4F/portmacro.h **** #define portYIELD() 															\
  80:../../kernel/FreeRTOS/Source/portable/GCC/ARM_CM4F/portmacro.h **** {																				\
  81:../../kernel/FreeRTOS/Source/portable/GCC/ARM_CM4F/portmacro.h **** 	/* Set a PendSV to request a context switch. */								\
  82:../../kernel/FreeRTOS/Source/portable/GCC/ARM_CM4F/portmacro.h **** 	portNVIC_INT_CTRL_REG = portNVIC_PENDSVSET_BIT;								\
  83:../../kernel/FreeRTOS/Source/portable/GCC/ARM_CM4F/portmacro.h **** 																				\
  84:../../kernel/FreeRTOS/Source/portable/GCC/ARM_CM4F/portmacro.h **** 	/* Barriers are normally not required but do ensure the code is completely	\
  85:../../kernel/FreeRTOS/Source/portable/GCC/ARM_CM4F/portmacro.h **** 	within the specified behaviour for the architecture. */						\
  86:../../kernel/FreeRTOS/Source/portable/GCC/ARM_CM4F/portmacro.h **** 	__asm volatile( "dsb" ::: "memory" );										\
  87:../../kernel/FreeRTOS/Source/portable/GCC/ARM_CM4F/portmacro.h **** 	__asm volatile( "isb" );													\
  88:../../kernel/FreeRTOS/Source/portable/GCC/ARM_CM4F/portmacro.h **** }
  89:../../kernel/FreeRTOS/Source/portable/GCC/ARM_CM4F/portmacro.h **** 
  90:../../kernel/FreeRTOS/Source/portable/GCC/ARM_CM4F/portmacro.h **** #define portNVIC_INT_CTRL_REG		( * ( ( volatile uint32_t * ) 0xe000ed04 ) )
  91:../../kernel/FreeRTOS/Source/portable/GCC/ARM_CM4F/portmacro.h **** #define portNVIC_PENDSVSET_BIT		( 1UL << 28UL )
  92:../../kernel/FreeRTOS/Source/portable/GCC/ARM_CM4F/portmacro.h **** #define portEND_SWITCHING_ISR( xSwitchRequired ) if( xSwitchRequired != pdFALSE ) portYIELD()
  93:../../kernel/FreeRTOS/Source/portable/GCC/ARM_CM4F/portmacro.h **** #define portYIELD_FROM_ISR( x ) portEND_SWITCHING_ISR( x )
  94:../../kernel/FreeRTOS/Source/portable/GCC/ARM_CM4F/portmacro.h **** /*-----------------------------------------------------------*/
  95:../../kernel/FreeRTOS/Source/portable/GCC/ARM_CM4F/portmacro.h **** 
  96:../../kernel/FreeRTOS/Source/portable/GCC/ARM_CM4F/portmacro.h **** /* Critical section management. */
  97:../../kernel/FreeRTOS/Source/portable/GCC/ARM_CM4F/portmacro.h **** extern void vPortEnterCritical( void );
ARM GAS  /tmp/ccPKyamx.s 			page 15


  98:../../kernel/FreeRTOS/Source/portable/GCC/ARM_CM4F/portmacro.h **** extern void vPortExitCritical( void );
  99:../../kernel/FreeRTOS/Source/portable/GCC/ARM_CM4F/portmacro.h **** #define portSET_INTERRUPT_MASK_FROM_ISR()		ulPortRaiseBASEPRI()
 100:../../kernel/FreeRTOS/Source/portable/GCC/ARM_CM4F/portmacro.h **** #define portCLEAR_INTERRUPT_MASK_FROM_ISR(x)	vPortSetBASEPRI(x)
 101:../../kernel/FreeRTOS/Source/portable/GCC/ARM_CM4F/portmacro.h **** #define portDISABLE_INTERRUPTS()				vPortRaiseBASEPRI()
 102:../../kernel/FreeRTOS/Source/portable/GCC/ARM_CM4F/portmacro.h **** #define portENABLE_INTERRUPTS()					vPortSetBASEPRI(0)
 103:../../kernel/FreeRTOS/Source/portable/GCC/ARM_CM4F/portmacro.h **** #define portENTER_CRITICAL()					vPortEnterCritical()
 104:../../kernel/FreeRTOS/Source/portable/GCC/ARM_CM4F/portmacro.h **** #define portEXIT_CRITICAL()						vPortExitCritical()
 105:../../kernel/FreeRTOS/Source/portable/GCC/ARM_CM4F/portmacro.h **** 
 106:../../kernel/FreeRTOS/Source/portable/GCC/ARM_CM4F/portmacro.h **** /*-----------------------------------------------------------*/
 107:../../kernel/FreeRTOS/Source/portable/GCC/ARM_CM4F/portmacro.h **** 
 108:../../kernel/FreeRTOS/Source/portable/GCC/ARM_CM4F/portmacro.h **** /* Task function macros as described on the FreeRTOS.org WEB site.  These are
 109:../../kernel/FreeRTOS/Source/portable/GCC/ARM_CM4F/portmacro.h **** not necessary for to use this port.  They are defined so the common demo files
 110:../../kernel/FreeRTOS/Source/portable/GCC/ARM_CM4F/portmacro.h **** (which build with all the ports) will build. */
 111:../../kernel/FreeRTOS/Source/portable/GCC/ARM_CM4F/portmacro.h **** #define portTASK_FUNCTION_PROTO( vFunction, pvParameters ) void vFunction( void *pvParameters )
 112:../../kernel/FreeRTOS/Source/portable/GCC/ARM_CM4F/portmacro.h **** #define portTASK_FUNCTION( vFunction, pvParameters ) void vFunction( void *pvParameters )
 113:../../kernel/FreeRTOS/Source/portable/GCC/ARM_CM4F/portmacro.h **** /*-----------------------------------------------------------*/
 114:../../kernel/FreeRTOS/Source/portable/GCC/ARM_CM4F/portmacro.h **** 
 115:../../kernel/FreeRTOS/Source/portable/GCC/ARM_CM4F/portmacro.h **** /* Tickless idle/low power functionality. */
 116:../../kernel/FreeRTOS/Source/portable/GCC/ARM_CM4F/portmacro.h **** #ifndef portSUPPRESS_TICKS_AND_SLEEP
 117:../../kernel/FreeRTOS/Source/portable/GCC/ARM_CM4F/portmacro.h **** 	extern void vPortSuppressTicksAndSleep( TickType_t xExpectedIdleTime );
 118:../../kernel/FreeRTOS/Source/portable/GCC/ARM_CM4F/portmacro.h **** 	#define portSUPPRESS_TICKS_AND_SLEEP( xExpectedIdleTime ) vPortSuppressTicksAndSleep( xExpectedIdl
 119:../../kernel/FreeRTOS/Source/portable/GCC/ARM_CM4F/portmacro.h **** #endif
 120:../../kernel/FreeRTOS/Source/portable/GCC/ARM_CM4F/portmacro.h **** /*-----------------------------------------------------------*/
 121:../../kernel/FreeRTOS/Source/portable/GCC/ARM_CM4F/portmacro.h **** 
 122:../../kernel/FreeRTOS/Source/portable/GCC/ARM_CM4F/portmacro.h **** /* Architecture specific optimisations. */
 123:../../kernel/FreeRTOS/Source/portable/GCC/ARM_CM4F/portmacro.h **** #ifndef configUSE_PORT_OPTIMISED_TASK_SELECTION
 124:../../kernel/FreeRTOS/Source/portable/GCC/ARM_CM4F/portmacro.h **** 	#define configUSE_PORT_OPTIMISED_TASK_SELECTION 1
 125:../../kernel/FreeRTOS/Source/portable/GCC/ARM_CM4F/portmacro.h **** #endif
 126:../../kernel/FreeRTOS/Source/portable/GCC/ARM_CM4F/portmacro.h **** 
 127:../../kernel/FreeRTOS/Source/portable/GCC/ARM_CM4F/portmacro.h **** #if configUSE_PORT_OPTIMISED_TASK_SELECTION == 1
 128:../../kernel/FreeRTOS/Source/portable/GCC/ARM_CM4F/portmacro.h **** 
 129:../../kernel/FreeRTOS/Source/portable/GCC/ARM_CM4F/portmacro.h **** 	/* Generic helper function. */
 130:../../kernel/FreeRTOS/Source/portable/GCC/ARM_CM4F/portmacro.h **** 	__attribute__( ( always_inline ) ) static inline uint8_t ucPortCountLeadingZeros( uint32_t ulBitma
 131:../../kernel/FreeRTOS/Source/portable/GCC/ARM_CM4F/portmacro.h **** 	{
 132:../../kernel/FreeRTOS/Source/portable/GCC/ARM_CM4F/portmacro.h **** 	uint8_t ucReturn;
 133:../../kernel/FreeRTOS/Source/portable/GCC/ARM_CM4F/portmacro.h **** 
 134:../../kernel/FreeRTOS/Source/portable/GCC/ARM_CM4F/portmacro.h **** 		__asm volatile ( "clz %0, %1" : "=r" ( ucReturn ) : "r" ( ulBitmap ) : "memory" );
 135:../../kernel/FreeRTOS/Source/portable/GCC/ARM_CM4F/portmacro.h **** 		return ucReturn;
 136:../../kernel/FreeRTOS/Source/portable/GCC/ARM_CM4F/portmacro.h **** 	}
 137:../../kernel/FreeRTOS/Source/portable/GCC/ARM_CM4F/portmacro.h **** 
 138:../../kernel/FreeRTOS/Source/portable/GCC/ARM_CM4F/portmacro.h **** 	/* Check the configuration. */
 139:../../kernel/FreeRTOS/Source/portable/GCC/ARM_CM4F/portmacro.h **** 	#if( configMAX_PRIORITIES > 32 )
 140:../../kernel/FreeRTOS/Source/portable/GCC/ARM_CM4F/portmacro.h **** 		#error configUSE_PORT_OPTIMISED_TASK_SELECTION can only be set to 1 when configMAX_PRIORITIES is 
 141:../../kernel/FreeRTOS/Source/portable/GCC/ARM_CM4F/portmacro.h **** 	#endif
 142:../../kernel/FreeRTOS/Source/portable/GCC/ARM_CM4F/portmacro.h **** 
 143:../../kernel/FreeRTOS/Source/portable/GCC/ARM_CM4F/portmacro.h **** 	/* Store/clear the ready priorities in a bit map. */
 144:../../kernel/FreeRTOS/Source/portable/GCC/ARM_CM4F/portmacro.h **** 	#define portRECORD_READY_PRIORITY( uxPriority, uxReadyPriorities ) ( uxReadyPriorities ) |= ( 1UL 
 145:../../kernel/FreeRTOS/Source/portable/GCC/ARM_CM4F/portmacro.h **** 	#define portRESET_READY_PRIORITY( uxPriority, uxReadyPriorities ) ( uxReadyPriorities ) &= ~( 1UL 
 146:../../kernel/FreeRTOS/Source/portable/GCC/ARM_CM4F/portmacro.h **** 
 147:../../kernel/FreeRTOS/Source/portable/GCC/ARM_CM4F/portmacro.h **** 	/*-----------------------------------------------------------*/
 148:../../kernel/FreeRTOS/Source/portable/GCC/ARM_CM4F/portmacro.h **** 
 149:../../kernel/FreeRTOS/Source/portable/GCC/ARM_CM4F/portmacro.h **** 	#define portGET_HIGHEST_PRIORITY( uxTopPriority, uxReadyPriorities ) uxTopPriority = ( 31UL - ( ui
 150:../../kernel/FreeRTOS/Source/portable/GCC/ARM_CM4F/portmacro.h **** 
 151:../../kernel/FreeRTOS/Source/portable/GCC/ARM_CM4F/portmacro.h **** #endif /* configUSE_PORT_OPTIMISED_TASK_SELECTION */
 152:../../kernel/FreeRTOS/Source/portable/GCC/ARM_CM4F/portmacro.h **** 
 153:../../kernel/FreeRTOS/Source/portable/GCC/ARM_CM4F/portmacro.h **** /*-----------------------------------------------------------*/
 154:../../kernel/FreeRTOS/Source/portable/GCC/ARM_CM4F/portmacro.h **** 
ARM GAS  /tmp/ccPKyamx.s 			page 16


 155:../../kernel/FreeRTOS/Source/portable/GCC/ARM_CM4F/portmacro.h **** #ifdef configASSERT
 156:../../kernel/FreeRTOS/Source/portable/GCC/ARM_CM4F/portmacro.h **** 	void vPortValidateInterruptPriority( void );
 157:../../kernel/FreeRTOS/Source/portable/GCC/ARM_CM4F/portmacro.h **** 	#define portASSERT_IF_INTERRUPT_PRIORITY_INVALID() 	vPortValidateInterruptPriority()
 158:../../kernel/FreeRTOS/Source/portable/GCC/ARM_CM4F/portmacro.h **** #endif
 159:../../kernel/FreeRTOS/Source/portable/GCC/ARM_CM4F/portmacro.h **** 
 160:../../kernel/FreeRTOS/Source/portable/GCC/ARM_CM4F/portmacro.h **** /* portNOP() is not required by this port. */
 161:../../kernel/FreeRTOS/Source/portable/GCC/ARM_CM4F/portmacro.h **** #define portNOP()
 162:../../kernel/FreeRTOS/Source/portable/GCC/ARM_CM4F/portmacro.h **** 
 163:../../kernel/FreeRTOS/Source/portable/GCC/ARM_CM4F/portmacro.h **** #define portINLINE	__inline
 164:../../kernel/FreeRTOS/Source/portable/GCC/ARM_CM4F/portmacro.h **** 
 165:../../kernel/FreeRTOS/Source/portable/GCC/ARM_CM4F/portmacro.h **** #ifndef portFORCE_INLINE
 166:../../kernel/FreeRTOS/Source/portable/GCC/ARM_CM4F/portmacro.h **** 	#define portFORCE_INLINE inline __attribute__(( always_inline))
 167:../../kernel/FreeRTOS/Source/portable/GCC/ARM_CM4F/portmacro.h **** #endif
 168:../../kernel/FreeRTOS/Source/portable/GCC/ARM_CM4F/portmacro.h **** 
 169:../../kernel/FreeRTOS/Source/portable/GCC/ARM_CM4F/portmacro.h **** portFORCE_INLINE static BaseType_t xPortIsInsideInterrupt( void )
 170:../../kernel/FreeRTOS/Source/portable/GCC/ARM_CM4F/portmacro.h **** {
 171:../../kernel/FreeRTOS/Source/portable/GCC/ARM_CM4F/portmacro.h **** uint32_t ulCurrentInterrupt;
 172:../../kernel/FreeRTOS/Source/portable/GCC/ARM_CM4F/portmacro.h **** BaseType_t xReturn;
 173:../../kernel/FreeRTOS/Source/portable/GCC/ARM_CM4F/portmacro.h **** 
 174:../../kernel/FreeRTOS/Source/portable/GCC/ARM_CM4F/portmacro.h **** 	/* Obtain the number of the currently executing interrupt. */
 175:../../kernel/FreeRTOS/Source/portable/GCC/ARM_CM4F/portmacro.h **** 	__asm volatile( "mrs %0, ipsr" : "=r"( ulCurrentInterrupt ) :: "memory" );
 176:../../kernel/FreeRTOS/Source/portable/GCC/ARM_CM4F/portmacro.h **** 
 177:../../kernel/FreeRTOS/Source/portable/GCC/ARM_CM4F/portmacro.h **** 	if( ulCurrentInterrupt == 0 )
 178:../../kernel/FreeRTOS/Source/portable/GCC/ARM_CM4F/portmacro.h **** 	{
 179:../../kernel/FreeRTOS/Source/portable/GCC/ARM_CM4F/portmacro.h **** 		xReturn = pdFALSE;
 180:../../kernel/FreeRTOS/Source/portable/GCC/ARM_CM4F/portmacro.h **** 	}
 181:../../kernel/FreeRTOS/Source/portable/GCC/ARM_CM4F/portmacro.h **** 	else
 182:../../kernel/FreeRTOS/Source/portable/GCC/ARM_CM4F/portmacro.h **** 	{
 183:../../kernel/FreeRTOS/Source/portable/GCC/ARM_CM4F/portmacro.h **** 		xReturn = pdTRUE;
 184:../../kernel/FreeRTOS/Source/portable/GCC/ARM_CM4F/portmacro.h **** 	}
 185:../../kernel/FreeRTOS/Source/portable/GCC/ARM_CM4F/portmacro.h **** 
 186:../../kernel/FreeRTOS/Source/portable/GCC/ARM_CM4F/portmacro.h **** 	return xReturn;
 187:../../kernel/FreeRTOS/Source/portable/GCC/ARM_CM4F/portmacro.h **** }
 188:../../kernel/FreeRTOS/Source/portable/GCC/ARM_CM4F/portmacro.h **** 
 189:../../kernel/FreeRTOS/Source/portable/GCC/ARM_CM4F/portmacro.h **** /*-----------------------------------------------------------*/
 190:../../kernel/FreeRTOS/Source/portable/GCC/ARM_CM4F/portmacro.h **** 
 191:../../kernel/FreeRTOS/Source/portable/GCC/ARM_CM4F/portmacro.h **** portFORCE_INLINE static void vPortRaiseBASEPRI( void )
 441              		.loc 2 191 30 view .LVU83
 442              	.LBB5:
 192:../../kernel/FreeRTOS/Source/portable/GCC/ARM_CM4F/portmacro.h **** {
 193:../../kernel/FreeRTOS/Source/portable/GCC/ARM_CM4F/portmacro.h **** uint32_t ulNewBASEPRI;
 443              		.loc 2 193 1 view .LVU84
 194:../../kernel/FreeRTOS/Source/portable/GCC/ARM_CM4F/portmacro.h **** 
 195:../../kernel/FreeRTOS/Source/portable/GCC/ARM_CM4F/portmacro.h **** 	__asm volatile
 444              		.loc 2 195 2 view .LVU85
 445              		.syntax unified
 446              	@ 195 "../../kernel/FreeRTOS/Source/portable/GCC/ARM_CM4F/portmacro.h" 1
 447 0028 4FF0A003 			mov r3, #160													@ ulNewBASEPRI,
 448 002c 83F31188 		msr basepri, r3												@ ulNewBASEPRI
 449 0030 BFF36F8F 		isb														
 450 0034 BFF34F8F 		dsb														
 451              	
 452              	@ 0 "" 2
 453              	.LVL32:
 454              		.thumb
 455              		.syntax unified
 456              	.L31:
ARM GAS  /tmp/ccPKyamx.s 			page 17


 457              		.loc 2 195 2 is_stmt 0 view .LVU86
 458              	.LBE5:
 459              	.LBE4:
  93:../../kernel/FreeRTOS-Plus/Demo/Common/FreeRTOS_Plus_CLI_Demos/UARTCommandConsole.c **** 
 460              		.loc 1 93 2 is_stmt 1 discriminator 1 view .LVU87
  93:../../kernel/FreeRTOS-Plus/Demo/Common/FreeRTOS_Plus_CLI_Demos/UARTCommandConsole.c **** 
 461              		.loc 1 93 2 discriminator 1 view .LVU88
  93:../../kernel/FreeRTOS-Plus/Demo/Common/FreeRTOS_Plus_CLI_Demos/UARTCommandConsole.c **** 
 462              		.loc 1 93 2 discriminator 1 view .LVU89
  93:../../kernel/FreeRTOS-Plus/Demo/Common/FreeRTOS_Plus_CLI_Demos/UARTCommandConsole.c **** 
 463              		.loc 1 93 2 discriminator 1 view .LVU90
 464 0038 FEE7     		b	.L31		@
 465              	.L35:
 466 003a 00BF     		.align	2
 467              	.L34:
 468 003c 00000000 		.word	.LANCHOR0
 469 0040 00000000 		.word	.LC3
 470 0044 00000000 		.word	prvUARTCommandConsoleTask
 471              		.cfi_endproc
 472              	.LFE7:
 473              		.size	vUARTCommandConsoleStart, .-vUARTCommandConsoleStart
 474              		.section	.text.vOutputString,"ax",%progbits
 475              		.align	1
 476              		.p2align 2,,3
 477              		.global	vOutputString
 478              		.syntax unified
 479              		.thumb
 480              		.thumb_func
 481              		.fpu fpv4-sp-d16
 482              		.type	vOutputString, %function
 483              	vOutputString:
 484              	.LVL33:
 485              	.LFB9:
 210:../../kernel/FreeRTOS-Plus/Demo/Common/FreeRTOS_Plus_CLI_Demos/UARTCommandConsole.c **** 		}
 211:../../kernel/FreeRTOS-Plus/Demo/Common/FreeRTOS_Plus_CLI_Demos/UARTCommandConsole.c **** 	}
 212:../../kernel/FreeRTOS-Plus/Demo/Common/FreeRTOS_Plus_CLI_Demos/UARTCommandConsole.c **** }
 213:../../kernel/FreeRTOS-Plus/Demo/Common/FreeRTOS_Plus_CLI_Demos/UARTCommandConsole.c **** /*-----------------------------------------------------------*/
 214:../../kernel/FreeRTOS-Plus/Demo/Common/FreeRTOS_Plus_CLI_Demos/UARTCommandConsole.c **** 
 215:../../kernel/FreeRTOS-Plus/Demo/Common/FreeRTOS_Plus_CLI_Demos/UARTCommandConsole.c **** void vOutputString( const char * const pcMessage )
 216:../../kernel/FreeRTOS-Plus/Demo/Common/FreeRTOS_Plus_CLI_Demos/UARTCommandConsole.c **** {
 486              		.loc 1 216 1 view -0
 487              		.cfi_startproc
 488              		@ args = 0, pretend = 0, frame = 0
 489              		@ frame_needed = 0, uses_anonymous_args = 0
 217:../../kernel/FreeRTOS-Plus/Demo/Common/FreeRTOS_Plus_CLI_Demos/UARTCommandConsole.c **** 	if( xSemaphoreTake( xTxMutex, cmdMAX_MUTEX_WAIT ) == pdPASS )
 490              		.loc 1 217 2 view .LVU92
 491              	@ ../../kernel/FreeRTOS-Plus/Demo/Common/FreeRTOS_Plus_CLI_Demos/UARTCommandConsole.c:216: {
 216:../../kernel/FreeRTOS-Plus/Demo/Common/FreeRTOS_Plus_CLI_Demos/UARTCommandConsole.c **** 	if( xSemaphoreTake( xTxMutex, cmdMAX_MUTEX_WAIT ) == pdPASS )
 492              		.loc 1 216 1 is_stmt 0 view .LVU93
 493 0000 70B5     		push	{r4, r5, r6, lr}	@
 494              		.cfi_def_cfa_offset 16
 495              		.cfi_offset 4, -16
 496              		.cfi_offset 5, -12
 497              		.cfi_offset 6, -8
 498              		.cfi_offset 14, -4
 499              	@ ../../kernel/FreeRTOS-Plus/Demo/Common/FreeRTOS_Plus_CLI_Demos/UARTCommandConsole.c:217: 	if( xSe
 500              		.loc 1 217 6 view .LVU94
ARM GAS  /tmp/ccPKyamx.s 			page 18


 501 0002 0D4C     		ldr	r4, .L40	@ tmp116,
 502              	@ ../../kernel/FreeRTOS-Plus/Demo/Common/FreeRTOS_Plus_CLI_Demos/UARTCommandConsole.c:216: {
 216:../../kernel/FreeRTOS-Plus/Demo/Common/FreeRTOS_Plus_CLI_Demos/UARTCommandConsole.c **** 	if( xSemaphoreTake( xTxMutex, cmdMAX_MUTEX_WAIT ) == pdPASS )
 503              		.loc 1 216 1 view .LVU95
 504 0004 0546     		mov	r5, r0	@ pcMessage, pcMessage
 505              	@ ../../kernel/FreeRTOS-Plus/Demo/Common/FreeRTOS_Plus_CLI_Demos/UARTCommandConsole.c:217: 	if( xSe
 506              		.loc 1 217 6 view .LVU96
 507 0006 4FF49671 		mov	r1, #300	@,
 508 000a 2068     		ldr	r0, [r4]	@, xTxMutex
 509              	.LVL34:
 510              		.loc 1 217 6 view .LVU97
 511 000c FFF7FEFF 		bl	xQueueSemaphoreTake		@
 512              	.LVL35:
 513              	@ ../../kernel/FreeRTOS-Plus/Demo/Common/FreeRTOS_Plus_CLI_Demos/UARTCommandConsole.c:217: 	if( xSe
 514              		.loc 1 217 4 view .LVU98
 515 0010 0128     		cmp	r0, #1	@,
 516 0012 00D0     		beq	.L39		@,
 517              	@ ../../kernel/FreeRTOS-Plus/Demo/Common/FreeRTOS_Plus_CLI_Demos/UARTCommandConsole.c:222: }
 218:../../kernel/FreeRTOS-Plus/Demo/Common/FreeRTOS_Plus_CLI_Demos/UARTCommandConsole.c **** 	{
 219:../../kernel/FreeRTOS-Plus/Demo/Common/FreeRTOS_Plus_CLI_Demos/UARTCommandConsole.c **** 		vSerialPutString( xPort, ( signed char * ) pcMessage, ( unsigned short ) strlen( pcMessage ) );
 220:../../kernel/FreeRTOS-Plus/Demo/Common/FreeRTOS_Plus_CLI_Demos/UARTCommandConsole.c **** 		xSemaphoreGive( xTxMutex );
 221:../../kernel/FreeRTOS-Plus/Demo/Common/FreeRTOS_Plus_CLI_Demos/UARTCommandConsole.c **** 	}
 222:../../kernel/FreeRTOS-Plus/Demo/Common/FreeRTOS_Plus_CLI_Demos/UARTCommandConsole.c **** }
 518              		.loc 1 222 1 view .LVU99
 519 0014 70BD     		pop	{r4, r5, r6, pc}	@
 520              	.LVL36:
 521              	.L39:
 219:../../kernel/FreeRTOS-Plus/Demo/Common/FreeRTOS_Plus_CLI_Demos/UARTCommandConsole.c **** 		xSemaphoreGive( xTxMutex );
 522              		.loc 1 219 3 is_stmt 1 view .LVU100
 523              	@ ../../kernel/FreeRTOS-Plus/Demo/Common/FreeRTOS_Plus_CLI_Demos/UARTCommandConsole.c:219: 		vSeria
 219:../../kernel/FreeRTOS-Plus/Demo/Common/FreeRTOS_Plus_CLI_Demos/UARTCommandConsole.c **** 		xSemaphoreGive( xTxMutex );
 524              		.loc 1 219 76 is_stmt 0 view .LVU101
 525 0016 2846     		mov	r0, r5	@, pcMessage
 526 0018 FFF7FEFF 		bl	strlen		@
 527              	.LVL37:
 528              	@ ../../kernel/FreeRTOS-Plus/Demo/Common/FreeRTOS_Plus_CLI_Demos/UARTCommandConsole.c:219: 		vSeria
 219:../../kernel/FreeRTOS-Plus/Demo/Common/FreeRTOS_Plus_CLI_Demos/UARTCommandConsole.c **** 		xSemaphoreGive( xTxMutex );
 529              		.loc 1 219 3 view .LVU102
 530 001c 2946     		mov	r1, r5	@, pcMessage
 531 001e 82B2     		uxth	r2, r0	@,
 532 0020 0020     		movs	r0, #0	@,
 533 0022 FFF7FEFF 		bl	vSerialPutString		@
 534              	.LVL38:
 220:../../kernel/FreeRTOS-Plus/Demo/Common/FreeRTOS_Plus_CLI_Demos/UARTCommandConsole.c **** 	}
 535              		.loc 1 220 3 is_stmt 1 view .LVU103
 536 0026 0023     		movs	r3, #0	@,
 537 0028 2068     		ldr	r0, [r4]	@, xTxMutex
 538 002a 1A46     		mov	r2, r3	@,
 539 002c 1946     		mov	r1, r3	@,
 540              	@ ../../kernel/FreeRTOS-Plus/Demo/Common/FreeRTOS_Plus_CLI_Demos/UARTCommandConsole.c:222: }
 541              		.loc 1 222 1 is_stmt 0 view .LVU104
 542 002e BDE87040 		pop	{r4, r5, r6, lr}	@
 543              		.cfi_restore 14
 544              		.cfi_restore 6
 545              		.cfi_restore 5
 546              		.cfi_restore 4
 547              		.cfi_def_cfa_offset 0
ARM GAS  /tmp/ccPKyamx.s 			page 19


 548              	.LVL39:
 549              	@ ../../kernel/FreeRTOS-Plus/Demo/Common/FreeRTOS_Plus_CLI_Demos/UARTCommandConsole.c:220: 		xSemap
 220:../../kernel/FreeRTOS-Plus/Demo/Common/FreeRTOS_Plus_CLI_Demos/UARTCommandConsole.c **** 	}
 550              		.loc 1 220 3 view .LVU105
 551 0032 FFF7FEBF 		b	xQueueGenericSend		@
 552              	.LVL40:
 553              	.L41:
 554 0036 00BF     		.align	2
 555              	.L40:
 556 0038 00000000 		.word	.LANCHOR0
 557              		.cfi_endproc
 558              	.LFE9:
 559              		.size	vOutputString, .-vOutputString
 560              		.section	.bss.cInputString.7364,"aw",%nobits
 561              		.align	2
 562              		.set	.LANCHOR2,. + 0
 563              		.type	cInputString.7364, %object
 564              		.size	cInputString.7364, 50
 565              	cInputString.7364:
 566 0000 00000000 		.space	50
 566      00000000 
 566      00000000 
 566      00000000 
 566      00000000 
 567              		.section	.bss.cLastInputString.7365,"aw",%nobits
 568              		.align	2
 569              		.set	.LANCHOR1,. + 0
 570              		.type	cLastInputString.7365, %object
 571              		.size	cLastInputString.7365, 50
 572              	cLastInputString.7365:
 573 0000 00000000 		.space	50
 573      00000000 
 573      00000000 
 573      00000000 
 573      00000000 
 574              		.section	.bss.xTxMutex,"aw",%nobits
 575              		.align	2
 576              		.set	.LANCHOR0,. + 0
 577              		.type	xTxMutex, %object
 578              		.size	xTxMutex, 4
 579              	xTxMutex:
 580 0000 00000000 		.space	4
 581              		.section	.rodata.prvUARTCommandConsoleTask.str1.4,"aMS",%progbits,1
 582              		.align	2
 583              	.LC0:
 584 0000 46726565 		.ascii	"FreeRTOS command server.\015\012Type Help to view a"
 584      52544F53 
 584      20636F6D 
 584      6D616E64 
 584      20736572 
 585 002d 206C6973 		.ascii	" list of registered commands.\015\012\015\012>\000"
 585      74206F66 
 585      20726567 
 585      69737465 
 585      72656420 
 586              	.LC1:
 587 0050 0D0A00   		.ascii	"\015\012\000"
ARM GAS  /tmp/ccPKyamx.s 			page 20


 588 0053 00       		.space	1
 589              	.LC2:
 590 0054 0D0A5B50 		.ascii	"\015\012[Press ENTER to execute the previous comman"
 590      72657373 
 590      20454E54 
 590      45522074 
 590      6F206578 
 591 0081 64206167 		.ascii	"d again]\015\012>\000"
 591      61696E5D 
 591      0D0A3E00 
 592              		.section	.rodata.vUARTCommandConsoleStart.str1.4,"aMS",%progbits,1
 593              		.align	2
 594              	.LC3:
 595 0000 434C4900 		.ascii	"CLI\000"
 596              		.text
 597              	.Letext0:
 598              		.file 3 "/home/gu/code/freeRTOS10/vendor/mstar/CM4/tools/gcc-arm-none-eabi-8-2018-q4-major/arm-non
 599              		.file 4 "/home/gu/code/freeRTOS10/vendor/mstar/CM4/tools/gcc-arm-none-eabi-8-2018-q4-major/arm-non
 600              		.file 5 "/home/gu/code/freeRTOS10/vendor/mstar/CM4/tools/gcc-arm-none-eabi-8-2018-q4-major/arm-non
 601              		.file 6 "/home/gu/code/freeRTOS10/vendor/mstar/CM4/tools/gcc-arm-none-eabi-8-2018-q4-major/lib/gcc
 602              		.file 7 "/home/gu/code/freeRTOS10/vendor/mstar/CM4/tools/gcc-arm-none-eabi-8-2018-q4-major/arm-non
 603              		.file 8 "/home/gu/code/freeRTOS10/vendor/mstar/CM4/tools/gcc-arm-none-eabi-8-2018-q4-major/arm-non
 604              		.file 9 "../../kernel/FreeRTOS/Source/include/queue.h"
 605              		.file 10 "../../kernel/FreeRTOS/Source/include/semphr.h"
 606              		.file 11 "../../kernel/FreeRTOS/Demo/Common/include/serial.h"
 607              		.file 12 "/home/gu/code/freeRTOS10/vendor/mstar/CM4/tools/gcc-arm-none-eabi-8-2018-q4-major/arm-no
 608              		.file 13 "../../kernel/FreeRTOS-Plus/Source/FreeRTOS-Plus-CLI/FreeRTOS_CLI.h"
 609              		.file 14 "../../kernel/FreeRTOS/Source/include/task.h"
 610              		.file 15 "<built-in>"